(dp1
S'output'
p2
S'<type \'exceptions.IOError\'> Error reading file \'applications/grammateus3/static/docs/22.xml\': failed to load external entity "applications/grammateus3/static/docs/22.xml"'
p3
sS'layer'
p4
S'/home/ian/web/web2py/applications/grammateus3/controllers/docs.py'
p5
sS'code'
p6
S'# coding: utf8\nfrom lxml import etree\n\nfrom parse import BookParser\n\nimport pprint\nimport inspect\n\nimport re\n\n"""\nList of session objects used in text display:\nsession.filename\nsession.info -- dict; parsed results of BookParser class for current doc\nsession.title -- string; title of current doc\nsession.versions -- list; names of all versions in current doc\n"""\n\ndef index():\n    filename = request.args[0]\n    return dict(filename = filename)\n\ndef text():\n    filename = request.args[0]\n    #TODO: provide fallback and prompt if no filename is given in url\n    \n    #url to pass to web2py load helper in view to load doc section via ajax\n    load_url = URL(\'docs\', \'section.load\', args=filename)\n\n    return dict(load_url = load_url, filename = filename)\n\ndef section():\n    """\n    populates a single text pane via the section.load view (refreshable via ajax)\n    """\n    #print url input for debugging purposes\n    varlist = [(str(k) + \':\' + str(v)) for k, v in request.vars.items()]\n    print \'start of section() method with url \', request.url, varlist\n    #get filename from end of url and parse the file with BookParser class\n    filename = request.args[0]\n    print \'filename: \', filename\n    book_file = \'applications/grammateus3/static/docs/%s.xml\' % filename\n    p = BookParser(book_file)\n    info = p.book_info()\n    #get title of document\n    title = info[\'title\']\n\n    #get names of all versions of current doc and select the version to display\n    versions = [version[\'title\'] for version in info[\'versions\']]     \n    if \'version\' in request.vars:\n        current_version = request.vars[\'version\'].replace(\'_\', \' \')\n        #move selected version to top of list for selectbox\n        i = versions.index(current_version)\n        versions.insert(0, versions.pop(i))\n        print \'current version: \', current_version.replace(\' \', \'&nbsp;\')\n    else:\n        current_version = versions[0]\n        print \'current version: \', current_version.replace(\' \', \'&nbsp;\')\n\n    #find selected version in parsed text\n    for version in info[\'versions\']:\n        for k, v in version.items():\n            if k == \'title\' and v == current_version:\n                curv = version\n                vlang = curv[\'language\']\n                levels = curv[\'organisation_levels\']\n            else:\n                pass\n\n    #get list of mss\n    mslist = [k.strip() for k, v in curv[\'manuscript\'].items()]\n    print \'mslist for this version: \', mslist\n    #use the third url argument as manuscript name if present, otherwise default to first version\n    #check for \'newval\' value, indicating the version has changed\n    if \'type\' in request.vars and request.vars[\'type\'] != \'newval\':\n        current_ms = request.vars[\'type\'].replace(\'_\', \' \')\n        current_ms = current_ms.strip()\n        print \'current_ms: \', current_ms\n        #move selected text type to top of list for ms selectbox\n        i = mslist.index(current_ms)\n        mslist.insert(0, mslist.pop(i))        \n    else:\n        current_ms = mslist[0]\n        print \'current_ms: \', current_ms\n\n    #build hierarchical dict of references\n    reflist = [ref for ref, units in curv[\'text_structure\'].items()]\n\n    #build list for starting ref\n    if \'from\' in request.vars:\n        from_input = request.vars[\'from\']\n        start_sel = from_input.split(\'-\')\n        del start_sel[-1]\n        print \'using url ref\'\n    else:\n        firstref = reflist[0]\n        firstref_parts = re.split(\'[:\\.,;_-]\', firstref)\n        start_sel = [firstref_parts[l-1] for l in range(levels)]\n        print \'using default first ref\'\n\n    #build list for ending ref\n    if \'to\' in request.vars:                \n        to_input = request.vars[\'to\']\n        end_sel = to_input.split(\'-\')\n        del end_sel[-1]\n    else:\n        end_sel = start_sel\n    print \'start_sel\', start_sel\n    print \'end_sel\', end_sel\n    #gather text from units within the selected section of the doc\n    #filters the current version for only readings in the current\n    #text type\n    sel_text = []\n    print \'matching text in: \'\n    for ref, units in curv[\'text_structure\'].items():\n        ref_parts = re.split(\'[:\\.,;_-]\', ref)\n        if int(ref_parts[0]) >= int(start_sel[0]) and int(ref_parts[0]) <= int(end_sel[0]):\n                print ref_parts\n                sel_text.append(SPAN(ref, _class = \'ref\'))\n                for unit_ref, unit_val in units.items():\n                    for mss, raw_text in unit_val.items():\n                        if current_ms[-1] != \' \':\n                            current_ms += \' \'\n                        if current_ms in (mss + \' \'):\n                            if len(units) > 1:\n                                sel_text.append(A(raw_text, _class = vlang, _href=unit_ref))\n                            else:\n                                sel_text.append(SPAN(raw_text, _class = vlang))\n                        else:\n                            pass\n    for s in sel_text:\n        print s[0]\n\n    return dict(title = title, versions = versions, current_version = current_version,\n                info = info, filename = filename, mslist = mslist, sel_text = sel_text,\n                levels = levels, start_sel = start_sel, end_sel = end_sel)\n\n\ndef apparatus():\n    filename = request.args[0]\n    book_file = \'applications/grammateus3/static/docs/%s.xml\' % filename\n    p = BookParser(book_file)\n    info = p.book_info()\n\n    #if no unit has been requested, present the default message\n    if request.vars[\'called\'] == \'no\':\n        rlist = SPAN(\'Click on any blue text to display textual variants for those words. If no links are available that may mean no variants are attested or it may mean that this document does not yet have a complete textual apparatus. See the document introduction for details.\')\n    #if a unit has been requested, assemble that unit\'s readings\n    else:\n        #get current version\n        current_version = request.vars[\'version\'].replace(\'_\', \' \')\n        print \'current version: \', current_version\n\n        #find selected version in parsed text\n        for version in info[\'versions\']:\n            for k, v in version.items():\n                if k == \'title\' and v == current_version:\n                    curv = version\n                    vlang = curv[\'language\']\n\n        #find requested unit and get reading information\n        for ref, units in curv[\'text_structure\'].items():\n            for unit_ref, unit_val in units.items():\n                if unit_ref == request.vars[\'unit\']:\n                    rlist = {mss:text for k in unit_val.items()}\n\n    return dict(rlist = rlist)\n\ndef test():\n    filename = request.args[0]\n    book_file = \'applications/grammateus3/static/docs/%s.xml\' % filename\n    p = BookParser(book_file)\n    info = p.book_info()\n\n    title = info[\'title\']\n    for version in info[\'versions\']:\n        for key, value in version.items():\n            if key != \'text_structure\':\n                print \'Version\', key, \'-->\', value\n\n            else:\n                print \'Version textstructure\'\n                for ref, ref_val in value.items():\n                    for unit, unit_val in ref_val.items():\n                        for mss, mss_val in unit_val.items():\n                            print \'\\t\', ref, \'-->\', unit, \'-->\', mss, \'-->\', mss_val\n        print \'************\'\n    print\n    print\n\n    return dict(title = title, info = info)\n\nresponse._vars=response._caller(section)\n'
p7
sS'snapshot'
p8
(dp9
S'exception'
p10
(dp11
S'__getslice__'
p12
S"<method-wrapper '__getslice__' of exceptions.IOError object>"
p13
sS'__str__'
p14
S"<method-wrapper '__str__' of exceptions.IOError object>"
p15
sS'__reduce__'
p16
S'<built-in method __reduce__ of exceptions.IOError object>'
p17
sS'__dict__'
p18
S'{}'
p19
sS'__sizeof__'
p20
S'<built-in method __sizeof__ of exceptions.IOError object>'
p21
sS'__init__'
p22
S"<method-wrapper '__init__' of exceptions.IOError object>"
p23
sS'__setattr__'
p24
S"<method-wrapper '__setattr__' of exceptions.IOError object>"
p25
sS'__reduce_ex__'
p26
S'<built-in method __reduce_ex__ of exceptions.IOError object>'
p27
sS'__new__'
p28
S'<built-in method __new__ of type object>'
p29
sS'errno'
p30
S'None'
p31
sS'__format__'
p32
S'<built-in method __format__ of exceptions.IOError object>'
p33
sS'__class__'
p34
S"<type 'exceptions.IOError'>"
p35
sS'filename'
p36
S'None'
p37
sS'__doc__'
p38
S"'I/O operation failed.'"
p39
sS'__getitem__'
p40
S"<method-wrapper '__getitem__' of exceptions.IOError object>"
p41
sS'__setstate__'
p42
S'<built-in method __setstate__ of exceptions.IOError object>'
p43
sS'__getattribute__'
p44
S"<method-wrapper '__getattribute__' of exceptions.IOError object>"
p45
sS'args'
p46
S'(u\'Error reading file \\\'applications/grammateus3/...ty "applications/grammateus3/static/docs/22.xml"\',)'
p47
sS'__subclasshook__'
p48
S'<built-in method __subclasshook__ of type object>'
p49
sS'__unicode__'
p50
S'<built-in method __unicode__ of exceptions.IOError object>'
p51
sS'strerror'
p52
S'None'
p53
sS'__delattr__'
p54
S"<method-wrapper '__delattr__' of exceptions.IOError object>"
p55
sS'__repr__'
p56
S"<method-wrapper '__repr__' of exceptions.IOError object>"
p57
sS'__hash__'
p58
S"<method-wrapper '__hash__' of exceptions.IOError object>"
p59
ssS'evalue'
p60
S'Error reading file \'applications/grammateus3/static/docs/22.xml\': failed to load external entity "applications/grammateus3/static/docs/22.xml"'
p61
sS'request'
p62
ccopy_reg
_reconstructor
p63
(cgluon.html
BEAUTIFY
p64
c__builtin__
object
p65
NtRp66
(dp67
S'attributes'
p68
(dp69
sS'components'
p70
(lp71
g63
(cgluon.html
TABLE
p72
g65
NtRp73
(dp74
g68
(dp75
S'level'
p76
I5
ssS'parent'
p77
Nsg70
(lp78
g63
(cgluon.html
TR
p79
g65
NtRp80
(dp81
g68
(dp82
sg77
g73
sg70
(lp83
g63
(cgluon.html
TD
p84
g65
NtRp85
(dp86
g68
(dp87
S'_style'
p88
S'font-weight:bold;vertical-align:top'
p89
ssg77
g80
sg70
(lp90
S'ajax'
p91
asbag63
(g84
g65
NtRp92
(dp93
g68
(dp94
S'_valign'
p95
S'top'
p96
ssg77
g80
sg70
(lp97
S':'
asbag63
(g84
g65
NtRp98
(dp99
g68
(dp100
sg77
g80
sg70
(lp101
g63
(g64
g65
NtRp102
(dp103
g68
(dp104
g76
I5
ssg77
g98
sg70
(lp105
S'True'
p106
asbasbasbag63
(g79
g65
NtRp107
(dp108
g68
(dp109
sg77
g73
sg70
(lp110
g63
(g84
g65
NtRp111
(dp112
g68
(dp113
g88
g89
ssg77
g107
sg70
(lp114
S'application'
p115
asbag63
(g84
g65
NtRp116
(dp117
g68
(dp118
g95
g96
ssg77
g107
sg70
(lp119
S':'
asbag63
(g84
g65
NtRp120
(dp121
g68
(dp122
sg77
g107
sg70
(lp123
g63
(g64
g65
NtRp124
(dp125
g68
(dp126
g76
I5
ssg77
g120
sg70
(lp127
S'grammateus3'
p128
asbasbasbag63
(g79
g65
NtRp129
(dp130
g68
(dp131
sg77
g73
sg70
(lp132
g63
(g84
g65
NtRp133
(dp134
g68
(dp135
g88
g89
ssg77
g129
sg70
(lp136
g46
asbag63
(g84
g65
NtRp137
(dp138
g68
(dp139
g95
g96
ssg77
g129
sg70
(lp140
S':'
asbag63
(g84
g65
NtRp141
(dp142
g68
(dp143
sg77
g129
sg70
(lp144
g63
(g64
g65
NtRp145
(dp146
g68
(dp147
g76
I5
ssg77
g141
sg70
(lp148
g63
(g72
g65
NtRp149
(dp150
g68
(dp151
g76
I4
ssg77
Nsg70
(lp152
g63
(g79
g65
NtRp153
(dp154
g68
(dp155
sg77
g149
sg70
(lp156
g63
(g84
g65
NtRp157
(dp158
g68
(dp159
sg77
g153
sg70
(lp160
g63
(g64
g65
NtRp161
(dp162
g68
(dp163
g76
I4
ssg77
g157
sg70
(lp164
S'22'
p165
asbasbasbasbasbasbasbag63
(g79
g65
NtRp166
(dp167
g68
(dp168
sg77
g73
sg70
(lp169
g63
(g84
g65
NtRp170
(dp171
g68
(dp172
g88
g89
ssg77
g166
sg70
(lp173
S'body'
p174
asbag63
(g84
g65
NtRp175
(dp176
g68
(dp177
g95
g96
ssg77
g166
sg70
(lp178
S':'
asbag63
(g84
g65
NtRp179
(dp180
g68
(dp181
sg77
g166
sg70
(lp182
g63
(g64
g65
NtRp183
(dp184
g68
(dp185
g76
I5
ssg77
g179
sg70
(lp186
S'<cStringIO.StringO object at 0x7f61781fdf10>'
p187
asbasbasbag63
(g79
g65
NtRp188
(dp189
g68
(dp190
sg77
g73
sg70
(lp191
g63
(g84
g65
NtRp192
(dp193
g68
(dp194
g88
g89
ssg77
g188
sg70
(lp195
S'cid'
p196
asbag63
(g84
g65
NtRp197
(dp198
g68
(dp199
g95
g96
ssg77
g188
sg70
(lp200
S':'
asbag63
(g84
g65
NtRp201
(dp202
g68
(dp203
sg77
g188
sg70
(lp204
g63
(g64
g65
NtRp205
(dp206
g68
(dp207
g76
I5
ssg77
g201
sg70
(lp208
S'c994852650123'
p209
asbasbasbag63
(g79
g65
NtRp210
(dp211
g68
(dp212
sg77
g73
sg70
(lp213
g63
(g84
g65
NtRp214
(dp215
g68
(dp216
g88
g89
ssg77
g210
sg70
(lp217
S'client'
p218
asbag63
(g84
g65
NtRp219
(dp220
g68
(dp221
g95
g96
ssg77
g210
sg70
(lp222
S':'
asbag63
(g84
g65
NtRp223
(dp224
g68
(dp225
sg77
g210
sg70
(lp226
g63
(g64
g65
NtRp227
(dp228
g68
(dp229
g76
I5
ssg77
g223
sg70
(lp230
S'127.0.0.1'
p231
asbasbasbag63
(g79
g65
NtRp232
(dp233
g68
(dp234
sg77
g73
sg70
(lp235
g63
(g84
g65
NtRp236
(dp237
g68
(dp238
g88
g89
ssg77
g232
sg70
(lp239
S'controller'
p240
asbag63
(g84
g65
NtRp241
(dp242
g68
(dp243
g95
g96
ssg77
g232
sg70
(lp244
S':'
asbag63
(g84
g65
NtRp245
(dp246
g68
(dp247
sg77
g232
sg70
(lp248
g63
(g64
g65
NtRp249
(dp250
g68
(dp251
g76
I5
ssg77
g245
sg70
(lp252
S'docs'
p253
asbasbasbag63
(g79
g65
NtRp254
(dp255
g68
(dp256
sg77
g73
sg70
(lp257
g63
(g84
g65
NtRp258
(dp259
g68
(dp260
g88
g89
ssg77
g254
sg70
(lp261
S'cookies'
p262
asbag63
(g84
g65
NtRp263
(dp264
g68
(dp265
g95
g96
ssg77
g254
sg70
(lp266
S':'
asbag63
(g84
g65
NtRp267
(dp268
g68
(dp269
sg77
g254
sg70
(lp270
g63
(g64
g65
NtRp271
(dp272
g68
(dp273
g76
I5
ssg77
g267
sg70
(lp274
g63
(g72
g65
NtRp275
(dp276
g68
(dp277
g76
I4
ssg77
Nsg70
(lp278
g63
(g79
g65
NtRp279
(dp280
g68
(dp281
sg77
g275
sg70
(lp282
g63
(g84
g65
NtRp283
(dp284
g68
(dp285
g88
g89
ssg77
g279
sg70
(lp286
S'session_id_admin'
p287
asbag63
(g84
g65
NtRp288
(dp289
g68
(dp290
g95
g96
ssg77
g279
sg70
(lp291
S':'
asbag63
(g84
g65
NtRp292
(dp293
g68
(dp294
sg77
g279
sg70
(lp295
g63
(g64
g65
NtRp296
(dp297
g68
(dp298
g76
I4
ssg77
g292
sg70
(lp299
g63
(g72
g65
NtRp300
(dp301
g68
(dp302
g76
I3
ssg77
Nsg70
(lp303
g63
(g79
g65
NtRp304
(dp305
g68
(dp306
sg77
g300
sg70
(lp307
g63
(g84
g65
NtRp308
(dp309
g68
(dp310
g88
g89
ssg77
g304
sg70
(lp311
S'comment'
p312
asbag63
(g84
g65
NtRp313
(dp314
g68
(dp315
g95
g96
ssg77
g304
sg70
(lp316
S':'
asbag63
(g84
g65
NtRp317
(dp318
g68
(dp319
sg77
g304
sg70
(lp320
g63
(g64
g65
NtRp321
(dp322
g68
(dp323
g76
I3
ssg77
g317
sg70
(lp324
S''
asbasbasbag63
(g79
g65
NtRp325
(dp326
g68
(dp327
sg77
g300
sg70
(lp328
g63
(g84
g65
NtRp329
(dp330
g68
(dp331
g88
g89
ssg77
g325
sg70
(lp332
S'domain'
p333
asbag63
(g84
g65
NtRp334
(dp335
g68
(dp336
g95
g96
ssg77
g325
sg70
(lp337
S':'
asbag63
(g84
g65
NtRp338
(dp339
g68
(dp340
sg77
g325
sg70
(lp341
g63
(g64
g65
NtRp342
(dp343
g68
(dp344
g76
I3
ssg77
g338
sg70
(lp345
S''
asbasbasbag63
(g79
g65
NtRp346
(dp347
g68
(dp348
sg77
g300
sg70
(lp349
g63
(g84
g65
NtRp350
(dp351
g68
(dp352
g88
g89
ssg77
g346
sg70
(lp353
S'expires'
p354
asbag63
(g84
g65
NtRp355
(dp356
g68
(dp357
g95
g96
ssg77
g346
sg70
(lp358
S':'
asbag63
(g84
g65
NtRp359
(dp360
g68
(dp361
sg77
g346
sg70
(lp362
g63
(g64
g65
NtRp363
(dp364
g68
(dp365
g76
I3
ssg77
g359
sg70
(lp366
S''
asbasbasbag63
(g79
g65
NtRp367
(dp368
g68
(dp369
sg77
g300
sg70
(lp370
g63
(g84
g65
NtRp371
(dp372
g68
(dp373
g88
g89
ssg77
g367
sg70
(lp374
S'httponly'
p375
asbag63
(g84
g65
NtRp376
(dp377
g68
(dp378
g95
g96
ssg77
g367
sg70
(lp379
S':'
asbag63
(g84
g65
NtRp380
(dp381
g68
(dp382
sg77
g367
sg70
(lp383
g63
(g64
g65
NtRp384
(dp385
g68
(dp386
g76
I3
ssg77
g380
sg70
(lp387
S''
asbasbasbag63
(g79
g65
NtRp388
(dp389
g68
(dp390
sg77
g300
sg70
(lp391
g63
(g84
g65
NtRp392
(dp393
g68
(dp394
g88
g89
ssg77
g388
sg70
(lp395
S'max-age'
p396
asbag63
(g84
g65
NtRp397
(dp398
g68
(dp399
g95
g96
ssg77
g388
sg70
(lp400
S':'
asbag63
(g84
g65
NtRp401
(dp402
g68
(dp403
sg77
g388
sg70
(lp404
g63
(g64
g65
NtRp405
(dp406
g68
(dp407
g76
I3
ssg77
g401
sg70
(lp408
S''
asbasbasbag63
(g79
g65
NtRp409
(dp410
g68
(dp411
sg77
g300
sg70
(lp412
g63
(g84
g65
NtRp413
(dp414
g68
(dp415
g88
g89
ssg77
g409
sg70
(lp416
S'path'
p417
asbag63
(g84
g65
NtRp418
(dp419
g68
(dp420
g95
g96
ssg77
g409
sg70
(lp421
S':'
asbag63
(g84
g65
NtRp422
(dp423
g68
(dp424
sg77
g409
sg70
(lp425
g63
(g64
g65
NtRp426
(dp427
g68
(dp428
g76
I3
ssg77
g422
sg70
(lp429
S''
asbasbasbag63
(g79
g65
NtRp430
(dp431
g68
(dp432
sg77
g300
sg70
(lp433
g63
(g84
g65
NtRp434
(dp435
g68
(dp436
g88
g89
ssg77
g430
sg70
(lp437
S'secure'
p438
asbag63
(g84
g65
NtRp439
(dp440
g68
(dp441
g95
g96
ssg77
g430
sg70
(lp442
S':'
asbag63
(g84
g65
NtRp443
(dp444
g68
(dp445
sg77
g430
sg70
(lp446
g63
(g64
g65
NtRp447
(dp448
g68
(dp449
g76
I3
ssg77
g443
sg70
(lp450
S''
asbasbasbag63
(g79
g65
NtRp451
(dp452
g68
(dp453
sg77
g300
sg70
(lp454
g63
(g84
g65
NtRp455
(dp456
g68
(dp457
g88
g89
ssg77
g451
sg70
(lp458
S'version'
p459
asbag63
(g84
g65
NtRp460
(dp461
g68
(dp462
g95
g96
ssg77
g451
sg70
(lp463
S':'
asbag63
(g84
g65
NtRp464
(dp465
g68
(dp466
sg77
g451
sg70
(lp467
g63
(g64
g65
NtRp468
(dp469
g68
(dp470
g76
I3
ssg77
g464
sg70
(lp471
S''
asbasbasbasbasbasbasbag63
(g79
g65
NtRp472
(dp473
g68
(dp474
sg77
g275
sg70
(lp475
g63
(g84
g65
NtRp476
(dp477
g68
(dp478
g88
g89
ssg77
g472
sg70
(lp479
S'session_id_grammateus3'
p480
asbag63
(g84
g65
NtRp481
(dp482
g68
(dp483
g95
g96
ssg77
g472
sg70
(lp484
S':'
asbag63
(g84
g65
NtRp485
(dp486
g68
(dp487
sg77
g472
sg70
(lp488
g63
(g64
g65
NtRp489
(dp490
g68
(dp491
g76
I4
ssg77
g485
sg70
(lp492
g63
(g72
g65
NtRp493
(dp494
g68
(dp495
g76
I3
ssg77
Nsg70
(lp496
g63
(g79
g65
NtRp497
(dp498
g68
(dp499
sg77
g493
sg70
(lp500
g63
(g84
g65
NtRp501
(dp502
g68
(dp503
g88
g89
ssg77
g497
sg70
(lp504
g312
asbag63
(g84
g65
NtRp505
(dp506
g68
(dp507
g95
g96
ssg77
g497
sg70
(lp508
S':'
asbag63
(g84
g65
NtRp509
(dp510
g68
(dp511
sg77
g497
sg70
(lp512
g63
(g64
g65
NtRp513
(dp514
g68
(dp515
g76
I3
ssg77
g509
sg70
(lp516
S''
asbasbasbag63
(g79
g65
NtRp517
(dp518
g68
(dp519
sg77
g493
sg70
(lp520
g63
(g84
g65
NtRp521
(dp522
g68
(dp523
g88
g89
ssg77
g517
sg70
(lp524
g333
asbag63
(g84
g65
NtRp525
(dp526
g68
(dp527
g95
g96
ssg77
g517
sg70
(lp528
S':'
asbag63
(g84
g65
NtRp529
(dp530
g68
(dp531
sg77
g517
sg70
(lp532
g63
(g64
g65
NtRp533
(dp534
g68
(dp535
g76
I3
ssg77
g529
sg70
(lp536
S''
asbasbasbag63
(g79
g65
NtRp537
(dp538
g68
(dp539
sg77
g493
sg70
(lp540
g63
(g84
g65
NtRp541
(dp542
g68
(dp543
g88
g89
ssg77
g537
sg70
(lp544
g354
asbag63
(g84
g65
NtRp545
(dp546
g68
(dp547
g95
g96
ssg77
g537
sg70
(lp548
S':'
asbag63
(g84
g65
NtRp549
(dp550
g68
(dp551
sg77
g537
sg70
(lp552
g63
(g64
g65
NtRp553
(dp554
g68
(dp555
g76
I3
ssg77
g549
sg70
(lp556
S''
asbasbasbag63
(g79
g65
NtRp557
(dp558
g68
(dp559
sg77
g493
sg70
(lp560
g63
(g84
g65
NtRp561
(dp562
g68
(dp563
g88
g89
ssg77
g557
sg70
(lp564
g375
asbag63
(g84
g65
NtRp565
(dp566
g68
(dp567
g95
g96
ssg77
g557
sg70
(lp568
S':'
asbag63
(g84
g65
NtRp569
(dp570
g68
(dp571
sg77
g557
sg70
(lp572
g63
(g64
g65
NtRp573
(dp574
g68
(dp575
g76
I3
ssg77
g569
sg70
(lp576
S''
asbasbasbag63
(g79
g65
NtRp577
(dp578
g68
(dp579
sg77
g493
sg70
(lp580
g63
(g84
g65
NtRp581
(dp582
g68
(dp583
g88
g89
ssg77
g577
sg70
(lp584
g396
asbag63
(g84
g65
NtRp585
(dp586
g68
(dp587
g95
g96
ssg77
g577
sg70
(lp588
S':'
asbag63
(g84
g65
NtRp589
(dp590
g68
(dp591
sg77
g577
sg70
(lp592
g63
(g64
g65
NtRp593
(dp594
g68
(dp595
g76
I3
ssg77
g589
sg70
(lp596
S''
asbasbasbag63
(g79
g65
NtRp597
(dp598
g68
(dp599
sg77
g493
sg70
(lp600
g63
(g84
g65
NtRp601
(dp602
g68
(dp603
g88
g89
ssg77
g597
sg70
(lp604
g417
asbag63
(g84
g65
NtRp605
(dp606
g68
(dp607
g95
g96
ssg77
g597
sg70
(lp608
S':'
asbag63
(g84
g65
NtRp609
(dp610
g68
(dp611
sg77
g597
sg70
(lp612
g63
(g64
g65
NtRp613
(dp614
g68
(dp615
g76
I3
ssg77
g609
sg70
(lp616
S''
asbasbasbag63
(g79
g65
NtRp617
(dp618
g68
(dp619
sg77
g493
sg70
(lp620
g63
(g84
g65
NtRp621
(dp622
g68
(dp623
g88
g89
ssg77
g617
sg70
(lp624
g438
asbag63
(g84
g65
NtRp625
(dp626
g68
(dp627
g95
g96
ssg77
g617
sg70
(lp628
S':'
asbag63
(g84
g65
NtRp629
(dp630
g68
(dp631
sg77
g617
sg70
(lp632
g63
(g64
g65
NtRp633
(dp634
g68
(dp635
g76
I3
ssg77
g629
sg70
(lp636
S''
asbasbasbag63
(g79
g65
NtRp637
(dp638
g68
(dp639
sg77
g493
sg70
(lp640
g63
(g84
g65
NtRp641
(dp642
g68
(dp643
g88
g89
ssg77
g637
sg70
(lp644
g459
asbag63
(g84
g65
NtRp645
(dp646
g68
(dp647
g95
g96
ssg77
g637
sg70
(lp648
S':'
asbag63
(g84
g65
NtRp649
(dp650
g68
(dp651
sg77
g637
sg70
(lp652
g63
(g64
g65
NtRp653
(dp654
g68
(dp655
g76
I3
ssg77
g649
sg70
(lp656
S''
asbasbasbasbasbasbasbag63
(g79
g65
NtRp657
(dp658
g68
(dp659
sg77
g275
sg70
(lp660
g63
(g84
g65
NtRp661
(dp662
g68
(dp663
g88
g89
ssg77
g657
sg70
(lp664
S'session_id_paideia'
p665
asbag63
(g84
g65
NtRp666
(dp667
g68
(dp668
g95
g96
ssg77
g657
sg70
(lp669
S':'
asbag63
(g84
g65
NtRp670
(dp671
g68
(dp672
sg77
g657
sg70
(lp673
g63
(g64
g65
NtRp674
(dp675
g68
(dp676
g76
I4
ssg77
g670
sg70
(lp677
g63
(g72
g65
NtRp678
(dp679
g68
(dp680
g76
I3
ssg77
Nsg70
(lp681
g63
(g79
g65
NtRp682
(dp683
g68
(dp684
sg77
g678
sg70
(lp685
g63
(g84
g65
NtRp686
(dp687
g68
(dp688
g88
g89
ssg77
g682
sg70
(lp689
g312
asbag63
(g84
g65
NtRp690
(dp691
g68
(dp692
g95
g96
ssg77
g682
sg70
(lp693
S':'
asbag63
(g84
g65
NtRp694
(dp695
g68
(dp696
sg77
g682
sg70
(lp697
g63
(g64
g65
NtRp698
(dp699
g68
(dp700
g76
I3
ssg77
g694
sg70
(lp701
S''
asbasbasbag63
(g79
g65
NtRp702
(dp703
g68
(dp704
sg77
g678
sg70
(lp705
g63
(g84
g65
NtRp706
(dp707
g68
(dp708
g88
g89
ssg77
g702
sg70
(lp709
g333
asbag63
(g84
g65
NtRp710
(dp711
g68
(dp712
g95
g96
ssg77
g702
sg70
(lp713
S':'
asbag63
(g84
g65
NtRp714
(dp715
g68
(dp716
sg77
g702
sg70
(lp717
g63
(g64
g65
NtRp718
(dp719
g68
(dp720
g76
I3
ssg77
g714
sg70
(lp721
S''
asbasbasbag63
(g79
g65
NtRp722
(dp723
g68
(dp724
sg77
g678
sg70
(lp725
g63
(g84
g65
NtRp726
(dp727
g68
(dp728
g88
g89
ssg77
g722
sg70
(lp729
g354
asbag63
(g84
g65
NtRp730
(dp731
g68
(dp732
g95
g96
ssg77
g722
sg70
(lp733
S':'
asbag63
(g84
g65
NtRp734
(dp735
g68
(dp736
sg77
g722
sg70
(lp737
g63
(g64
g65
NtRp738
(dp739
g68
(dp740
g76
I3
ssg77
g734
sg70
(lp741
S''
asbasbasbag63
(g79
g65
NtRp742
(dp743
g68
(dp744
sg77
g678
sg70
(lp745
g63
(g84
g65
NtRp746
(dp747
g68
(dp748
g88
g89
ssg77
g742
sg70
(lp749
g375
asbag63
(g84
g65
NtRp750
(dp751
g68
(dp752
g95
g96
ssg77
g742
sg70
(lp753
S':'
asbag63
(g84
g65
NtRp754
(dp755
g68
(dp756
sg77
g742
sg70
(lp757
g63
(g64
g65
NtRp758
(dp759
g68
(dp760
g76
I3
ssg77
g754
sg70
(lp761
S''
asbasbasbag63
(g79
g65
NtRp762
(dp763
g68
(dp764
sg77
g678
sg70
(lp765
g63
(g84
g65
NtRp766
(dp767
g68
(dp768
g88
g89
ssg77
g762
sg70
(lp769
g396
asbag63
(g84
g65
NtRp770
(dp771
g68
(dp772
g95
g96
ssg77
g762
sg70
(lp773
S':'
asbag63
(g84
g65
NtRp774
(dp775
g68
(dp776
sg77
g762
sg70
(lp777
g63
(g64
g65
NtRp778
(dp779
g68
(dp780
g76
I3
ssg77
g774
sg70
(lp781
S''
asbasbasbag63
(g79
g65
NtRp782
(dp783
g68
(dp784
sg77
g678
sg70
(lp785
g63
(g84
g65
NtRp786
(dp787
g68
(dp788
g88
g89
ssg77
g782
sg70
(lp789
g417
asbag63
(g84
g65
NtRp790
(dp791
g68
(dp792
g95
g96
ssg77
g782
sg70
(lp793
S':'
asbag63
(g84
g65
NtRp794
(dp795
g68
(dp796
sg77
g782
sg70
(lp797
g63
(g64
g65
NtRp798
(dp799
g68
(dp800
g76
I3
ssg77
g794
sg70
(lp801
S''
asbasbasbag63
(g79
g65
NtRp802
(dp803
g68
(dp804
sg77
g678
sg70
(lp805
g63
(g84
g65
NtRp806
(dp807
g68
(dp808
g88
g89
ssg77
g802
sg70
(lp809
g438
asbag63
(g84
g65
NtRp810
(dp811
g68
(dp812
g95
g96
ssg77
g802
sg70
(lp813
S':'
asbag63
(g84
g65
NtRp814
(dp815
g68
(dp816
sg77
g802
sg70
(lp817
g63
(g64
g65
NtRp818
(dp819
g68
(dp820
g76
I3
ssg77
g814
sg70
(lp821
S''
asbasbasbag63
(g79
g65
NtRp822
(dp823
g68
(dp824
sg77
g678
sg70
(lp825
g63
(g84
g65
NtRp826
(dp827
g68
(dp828
g88
g89
ssg77
g822
sg70
(lp829
g459
asbag63
(g84
g65
NtRp830
(dp831
g68
(dp832
g95
g96
ssg77
g822
sg70
(lp833
S':'
asbag63
(g84
g65
NtRp834
(dp835
g68
(dp836
sg77
g822
sg70
(lp837
g63
(g64
g65
NtRp838
(dp839
g68
(dp840
g76
I3
ssg77
g834
sg70
(lp841
S''
asbasbasbasbasbasbasbag63
(g79
g65
NtRp842
(dp843
g68
(dp844
sg77
g275
sg70
(lp845
g63
(g84
g65
NtRp846
(dp847
g68
(dp848
g88
g89
ssg77
g842
sg70
(lp849
S'session_id_welcome'
p850
asbag63
(g84
g65
NtRp851
(dp852
g68
(dp853
g95
g96
ssg77
g842
sg70
(lp854
S':'
asbag63
(g84
g65
NtRp855
(dp856
g68
(dp857
sg77
g842
sg70
(lp858
g63
(g64
g65
NtRp859
(dp860
g68
(dp861
g76
I4
ssg77
g855
sg70
(lp862
g63
(g72
g65
NtRp863
(dp864
g68
(dp865
g76
I3
ssg77
Nsg70
(lp866
g63
(g79
g65
NtRp867
(dp868
g68
(dp869
sg77
g863
sg70
(lp870
g63
(g84
g65
NtRp871
(dp872
g68
(dp873
g88
g89
ssg77
g867
sg70
(lp874
g312
asbag63
(g84
g65
NtRp875
(dp876
g68
(dp877
g95
g96
ssg77
g867
sg70
(lp878
S':'
asbag63
(g84
g65
NtRp879
(dp880
g68
(dp881
sg77
g867
sg70
(lp882
g63
(g64
g65
NtRp883
(dp884
g68
(dp885
g76
I3
ssg77
g879
sg70
(lp886
S''
asbasbasbag63
(g79
g65
NtRp887
(dp888
g68
(dp889
sg77
g863
sg70
(lp890
g63
(g84
g65
NtRp891
(dp892
g68
(dp893
g88
g89
ssg77
g887
sg70
(lp894
g333
asbag63
(g84
g65
NtRp895
(dp896
g68
(dp897
g95
g96
ssg77
g887
sg70
(lp898
S':'
asbag63
(g84
g65
NtRp899
(dp900
g68
(dp901
sg77
g887
sg70
(lp902
g63
(g64
g65
NtRp903
(dp904
g68
(dp905
g76
I3
ssg77
g899
sg70
(lp906
S''
asbasbasbag63
(g79
g65
NtRp907
(dp908
g68
(dp909
sg77
g863
sg70
(lp910
g63
(g84
g65
NtRp911
(dp912
g68
(dp913
g88
g89
ssg77
g907
sg70
(lp914
g354
asbag63
(g84
g65
NtRp915
(dp916
g68
(dp917
g95
g96
ssg77
g907
sg70
(lp918
S':'
asbag63
(g84
g65
NtRp919
(dp920
g68
(dp921
sg77
g907
sg70
(lp922
g63
(g64
g65
NtRp923
(dp924
g68
(dp925
g76
I3
ssg77
g919
sg70
(lp926
S''
asbasbasbag63
(g79
g65
NtRp927
(dp928
g68
(dp929
sg77
g863
sg70
(lp930
g63
(g84
g65
NtRp931
(dp932
g68
(dp933
g88
g89
ssg77
g927
sg70
(lp934
g375
asbag63
(g84
g65
NtRp935
(dp936
g68
(dp937
g95
g96
ssg77
g927
sg70
(lp938
S':'
asbag63
(g84
g65
NtRp939
(dp940
g68
(dp941
sg77
g927
sg70
(lp942
g63
(g64
g65
NtRp943
(dp944
g68
(dp945
g76
I3
ssg77
g939
sg70
(lp946
S''
asbasbasbag63
(g79
g65
NtRp947
(dp948
g68
(dp949
sg77
g863
sg70
(lp950
g63
(g84
g65
NtRp951
(dp952
g68
(dp953
g88
g89
ssg77
g947
sg70
(lp954
g396
asbag63
(g84
g65
NtRp955
(dp956
g68
(dp957
g95
g96
ssg77
g947
sg70
(lp958
S':'
asbag63
(g84
g65
NtRp959
(dp960
g68
(dp961
sg77
g947
sg70
(lp962
g63
(g64
g65
NtRp963
(dp964
g68
(dp965
g76
I3
ssg77
g959
sg70
(lp966
S''
asbasbasbag63
(g79
g65
NtRp967
(dp968
g68
(dp969
sg77
g863
sg70
(lp970
g63
(g84
g65
NtRp971
(dp972
g68
(dp973
g88
g89
ssg77
g967
sg70
(lp974
g417
asbag63
(g84
g65
NtRp975
(dp976
g68
(dp977
g95
g96
ssg77
g967
sg70
(lp978
S':'
asbag63
(g84
g65
NtRp979
(dp980
g68
(dp981
sg77
g967
sg70
(lp982
g63
(g64
g65
NtRp983
(dp984
g68
(dp985
g76
I3
ssg77
g979
sg70
(lp986
S''
asbasbasbag63
(g79
g65
NtRp987
(dp988
g68
(dp989
sg77
g863
sg70
(lp990
g63
(g84
g65
NtRp991
(dp992
g68
(dp993
g88
g89
ssg77
g987
sg70
(lp994
g438
asbag63
(g84
g65
NtRp995
(dp996
g68
(dp997
g95
g96
ssg77
g987
sg70
(lp998
S':'
asbag63
(g84
g65
NtRp999
(dp1000
g68
(dp1001
sg77
g987
sg70
(lp1002
g63
(g64
g65
NtRp1003
(dp1004
g68
(dp1005
g76
I3
ssg77
g999
sg70
(lp1006
S''
asbasbasbag63
(g79
g65
NtRp1007
(dp1008
g68
(dp1009
sg77
g863
sg70
(lp1010
g63
(g84
g65
NtRp1011
(dp1012
g68
(dp1013
g88
g89
ssg77
g1007
sg70
(lp1014
g459
asbag63
(g84
g65
NtRp1015
(dp1016
g68
(dp1017
g95
g96
ssg77
g1007
sg70
(lp1018
S':'
asbag63
(g84
g65
NtRp1019
(dp1020
g68
(dp1021
sg77
g1007
sg70
(lp1022
g63
(g64
g65
NtRp1023
(dp1024
g68
(dp1025
g76
I3
ssg77
g1019
sg70
(lp1026
S''
asbasbasbasbasbasbasbasbasbasbasbag63
(g79
g65
NtRp1027
(dp1028
g68
(dp1029
sg77
g73
sg70
(lp1030
g63
(g84
g65
NtRp1031
(dp1032
g68
(dp1033
g88
g89
ssg77
g1027
sg70
(lp1034
S'env'
p1035
asbag63
(g84
g65
NtRp1036
(dp1037
g68
(dp1038
g95
g96
ssg77
g1027
sg70
(lp1039
S':'
asbag63
(g84
g65
NtRp1040
(dp1041
g68
(dp1042
sg77
g1027
sg70
(lp1043
g63
(g64
g65
NtRp1044
(dp1045
g68
(dp1046
g76
I5
ssg77
g1040
sg70
(lp1047
g63
(g72
g65
NtRp1048
(dp1049
g68
(dp1050
g76
I4
ssg77
Nsg70
(lp1051
g63
(g79
g65
NtRp1052
(dp1053
g68
(dp1054
sg77
g1048
sg70
(lp1055
g63
(g84
g65
NtRp1056
(dp1057
g68
(dp1058
g88
g89
ssg77
g1052
sg70
(lp1059
S'app_folders'
p1060
asbag63
(g84
g65
NtRp1061
(dp1062
g68
(dp1063
g95
g96
ssg77
g1052
sg70
(lp1064
S':'
asbag63
(g84
g65
NtRp1065
(dp1066
g68
(dp1067
sg77
g1052
sg70
(lp1068
g63
(g64
g65
NtRp1069
(dp1070
g68
(dp1071
g76
I4
ssg77
g1065
sg70
(lp1072
S"set(['/home/ian/web/web2py/applications/welcome/', '/home/ian/web/web2py/applications/grammateus3/', '/home/ian/web/web2py/applications/admin/'])"
p1073
asbasbasbag63
(g79
g65
NtRp1074
(dp1075
g68
(dp1076
sg77
g1048
sg70
(lp1077
g63
(g84
g65
NtRp1078
(dp1079
g68
(dp1080
g88
g89
ssg77
g1074
sg70
(lp1081
S'applications_parent'
p1082
asbag63
(g84
g65
NtRp1083
(dp1084
g68
(dp1085
g95
g96
ssg77
g1074
sg70
(lp1086
S':'
asbag63
(g84
g65
NtRp1087
(dp1088
g68
(dp1089
sg77
g1074
sg70
(lp1090
g63
(g64
g65
NtRp1091
(dp1092
g68
(dp1093
g76
I4
ssg77
g1087
sg70
(lp1094
S'/home/ian/web/web2py'
p1095
asbasbasbag63
(g79
g65
NtRp1096
(dp1097
g68
(dp1098
sg77
g1048
sg70
(lp1099
g63
(g84
g65
NtRp1100
(dp1101
g68
(dp1102
g88
g89
ssg77
g1096
sg70
(lp1103
S'cmd_args'
p1104
asbag63
(g84
g65
NtRp1105
(dp1106
g68
(dp1107
g95
g96
ssg77
g1096
sg70
(lp1108
S':'
asbag63
(g84
g65
NtRp1109
(dp1110
g68
(dp1111
sg77
g1096
sg70
(lp1112
g63
(g64
g65
NtRp1113
(dp1114
g68
(dp1115
g76
I4
ssg77
g1109
sg70
(lp1116
g63
(g72
g65
NtRp1117
(dp1118
g68
(dp1119
g76
I3
ssg77
Nsg70
(lp1120
sbasbasbasbag63
(g79
g65
NtRp1121
(dp1122
g68
(dp1123
sg77
g1048
sg70
(lp1124
g63
(g84
g65
NtRp1125
(dp1126
g68
(dp1127
g88
g89
ssg77
g1121
sg70
(lp1128
S'cmd_options'
p1129
asbag63
(g84
g65
NtRp1130
(dp1131
g68
(dp1132
g95
g96
ssg77
g1121
sg70
(lp1133
S':'
asbag63
(g84
g65
NtRp1134
(dp1135
g68
(dp1136
sg77
g1121
sg70
(lp1137
g63
(g64
g65
NtRp1138
(dp1139
g68
(dp1140
g76
I4
ssg77
g1134
sg70
(lp1141
S"<Values at 0x18c2680: {'verbose': False, 'ip': '127.0.0.1', 'shutdown_timeout': 5, 'taskbar': False, 'nocron': False, 'pid_filename': 'httpserver.pid', 'maxthreads': None, 'softcron': False, 'server_name': 'uriel', 'bpython': False, 'nogui': False, 'port': 8000, 'extcron': False, 'debuglevel': 30, 'test': None, 'folder': '/home/ian/web/web2py', 'config': '', 'import_models': False, 'winservice': '', 'shell': None, 'run': '', 'log_filename': 'httpserver.log', 'args': [''], 'socket_timeout': 1, 'ssl_ca_certificate': None, 'scheduler': None, 'profiler_filename': None, 'ssl_private_key': '', 'password': '<ask>', 'request_queue_size': 5, 'ssl_certificate': '', 'cronjob': False, 'numthreads': None, 'quiet': False, 'interfaces': None, 'minthreads': None, 'timeout': 10, 'plain': False, 'nobanner': False}>"
p1142
asbasbasbag63
(g79
g65
NtRp1143
(dp1144
g68
(dp1145
sg77
g1048
sg70
(lp1146
g63
(g84
g65
NtRp1147
(dp1148
g68
(dp1149
g88
g89
ssg77
g1143
sg70
(lp1150
S'db_sessions'
p1151
asbag63
(g84
g65
NtRp1152
(dp1153
g68
(dp1154
g95
g96
ssg77
g1143
sg70
(lp1155
S':'
asbag63
(g84
g65
NtRp1156
(dp1157
g68
(dp1158
sg77
g1143
sg70
(lp1159
g63
(g64
g65
NtRp1160
(dp1161
g68
(dp1162
g76
I4
ssg77
g1156
sg70
(lp1163
S'set([])'
p1164
asbasbasbag63
(g79
g65
NtRp1165
(dp1166
g68
(dp1167
sg77
g1048
sg70
(lp1168
g63
(g84
g65
NtRp1169
(dp1170
g68
(dp1171
g88
g89
ssg77
g1165
sg70
(lp1172
S'debugging'
p1173
asbag63
(g84
g65
NtRp1174
(dp1175
g68
(dp1176
g95
g96
ssg77
g1165
sg70
(lp1177
S':'
asbag63
(g84
g65
NtRp1178
(dp1179
g68
(dp1180
sg77
g1165
sg70
(lp1181
g63
(g64
g65
NtRp1182
(dp1183
g68
(dp1184
g76
I4
ssg77
g1178
sg70
(lp1185
S'False'
p1186
asbasbasbag63
(g79
g65
NtRp1187
(dp1188
g68
(dp1189
sg77
g1048
sg70
(lp1190
g63
(g84
g65
NtRp1191
(dp1192
g68
(dp1193
g88
g89
ssg77
g1187
sg70
(lp1194
S'gluon_parent'
p1195
asbag63
(g84
g65
NtRp1196
(dp1197
g68
(dp1198
g95
g96
ssg77
g1187
sg70
(lp1199
S':'
asbag63
(g84
g65
NtRp1200
(dp1201
g68
(dp1202
sg77
g1187
sg70
(lp1203
g63
(g64
g65
NtRp1204
(dp1205
g68
(dp1206
g76
I4
ssg77
g1200
sg70
(lp1207
S'/home/ian/web/web2py'
p1208
asbasbasbag63
(g79
g65
NtRp1209
(dp1210
g68
(dp1211
sg77
g1048
sg70
(lp1212
g63
(g84
g65
NtRp1213
(dp1214
g68
(dp1215
g88
g89
ssg77
g1209
sg70
(lp1216
S'http_accept'
p1217
asbag63
(g84
g65
NtRp1218
(dp1219
g68
(dp1220
g95
g96
ssg77
g1209
sg70
(lp1221
S':'
asbag63
(g84
g65
NtRp1222
(dp1223
g68
(dp1224
sg77
g1209
sg70
(lp1225
g63
(g64
g65
NtRp1226
(dp1227
g68
(dp1228
g76
I4
ssg77
g1222
sg70
(lp1229
S'*/*'
p1230
asbasbasbag63
(g79
g65
NtRp1231
(dp1232
g68
(dp1233
sg77
g1048
sg70
(lp1234
g63
(g84
g65
NtRp1235
(dp1236
g68
(dp1237
g88
g89
ssg77
g1231
sg70
(lp1238
S'http_accept_encoding'
p1239
asbag63
(g84
g65
NtRp1240
(dp1241
g68
(dp1242
g95
g96
ssg77
g1231
sg70
(lp1243
S':'
asbag63
(g84
g65
NtRp1244
(dp1245
g68
(dp1246
sg77
g1231
sg70
(lp1247
g63
(g64
g65
NtRp1248
(dp1249
g68
(dp1250
g76
I4
ssg77
g1244
sg70
(lp1251
S'gzip, deflate'
p1252
asbasbasbag63
(g79
g65
NtRp1253
(dp1254
g68
(dp1255
sg77
g1048
sg70
(lp1256
g63
(g84
g65
NtRp1257
(dp1258
g68
(dp1259
g88
g89
ssg77
g1253
sg70
(lp1260
S'http_accept_language'
p1261
asbag63
(g84
g65
NtRp1262
(dp1263
g68
(dp1264
g95
g96
ssg77
g1253
sg70
(lp1265
S':'
asbag63
(g84
g65
NtRp1266
(dp1267
g68
(dp1268
sg77
g1253
sg70
(lp1269
g63
(g64
g65
NtRp1270
(dp1271
g68
(dp1272
g76
I4
ssg77
g1266
sg70
(lp1273
S'en-us,en;q=0.5'
p1274
asbasbasbag63
(g79
g65
NtRp1275
(dp1276
g68
(dp1277
sg77
g1048
sg70
(lp1278
g63
(g84
g65
NtRp1279
(dp1280
g68
(dp1281
g88
g89
ssg77
g1275
sg70
(lp1282
S'http_connection'
p1283
asbag63
(g84
g65
NtRp1284
(dp1285
g68
(dp1286
g95
g96
ssg77
g1275
sg70
(lp1287
S':'
asbag63
(g84
g65
NtRp1288
(dp1289
g68
(dp1290
sg77
g1275
sg70
(lp1291
g63
(g64
g65
NtRp1292
(dp1293
g68
(dp1294
g76
I4
ssg77
g1288
sg70
(lp1295
S'keep-alive'
p1296
asbasbasbag63
(g79
g65
NtRp1297
(dp1298
g68
(dp1299
sg77
g1048
sg70
(lp1300
g63
(g84
g65
NtRp1301
(dp1302
g68
(dp1303
g88
g89
ssg77
g1297
sg70
(lp1304
S'http_cookie'
p1305
asbag63
(g84
g65
NtRp1306
(dp1307
g68
(dp1308
g95
g96
ssg77
g1297
sg70
(lp1309
S':'
asbag63
(g84
g65
NtRp1310
(dp1311
g68
(dp1312
sg77
g1297
sg70
(lp1313
g63
(g64
g65
NtRp1314
(dp1315
g68
(dp1316
g76
I4
ssg77
g1310
sg70
(lp1317
S'session_id_paideia=127.0.0.1-d2b16629-afad-4e3f-840d-43f7f7183774; session_id_welcome=127.0.0.1-7900eb5e-4a8b-43a4-b6a8-8a5c642b119a; session_id_grammateus3=127.0.0.1-a36eb5c3-cb0c-44f9-8573-d94bb9817d76; session_id_admin=127.0.0.1-91b0ab23-8748-4464-ae31-c5485327e6c7'
p1318
asbasbasbag63
(g79
g65
NtRp1319
(dp1320
g68
(dp1321
sg77
g1048
sg70
(lp1322
g63
(g84
g65
NtRp1323
(dp1324
g68
(dp1325
g88
g89
ssg77
g1319
sg70
(lp1326
S'http_host'
p1327
asbag63
(g84
g65
NtRp1328
(dp1329
g68
(dp1330
g95
g96
ssg77
g1319
sg70
(lp1331
S':'
asbag63
(g84
g65
NtRp1332
(dp1333
g68
(dp1334
sg77
g1319
sg70
(lp1335
g63
(g64
g65
NtRp1336
(dp1337
g68
(dp1338
g76
I4
ssg77
g1332
sg70
(lp1339
S'127.0.0.1:8000'
p1340
asbasbasbag63
(g79
g65
NtRp1341
(dp1342
g68
(dp1343
sg77
g1048
sg70
(lp1344
g63
(g84
g65
NtRp1345
(dp1346
g68
(dp1347
g88
g89
ssg77
g1341
sg70
(lp1348
S'http_referer'
p1349
asbag63
(g84
g65
NtRp1350
(dp1351
g68
(dp1352
g95
g96
ssg77
g1341
sg70
(lp1353
S':'
asbag63
(g84
g65
NtRp1354
(dp1355
g68
(dp1356
sg77
g1341
sg70
(lp1357
g63
(g64
g65
NtRp1358
(dp1359
g68
(dp1360
g76
I4
ssg77
g1354
sg70
(lp1361
S'http://127.0.0.1:8000/grammateus3/docs/text/22'
p1362
asbasbasbag63
(g79
g65
NtRp1363
(dp1364
g68
(dp1365
sg77
g1048
sg70
(lp1366
g63
(g84
g65
NtRp1367
(dp1368
g68
(dp1369
g88
g89
ssg77
g1363
sg70
(lp1370
S'http_user_agent'
p1371
asbag63
(g84
g65
NtRp1372
(dp1373
g68
(dp1374
g95
g96
ssg77
g1363
sg70
(lp1375
S':'
asbag63
(g84
g65
NtRp1376
(dp1377
g68
(dp1378
sg77
g1363
sg70
(lp1379
g63
(g64
g65
NtRp1380
(dp1381
g68
(dp1382
g76
I4
ssg77
g1376
sg70
(lp1383
S'Mozilla/5.0 (X11; Ubuntu; Linux x86_64; rv:11.0) Gecko/20100101 Firefox/11.0 openid'
p1384
asbasbasbag63
(g79
g65
NtRp1385
(dp1386
g68
(dp1387
sg77
g1048
sg70
(lp1388
g63
(g84
g65
NtRp1389
(dp1390
g68
(dp1391
g88
g89
ssg77
g1385
sg70
(lp1392
S'http_web2py_component_element'
p1393
asbag63
(g84
g65
NtRp1394
(dp1395
g68
(dp1396
g95
g96
ssg77
g1385
sg70
(lp1397
S':'
asbag63
(g84
g65
NtRp1398
(dp1399
g68
(dp1400
sg77
g1385
sg70
(lp1401
g63
(g64
g65
NtRp1402
(dp1403
g68
(dp1404
g76
I4
ssg77
g1398
sg70
(lp1405
g209
asbasbasbag63
(g79
g65
NtRp1406
(dp1407
g68
(dp1408
sg77
g1048
sg70
(lp1409
g63
(g84
g65
NtRp1410
(dp1411
g68
(dp1412
g88
g89
ssg77
g1406
sg70
(lp1413
S'http_web2py_component_location'
p1414
asbag63
(g84
g65
NtRp1415
(dp1416
g68
(dp1417
g95
g96
ssg77
g1406
sg70
(lp1418
S':'
asbag63
(g84
g65
NtRp1419
(dp1420
g68
(dp1421
sg77
g1406
sg70
(lp1422
g63
(g64
g65
NtRp1423
(dp1424
g68
(dp1425
g76
I4
ssg77
g1419
sg70
(lp1426
S'http://127.0.0.1:8000/grammateus3/docs/text/22'
p1427
asbasbasbag63
(g79
g65
NtRp1428
(dp1429
g68
(dp1430
sg77
g1048
sg70
(lp1431
g63
(g84
g65
NtRp1432
(dp1433
g68
(dp1434
g88
g89
ssg77
g1428
sg70
(lp1435
S'http_x_requested_with'
p1436
asbag63
(g84
g65
NtRp1437
(dp1438
g68
(dp1439
g95
g96
ssg77
g1428
sg70
(lp1440
S':'
asbag63
(g84
g65
NtRp1441
(dp1442
g68
(dp1443
sg77
g1428
sg70
(lp1444
g63
(g64
g65
NtRp1445
(dp1446
g68
(dp1447
g76
I4
ssg77
g1441
sg70
(lp1448
S'XMLHttpRequest'
p1449
asbasbasbag63
(g79
g65
NtRp1450
(dp1451
g68
(dp1452
sg77
g1048
sg70
(lp1453
g63
(g84
g65
NtRp1454
(dp1455
g68
(dp1456
g88
g89
ssg77
g1450
sg70
(lp1457
S'is_jython'
p1458
asbag63
(g84
g65
NtRp1459
(dp1460
g68
(dp1461
g95
g96
ssg77
g1450
sg70
(lp1462
S':'
asbag63
(g84
g65
NtRp1463
(dp1464
g68
(dp1465
sg77
g1450
sg70
(lp1466
g63
(g64
g65
NtRp1467
(dp1468
g68
(dp1469
g76
I4
ssg77
g1463
sg70
(lp1470
g1186
asbasbasbag63
(g79
g65
NtRp1471
(dp1472
g68
(dp1473
sg77
g1048
sg70
(lp1474
g63
(g84
g65
NtRp1475
(dp1476
g68
(dp1477
g88
g89
ssg77
g1471
sg70
(lp1478
S'is_pypy'
p1479
asbag63
(g84
g65
NtRp1480
(dp1481
g68
(dp1482
g95
g96
ssg77
g1471
sg70
(lp1483
S':'
asbag63
(g84
g65
NtRp1484
(dp1485
g68
(dp1486
sg77
g1471
sg70
(lp1487
g63
(g64
g65
NtRp1488
(dp1489
g68
(dp1490
g76
I4
ssg77
g1484
sg70
(lp1491
g1186
asbasbasbag63
(g79
g65
NtRp1492
(dp1493
g68
(dp1494
sg77
g1048
sg70
(lp1495
g63
(g84
g65
NtRp1496
(dp1497
g68
(dp1498
g88
g89
ssg77
g1492
sg70
(lp1499
S'path_info'
p1500
asbag63
(g84
g65
NtRp1501
(dp1502
g68
(dp1503
g95
g96
ssg77
g1492
sg70
(lp1504
S':'
asbag63
(g84
g65
NtRp1505
(dp1506
g68
(dp1507
sg77
g1492
sg70
(lp1508
g63
(g64
g65
NtRp1509
(dp1510
g68
(dp1511
g76
I4
ssg77
g1505
sg70
(lp1512
S'/grammateus3/docs/section.load/22'
p1513
asbasbasbag63
(g79
g65
NtRp1514
(dp1515
g68
(dp1516
sg77
g1048
sg70
(lp1517
g63
(g84
g65
NtRp1518
(dp1519
g68
(dp1520
g88
g89
ssg77
g1514
sg70
(lp1521
S'query_string'
p1522
asbag63
(g84
g65
NtRp1523
(dp1524
g68
(dp1525
g95
g96
ssg77
g1514
sg70
(lp1526
S':'
asbag63
(g84
g65
NtRp1527
(dp1528
g68
(dp1529
sg77
g1514
sg70
(lp1530
g63
(g64
g65
NtRp1531
(dp1532
g68
(dp1533
g76
I4
ssg77
g1527
sg70
(lp1534
S''
asbasbasbag63
(g79
g65
NtRp1535
(dp1536
g68
(dp1537
sg77
g1048
sg70
(lp1538
g63
(g84
g65
NtRp1539
(dp1540
g68
(dp1541
g88
g89
ssg77
g1535
sg70
(lp1542
S'remote_addr'
p1543
asbag63
(g84
g65
NtRp1544
(dp1545
g68
(dp1546
g95
g96
ssg77
g1535
sg70
(lp1547
S':'
asbag63
(g84
g65
NtRp1548
(dp1549
g68
(dp1550
sg77
g1535
sg70
(lp1551
g63
(g64
g65
NtRp1552
(dp1553
g68
(dp1554
g76
I4
ssg77
g1548
sg70
(lp1555
g231
asbasbasbag63
(g79
g65
NtRp1556
(dp1557
g68
(dp1558
sg77
g1048
sg70
(lp1559
g63
(g84
g65
NtRp1560
(dp1561
g68
(dp1562
g88
g89
ssg77
g1556
sg70
(lp1563
S'remote_port'
p1564
asbag63
(g84
g65
NtRp1565
(dp1566
g68
(dp1567
g95
g96
ssg77
g1556
sg70
(lp1568
S':'
asbag63
(g84
g65
NtRp1569
(dp1570
g68
(dp1571
sg77
g1556
sg70
(lp1572
g63
(g64
g65
NtRp1573
(dp1574
g68
(dp1575
g76
I4
ssg77
g1569
sg70
(lp1576
S'59083'
p1577
asbasbasbag63
(g79
g65
NtRp1578
(dp1579
g68
(dp1580
sg77
g1048
sg70
(lp1581
g63
(g84
g65
NtRp1582
(dp1583
g68
(dp1584
g88
g89
ssg77
g1578
sg70
(lp1585
S'request_method'
p1586
asbag63
(g84
g65
NtRp1587
(dp1588
g68
(dp1589
g95
g96
ssg77
g1578
sg70
(lp1590
S':'
asbag63
(g84
g65
NtRp1591
(dp1592
g68
(dp1593
sg77
g1578
sg70
(lp1594
g63
(g64
g65
NtRp1595
(dp1596
g68
(dp1597
g76
I4
ssg77
g1591
sg70
(lp1598
S'GET'
p1599
asbasbasbag63
(g79
g65
NtRp1600
(dp1601
g68
(dp1602
sg77
g1048
sg70
(lp1603
g63
(g84
g65
NtRp1604
(dp1605
g68
(dp1606
g88
g89
ssg77
g1600
sg70
(lp1607
S'script_name'
p1608
asbag63
(g84
g65
NtRp1609
(dp1610
g68
(dp1611
g95
g96
ssg77
g1600
sg70
(lp1612
S':'
asbag63
(g84
g65
NtRp1613
(dp1614
g68
(dp1615
sg77
g1600
sg70
(lp1616
g63
(g64
g65
NtRp1617
(dp1618
g68
(dp1619
g76
I4
ssg77
g1613
sg70
(lp1620
S''
asbasbasbag63
(g79
g65
NtRp1621
(dp1622
g68
(dp1623
sg77
g1048
sg70
(lp1624
g63
(g84
g65
NtRp1625
(dp1626
g68
(dp1627
g88
g89
ssg77
g1621
sg70
(lp1628
S'server_name'
p1629
asbag63
(g84
g65
NtRp1630
(dp1631
g68
(dp1632
g95
g96
ssg77
g1621
sg70
(lp1633
S':'
asbag63
(g84
g65
NtRp1634
(dp1635
g68
(dp1636
sg77
g1621
sg70
(lp1637
g63
(g64
g65
NtRp1638
(dp1639
g68
(dp1640
g76
I4
ssg77
g1634
sg70
(lp1641
S'uriel'
p1642
asbasbasbag63
(g79
g65
NtRp1643
(dp1644
g68
(dp1645
sg77
g1048
sg70
(lp1646
g63
(g84
g65
NtRp1647
(dp1648
g68
(dp1649
g88
g89
ssg77
g1643
sg70
(lp1650
S'server_port'
p1651
asbag63
(g84
g65
NtRp1652
(dp1653
g68
(dp1654
g95
g96
ssg77
g1643
sg70
(lp1655
S':'
asbag63
(g84
g65
NtRp1656
(dp1657
g68
(dp1658
sg77
g1643
sg70
(lp1659
g63
(g64
g65
NtRp1660
(dp1661
g68
(dp1662
g76
I4
ssg77
g1656
sg70
(lp1663
S'8000'
p1664
asbasbasbag63
(g79
g65
NtRp1665
(dp1666
g68
(dp1667
sg77
g1048
sg70
(lp1668
g63
(g84
g65
NtRp1669
(dp1670
g68
(dp1671
g88
g89
ssg77
g1665
sg70
(lp1672
S'server_protocol'
p1673
asbag63
(g84
g65
NtRp1674
(dp1675
g68
(dp1676
g95
g96
ssg77
g1665
sg70
(lp1677
S':'
asbag63
(g84
g65
NtRp1678
(dp1679
g68
(dp1680
sg77
g1665
sg70
(lp1681
g63
(g64
g65
NtRp1682
(dp1683
g68
(dp1684
g76
I4
ssg77
g1678
sg70
(lp1685
S'HTTP/1.1'
p1686
asbasbasbag63
(g79
g65
NtRp1687
(dp1688
g68
(dp1689
sg77
g1048
sg70
(lp1690
g63
(g84
g65
NtRp1691
(dp1692
g68
(dp1693
g88
g89
ssg77
g1687
sg70
(lp1694
S'server_software'
p1695
asbag63
(g84
g65
NtRp1696
(dp1697
g68
(dp1698
g95
g96
ssg77
g1687
sg70
(lp1699
S':'
asbag63
(g84
g65
NtRp1700
(dp1701
g68
(dp1702
sg77
g1687
sg70
(lp1703
g63
(g64
g65
NtRp1704
(dp1705
g68
(dp1706
g76
I4
ssg77
g1700
sg70
(lp1707
S'Rocket 1.2.4'
p1708
asbasbasbag63
(g79
g65
NtRp1709
(dp1710
g68
(dp1711
sg77
g1048
sg70
(lp1712
g63
(g84
g65
NtRp1713
(dp1714
g68
(dp1715
g88
g89
ssg77
g1709
sg70
(lp1716
S'web2py_crontype'
p1717
asbag63
(g84
g65
NtRp1718
(dp1719
g68
(dp1720
g95
g96
ssg77
g1709
sg70
(lp1721
S':'
asbag63
(g84
g65
NtRp1722
(dp1723
g68
(dp1724
sg77
g1709
sg70
(lp1725
g63
(g64
g65
NtRp1726
(dp1727
g68
(dp1728
g76
I4
ssg77
g1722
sg70
(lp1729
S'hard'
p1730
asbasbasbag63
(g79
g65
NtRp1731
(dp1732
g68
(dp1733
sg77
g1048
sg70
(lp1734
g63
(g84
g65
NtRp1735
(dp1736
g68
(dp1737
g88
g89
ssg77
g1731
sg70
(lp1738
S'web2py_path'
p1739
asbag63
(g84
g65
NtRp1740
(dp1741
g68
(dp1742
g95
g96
ssg77
g1731
sg70
(lp1743
S':'
asbag63
(g84
g65
NtRp1744
(dp1745
g68
(dp1746
sg77
g1731
sg70
(lp1747
g63
(g64
g65
NtRp1748
(dp1749
g68
(dp1750
g76
I4
ssg77
g1744
sg70
(lp1751
g1095
asbasbasbag63
(g79
g65
NtRp1752
(dp1753
g68
(dp1754
sg77
g1048
sg70
(lp1755
g63
(g84
g65
NtRp1756
(dp1757
g68
(dp1758
g88
g89
ssg77
g1752
sg70
(lp1759
S'web2py_version'
p1760
asbag63
(g84
g65
NtRp1761
(dp1762
g68
(dp1763
g95
g96
ssg77
g1752
sg70
(lp1764
S':'
asbag63
(g84
g65
NtRp1765
(dp1766
g68
(dp1767
sg77
g1752
sg70
(lp1768
g63
(g64
g65
NtRp1769
(dp1770
g68
(dp1771
g76
I4
ssg77
g1765
sg70
(lp1772
g63
(g72
g65
NtRp1773
(dp1774
g68
(dp1775
g76
I3
ssg77
Nsg70
(lp1776
g63
(g79
g65
NtRp1777
(dp1778
g68
(dp1779
sg77
g1773
sg70
(lp1780
g63
(g84
g65
NtRp1781
(dp1782
g68
(dp1783
sg77
g1777
sg70
(lp1784
g63
(g64
g65
NtRp1785
(dp1786
g68
(dp1787
g76
I3
ssg77
g1781
sg70
(lp1788
S'1'
asbasbasbag63
(g79
g65
NtRp1789
(dp1790
g68
(dp1791
sg77
g1773
sg70
(lp1792
g63
(g84
g65
NtRp1793
(dp1794
g68
(dp1795
sg77
g1789
sg70
(lp1796
g63
(g64
g65
NtRp1797
(dp1798
g68
(dp1799
g76
I3
ssg77
g1793
sg70
(lp1800
S'99'
p1801
asbasbasbag63
(g79
g65
NtRp1802
(dp1803
g68
(dp1804
sg77
g1773
sg70
(lp1805
g63
(g84
g65
NtRp1806
(dp1807
g68
(dp1808
sg77
g1802
sg70
(lp1809
g63
(g64
g65
NtRp1810
(dp1811
g68
(dp1812
g76
I3
ssg77
g1806
sg70
(lp1813
S'4'
asbasbasbag63
(g79
g65
NtRp1814
(dp1815
g68
(dp1816
sg77
g1773
sg70
(lp1817
g63
(g84
g65
NtRp1818
(dp1819
g68
(dp1820
sg77
g1814
sg70
(lp1821
g63
(g64
g65
NtRp1822
(dp1823
g68
(dp1824
g76
I3
ssg77
g1818
sg70
(lp1825
S'datetime.datetime(2011, 12, 14, 14, 46, 14)'
p1826
asbasbasbag63
(g79
g65
NtRp1827
(dp1828
g68
(dp1829
sg77
g1773
sg70
(lp1830
g63
(g84
g65
NtRp1831
(dp1832
g68
(dp1833
sg77
g1827
sg70
(lp1834
g63
(g64
g65
NtRp1835
(dp1836
g68
(dp1837
g76
I3
ssg77
g1831
sg70
(lp1838
S'stable'
p1839
asbasbasbasbasbasbasbag63
(g79
g65
NtRp1840
(dp1841
g68
(dp1842
sg77
g1048
sg70
(lp1843
g63
(g84
g65
NtRp1844
(dp1845
g68
(dp1846
g88
g89
ssg77
g1840
sg70
(lp1847
S'wsgi_errors'
p1848
asbag63
(g84
g65
NtRp1849
(dp1850
g68
(dp1851
g95
g96
ssg77
g1840
sg70
(lp1852
S':'
asbag63
(g84
g65
NtRp1853
(dp1854
g68
(dp1855
sg77
g1840
sg70
(lp1856
g63
(g64
g65
NtRp1857
(dp1858
g68
(dp1859
g76
I4
ssg77
g1853
sg70
(lp1860
S"<open file '<stderr>', mode 'w' at 0x7f6191f23270>"
p1861
asbasbasbag63
(g79
g65
NtRp1862
(dp1863
g68
(dp1864
sg77
g1048
sg70
(lp1865
g63
(g84
g65
NtRp1866
(dp1867
g68
(dp1868
g88
g89
ssg77
g1862
sg70
(lp1869
S'wsgi_file_wrapper'
p1870
asbag63
(g84
g65
NtRp1871
(dp1872
g68
(dp1873
g95
g96
ssg77
g1862
sg70
(lp1874
S':'
asbag63
(g84
g65
NtRp1875
(dp1876
g68
(dp1877
sg77
g1862
sg70
(lp1878
g63
(g64
g65
NtRp1879
(dp1880
g68
(dp1881
g76
I4
ssg77
g1875
sg70
(lp1882
S'<class wsgiref.util.FileWrapper at 0x178cd50>'
p1883
asbasbasbag63
(g79
g65
NtRp1884
(dp1885
g68
(dp1886
sg77
g1048
sg70
(lp1887
g63
(g84
g65
NtRp1888
(dp1889
g68
(dp1890
g88
g89
ssg77
g1884
sg70
(lp1891
S'wsgi_input'
p1892
asbag63
(g84
g65
NtRp1893
(dp1894
g68
(dp1895
g95
g96
ssg77
g1884
sg70
(lp1896
S':'
asbag63
(g84
g65
NtRp1897
(dp1898
g68
(dp1899
sg77
g1884
sg70
(lp1900
g63
(g64
g65
NtRp1901
(dp1902
g68
(dp1903
g76
I4
ssg77
g1897
sg70
(lp1904
S'<socket._fileobject object at 0x7f618073ead0>'
p1905
asbasbasbag63
(g79
g65
NtRp1906
(dp1907
g68
(dp1908
sg77
g1048
sg70
(lp1909
g63
(g84
g65
NtRp1910
(dp1911
g68
(dp1912
g88
g89
ssg77
g1906
sg70
(lp1913
S'wsgi_multiprocess'
p1914
asbag63
(g84
g65
NtRp1915
(dp1916
g68
(dp1917
g95
g96
ssg77
g1906
sg70
(lp1918
S':'
asbag63
(g84
g65
NtRp1919
(dp1920
g68
(dp1921
sg77
g1906
sg70
(lp1922
g63
(g64
g65
NtRp1923
(dp1924
g68
(dp1925
g76
I4
ssg77
g1919
sg70
(lp1926
g1186
asbasbasbag63
(g79
g65
NtRp1927
(dp1928
g68
(dp1929
sg77
g1048
sg70
(lp1930
g63
(g84
g65
NtRp1931
(dp1932
g68
(dp1933
g88
g89
ssg77
g1927
sg70
(lp1934
S'wsgi_multithread'
p1935
asbag63
(g84
g65
NtRp1936
(dp1937
g68
(dp1938
g95
g96
ssg77
g1927
sg70
(lp1939
S':'
asbag63
(g84
g65
NtRp1940
(dp1941
g68
(dp1942
sg77
g1927
sg70
(lp1943
g63
(g64
g65
NtRp1944
(dp1945
g68
(dp1946
g76
I4
ssg77
g1940
sg70
(lp1947
g106
asbasbasbag63
(g79
g65
NtRp1948
(dp1949
g68
(dp1950
sg77
g1048
sg70
(lp1951
g63
(g84
g65
NtRp1952
(dp1953
g68
(dp1954
g88
g89
ssg77
g1948
sg70
(lp1955
S'wsgi_run_once'
p1956
asbag63
(g84
g65
NtRp1957
(dp1958
g68
(dp1959
g95
g96
ssg77
g1948
sg70
(lp1960
S':'
asbag63
(g84
g65
NtRp1961
(dp1962
g68
(dp1963
sg77
g1948
sg70
(lp1964
g63
(g64
g65
NtRp1965
(dp1966
g68
(dp1967
g76
I4
ssg77
g1961
sg70
(lp1968
g1186
asbasbasbag63
(g79
g65
NtRp1969
(dp1970
g68
(dp1971
sg77
g1048
sg70
(lp1972
g63
(g84
g65
NtRp1973
(dp1974
g68
(dp1975
g88
g89
ssg77
g1969
sg70
(lp1976
S'wsgi_url_scheme'
p1977
asbag63
(g84
g65
NtRp1978
(dp1979
g68
(dp1980
g95
g96
ssg77
g1969
sg70
(lp1981
S':'
asbag63
(g84
g65
NtRp1982
(dp1983
g68
(dp1984
sg77
g1969
sg70
(lp1985
g63
(g64
g65
NtRp1986
(dp1987
g68
(dp1988
g76
I4
ssg77
g1982
sg70
(lp1989
S'http'
p1990
asbasbasbag63
(g79
g65
NtRp1991
(dp1992
g68
(dp1993
sg77
g1048
sg70
(lp1994
g63
(g84
g65
NtRp1995
(dp1996
g68
(dp1997
g88
g89
ssg77
g1991
sg70
(lp1998
S'wsgi_version'
p1999
asbag63
(g84
g65
NtRp2000
(dp2001
g68
(dp2002
g95
g96
ssg77
g1991
sg70
(lp2003
S':'
asbag63
(g84
g65
NtRp2004
(dp2005
g68
(dp2006
sg77
g1991
sg70
(lp2007
g63
(g64
g65
NtRp2008
(dp2009
g68
(dp2010
g76
I4
ssg77
g2004
sg70
(lp2011
g63
(g72
g65
NtRp2012
(dp2013
g68
(dp2014
g76
I3
ssg77
Nsg70
(lp2015
g63
(g79
g65
NtRp2016
(dp2017
g68
(dp2018
sg77
g2012
sg70
(lp2019
g63
(g84
g65
NtRp2020
(dp2021
g68
(dp2022
sg77
g2016
sg70
(lp2023
g63
(g64
g65
NtRp2024
(dp2025
g68
(dp2026
g76
I3
ssg77
g2020
sg70
(lp2027
S'1'
asbasbasbag63
(g79
g65
NtRp2028
(dp2029
g68
(dp2030
sg77
g2012
sg70
(lp2031
g63
(g84
g65
NtRp2032
(dp2033
g68
(dp2034
sg77
g2028
sg70
(lp2035
g63
(g64
g65
NtRp2036
(dp2037
g68
(dp2038
g76
I3
ssg77
g2032
sg70
(lp2039
S'0'
asbasbasbasbasbasbasbasbasbasbasbag63
(g79
g65
NtRp2040
(dp2041
g68
(dp2042
sg77
g73
sg70
(lp2043
g63
(g84
g65
NtRp2044
(dp2045
g68
(dp2046
g88
g89
ssg77
g2040
sg70
(lp2047
S'extension'
p2048
asbag63
(g84
g65
NtRp2049
(dp2050
g68
(dp2051
g95
g96
ssg77
g2040
sg70
(lp2052
S':'
asbag63
(g84
g65
NtRp2053
(dp2054
g68
(dp2055
sg77
g2040
sg70
(lp2056
g63
(g64
g65
NtRp2057
(dp2058
g68
(dp2059
g76
I5
ssg77
g2053
sg70
(lp2060
S'load'
p2061
asbasbasbag63
(g79
g65
NtRp2062
(dp2063
g68
(dp2064
sg77
g73
sg70
(lp2065
g63
(g84
g65
NtRp2066
(dp2067
g68
(dp2068
g88
g89
ssg77
g2062
sg70
(lp2069
S'folder'
p2070
asbag63
(g84
g65
NtRp2071
(dp2072
g68
(dp2073
g95
g96
ssg77
g2062
sg70
(lp2074
S':'
asbag63
(g84
g65
NtRp2075
(dp2076
g68
(dp2077
sg77
g2062
sg70
(lp2078
g63
(g64
g65
NtRp2079
(dp2080
g68
(dp2081
g76
I5
ssg77
g2075
sg70
(lp2082
S'/home/ian/web/web2py/applications/grammateus3/'
p2083
asbasbasbag63
(g79
g65
NtRp2084
(dp2085
g68
(dp2086
sg77
g73
sg70
(lp2087
g63
(g84
g65
NtRp2088
(dp2089
g68
(dp2090
g88
g89
ssg77
g2084
sg70
(lp2091
S'function'
p2092
asbag63
(g84
g65
NtRp2093
(dp2094
g68
(dp2095
g95
g96
ssg77
g2084
sg70
(lp2096
S':'
asbag63
(g84
g65
NtRp2097
(dp2098
g68
(dp2099
sg77
g2084
sg70
(lp2100
g63
(g64
g65
NtRp2101
(dp2102
g68
(dp2103
g76
I5
ssg77
g2097
sg70
(lp2104
S'section'
p2105
asbasbasbag63
(g79
g65
NtRp2106
(dp2107
g68
(dp2108
sg77
g73
sg70
(lp2109
g63
(g84
g65
NtRp2110
(dp2111
g68
(dp2112
g88
g89
ssg77
g2106
sg70
(lp2113
S'get_vars'
p2114
asbag63
(g84
g65
NtRp2115
(dp2116
g68
(dp2117
g95
g96
ssg77
g2106
sg70
(lp2118
S':'
asbag63
(g84
g65
NtRp2119
(dp2120
g68
(dp2121
sg77
g2106
sg70
(lp2122
g63
(g64
g65
NtRp2123
(dp2124
g68
(dp2125
g76
I5
ssg77
g2119
sg70
(lp2126
g63
(g72
g65
NtRp2127
(dp2128
g68
(dp2129
g76
I4
ssg77
Nsg70
(lp2130
sbasbasbasbag63
(g79
g65
NtRp2131
(dp2132
g68
(dp2133
sg77
g73
sg70
(lp2134
g63
(g84
g65
NtRp2135
(dp2136
g68
(dp2137
g88
g89
ssg77
g2131
sg70
(lp2138
S'global_settings'
p2139
asbag63
(g84
g65
NtRp2140
(dp2141
g68
(dp2142
g95
g96
ssg77
g2131
sg70
(lp2143
S':'
asbag63
(g84
g65
NtRp2144
(dp2145
g68
(dp2146
sg77
g2131
sg70
(lp2147
g63
(g64
g65
NtRp2148
(dp2149
g68
(dp2150
g76
I5
ssg77
g2144
sg70
(lp2151
g63
(g72
g65
NtRp2152
(dp2153
g68
(dp2154
g76
I4
ssg77
Nsg70
(lp2155
g63
(g79
g65
NtRp2156
(dp2157
g68
(dp2158
sg77
g2152
sg70
(lp2159
g63
(g84
g65
NtRp2160
(dp2161
g68
(dp2162
g88
g89
ssg77
g2156
sg70
(lp2163
g1060
asbag63
(g84
g65
NtRp2164
(dp2165
g68
(dp2166
g95
g96
ssg77
g2156
sg70
(lp2167
S':'
asbag63
(g84
g65
NtRp2168
(dp2169
g68
(dp2170
sg77
g2156
sg70
(lp2171
g63
(g64
g65
NtRp2172
(dp2173
g68
(dp2174
g76
I4
ssg77
g2168
sg70
(lp2175
S"set(['/home/ian/web/web2py/applications/welcome/', '/home/ian/web/web2py/applications/grammateus3/', '/home/ian/web/web2py/applications/admin/'])"
p2176
asbasbasbag63
(g79
g65
NtRp2177
(dp2178
g68
(dp2179
sg77
g2152
sg70
(lp2180
g63
(g84
g65
NtRp2181
(dp2182
g68
(dp2183
g88
g89
ssg77
g2177
sg70
(lp2184
g1082
asbag63
(g84
g65
NtRp2185
(dp2186
g68
(dp2187
g95
g96
ssg77
g2177
sg70
(lp2188
S':'
asbag63
(g84
g65
NtRp2189
(dp2190
g68
(dp2191
sg77
g2177
sg70
(lp2192
g63
(g64
g65
NtRp2193
(dp2194
g68
(dp2195
g76
I4
ssg77
g2189
sg70
(lp2196
g1095
asbasbasbag63
(g79
g65
NtRp2197
(dp2198
g68
(dp2199
sg77
g2152
sg70
(lp2200
g63
(g84
g65
NtRp2201
(dp2202
g68
(dp2203
g88
g89
ssg77
g2197
sg70
(lp2204
g1104
asbag63
(g84
g65
NtRp2205
(dp2206
g68
(dp2207
g95
g96
ssg77
g2197
sg70
(lp2208
S':'
asbag63
(g84
g65
NtRp2209
(dp2210
g68
(dp2211
sg77
g2197
sg70
(lp2212
g63
(g64
g65
NtRp2213
(dp2214
g68
(dp2215
g76
I4
ssg77
g2209
sg70
(lp2216
g63
(g72
g65
NtRp2217
(dp2218
g68
(dp2219
g76
I3
ssg77
Nsg70
(lp2220
sbasbasbasbag63
(g79
g65
NtRp2221
(dp2222
g68
(dp2223
sg77
g2152
sg70
(lp2224
g63
(g84
g65
NtRp2225
(dp2226
g68
(dp2227
g88
g89
ssg77
g2221
sg70
(lp2228
g1129
asbag63
(g84
g65
NtRp2229
(dp2230
g68
(dp2231
g95
g96
ssg77
g2221
sg70
(lp2232
S':'
asbag63
(g84
g65
NtRp2233
(dp2234
g68
(dp2235
sg77
g2221
sg70
(lp2236
g63
(g64
g65
NtRp2237
(dp2238
g68
(dp2239
g76
I4
ssg77
g2233
sg70
(lp2240
S"<Values at 0x18c2680: {'verbose': False, 'ip': '127.0.0.1', 'shutdown_timeout': 5, 'taskbar': False, 'nocron': False, 'pid_filename': 'httpserver.pid', 'maxthreads': None, 'softcron': False, 'server_name': 'uriel', 'bpython': False, 'nogui': False, 'port': 8000, 'extcron': False, 'debuglevel': 30, 'test': None, 'folder': '/home/ian/web/web2py', 'config': '', 'import_models': False, 'winservice': '', 'shell': None, 'run': '', 'log_filename': 'httpserver.log', 'args': [''], 'socket_timeout': 1, 'ssl_ca_certificate': None, 'scheduler': None, 'profiler_filename': None, 'ssl_private_key': '', 'password': '<ask>', 'request_queue_size': 5, 'ssl_certificate': '', 'cronjob': False, 'numthreads': None, 'quiet': False, 'interfaces': None, 'minthreads': None, 'timeout': 10, 'plain': False, 'nobanner': False}>"
p2241
asbasbasbag63
(g79
g65
NtRp2242
(dp2243
g68
(dp2244
sg77
g2152
sg70
(lp2245
g63
(g84
g65
NtRp2246
(dp2247
g68
(dp2248
g88
g89
ssg77
g2242
sg70
(lp2249
g1151
asbag63
(g84
g65
NtRp2250
(dp2251
g68
(dp2252
g95
g96
ssg77
g2242
sg70
(lp2253
S':'
asbag63
(g84
g65
NtRp2254
(dp2255
g68
(dp2256
sg77
g2242
sg70
(lp2257
g63
(g64
g65
NtRp2258
(dp2259
g68
(dp2260
g76
I4
ssg77
g2254
sg70
(lp2261
S'set([])'
p2262
asbasbasbag63
(g79
g65
NtRp2263
(dp2264
g68
(dp2265
sg77
g2152
sg70
(lp2266
g63
(g84
g65
NtRp2267
(dp2268
g68
(dp2269
g88
g89
ssg77
g2263
sg70
(lp2270
g1173
asbag63
(g84
g65
NtRp2271
(dp2272
g68
(dp2273
g95
g96
ssg77
g2263
sg70
(lp2274
S':'
asbag63
(g84
g65
NtRp2275
(dp2276
g68
(dp2277
sg77
g2263
sg70
(lp2278
g63
(g64
g65
NtRp2279
(dp2280
g68
(dp2281
g76
I4
ssg77
g2275
sg70
(lp2282
g1186
asbasbasbag63
(g79
g65
NtRp2283
(dp2284
g68
(dp2285
sg77
g2152
sg70
(lp2286
g63
(g84
g65
NtRp2287
(dp2288
g68
(dp2289
g88
g89
ssg77
g2283
sg70
(lp2290
g1195
asbag63
(g84
g65
NtRp2291
(dp2292
g68
(dp2293
g95
g96
ssg77
g2283
sg70
(lp2294
S':'
asbag63
(g84
g65
NtRp2295
(dp2296
g68
(dp2297
sg77
g2283
sg70
(lp2298
g63
(g64
g65
NtRp2299
(dp2300
g68
(dp2301
g76
I4
ssg77
g2295
sg70
(lp2302
g1208
asbasbasbag63
(g79
g65
NtRp2303
(dp2304
g68
(dp2305
sg77
g2152
sg70
(lp2306
g63
(g84
g65
NtRp2307
(dp2308
g68
(dp2309
g88
g89
ssg77
g2303
sg70
(lp2310
g1458
asbag63
(g84
g65
NtRp2311
(dp2312
g68
(dp2313
g95
g96
ssg77
g2303
sg70
(lp2314
S':'
asbag63
(g84
g65
NtRp2315
(dp2316
g68
(dp2317
sg77
g2303
sg70
(lp2318
g63
(g64
g65
NtRp2319
(dp2320
g68
(dp2321
g76
I4
ssg77
g2315
sg70
(lp2322
g1186
asbasbasbag63
(g79
g65
NtRp2323
(dp2324
g68
(dp2325
sg77
g2152
sg70
(lp2326
g63
(g84
g65
NtRp2327
(dp2328
g68
(dp2329
g88
g89
ssg77
g2323
sg70
(lp2330
g1479
asbag63
(g84
g65
NtRp2331
(dp2332
g68
(dp2333
g95
g96
ssg77
g2323
sg70
(lp2334
S':'
asbag63
(g84
g65
NtRp2335
(dp2336
g68
(dp2337
sg77
g2323
sg70
(lp2338
g63
(g64
g65
NtRp2339
(dp2340
g68
(dp2341
g76
I4
ssg77
g2335
sg70
(lp2342
g1186
asbasbasbag63
(g79
g65
NtRp2343
(dp2344
g68
(dp2345
sg77
g2152
sg70
(lp2346
g63
(g84
g65
NtRp2347
(dp2348
g68
(dp2349
g88
g89
ssg77
g2343
sg70
(lp2350
g1717
asbag63
(g84
g65
NtRp2351
(dp2352
g68
(dp2353
g95
g96
ssg77
g2343
sg70
(lp2354
S':'
asbag63
(g84
g65
NtRp2355
(dp2356
g68
(dp2357
sg77
g2343
sg70
(lp2358
g63
(g64
g65
NtRp2359
(dp2360
g68
(dp2361
g76
I4
ssg77
g2355
sg70
(lp2362
g1730
asbasbasbag63
(g79
g65
NtRp2363
(dp2364
g68
(dp2365
sg77
g2152
sg70
(lp2366
g63
(g84
g65
NtRp2367
(dp2368
g68
(dp2369
g88
g89
ssg77
g2363
sg70
(lp2370
g1760
asbag63
(g84
g65
NtRp2371
(dp2372
g68
(dp2373
g95
g96
ssg77
g2363
sg70
(lp2374
S':'
asbag63
(g84
g65
NtRp2375
(dp2376
g68
(dp2377
sg77
g2363
sg70
(lp2378
g63
(g64
g65
NtRp2379
(dp2380
g68
(dp2381
g76
I4
ssg77
g2375
sg70
(lp2382
g63
(g72
g65
NtRp2383
(dp2384
g68
(dp2385
g76
I3
ssg77
Nsg70
(lp2386
g63
(g79
g65
NtRp2387
(dp2388
g68
(dp2389
sg77
g2383
sg70
(lp2390
g63
(g84
g65
NtRp2391
(dp2392
g68
(dp2393
sg77
g2387
sg70
(lp2394
g63
(g64
g65
NtRp2395
(dp2396
g68
(dp2397
g76
I3
ssg77
g2391
sg70
(lp2398
S'1'
asbasbasbag63
(g79
g65
NtRp2399
(dp2400
g68
(dp2401
sg77
g2383
sg70
(lp2402
g63
(g84
g65
NtRp2403
(dp2404
g68
(dp2405
sg77
g2399
sg70
(lp2406
g63
(g64
g65
NtRp2407
(dp2408
g68
(dp2409
g76
I3
ssg77
g2403
sg70
(lp2410
S'99'
p2411
asbasbasbag63
(g79
g65
NtRp2412
(dp2413
g68
(dp2414
sg77
g2383
sg70
(lp2415
g63
(g84
g65
NtRp2416
(dp2417
g68
(dp2418
sg77
g2412
sg70
(lp2419
g63
(g64
g65
NtRp2420
(dp2421
g68
(dp2422
g76
I3
ssg77
g2416
sg70
(lp2423
S'4'
asbasbasbag63
(g79
g65
NtRp2424
(dp2425
g68
(dp2426
sg77
g2383
sg70
(lp2427
g63
(g84
g65
NtRp2428
(dp2429
g68
(dp2430
sg77
g2424
sg70
(lp2431
g63
(g64
g65
NtRp2432
(dp2433
g68
(dp2434
g76
I3
ssg77
g2428
sg70
(lp2435
S'datetime.datetime(2011, 12, 14, 14, 46, 14)'
p2436
asbasbasbag63
(g79
g65
NtRp2437
(dp2438
g68
(dp2439
sg77
g2383
sg70
(lp2440
g63
(g84
g65
NtRp2441
(dp2442
g68
(dp2443
sg77
g2437
sg70
(lp2444
g63
(g64
g65
NtRp2445
(dp2446
g68
(dp2447
g76
I3
ssg77
g2441
sg70
(lp2448
g1839
asbasbasbasbasbasbasbasbasbasbasbag63
(g79
g65
NtRp2449
(dp2450
g68
(dp2451
sg77
g73
sg70
(lp2452
g63
(g84
g65
NtRp2453
(dp2454
g68
(dp2455
g88
g89
ssg77
g2449
sg70
(lp2456
S'is_https'
p2457
asbag63
(g84
g65
NtRp2458
(dp2459
g68
(dp2460
g95
g96
ssg77
g2449
sg70
(lp2461
S':'
asbag63
(g84
g65
NtRp2462
(dp2463
g68
(dp2464
sg77
g2449
sg70
(lp2465
g63
(g64
g65
NtRp2466
(dp2467
g68
(dp2468
g76
I5
ssg77
g2462
sg70
(lp2469
g1186
asbasbasbag63
(g79
g65
NtRp2470
(dp2471
g68
(dp2472
sg77
g73
sg70
(lp2473
g63
(g84
g65
NtRp2474
(dp2475
g68
(dp2476
g88
g89
ssg77
g2470
sg70
(lp2477
S'is_local'
p2478
asbag63
(g84
g65
NtRp2479
(dp2480
g68
(dp2481
g95
g96
ssg77
g2470
sg70
(lp2482
S':'
asbag63
(g84
g65
NtRp2483
(dp2484
g68
(dp2485
sg77
g2470
sg70
(lp2486
g63
(g64
g65
NtRp2487
(dp2488
g68
(dp2489
g76
I5
ssg77
g2483
sg70
(lp2490
g106
asbasbasbag63
(g79
g65
NtRp2491
(dp2492
g68
(dp2493
sg77
g73
sg70
(lp2494
g63
(g84
g65
NtRp2495
(dp2496
g68
(dp2497
g88
g89
ssg77
g2491
sg70
(lp2498
S'is_restful'
p2499
asbag63
(g84
g65
NtRp2500
(dp2501
g68
(dp2502
g95
g96
ssg77
g2491
sg70
(lp2503
S':'
asbag63
(g84
g65
NtRp2504
(dp2505
g68
(dp2506
sg77
g2491
sg70
(lp2507
g63
(g64
g65
NtRp2508
(dp2509
g68
(dp2510
g76
I5
ssg77
g2504
sg70
(lp2511
g1186
asbasbasbag63
(g79
g65
NtRp2512
(dp2513
g68
(dp2514
sg77
g73
sg70
(lp2515
g63
(g84
g65
NtRp2516
(dp2517
g68
(dp2518
g88
g89
ssg77
g2512
sg70
(lp2519
S'now'
p2520
asbag63
(g84
g65
NtRp2521
(dp2522
g68
(dp2523
g95
g96
ssg77
g2512
sg70
(lp2524
S':'
asbag63
(g84
g65
NtRp2525
(dp2526
g68
(dp2527
sg77
g2512
sg70
(lp2528
g63
(g64
g65
NtRp2529
(dp2530
g68
(dp2531
g76
I5
ssg77
g2525
sg70
(lp2532
S'datetime.datetime(2012, 3, 8, 23, 8, 23, 800979)'
p2533
asbasbasbag63
(g79
g65
NtRp2534
(dp2535
g68
(dp2536
sg77
g73
sg70
(lp2537
g63
(g84
g65
NtRp2538
(dp2539
g68
(dp2540
g88
g89
ssg77
g2534
sg70
(lp2541
S'post_vars'
p2542
asbag63
(g84
g65
NtRp2543
(dp2544
g68
(dp2545
g95
g96
ssg77
g2534
sg70
(lp2546
S':'
asbag63
(g84
g65
NtRp2547
(dp2548
g68
(dp2549
sg77
g2534
sg70
(lp2550
g63
(g64
g65
NtRp2551
(dp2552
g68
(dp2553
g76
I5
ssg77
g2547
sg70
(lp2554
g63
(g72
g65
NtRp2555
(dp2556
g68
(dp2557
g76
I4
ssg77
Nsg70
(lp2558
sbasbasbasbag63
(g79
g65
NtRp2559
(dp2560
g68
(dp2561
sg77
g73
sg70
(lp2562
g63
(g84
g65
NtRp2563
(dp2564
g68
(dp2565
g88
g89
ssg77
g2559
sg70
(lp2566
S'raw_args'
p2567
asbag63
(g84
g65
NtRp2568
(dp2569
g68
(dp2570
g95
g96
ssg77
g2559
sg70
(lp2571
S':'
asbag63
(g84
g65
NtRp2572
(dp2573
g68
(dp2574
sg77
g2559
sg70
(lp2575
g63
(g64
g65
NtRp2576
(dp2577
g68
(dp2578
g76
I5
ssg77
g2572
sg70
(lp2579
g165
asbasbasbag63
(g79
g65
NtRp2580
(dp2581
g68
(dp2582
sg77
g73
sg70
(lp2583
g63
(g84
g65
NtRp2584
(dp2585
g68
(dp2586
g88
g89
ssg77
g2580
sg70
(lp2587
S'raw_extension'
p2588
asbag63
(g84
g65
NtRp2589
(dp2590
g68
(dp2591
g95
g96
ssg77
g2580
sg70
(lp2592
S':'
asbag63
(g84
g65
NtRp2593
(dp2594
g68
(dp2595
sg77
g2580
sg70
(lp2596
g63
(g64
g65
NtRp2597
(dp2598
g68
(dp2599
g76
I5
ssg77
g2593
sg70
(lp2600
g2061
asbasbasbag63
(g79
g65
NtRp2601
(dp2602
g68
(dp2603
sg77
g73
sg70
(lp2604
g63
(g84
g65
NtRp2605
(dp2606
g68
(dp2607
g88
g89
ssg77
g2601
sg70
(lp2608
S'url'
p2609
asbag63
(g84
g65
NtRp2610
(dp2611
g68
(dp2612
g95
g96
ssg77
g2601
sg70
(lp2613
S':'
asbag63
(g84
g65
NtRp2614
(dp2615
g68
(dp2616
sg77
g2601
sg70
(lp2617
g63
(g64
g65
NtRp2618
(dp2619
g68
(dp2620
g76
I5
ssg77
g2614
sg70
(lp2621
S'/grammateus3/docs/section.load/22'
p2622
asbasbasbag63
(g79
g65
NtRp2623
(dp2624
g68
(dp2625
sg77
g73
sg70
(lp2626
g63
(g84
g65
NtRp2627
(dp2628
g68
(dp2629
g88
g89
ssg77
g2623
sg70
(lp2630
S'utcnow'
p2631
asbag63
(g84
g65
NtRp2632
(dp2633
g68
(dp2634
g95
g96
ssg77
g2623
sg70
(lp2635
S':'
asbag63
(g84
g65
NtRp2636
(dp2637
g68
(dp2638
sg77
g2623
sg70
(lp2639
g63
(g64
g65
NtRp2640
(dp2641
g68
(dp2642
g76
I5
ssg77
g2636
sg70
(lp2643
S'datetime.datetime(2012, 3, 9, 4, 8, 23, 801019)'
p2644
asbasbasbag63
(g79
g65
NtRp2645
(dp2646
g68
(dp2647
sg77
g73
sg70
(lp2648
g63
(g84
g65
NtRp2649
(dp2650
g68
(dp2651
g88
g89
ssg77
g2645
sg70
(lp2652
S'uuid'
p2653
asbag63
(g84
g65
NtRp2654
(dp2655
g68
(dp2656
g95
g96
ssg77
g2645
sg70
(lp2657
S':'
asbag63
(g84
g65
NtRp2658
(dp2659
g68
(dp2660
sg77
g2645
sg70
(lp2661
g63
(g64
g65
NtRp2662
(dp2663
g68
(dp2664
g76
I5
ssg77
g2658
sg70
(lp2665
S'grammateus3/127.0.0.1.2012-03-08.23-08-23.3d4444ab-d8c2-41c6-8319-690630844469'
p2666
asbasbasbag63
(g79
g65
NtRp2667
(dp2668
g68
(dp2669
sg77
g73
sg70
(lp2670
g63
(g84
g65
NtRp2671
(dp2672
g68
(dp2673
g88
g89
ssg77
g2667
sg70
(lp2674
S'vars'
p2675
asbag63
(g84
g65
NtRp2676
(dp2677
g68
(dp2678
g95
g96
ssg77
g2667
sg70
(lp2679
S':'
asbag63
(g84
g65
NtRp2680
(dp2681
g68
(dp2682
sg77
g2667
sg70
(lp2683
g63
(g64
g65
NtRp2684
(dp2685
g68
(dp2686
g76
I5
ssg77
g2680
sg70
(lp2687
g63
(g72
g65
NtRp2688
(dp2689
g68
(dp2690
g76
I4
ssg77
Nsg70
(lp2691
sbasbasbasbag63
(g79
g65
NtRp2692
(dp2693
g68
(dp2694
sg77
g73
sg70
(lp2695
g63
(g84
g65
NtRp2696
(dp2697
g68
(dp2698
g88
g89
ssg77
g2692
sg70
(lp2699
S'wsgi'
p2700
asbag63
(g84
g65
NtRp2701
(dp2702
g68
(dp2703
g95
g96
ssg77
g2692
sg70
(lp2704
S':'
asbag63
(g84
g65
NtRp2705
(dp2706
g68
(dp2707
sg77
g2692
sg70
(lp2708
g63
(g64
g65
NtRp2709
(dp2710
g68
(dp2711
g76
I5
ssg77
g2705
sg70
(lp2712
g63
(g72
g65
NtRp2713
(dp2714
g68
(dp2715
g76
I4
ssg77
Nsg70
(lp2716
g63
(g79
g65
NtRp2717
(dp2718
g68
(dp2719
sg77
g2713
sg70
(lp2720
g63
(g84
g65
NtRp2721
(dp2722
g68
(dp2723
g88
g89
ssg77
g2717
sg70
(lp2724
S'environ'
p2725
asbag63
(g84
g65
NtRp2726
(dp2727
g68
(dp2728
g95
g96
ssg77
g2717
sg70
(lp2729
S':'
asbag63
(g84
g65
NtRp2730
(dp2731
g68
(dp2732
sg77
g2717
sg70
(lp2733
g63
(g64
g65
NtRp2734
(dp2735
g68
(dp2736
g76
I4
ssg77
g2730
sg70
(lp2737
g63
(g72
g65
NtRp2738
(dp2739
g68
(dp2740
g76
I3
ssg77
Nsg70
(lp2741
g63
(g79
g65
NtRp2742
(dp2743
g68
(dp2744
sg77
g2738
sg70
(lp2745
g63
(g84
g65
NtRp2746
(dp2747
g68
(dp2748
g88
g89
ssg77
g2742
sg70
(lp2749
S'HTTP_ACCEPT'
p2750
asbag63
(g84
g65
NtRp2751
(dp2752
g68
(dp2753
g95
g96
ssg77
g2742
sg70
(lp2754
S':'
asbag63
(g84
g65
NtRp2755
(dp2756
g68
(dp2757
sg77
g2742
sg70
(lp2758
g63
(g64
g65
NtRp2759
(dp2760
g68
(dp2761
g76
I3
ssg77
g2755
sg70
(lp2762
g1230
asbasbasbag63
(g79
g65
NtRp2763
(dp2764
g68
(dp2765
sg77
g2738
sg70
(lp2766
g63
(g84
g65
NtRp2767
(dp2768
g68
(dp2769
g88
g89
ssg77
g2763
sg70
(lp2770
S'HTTP_ACCEPT_ENCODING'
p2771
asbag63
(g84
g65
NtRp2772
(dp2773
g68
(dp2774
g95
g96
ssg77
g2763
sg70
(lp2775
S':'
asbag63
(g84
g65
NtRp2776
(dp2777
g68
(dp2778
sg77
g2763
sg70
(lp2779
g63
(g64
g65
NtRp2780
(dp2781
g68
(dp2782
g76
I3
ssg77
g2776
sg70
(lp2783
g1252
asbasbasbag63
(g79
g65
NtRp2784
(dp2785
g68
(dp2786
sg77
g2738
sg70
(lp2787
g63
(g84
g65
NtRp2788
(dp2789
g68
(dp2790
g88
g89
ssg77
g2784
sg70
(lp2791
S'HTTP_ACCEPT_LANGUAGE'
p2792
asbag63
(g84
g65
NtRp2793
(dp2794
g68
(dp2795
g95
g96
ssg77
g2784
sg70
(lp2796
S':'
asbag63
(g84
g65
NtRp2797
(dp2798
g68
(dp2799
sg77
g2784
sg70
(lp2800
g63
(g64
g65
NtRp2801
(dp2802
g68
(dp2803
g76
I3
ssg77
g2797
sg70
(lp2804
g1274
asbasbasbag63
(g79
g65
NtRp2805
(dp2806
g68
(dp2807
sg77
g2738
sg70
(lp2808
g63
(g84
g65
NtRp2809
(dp2810
g68
(dp2811
g88
g89
ssg77
g2805
sg70
(lp2812
S'HTTP_CONNECTION'
p2813
asbag63
(g84
g65
NtRp2814
(dp2815
g68
(dp2816
g95
g96
ssg77
g2805
sg70
(lp2817
S':'
asbag63
(g84
g65
NtRp2818
(dp2819
g68
(dp2820
sg77
g2805
sg70
(lp2821
g63
(g64
g65
NtRp2822
(dp2823
g68
(dp2824
g76
I3
ssg77
g2818
sg70
(lp2825
g1296
asbasbasbag63
(g79
g65
NtRp2826
(dp2827
g68
(dp2828
sg77
g2738
sg70
(lp2829
g63
(g84
g65
NtRp2830
(dp2831
g68
(dp2832
g88
g89
ssg77
g2826
sg70
(lp2833
S'HTTP_COOKIE'
p2834
asbag63
(g84
g65
NtRp2835
(dp2836
g68
(dp2837
g95
g96
ssg77
g2826
sg70
(lp2838
S':'
asbag63
(g84
g65
NtRp2839
(dp2840
g68
(dp2841
sg77
g2826
sg70
(lp2842
g63
(g64
g65
NtRp2843
(dp2844
g68
(dp2845
g76
I3
ssg77
g2839
sg70
(lp2846
g1318
asbasbasbag63
(g79
g65
NtRp2847
(dp2848
g68
(dp2849
sg77
g2738
sg70
(lp2850
g63
(g84
g65
NtRp2851
(dp2852
g68
(dp2853
g88
g89
ssg77
g2847
sg70
(lp2854
S'HTTP_HOST'
p2855
asbag63
(g84
g65
NtRp2856
(dp2857
g68
(dp2858
g95
g96
ssg77
g2847
sg70
(lp2859
S':'
asbag63
(g84
g65
NtRp2860
(dp2861
g68
(dp2862
sg77
g2847
sg70
(lp2863
g63
(g64
g65
NtRp2864
(dp2865
g68
(dp2866
g76
I3
ssg77
g2860
sg70
(lp2867
g1340
asbasbasbag63
(g79
g65
NtRp2868
(dp2869
g68
(dp2870
sg77
g2738
sg70
(lp2871
g63
(g84
g65
NtRp2872
(dp2873
g68
(dp2874
g88
g89
ssg77
g2868
sg70
(lp2875
S'HTTP_REFERER'
p2876
asbag63
(g84
g65
NtRp2877
(dp2878
g68
(dp2879
g95
g96
ssg77
g2868
sg70
(lp2880
S':'
asbag63
(g84
g65
NtRp2881
(dp2882
g68
(dp2883
sg77
g2868
sg70
(lp2884
g63
(g64
g65
NtRp2885
(dp2886
g68
(dp2887
g76
I3
ssg77
g2881
sg70
(lp2888
g1362
asbasbasbag63
(g79
g65
NtRp2889
(dp2890
g68
(dp2891
sg77
g2738
sg70
(lp2892
g63
(g84
g65
NtRp2893
(dp2894
g68
(dp2895
g88
g89
ssg77
g2889
sg70
(lp2896
S'HTTP_USER_AGENT'
p2897
asbag63
(g84
g65
NtRp2898
(dp2899
g68
(dp2900
g95
g96
ssg77
g2889
sg70
(lp2901
S':'
asbag63
(g84
g65
NtRp2902
(dp2903
g68
(dp2904
sg77
g2889
sg70
(lp2905
g63
(g64
g65
NtRp2906
(dp2907
g68
(dp2908
g76
I3
ssg77
g2902
sg70
(lp2909
g1384
asbasbasbag63
(g79
g65
NtRp2910
(dp2911
g68
(dp2912
sg77
g2738
sg70
(lp2913
g63
(g84
g65
NtRp2914
(dp2915
g68
(dp2916
g88
g89
ssg77
g2910
sg70
(lp2917
S'HTTP_WEB2PY_COMPONENT_ELEMENT'
p2918
asbag63
(g84
g65
NtRp2919
(dp2920
g68
(dp2921
g95
g96
ssg77
g2910
sg70
(lp2922
S':'
asbag63
(g84
g65
NtRp2923
(dp2924
g68
(dp2925
sg77
g2910
sg70
(lp2926
g63
(g64
g65
NtRp2927
(dp2928
g68
(dp2929
g76
I3
ssg77
g2923
sg70
(lp2930
g209
asbasbasbag63
(g79
g65
NtRp2931
(dp2932
g68
(dp2933
sg77
g2738
sg70
(lp2934
g63
(g84
g65
NtRp2935
(dp2936
g68
(dp2937
g88
g89
ssg77
g2931
sg70
(lp2938
S'HTTP_WEB2PY_COMPONENT_LOCATION'
p2939
asbag63
(g84
g65
NtRp2940
(dp2941
g68
(dp2942
g95
g96
ssg77
g2931
sg70
(lp2943
S':'
asbag63
(g84
g65
NtRp2944
(dp2945
g68
(dp2946
sg77
g2931
sg70
(lp2947
g63
(g64
g65
NtRp2948
(dp2949
g68
(dp2950
g76
I3
ssg77
g2944
sg70
(lp2951
g1427
asbasbasbag63
(g79
g65
NtRp2952
(dp2953
g68
(dp2954
sg77
g2738
sg70
(lp2955
g63
(g84
g65
NtRp2956
(dp2957
g68
(dp2958
g88
g89
ssg77
g2952
sg70
(lp2959
S'HTTP_X_REQUESTED_WITH'
p2960
asbag63
(g84
g65
NtRp2961
(dp2962
g68
(dp2963
g95
g96
ssg77
g2952
sg70
(lp2964
S':'
asbag63
(g84
g65
NtRp2965
(dp2966
g68
(dp2967
sg77
g2952
sg70
(lp2968
g63
(g64
g65
NtRp2969
(dp2970
g68
(dp2971
g76
I3
ssg77
g2965
sg70
(lp2972
g1449
asbasbasbag63
(g79
g65
NtRp2973
(dp2974
g68
(dp2975
sg77
g2738
sg70
(lp2976
g63
(g84
g65
NtRp2977
(dp2978
g68
(dp2979
g88
g89
ssg77
g2973
sg70
(lp2980
S'PATH_INFO'
p2981
asbag63
(g84
g65
NtRp2982
(dp2983
g68
(dp2984
g95
g96
ssg77
g2973
sg70
(lp2985
S':'
asbag63
(g84
g65
NtRp2986
(dp2987
g68
(dp2988
sg77
g2973
sg70
(lp2989
g63
(g64
g65
NtRp2990
(dp2991
g68
(dp2992
g76
I3
ssg77
g2986
sg70
(lp2993
g1513
asbasbasbag63
(g79
g65
NtRp2994
(dp2995
g68
(dp2996
sg77
g2738
sg70
(lp2997
g63
(g84
g65
NtRp2998
(dp2999
g68
(dp3000
g88
g89
ssg77
g2994
sg70
(lp3001
S'QUERY_STRING'
p3002
asbag63
(g84
g65
NtRp3003
(dp3004
g68
(dp3005
g95
g96
ssg77
g2994
sg70
(lp3006
S':'
asbag63
(g84
g65
NtRp3007
(dp3008
g68
(dp3009
sg77
g2994
sg70
(lp3010
g63
(g64
g65
NtRp3011
(dp3012
g68
(dp3013
g76
I3
ssg77
g3007
sg70
(lp3014
S''
asbasbasbag63
(g79
g65
NtRp3015
(dp3016
g68
(dp3017
sg77
g2738
sg70
(lp3018
g63
(g84
g65
NtRp3019
(dp3020
g68
(dp3021
g88
g89
ssg77
g3015
sg70
(lp3022
S'REMOTE_ADDR'
p3023
asbag63
(g84
g65
NtRp3024
(dp3025
g68
(dp3026
g95
g96
ssg77
g3015
sg70
(lp3027
S':'
asbag63
(g84
g65
NtRp3028
(dp3029
g68
(dp3030
sg77
g3015
sg70
(lp3031
g63
(g64
g65
NtRp3032
(dp3033
g68
(dp3034
g76
I3
ssg77
g3028
sg70
(lp3035
g231
asbasbasbag63
(g79
g65
NtRp3036
(dp3037
g68
(dp3038
sg77
g2738
sg70
(lp3039
g63
(g84
g65
NtRp3040
(dp3041
g68
(dp3042
g88
g89
ssg77
g3036
sg70
(lp3043
S'REMOTE_PORT'
p3044
asbag63
(g84
g65
NtRp3045
(dp3046
g68
(dp3047
g95
g96
ssg77
g3036
sg70
(lp3048
S':'
asbag63
(g84
g65
NtRp3049
(dp3050
g68
(dp3051
sg77
g3036
sg70
(lp3052
g63
(g64
g65
NtRp3053
(dp3054
g68
(dp3055
g76
I3
ssg77
g3049
sg70
(lp3056
g1577
asbasbasbag63
(g79
g65
NtRp3057
(dp3058
g68
(dp3059
sg77
g2738
sg70
(lp3060
g63
(g84
g65
NtRp3061
(dp3062
g68
(dp3063
g88
g89
ssg77
g3057
sg70
(lp3064
S'REQUEST_METHOD'
p3065
asbag63
(g84
g65
NtRp3066
(dp3067
g68
(dp3068
g95
g96
ssg77
g3057
sg70
(lp3069
S':'
asbag63
(g84
g65
NtRp3070
(dp3071
g68
(dp3072
sg77
g3057
sg70
(lp3073
g63
(g64
g65
NtRp3074
(dp3075
g68
(dp3076
g76
I3
ssg77
g3070
sg70
(lp3077
g1599
asbasbasbag63
(g79
g65
NtRp3078
(dp3079
g68
(dp3080
sg77
g2738
sg70
(lp3081
g63
(g84
g65
NtRp3082
(dp3083
g68
(dp3084
g88
g89
ssg77
g3078
sg70
(lp3085
S'SCRIPT_NAME'
p3086
asbag63
(g84
g65
NtRp3087
(dp3088
g68
(dp3089
g95
g96
ssg77
g3078
sg70
(lp3090
S':'
asbag63
(g84
g65
NtRp3091
(dp3092
g68
(dp3093
sg77
g3078
sg70
(lp3094
g63
(g64
g65
NtRp3095
(dp3096
g68
(dp3097
g76
I3
ssg77
g3091
sg70
(lp3098
S''
asbasbasbag63
(g79
g65
NtRp3099
(dp3100
g68
(dp3101
sg77
g2738
sg70
(lp3102
g63
(g84
g65
NtRp3103
(dp3104
g68
(dp3105
g88
g89
ssg77
g3099
sg70
(lp3106
S'SERVER_NAME'
p3107
asbag63
(g84
g65
NtRp3108
(dp3109
g68
(dp3110
g95
g96
ssg77
g3099
sg70
(lp3111
S':'
asbag63
(g84
g65
NtRp3112
(dp3113
g68
(dp3114
sg77
g3099
sg70
(lp3115
g63
(g64
g65
NtRp3116
(dp3117
g68
(dp3118
g76
I3
ssg77
g3112
sg70
(lp3119
g1642
asbasbasbag63
(g79
g65
NtRp3120
(dp3121
g68
(dp3122
sg77
g2738
sg70
(lp3123
g63
(g84
g65
NtRp3124
(dp3125
g68
(dp3126
g88
g89
ssg77
g3120
sg70
(lp3127
S'SERVER_PORT'
p3128
asbag63
(g84
g65
NtRp3129
(dp3130
g68
(dp3131
g95
g96
ssg77
g3120
sg70
(lp3132
S':'
asbag63
(g84
g65
NtRp3133
(dp3134
g68
(dp3135
sg77
g3120
sg70
(lp3136
g63
(g64
g65
NtRp3137
(dp3138
g68
(dp3139
g76
I3
ssg77
g3133
sg70
(lp3140
g1664
asbasbasbag63
(g79
g65
NtRp3141
(dp3142
g68
(dp3143
sg77
g2738
sg70
(lp3144
g63
(g84
g65
NtRp3145
(dp3146
g68
(dp3147
g88
g89
ssg77
g3141
sg70
(lp3148
S'SERVER_PROTOCOL'
p3149
asbag63
(g84
g65
NtRp3150
(dp3151
g68
(dp3152
g95
g96
ssg77
g3141
sg70
(lp3153
S':'
asbag63
(g84
g65
NtRp3154
(dp3155
g68
(dp3156
sg77
g3141
sg70
(lp3157
g63
(g64
g65
NtRp3158
(dp3159
g68
(dp3160
g76
I3
ssg77
g3154
sg70
(lp3161
g1686
asbasbasbag63
(g79
g65
NtRp3162
(dp3163
g68
(dp3164
sg77
g2738
sg70
(lp3165
g63
(g84
g65
NtRp3166
(dp3167
g68
(dp3168
g88
g89
ssg77
g3162
sg70
(lp3169
S'SERVER_SOFTWARE'
p3170
asbag63
(g84
g65
NtRp3171
(dp3172
g68
(dp3173
g95
g96
ssg77
g3162
sg70
(lp3174
S':'
asbag63
(g84
g65
NtRp3175
(dp3176
g68
(dp3177
sg77
g3162
sg70
(lp3178
g63
(g64
g65
NtRp3179
(dp3180
g68
(dp3181
g76
I3
ssg77
g3175
sg70
(lp3182
g1708
asbasbasbag63
(g79
g65
NtRp3183
(dp3184
g68
(dp3185
sg77
g2738
sg70
(lp3186
g63
(g84
g65
NtRp3187
(dp3188
g68
(dp3189
g88
g89
ssg77
g3183
sg70
(lp3190
S'wsgi.errors'
p3191
asbag63
(g84
g65
NtRp3192
(dp3193
g68
(dp3194
g95
g96
ssg77
g3183
sg70
(lp3195
S':'
asbag63
(g84
g65
NtRp3196
(dp3197
g68
(dp3198
sg77
g3183
sg70
(lp3199
g63
(g64
g65
NtRp3200
(dp3201
g68
(dp3202
g76
I3
ssg77
g3196
sg70
(lp3203
S"<open file '<stderr>', mode 'w' at 0x7f6191f23270>"
p3204
asbasbasbag63
(g79
g65
NtRp3205
(dp3206
g68
(dp3207
sg77
g2738
sg70
(lp3208
g63
(g84
g65
NtRp3209
(dp3210
g68
(dp3211
g88
g89
ssg77
g3205
sg70
(lp3212
S'wsgi.file_wrapper'
p3213
asbag63
(g84
g65
NtRp3214
(dp3215
g68
(dp3216
g95
g96
ssg77
g3205
sg70
(lp3217
S':'
asbag63
(g84
g65
NtRp3218
(dp3219
g68
(dp3220
sg77
g3205
sg70
(lp3221
g63
(g64
g65
NtRp3222
(dp3223
g68
(dp3224
g76
I3
ssg77
g3218
sg70
(lp3225
S'<class wsgiref.util.FileWrapper at 0x178cd50>'
p3226
asbasbasbag63
(g79
g65
NtRp3227
(dp3228
g68
(dp3229
sg77
g2738
sg70
(lp3230
g63
(g84
g65
NtRp3231
(dp3232
g68
(dp3233
g88
g89
ssg77
g3227
sg70
(lp3234
S'wsgi.input'
p3235
asbag63
(g84
g65
NtRp3236
(dp3237
g68
(dp3238
g95
g96
ssg77
g3227
sg70
(lp3239
S':'
asbag63
(g84
g65
NtRp3240
(dp3241
g68
(dp3242
sg77
g3227
sg70
(lp3243
g63
(g64
g65
NtRp3244
(dp3245
g68
(dp3246
g76
I3
ssg77
g3240
sg70
(lp3247
S'<cStringIO.StringO object at 0x7f61781fdf10>'
p3248
asbasbasbag63
(g79
g65
NtRp3249
(dp3250
g68
(dp3251
sg77
g2738
sg70
(lp3252
g63
(g84
g65
NtRp3253
(dp3254
g68
(dp3255
g88
g89
ssg77
g3249
sg70
(lp3256
S'wsgi.multiprocess'
p3257
asbag63
(g84
g65
NtRp3258
(dp3259
g68
(dp3260
g95
g96
ssg77
g3249
sg70
(lp3261
S':'
asbag63
(g84
g65
NtRp3262
(dp3263
g68
(dp3264
sg77
g3249
sg70
(lp3265
g63
(g64
g65
NtRp3266
(dp3267
g68
(dp3268
g76
I3
ssg77
g3262
sg70
(lp3269
g1186
asbasbasbag63
(g79
g65
NtRp3270
(dp3271
g68
(dp3272
sg77
g2738
sg70
(lp3273
g63
(g84
g65
NtRp3274
(dp3275
g68
(dp3276
g88
g89
ssg77
g3270
sg70
(lp3277
S'wsgi.multithread'
p3278
asbag63
(g84
g65
NtRp3279
(dp3280
g68
(dp3281
g95
g96
ssg77
g3270
sg70
(lp3282
S':'
asbag63
(g84
g65
NtRp3283
(dp3284
g68
(dp3285
sg77
g3270
sg70
(lp3286
g63
(g64
g65
NtRp3287
(dp3288
g68
(dp3289
g76
I3
ssg77
g3283
sg70
(lp3290
g106
asbasbasbag63
(g79
g65
NtRp3291
(dp3292
g68
(dp3293
sg77
g2738
sg70
(lp3294
g63
(g84
g65
NtRp3295
(dp3296
g68
(dp3297
g88
g89
ssg77
g3291
sg70
(lp3298
S'wsgi.run_once'
p3299
asbag63
(g84
g65
NtRp3300
(dp3301
g68
(dp3302
g95
g96
ssg77
g3291
sg70
(lp3303
S':'
asbag63
(g84
g65
NtRp3304
(dp3305
g68
(dp3306
sg77
g3291
sg70
(lp3307
g63
(g64
g65
NtRp3308
(dp3309
g68
(dp3310
g76
I3
ssg77
g3304
sg70
(lp3311
g1186
asbasbasbag63
(g79
g65
NtRp3312
(dp3313
g68
(dp3314
sg77
g2738
sg70
(lp3315
g63
(g84
g65
NtRp3316
(dp3317
g68
(dp3318
g88
g89
ssg77
g3312
sg70
(lp3319
S'wsgi.url_scheme'
p3320
asbag63
(g84
g65
NtRp3321
(dp3322
g68
(dp3323
g95
g96
ssg77
g3312
sg70
(lp3324
S':'
asbag63
(g84
g65
NtRp3325
(dp3326
g68
(dp3327
sg77
g3312
sg70
(lp3328
g63
(g64
g65
NtRp3329
(dp3330
g68
(dp3331
g76
I3
ssg77
g3325
sg70
(lp3332
g1990
asbasbasbag63
(g79
g65
NtRp3333
(dp3334
g68
(dp3335
sg77
g2738
sg70
(lp3336
g63
(g84
g65
NtRp3337
(dp3338
g68
(dp3339
g88
g89
ssg77
g3333
sg70
(lp3340
S'wsgi.version'
p3341
asbag63
(g84
g65
NtRp3342
(dp3343
g68
(dp3344
g95
g96
ssg77
g3333
sg70
(lp3345
S':'
asbag63
(g84
g65
NtRp3346
(dp3347
g68
(dp3348
sg77
g3333
sg70
(lp3349
g63
(g64
g65
NtRp3350
(dp3351
g68
(dp3352
g76
I3
ssg77
g3346
sg70
(lp3353
S'1'
asbasbasbasbasbasbasbasbasbasbasbasbasbsS'frames'
p3354
(lp3355
(dp3356
S'file'
p3357
S'/home/ian/web/web2py/gluon/restricted.py'
p3358
sS'dump'
p3359
(dp3360
S'environment'
p3361
S"{'A': <class 'gluon.html.A'>, 'Auth': <class 'gluon.tools.Auth'>, 'B': <class 'gluon.html.B'>, 'BEAUTIFY': <class 'gluon.html.BEAUTIFY'>, 'BODY': <class 'gluon.html.BODY'>, 'BR': <class 'gluon.html.BR'>, 'BUTTON': <class 'gluon.html.BUTTON'>, 'BookParser': <class 'applications.grammateus3.modules.parse.BookParser'>, 'CAT': <class 'gluon.html.CAT'>, 'CENTER': <class 'gluon.html.CENTER'>, ...}"
p3362
sS'ccode'
p3363
S'<code object <module> at 0x7f61781c42b0, file "/...cations/grammateus3/controllers/docs.py", line 2>'
p3364
ssS'lnum'
p3365
I204
sS'lines'
p3366
(dp3367
I199
S'    try:'
p3368
sI200
S'        if type(code) == types.CodeType:'
p3369
sI201
S'            ccode = code'
p3370
sI202
S'        else:'
p3371
sI203
S'            ccode = compile2(code,layer)'
p3372
sI204
S'        exec ccode in environment'
p3373
sI205
S'    except HTTP:'
p3374
sI206
S'        raise'
p3375
sI207
S'    except RestrictedError:'
p3376
sI208
S'        # do not encapsulate (obfuscate) the original RestrictedError'
p3377
ssS'call'
p3378
S"(code='# coding: utf8\\nfrom lxml import etree\\n\\nfrom pars... info)\\n\\nresponse._vars=response._caller(section)\\n', environment={'A': <class 'gluon.html.A'>, 'Auth': <class 'gluon.tools.Auth'>, 'B': <class 'gluon.html.B'>, 'BEAUTIFY': <class 'gluon.html.BEAUTIFY'>, 'BODY': <class 'gluon.html.BODY'>, 'BR': <class 'gluon.html.BR'>, 'BUTTON': <class 'gluon.html.BUTTON'>, 'BookParser': <class 'applications.grammateus3.modules.parse.BookParser'>, 'CAT': <class 'gluon.html.CAT'>, 'CENTER': <class 'gluon.html.CENTER'>, ...}, layer='/home/ian/web/web2py/applications/grammateus3/controllers/docs.py')"
p3379
sS'func'
p3380
S'restricted'
p3381
sa(dp3382
g3357
S'/home/ian/web/web2py/applications/grammateus3/controllers/docs.py'
p3383
sg3359
(dp3384
sg3365
I193
sg3366
(dp3385
I182
S"                print 'Version textstructure'"
p3386
sI183
S'                for ref, ref_val in value.items():'
p3387
sI184
S'                    for unit, unit_val in ref_val.items():'
p3388
sI185
S'                        for mss, mss_val in unit_val.items():'
p3389
sI186
S"                            print '\\t', ref, '-->', unit, '-->', mss, '-->', mss_val"
p3390
sI187
S"        print '************'"
p3391
sI188
S'    print'
p3392
sI189
S'    print'
p3393
sI190
S''
sI191
S'    return dict(title = title, info = info)'
p3394
ssg3378
S'()'
p3395
sg3380
S'<module>'
p3396
sa(dp3397
g3357
S'/home/ian/web/web2py/gluon/globals.py'
p3398
sg3359
(dp3399
S'self'
p3400
S'undefined'
p3401
sS'f'
S'<function section>'
p3402
ssg3365
I172
sg3366
(dp3403
I167
S'        self.meta = Storage()      # used by web2py_ajax.html'
p3404
sI168
S'        self.menu = []             # used by the default view layout'
p3405
sI169
S'        self.files = []            # used by web2py_ajax.html'
p3406
sI170
S'        self.generic_patterns = [] # patterns to allow generic views'
p3407
sI171
S'        self._vars = None'
p3408
sI172
S'        self._caller = lambda f: f()'
p3409
sI173
S'        self._view_environment = None'
p3410
sI174
S'        self._custom_commit = None'
p3411
sI175
S'        self._custom_rollback = None'
p3412
sI176
S''
ssg3378
S'(f=<function section>)'
p3413
sg3380
S'<lambda>'
p3414
sa(dp3415
g3357
S'/home/ian/web/web2py/applications/grammateus3/controllers/docs.py'
p3416
sg3359
(dp3417
S'p'
g3401
sS'global BookParser'
p3418
S"<class 'applications.grammateus3.modules.parse.BookParser'>"
p3419
sS'book_file'
p3420
S"'applications/grammateus3/static/docs/22.xml'"
p3421
ssg3365
I43
sg3366
(dp3422
I38
S"    print 'start of section() method with url ', request.url, varlist"
p3423
sI39
S'    #get filename from end of url and parse the file with BookParser class'
p3424
sI40
S'    filename = request.args[0]'
p3425
sI41
S"    print 'filename: ', filename"
p3426
sI42
S"    book_file = 'applications/grammateus3/static/docs/%s.xml' % filename"
p3427
sI43
S'    p = BookParser(book_file)'
p3428
sI44
S'    info = p.book_info()'
p3429
sI45
S'    #get title of document'
p3430
sI46
S"    title = info['title']"
p3431
sI47
S''
ssg3378
S'()'
p3432
sg3380
S'section'
p3433
sa(dp3434
g3357
S'/home/ian/web/web2py/applications/grammateus3/modules/parse.py'
p3435
sg3359
(dp3436
S'xml_file'
p3437
S"'applications/grammateus3/static/docs/22.xml'"
p3438
sS'self'
p3439
S'<applications.grammateus3.modules.parse.BookParser object>'
p3440
sS'parser'
p3441
S'<lxml.etree.XMLParser object>'
p3442
sS'self.tree'
p3443
g3401
sS'global etree'
p3444
S"<module 'lxml.etree' from '/usr/lib/python2.7/dist-packages/lxml/etree.so'>"
p3445
sS'etree.parse'
p3446
S'<built-in function parse>'
p3447
ssg3365
I25
sg3366
(dp3448
I20
S'        self.xml_file = xml_file'
p3449
sI21
S''
sI22
S'        # Validate document against its schema'
p3450
sI23
S'        parser = etree.XMLParser(dtd_validation=True)'
p3451
sI24
S'        try:'
p3452
sI25
S'            self.tree = etree.parse(xml_file, parser)'
p3453
sI26
S'        except etree.XMLSyntaxError:'
p3454
sI27
S"            print 'Document does not validate against its schema: %s' % xml_file"
p3455
sI28
S'            raise   # Just reraise for now'
p3456
sI29
S''
ssg3378
S"(self=<applications.grammateus3.modules.parse.BookParser object>, xml_file='applications/grammateus3/static/docs/22.xml')"
p3457
sg3380
g22
sa(dp3458
g3357
S'/home/ian/web/web2py/lxml.etree.pyx'
p3459
sg3359
(dp3460
sg3365
I2953
sg3366
(dp3461
sg3378
S'()'
p3462
sg3380
S'lxml.etree.parse (src/lxml/lxml.etree.c:56204)'
p3463
sa(dp3464
g3357
S'/home/ian/web/web2py/parser.pxi'
p3465
sg3359
(dp3466
sg3365
I1533
sg3366
(dp3467
sg3378
S'()'
p3468
sg3380
S'lxml.etree._parseDocument (src/lxml/lxml.etree.c:82287)'
p3469
sa(dp3470
g3357
S'/home/ian/web/web2py/parser.pxi'
p3471
sg3359
(dp3472
sg3365
I1562
sg3366
(dp3473
sg3378
S'()'
p3474
sg3380
S'lxml.etree._parseDocumentFromURL (src/lxml/lxml.etree.c:82580)'
p3475
sa(dp3476
g3357
S'/home/ian/web/web2py/parser.pxi'
p3477
sg3359
(dp3478
sg3365
I1462
sg3366
(dp3479
sg3378
S'()'
p3480
sg3380
S'lxml.etree._parseDocFromFile (src/lxml/lxml.etree.c:81619)'
p3481
sa(dp3482
g3357
S'/home/ian/web/web2py/parser.pxi'
p3483
sg3359
(dp3484
sg3365
I1002
sg3366
(dp3485
sg3378
S'()'
p3486
sg3380
S'lxml.etree._BaseParser._parseDocFromFile (src/lxml/lxml.etree.c:78528)'
p3487
sa(dp3488
g3357
S'/home/ian/web/web2py/parser.pxi'
p3489
sg3359
(dp3490
sg3365
I569
sg3366
(dp3491
sg3378
S'()'
p3492
sg3380
S'lxml.etree._ParserContext._handleParseResultDoc (src/lxml/lxml.etree.c:74472)'
p3493
sa(dp3494
g3357
S'/home/ian/web/web2py/parser.pxi'
p3495
sg3359
(dp3496
sg3365
I650
sg3366
(dp3497
sg3378
S'()'
p3498
sg3380
S'lxml.etree._handleParseResult (src/lxml/lxml.etree.c:75363)'
p3499
sa(dp3500
g3357
S'/home/ian/web/web2py/parser.pxi'
p3501
sg3359
(dp3502
sg3365
I588
sg3366
(dp3503
sg3378
S'()'
p3504
sg3380
S'lxml.etree._raiseParseError (src/lxml/lxml.etree.c:74665)'
p3505
sasS'pyver'
p3506
S'Python 2.7.2+: /usr/bin/python2.7'
p3507
sS'session'
p3508
g63
(g64
g65
NtRp3509
(dp3510
g68
(dp3511
sg70
(lp3512
g63
(g72
g65
NtRp3513
(dp3514
g68
(dp3515
g76
I5
ssg77
Nsg70
(lp3516
sbasbsS'etype'
p3517
S"<type 'exceptions.IOError'>"
p3518
sS'date'
p3519
S'Thu Mar  8 23:08:23 2012'
p3520
sS'response'
p3521
g63
(g64
g65
NtRp3522
(dp3523
g68
(dp3524
sg70
(lp3525
g63
(g72
g65
NtRp3526
(dp3527
g68
(dp3528
g76
I5
ssg77
Nsg70
(lp3529
g63
(g79
g65
NtRp3530
(dp3531
g68
(dp3532
sg77
g3526
sg70
(lp3533
g63
(g84
g65
NtRp3534
(dp3535
g68
(dp3536
g88
g89
ssg77
g3530
sg70
(lp3537
g174
asbag63
(g84
g65
NtRp3538
(dp3539
g68
(dp3540
g95
g96
ssg77
g3530
sg70
(lp3541
S':'
asbag63
(g84
g65
NtRp3542
(dp3543
g68
(dp3544
sg77
g3530
sg70
(lp3545
g63
(g64
g65
NtRp3546
(dp3547
g68
(dp3548
g76
I5
ssg77
g3542
sg70
(lp3549
S'<cStringIO.StringO object at 0x18c8768>'
p3550
asbasbasbag63
(g79
g65
NtRp3551
(dp3552
g68
(dp3553
sg77
g3526
sg70
(lp3554
g63
(g84
g65
NtRp3555
(dp3556
g68
(dp3557
g88
g89
ssg77
g3551
sg70
(lp3558
g262
asbag63
(g84
g65
NtRp3559
(dp3560
g68
(dp3561
g95
g96
ssg77
g3551
sg70
(lp3562
S':'
asbag63
(g84
g65
NtRp3563
(dp3564
g68
(dp3565
sg77
g3551
sg70
(lp3566
g63
(g64
g65
NtRp3567
(dp3568
g68
(dp3569
g76
I5
ssg77
g3563
sg70
(lp3570
g63
(g72
g65
NtRp3571
(dp3572
g68
(dp3573
g76
I4
ssg77
Nsg70
(lp3574
g63
(g79
g65
NtRp3575
(dp3576
g68
(dp3577
sg77
g3571
sg70
(lp3578
g63
(g84
g65
NtRp3579
(dp3580
g68
(dp3581
g88
g89
ssg77
g3575
sg70
(lp3582
S'session_id_grammateus3'
p3583
asbag63
(g84
g65
NtRp3584
(dp3585
g68
(dp3586
g95
g96
ssg77
g3575
sg70
(lp3587
S':'
asbag63
(g84
g65
NtRp3588
(dp3589
g68
(dp3590
sg77
g3575
sg70
(lp3591
g63
(g64
g65
NtRp3592
(dp3593
g68
(dp3594
g76
I4
ssg77
g3588
sg70
(lp3595
g63
(g72
g65
NtRp3596
(dp3597
g68
(dp3598
g76
I3
ssg77
Nsg70
(lp3599
g63
(g79
g65
NtRp3600
(dp3601
g68
(dp3602
sg77
g3596
sg70
(lp3603
g63
(g84
g65
NtRp3604
(dp3605
g68
(dp3606
g88
g89
ssg77
g3600
sg70
(lp3607
g312
asbag63
(g84
g65
NtRp3608
(dp3609
g68
(dp3610
g95
g96
ssg77
g3600
sg70
(lp3611
S':'
asbag63
(g84
g65
NtRp3612
(dp3613
g68
(dp3614
sg77
g3600
sg70
(lp3615
g63
(g64
g65
NtRp3616
(dp3617
g68
(dp3618
g76
I3
ssg77
g3612
sg70
(lp3619
S''
asbasbasbag63
(g79
g65
NtRp3620
(dp3621
g68
(dp3622
sg77
g3596
sg70
(lp3623
g63
(g84
g65
NtRp3624
(dp3625
g68
(dp3626
g88
g89
ssg77
g3620
sg70
(lp3627
g333
asbag63
(g84
g65
NtRp3628
(dp3629
g68
(dp3630
g95
g96
ssg77
g3620
sg70
(lp3631
S':'
asbag63
(g84
g65
NtRp3632
(dp3633
g68
(dp3634
sg77
g3620
sg70
(lp3635
g63
(g64
g65
NtRp3636
(dp3637
g68
(dp3638
g76
I3
ssg77
g3632
sg70
(lp3639
S''
asbasbasbag63
(g79
g65
NtRp3640
(dp3641
g68
(dp3642
sg77
g3596
sg70
(lp3643
g63
(g84
g65
NtRp3644
(dp3645
g68
(dp3646
g88
g89
ssg77
g3640
sg70
(lp3647
g354
asbag63
(g84
g65
NtRp3648
(dp3649
g68
(dp3650
g95
g96
ssg77
g3640
sg70
(lp3651
S':'
asbag63
(g84
g65
NtRp3652
(dp3653
g68
(dp3654
sg77
g3640
sg70
(lp3655
g63
(g64
g65
NtRp3656
(dp3657
g68
(dp3658
g76
I3
ssg77
g3652
sg70
(lp3659
S''
asbasbasbag63
(g79
g65
NtRp3660
(dp3661
g68
(dp3662
sg77
g3596
sg70
(lp3663
g63
(g84
g65
NtRp3664
(dp3665
g68
(dp3666
g88
g89
ssg77
g3660
sg70
(lp3667
g375
asbag63
(g84
g65
NtRp3668
(dp3669
g68
(dp3670
g95
g96
ssg77
g3660
sg70
(lp3671
S':'
asbag63
(g84
g65
NtRp3672
(dp3673
g68
(dp3674
sg77
g3660
sg70
(lp3675
g63
(g64
g65
NtRp3676
(dp3677
g68
(dp3678
g76
I3
ssg77
g3672
sg70
(lp3679
S''
asbasbasbag63
(g79
g65
NtRp3680
(dp3681
g68
(dp3682
sg77
g3596
sg70
(lp3683
g63
(g84
g65
NtRp3684
(dp3685
g68
(dp3686
g88
g89
ssg77
g3680
sg70
(lp3687
g396
asbag63
(g84
g65
NtRp3688
(dp3689
g68
(dp3690
g95
g96
ssg77
g3680
sg70
(lp3691
S':'
asbag63
(g84
g65
NtRp3692
(dp3693
g68
(dp3694
sg77
g3680
sg70
(lp3695
g63
(g64
g65
NtRp3696
(dp3697
g68
(dp3698
g76
I3
ssg77
g3692
sg70
(lp3699
S''
asbasbasbag63
(g79
g65
NtRp3700
(dp3701
g68
(dp3702
sg77
g3596
sg70
(lp3703
g63
(g84
g65
NtRp3704
(dp3705
g68
(dp3706
g88
g89
ssg77
g3700
sg70
(lp3707
g417
asbag63
(g84
g65
NtRp3708
(dp3709
g68
(dp3710
g95
g96
ssg77
g3700
sg70
(lp3711
S':'
asbag63
(g84
g65
NtRp3712
(dp3713
g68
(dp3714
sg77
g3700
sg70
(lp3715
g63
(g64
g65
NtRp3716
(dp3717
g68
(dp3718
g76
I3
ssg77
g3712
sg70
(lp3719
S'/'
asbasbasbag63
(g79
g65
NtRp3720
(dp3721
g68
(dp3722
sg77
g3596
sg70
(lp3723
g63
(g84
g65
NtRp3724
(dp3725
g68
(dp3726
g88
g89
ssg77
g3720
sg70
(lp3727
g438
asbag63
(g84
g65
NtRp3728
(dp3729
g68
(dp3730
g95
g96
ssg77
g3720
sg70
(lp3731
S':'
asbag63
(g84
g65
NtRp3732
(dp3733
g68
(dp3734
sg77
g3720
sg70
(lp3735
g63
(g64
g65
NtRp3736
(dp3737
g68
(dp3738
g76
I3
ssg77
g3732
sg70
(lp3739
S''
asbasbasbag63
(g79
g65
NtRp3740
(dp3741
g68
(dp3742
sg77
g3596
sg70
(lp3743
g63
(g84
g65
NtRp3744
(dp3745
g68
(dp3746
g88
g89
ssg77
g3740
sg70
(lp3747
g459
asbag63
(g84
g65
NtRp3748
(dp3749
g68
(dp3750
g95
g96
ssg77
g3740
sg70
(lp3751
S':'
asbag63
(g84
g65
NtRp3752
(dp3753
g68
(dp3754
sg77
g3740
sg70
(lp3755
g63
(g64
g65
NtRp3756
(dp3757
g68
(dp3758
g76
I3
ssg77
g3752
sg70
(lp3759
S''
asbasbasbasbasbasbasbasbasbasbasbag63
(g79
g65
NtRp3760
(dp3761
g68
(dp3762
sg77
g3526
sg70
(lp3763
g63
(g84
g65
NtRp3764
(dp3765
g68
(dp3766
g88
g89
ssg77
g3760
sg70
(lp3767
S'files'
p3768
asbag63
(g84
g65
NtRp3769
(dp3770
g68
(dp3771
g95
g96
ssg77
g3760
sg70
(lp3772
S':'
asbag63
(g84
g65
NtRp3773
(dp3774
g68
(dp3775
sg77
g3760
sg70
(lp3776
g63
(g64
g65
NtRp3777
(dp3778
g68
(dp3779
g76
I5
ssg77
g3773
sg70
(lp3780
g63
(g72
g65
NtRp3781
(dp3782
g68
(dp3783
g76
I4
ssg77
Nsg70
(lp3784
sbasbasbasbag63
(g79
g65
NtRp3785
(dp3786
g68
(dp3787
sg77
g3526
sg70
(lp3788
g63
(g84
g65
NtRp3789
(dp3790
g68
(dp3791
g88
g89
ssg77
g3785
sg70
(lp3792
S'flash'
p3793
asbag63
(g84
g65
NtRp3794
(dp3795
g68
(dp3796
g95
g96
ssg77
g3785
sg70
(lp3797
S':'
asbag63
(g84
g65
NtRp3798
(dp3799
g68
(dp3800
sg77
g3785
sg70
(lp3801
g63
(g64
g65
NtRp3802
(dp3803
g68
(dp3804
g76
I5
ssg77
g3798
sg70
(lp3805
S''
asbasbasbag63
(g79
g65
NtRp3806
(dp3807
g68
(dp3808
sg77
g3526
sg70
(lp3809
g63
(g84
g65
NtRp3810
(dp3811
g68
(dp3812
g88
g89
ssg77
g3806
sg70
(lp3813
S'generic_patterns'
p3814
asbag63
(g84
g65
NtRp3815
(dp3816
g68
(dp3817
g95
g96
ssg77
g3806
sg70
(lp3818
S':'
asbag63
(g84
g65
NtRp3819
(dp3820
g68
(dp3821
sg77
g3806
sg70
(lp3822
g63
(g64
g65
NtRp3823
(dp3824
g68
(dp3825
g76
I5
ssg77
g3819
sg70
(lp3826
g63
(g72
g65
NtRp3827
(dp3828
g68
(dp3829
g76
I4
ssg77
Nsg70
(lp3830
g63
(g79
g65
NtRp3831
(dp3832
g68
(dp3833
sg77
g3827
sg70
(lp3834
g63
(g84
g65
NtRp3835
(dp3836
g68
(dp3837
sg77
g3831
sg70
(lp3838
g63
(g64
g65
NtRp3839
(dp3840
g68
(dp3841
g76
I4
ssg77
g3835
sg70
(lp3842
S'*'
asbasbasbasbasbasbasbag63
(g79
g65
NtRp3843
(dp3844
g68
(dp3845
sg77
g3526
sg70
(lp3846
g63
(g84
g65
NtRp3847
(dp3848
g68
(dp3849
g88
g89
ssg77
g3843
sg70
(lp3850
S'headers'
p3851
asbag63
(g84
g65
NtRp3852
(dp3853
g68
(dp3854
g95
g96
ssg77
g3843
sg70
(lp3855
S':'
asbag63
(g84
g65
NtRp3856
(dp3857
g68
(dp3858
sg77
g3843
sg70
(lp3859
g63
(g64
g65
NtRp3860
(dp3861
g68
(dp3862
g76
I5
ssg77
g3856
sg70
(lp3863
g63
(g72
g65
NtRp3864
(dp3865
g68
(dp3866
g76
I4
ssg77
Nsg70
(lp3867
g63
(g79
g65
NtRp3868
(dp3869
g68
(dp3870
sg77
g3864
sg70
(lp3871
g63
(g84
g65
NtRp3872
(dp3873
g68
(dp3874
g88
g89
ssg77
g3868
sg70
(lp3875
S'Cache-Control'
p3876
asbag63
(g84
g65
NtRp3877
(dp3878
g68
(dp3879
g95
g96
ssg77
g3868
sg70
(lp3880
S':'
asbag63
(g84
g65
NtRp3881
(dp3882
g68
(dp3883
sg77
g3868
sg70
(lp3884
g63
(g64
g65
NtRp3885
(dp3886
g68
(dp3887
g76
I4
ssg77
g3881
sg70
(lp3888
S'no-store, no-cache, must-revalidate, post-check=0, pre-check=0'
p3889
asbasbasbag63
(g79
g65
NtRp3890
(dp3891
g68
(dp3892
sg77
g3864
sg70
(lp3893
g63
(g84
g65
NtRp3894
(dp3895
g68
(dp3896
g88
g89
ssg77
g3890
sg70
(lp3897
S'Content-Type'
p3898
asbag63
(g84
g65
NtRp3899
(dp3900
g68
(dp3901
g95
g96
ssg77
g3890
sg70
(lp3902
S':'
asbag63
(g84
g65
NtRp3903
(dp3904
g68
(dp3905
sg77
g3890
sg70
(lp3906
g63
(g64
g65
NtRp3907
(dp3908
g68
(dp3909
g76
I4
ssg77
g3903
sg70
(lp3910
S'text/html; charset=utf-8'
p3911
asbasbasbag63
(g79
g65
NtRp3912
(dp3913
g68
(dp3914
sg77
g3864
sg70
(lp3915
g63
(g84
g65
NtRp3916
(dp3917
g68
(dp3918
g88
g89
ssg77
g3912
sg70
(lp3919
S'Expires'
p3920
asbag63
(g84
g65
NtRp3921
(dp3922
g68
(dp3923
g95
g96
ssg77
g3912
sg70
(lp3924
S':'
asbag63
(g84
g65
NtRp3925
(dp3926
g68
(dp3927
sg77
g3912
sg70
(lp3928
g63
(g64
g65
NtRp3929
(dp3930
g68
(dp3931
g76
I4
ssg77
g3925
sg70
(lp3932
S'Fri, 09 Mar 2012 04:08:23 GMT'
p3933
asbasbasbag63
(g79
g65
NtRp3934
(dp3935
g68
(dp3936
sg77
g3864
sg70
(lp3937
g63
(g84
g65
NtRp3938
(dp3939
g68
(dp3940
g88
g89
ssg77
g3934
sg70
(lp3941
S'Pragma'
p3942
asbag63
(g84
g65
NtRp3943
(dp3944
g68
(dp3945
g95
g96
ssg77
g3934
sg70
(lp3946
S':'
asbag63
(g84
g65
NtRp3947
(dp3948
g68
(dp3949
sg77
g3934
sg70
(lp3950
g63
(g64
g65
NtRp3951
(dp3952
g68
(dp3953
g76
I4
ssg77
g3947
sg70
(lp3954
S'no-cache'
p3955
asbasbasbag63
(g79
g65
NtRp3956
(dp3957
g68
(dp3958
sg77
g3864
sg70
(lp3959
g63
(g84
g65
NtRp3960
(dp3961
g68
(dp3962
g88
g89
ssg77
g3956
sg70
(lp3963
S'X-Powered-By'
p3964
asbag63
(g84
g65
NtRp3965
(dp3966
g68
(dp3967
g95
g96
ssg77
g3956
sg70
(lp3968
S':'
asbag63
(g84
g65
NtRp3969
(dp3970
g68
(dp3971
sg77
g3956
sg70
(lp3972
g63
(g64
g65
NtRp3973
(dp3974
g68
(dp3975
g76
I4
ssg77
g3969
sg70
(lp3976
S'web2py'
p3977
asbasbasbasbasbasbasbag63
(g79
g65
NtRp3978
(dp3979
g68
(dp3980
sg77
g3526
sg70
(lp3981
g63
(g84
g65
NtRp3982
(dp3983
g68
(dp3984
g88
g89
ssg77
g3978
sg70
(lp3985
S'menu'
p3986
asbag63
(g84
g65
NtRp3987
(dp3988
g68
(dp3989
g95
g96
ssg77
g3978
sg70
(lp3990
S':'
asbag63
(g84
g65
NtRp3991
(dp3992
g68
(dp3993
sg77
g3978
sg70
(lp3994
g63
(g64
g65
NtRp3995
(dp3996
g68
(dp3997
g76
I5
ssg77
g3991
sg70
(lp3998
g63
(g72
g65
NtRp3999
(dp4000
g68
(dp4001
g76
I4
ssg77
Nsg70
(lp4002
g63
(g79
g65
NtRp4003
(dp4004
g68
(dp4005
sg77
g3999
sg70
(lp4006
g63
(g84
g65
NtRp4007
(dp4008
g68
(dp4009
sg77
g4003
sg70
(lp4010
g63
(g64
g65
NtRp4011
(dp4012
g68
(dp4013
g76
I4
ssg77
g4007
sg70
(lp4014
g63
(g72
g65
NtRp4015
(dp4016
g68
(dp4017
g76
I3
ssg77
Nsg70
(lp4018
g63
(g79
g65
NtRp4019
(dp4020
g68
(dp4021
sg77
g4015
sg70
(lp4022
g63
(g84
g65
NtRp4023
(dp4024
g68
(dp4025
sg77
g4019
sg70
(lp4026
g63
(g64
g65
NtRp4027
(dp4028
g68
(dp4029
g76
I3
ssg77
g4023
sg70
(lp4030
cgluon.languages
lazyT_unpickle
p4031
(S't\x04\x00\x00\x00Home'
tRp4032
asbasbasbag63
(g79
g65
NtRp4033
(dp4034
g68
(dp4035
sg77
g4015
sg70
(lp4036
g63
(g84
g65
NtRp4037
(dp4038
g68
(dp4039
sg77
g4033
sg70
(lp4040
g63
(g64
g65
NtRp4041
(dp4042
g68
(dp4043
g76
I3
ssg77
g4037
sg70
(lp4044
g1186
asbasbasbag63
(g79
g65
NtRp4045
(dp4046
g68
(dp4047
sg77
g4015
sg70
(lp4048
g63
(g84
g65
NtRp4049
(dp4050
g68
(dp4051
sg77
g4045
sg70
(lp4052
g63
(g64
g65
NtRp4053
(dp4054
g68
(dp4055
g76
I3
ssg77
g4049
sg70
(lp4056
S'/grammateus3/default/index.load'
p4057
asbasbasbag63
(g79
g65
NtRp4058
(dp4059
g68
(dp4060
sg77
g4015
sg70
(lp4061
g63
(g84
g65
NtRp4062
(dp4063
g68
(dp4064
sg77
g4058
sg70
(lp4065
g63
(g64
g65
NtRp4066
(dp4067
g68
(dp4068
g76
I3
ssg77
g4062
sg70
(lp4069
g63
(g72
g65
NtRp4070
(dp4071
g68
(dp4072
g76
I2
ssg77
Nsg70
(lp4073
sbasbasbasbasbasbasbasbag63
(g79
g65
NtRp4074
(dp4075
g68
(dp4076
sg77
g3999
sg70
(lp4077
g63
(g84
g65
NtRp4078
(dp4079
g68
(dp4080
sg77
g4074
sg70
(lp4081
g63
(g64
g65
NtRp4082
(dp4083
g68
(dp4084
g76
I4
ssg77
g4078
sg70
(lp4085
g63
(g72
g65
NtRp4086
(dp4087
g68
(dp4088
g76
I3
ssg77
Nsg70
(lp4089
g63
(g79
g65
NtRp4090
(dp4091
g68
(dp4092
sg77
g4086
sg70
(lp4093
g63
(g84
g65
NtRp4094
(dp4095
g68
(dp4096
sg77
g4090
sg70
(lp4097
g63
(g64
g65
NtRp4098
(dp4099
g68
(dp4100
g76
I3
ssg77
g4094
sg70
(lp4101
g63
(cgluon.html
SPAN
p4102
g65
NtRp4103
(dp4104
g68
(dp4105
g88
S'color:yellow'
p4106
ssg77
Nsg70
(lp4107
g3977
asbasbasbasbag63
(g79
g65
NtRp4108
(dp4109
g68
(dp4110
sg77
g4086
sg70
(lp4111
g63
(g84
g65
NtRp4112
(dp4113
g68
(dp4114
sg77
g4108
sg70
(lp4115
g63
(g64
g65
NtRp4116
(dp4117
g68
(dp4118
g76
I3
ssg77
g4112
sg70
(lp4119
g1186
asbasbasbag63
(g79
g65
NtRp4120
(dp4121
g68
(dp4122
sg77
g4086
sg70
(lp4123
g63
(g84
g65
NtRp4124
(dp4125
g68
(dp4126
sg77
g4120
sg70
(lp4127
g63
(g64
g65
NtRp4128
(dp4129
g68
(dp4130
g76
I3
ssg77
g4124
sg70
(lp4131
S'None'
p4132
asbasbasbag63
(g79
g65
NtRp4133
(dp4134
g68
(dp4135
sg77
g4086
sg70
(lp4136
g63
(g84
g65
NtRp4137
(dp4138
g68
(dp4139
sg77
g4133
sg70
(lp4140
g63
(g64
g65
NtRp4141
(dp4142
g68
(dp4143
g76
I3
ssg77
g4137
sg70
(lp4144
g63
(g72
g65
NtRp4145
(dp4146
g68
(dp4147
g76
I2
ssg77
Nsg70
(lp4148
g63
(g79
g65
NtRp4149
(dp4150
g68
(dp4151
sg77
g4145
sg70
(lp4152
g63
(g84
g65
NtRp4153
(dp4154
g68
(dp4155
sg77
g4149
sg70
(lp4156
g63
(g64
g65
NtRp4157
(dp4158
g68
(dp4159
g76
I2
ssg77
g4153
sg70
(lp4160
g63
(g72
g65
NtRp4161
(dp4162
g68
(dp4163
g76
I1
ssg77
Nsg70
(lp4164
g63
(g79
g65
NtRp4165
(dp4166
g68
(dp4167
sg77
g4161
sg70
(lp4168
g63
(g84
g65
NtRp4169
(dp4170
g68
(dp4171
sg77
g4165
sg70
(lp4172
g63
(g64
g65
NtRp4173
(dp4174
g68
(dp4175
g76
I1
ssg77
g4169
sg70
(lp4176
g4031
(S's\x08\x00\x00\x00My Sites'
tRp4177
asbasbasbag63
(g79
g65
NtRp4178
(dp4179
g68
(dp4180
sg77
g4161
sg70
(lp4181
g63
(g84
g65
NtRp4182
(dp4183
g68
(dp4184
sg77
g4178
sg70
(lp4185
g63
(g64
g65
NtRp4186
(dp4187
g68
(dp4188
g76
I1
ssg77
g4182
sg70
(lp4189
I00
asbasbasbag63
(g79
g65
NtRp4190
(dp4191
g68
(dp4192
sg77
g4161
sg70
(lp4193
g63
(g84
g65
NtRp4194
(dp4195
g68
(dp4196
sg77
g4190
sg70
(lp4197
g63
(g64
g65
NtRp4198
(dp4199
g68
(dp4200
g76
I1
ssg77
g4194
sg70
(lp4201
S'/admin/default/site.load'
p4202
asbasbasbasbasbasbasbag63
(g79
g65
NtRp4203
(dp4204
g68
(dp4205
sg77
g4145
sg70
(lp4206
g63
(g84
g65
NtRp4207
(dp4208
g68
(dp4209
sg77
g4203
sg70
(lp4210
g63
(g64
g65
NtRp4211
(dp4212
g68
(dp4213
g76
I2
ssg77
g4207
sg70
(lp4214
g63
(g72
g65
NtRp4215
(dp4216
g68
(dp4217
g76
I1
ssg77
Nsg70
(lp4218
g63
(g79
g65
NtRp4219
(dp4220
g68
(dp4221
sg77
g4215
sg70
(lp4222
g63
(g84
g65
NtRp4223
(dp4224
g68
(dp4225
sg77
g4219
sg70
(lp4226
g63
(g64
g65
NtRp4227
(dp4228
g68
(dp4229
g76
I1
ssg77
g4223
sg70
(lp4230
g4031
(S's\x08\x00\x00\x00This App'
tRp4231
asbasbasbag63
(g79
g65
NtRp4232
(dp4233
g68
(dp4234
sg77
g4215
sg70
(lp4235
g63
(g84
g65
NtRp4236
(dp4237
g68
(dp4238
sg77
g4232
sg70
(lp4239
g63
(g64
g65
NtRp4240
(dp4241
g68
(dp4242
g76
I1
ssg77
g4236
sg70
(lp4243
I00
asbasbasbag63
(g79
g65
NtRp4244
(dp4245
g68
(dp4246
sg77
g4215
sg70
(lp4247
g63
(g84
g65
NtRp4248
(dp4249
g68
(dp4250
sg77
g4244
sg70
(lp4251
g63
(g64
g65
NtRp4252
(dp4253
g68
(dp4254
g76
I1
ssg77
g4248
sg70
(lp4255
S'/admin/default/design/grammateus3.load'
p4256
asbasbasbag63
(g79
g65
NtRp4257
(dp4258
g68
(dp4259
sg77
g4215
sg70
(lp4260
g63
(g84
g65
NtRp4261
(dp4262
g68
(dp4263
sg77
g4257
sg70
(lp4264
g63
(g64
g65
NtRp4265
(dp4266
g68
(dp4267
g76
I1
ssg77
g4261
sg70
(lp4268
(lp4269
(g4031
(S't\n\x00\x00\x00Controller'
tRp4270
I00
S'/admin/default/edit/grammateus3/controllers/docs.py'
tp4271
a(g4031
(S't\x04\x00\x00\x00View'
tRp4272
I00
S'/admin/default/edit/grammateus3/views/docs/section.load'
tp4273
a(g4031
(S't\x06\x00\x00\x00Layout'
tRp4274
I00
S'/admin/default/edit/grammateus3/views/layout.html'
tp4275
a(g4031
(S't\n\x00\x00\x00Stylesheet'
tRp4276
I00
S'/admin/default/edit/grammateus3/static/css/web2py.css'
tp4277
a(g4031
(S's\x08\x00\x00\x00DB Model'
tRp4278
I00
S'/admin/default/edit/grammateus3/models/db.py'
tp4279
a(g4031
(S's\n\x00\x00\x00Menu Model'
tRp4280
I00
S'/admin/default/edit/grammateus3/models/menu.py'
tp4281
a(g4031
(S't\x08\x00\x00\x00Database'
tRp4282
I00
S'/grammateus3/appadmin/index.load'
tp4283
a(g4031
(S't\x06\x00\x00\x00Errors'
tRp4284
I00
S'/admin/default/errors/grammateus3.load'
tp4285
a(g4031
(S't\x05\x00\x00\x00About'
tRp4286
I00
S'/admin/default/about/grammateus3.load'
tp4287
aasbasbasbasbasbasbasbag63
(g79
g65
NtRp4288
(dp4289
g68
(dp4290
sg77
g4145
sg70
(lp4291
g63
(g84
g65
NtRp4292
(dp4293
g68
(dp4294
sg77
g4288
sg70
(lp4295
g63
(g64
g65
NtRp4296
(dp4297
g68
(dp4298
g76
I2
ssg77
g4292
sg70
(lp4299
g63
(g72
g65
NtRp4300
(dp4301
g68
(dp4302
g76
I1
ssg77
Nsg70
(lp4303
g63
(g79
g65
NtRp4304
(dp4305
g68
(dp4306
sg77
g4300
sg70
(lp4307
g63
(g84
g65
NtRp4308
(dp4309
g68
(dp4310
sg77
g4304
sg70
(lp4311
g63
(g64
g65
NtRp4312
(dp4313
g68
(dp4314
g76
I1
ssg77
g4308
sg70
(lp4315
S'web2py.com'
p4316
asbasbasbag63
(g79
g65
NtRp4317
(dp4318
g68
(dp4319
sg77
g4300
sg70
(lp4320
g63
(g84
g65
NtRp4321
(dp4322
g68
(dp4323
sg77
g4317
sg70
(lp4324
g63
(g64
g65
NtRp4325
(dp4326
g68
(dp4327
g76
I1
ssg77
g4321
sg70
(lp4328
I00
asbasbasbag63
(g79
g65
NtRp4329
(dp4330
g68
(dp4331
sg77
g4300
sg70
(lp4332
g63
(g84
g65
NtRp4333
(dp4334
g68
(dp4335
sg77
g4329
sg70
(lp4336
g63
(g64
g65
NtRp4337
(dp4338
g68
(dp4339
g76
I1
ssg77
g4333
sg70
(lp4340
S'http://www.web2py.com'
p4341
asbasbasbag63
(g79
g65
NtRp4342
(dp4343
g68
(dp4344
sg77
g4300
sg70
(lp4345
g63
(g84
g65
NtRp4346
(dp4347
g68
(dp4348
sg77
g4342
sg70
(lp4349
g63
(g64
g65
NtRp4350
(dp4351
g68
(dp4352
g76
I1
ssg77
g4346
sg70
(lp4353
(lp4354
(g4031
(S't\x08\x00\x00\x00Download'
tRp4355
I00
S'http://www.web2py.com/examples/default/download'
p4356
tp4357
a(g4031
(S't\x07\x00\x00\x00Support'
tRp4358
I00
S'http://www.web2py.com/examples/default/support'
p4359
tp4360
a(g4031
(S't\x04\x00\x00\x00Demo'
tRp4361
I00
S'http://web2py.com/demo_admin'
p4362
tp4363
a(g4031
(S's\x0e\x00\x00\x00Quick Examples'
tRp4364
I00
S'http://web2py.com/examples/default/examples'
p4365
tp4366
a(g4031
(S't\x03\x00\x00\x00FAQ'
tRp4367
I00
S'http://web2py.com/AlterEgo'
p4368
tp4369
a(g4031
(S't\x06\x00\x00\x00Videos'
tRp4370
I00
S'http://www.web2py.com/examples/default/videos/'
p4371
tp4372
a(g4031
(S's\x11\x00\x00\x00Free Applications'
tRp4373
I00
S'http://web2py.com/appliances'
p4374
tp4375
a(g4031
(S't\x07\x00\x00\x00Plugins'
tRp4376
I00
S'http://web2py.com/plugins'
p4377
tp4378
a(g4031
(S't\x07\x00\x00\x00Layouts'
tRp4379
I00
S'http://web2py.com/layouts'
p4380
tp4381
a(g4031
(S't\x07\x00\x00\x00Recipes'
tRp4382
I00
S'http://web2pyslices.com/'
p4383
tp4384
a(g4031
(S't\x08\x00\x00\x00Semantic'
tRp4385
I00
S'http://web2py.com/semantic'
p4386
tp4387
aasbasbasbasbasbasbasbag63
(g79
g65
NtRp4388
(dp4389
g68
(dp4390
sg77
g4145
sg70
(lp4391
g63
(g84
g65
NtRp4392
(dp4393
g68
(dp4394
sg77
g4388
sg70
(lp4395
g63
(g64
g65
NtRp4396
(dp4397
g68
(dp4398
g76
I2
ssg77
g4392
sg70
(lp4399
g63
(g72
g65
NtRp4400
(dp4401
g68
(dp4402
g76
I1
ssg77
Nsg70
(lp4403
g63
(g79
g65
NtRp4404
(dp4405
g68
(dp4406
sg77
g4400
sg70
(lp4407
g63
(g84
g65
NtRp4408
(dp4409
g68
(dp4410
sg77
g4404
sg70
(lp4411
g63
(g64
g65
NtRp4412
(dp4413
g68
(dp4414
g76
I1
ssg77
g4408
sg70
(lp4415
g4031
(S't\r\x00\x00\x00Documentation'
tRp4416
asbasbasbag63
(g79
g65
NtRp4417
(dp4418
g68
(dp4419
sg77
g4400
sg70
(lp4420
g63
(g84
g65
NtRp4421
(dp4422
g68
(dp4423
sg77
g4417
sg70
(lp4424
g63
(g64
g65
NtRp4425
(dp4426
g68
(dp4427
g76
I1
ssg77
g4421
sg70
(lp4428
I00
asbasbasbag63
(g79
g65
NtRp4429
(dp4430
g68
(dp4431
sg77
g4400
sg70
(lp4432
g63
(g84
g65
NtRp4433
(dp4434
g68
(dp4435
sg77
g4429
sg70
(lp4436
g63
(g64
g65
NtRp4437
(dp4438
g68
(dp4439
g76
I1
ssg77
g4433
sg70
(lp4440
S'http://www.web2py.com/book'
p4441
asbasbasbag63
(g79
g65
NtRp4442
(dp4443
g68
(dp4444
sg77
g4400
sg70
(lp4445
g63
(g84
g65
NtRp4446
(dp4447
g68
(dp4448
sg77
g4442
sg70
(lp4449
g63
(g64
g65
NtRp4450
(dp4451
g68
(dp4452
g76
I1
ssg77
g4446
sg70
(lp4453
(lp4454
(g4031
(S't\x07\x00\x00\x00Preface'
tRp4455
I00
S'http://www.web2py.com/book/default/chapter/00'
p4456
tp4457
a(g4031
(S't\x0c\x00\x00\x00Introduction'
tRp4458
I00
S'http://www.web2py.com/book/default/chapter/01'
p4459
tp4460
a(g4031
(S't\x06\x00\x00\x00Python'
tRp4461
I00
S'http://www.web2py.com/book/default/chapter/02'
p4462
tp4463
a(g4031
(S't\x08\x00\x00\x00Overview'
tRp4464
I00
S'http://www.web2py.com/book/default/chapter/03'
p4465
tp4466
a(g4031
(S's\x08\x00\x00\x00The Core'
tRp4467
I00
S'http://www.web2py.com/book/default/chapter/04'
p4468
tp4469
a(g4031
(S's\t\x00\x00\x00The Views'
tRp4470
I00
S'http://www.web2py.com/book/default/chapter/05'
p4471
tp4472
a(g4031
(S't\x08\x00\x00\x00Database'
tRp4473
I00
S'http://www.web2py.com/book/default/chapter/06'
p4474
tp4475
a(g4031
(S's\x14\x00\x00\x00Forms and Validators'
tRp4476
I00
S'http://www.web2py.com/book/default/chapter/07'
p4477
tp4478
a(g4031
(S's\r\x00\x00\x00Email and SMS'
tRp4479
I00
S'http://www.web2py.com/book/default/chapter/08'
p4480
tp4481
a(g4031
(S's\x0e\x00\x00\x00Access Control'
tRp4482
I00
S'http://www.web2py.com/book/default/chapter/09'
p4483
tp4484
a(g4031
(S't\x08\x00\x00\x00Services'
tRp4485
I00
S'http://www.web2py.com/book/default/chapter/10'
p4486
tp4487
a(g4031
(S's\x0c\x00\x00\x00Ajax Recipes'
tRp4488
I00
S'http://www.web2py.com/book/default/chapter/11'
p4489
tp4490
a(g4031
(S's\x16\x00\x00\x00Components and Plugins'
tRp4491
I00
S'http://www.web2py.com/book/default/chapter/12'
p4492
tp4493
a(g4031
(S's\x12\x00\x00\x00Deployment Recipes'
tRp4494
I00
S'http://www.web2py.com/book/default/chapter/13'
p4495
tp4496
a(g4031
(S's\r\x00\x00\x00Other Recipes'
tRp4497
I00
S'http://www.web2py.com/book/default/chapter/14'
p4498
tp4499
a(g4031
(S's\r\x00\x00\x00Buy this book'
tRp4500
I00
S'http://stores.lulu.com/web2py'
p4501
tp4502
aasbasbasbasbasbasbasbag63
(g79
g65
NtRp4503
(dp4504
g68
(dp4505
sg77
g4145
sg70
(lp4506
g63
(g84
g65
NtRp4507
(dp4508
g68
(dp4509
sg77
g4503
sg70
(lp4510
g63
(g64
g65
NtRp4511
(dp4512
g68
(dp4513
g76
I2
ssg77
g4507
sg70
(lp4514
g63
(g72
g65
NtRp4515
(dp4516
g68
(dp4517
g76
I1
ssg77
Nsg70
(lp4518
g63
(g79
g65
NtRp4519
(dp4520
g68
(dp4521
sg77
g4515
sg70
(lp4522
g63
(g84
g65
NtRp4523
(dp4524
g68
(dp4525
sg77
g4519
sg70
(lp4526
g63
(g64
g65
NtRp4527
(dp4528
g68
(dp4529
g76
I1
ssg77
g4523
sg70
(lp4530
g4031
(S't\t\x00\x00\x00Community'
tRp4531
asbasbasbag63
(g79
g65
NtRp4532
(dp4533
g68
(dp4534
sg77
g4515
sg70
(lp4535
g63
(g84
g65
NtRp4536
(dp4537
g68
(dp4538
sg77
g4532
sg70
(lp4539
g63
(g64
g65
NtRp4540
(dp4541
g68
(dp4542
g76
I1
ssg77
g4536
sg70
(lp4543
I00
asbasbasbag63
(g79
g65
NtRp4544
(dp4545
g68
(dp4546
sg77
g4515
sg70
(lp4547
g63
(g84
g65
NtRp4548
(dp4549
g68
(dp4550
sg77
g4544
sg70
(lp4551
g63
(g64
g65
NtRp4552
(dp4553
g68
(dp4554
g76
I1
ssg77
g4548
sg70
(lp4555
Nasbasbasbag63
(g79
g65
NtRp4556
(dp4557
g68
(dp4558
sg77
g4515
sg70
(lp4559
g63
(g84
g65
NtRp4560
(dp4561
g68
(dp4562
sg77
g4556
sg70
(lp4563
g63
(g64
g65
NtRp4564
(dp4565
g68
(dp4566
g76
I1
ssg77
g4560
sg70
(lp4567
(lp4568
(g4031
(S't\x06\x00\x00\x00Groups'
tRp4569
I00
S'http://www.web2py.com/examples/default/usergroups'
p4570
tp4571
a(g4031
(S't\x07\x00\x00\x00Twitter'
tRp4572
I00
S'http://twitter.com/web2py'
p4573
tp4574
a(g4031
(S's\t\x00\x00\x00Live Chat'
tRp4575
I00
S'http://webchat.freenode.net/?channels=web2py'
p4576
tp4577
aasbasbasbasbasbasbasbag63
(g79
g65
NtRp4578
(dp4579
g68
(dp4580
sg77
g4145
sg70
(lp4581
g63
(g84
g65
NtRp4582
(dp4583
g68
(dp4584
sg77
g4578
sg70
(lp4585
g63
(g64
g65
NtRp4586
(dp4587
g68
(dp4588
g76
I2
ssg77
g4582
sg70
(lp4589
g63
(g72
g65
NtRp4590
(dp4591
g68
(dp4592
g76
I1
ssg77
Nsg70
(lp4593
g63
(g79
g65
NtRp4594
(dp4595
g68
(dp4596
sg77
g4590
sg70
(lp4597
g63
(g84
g65
NtRp4598
(dp4599
g68
(dp4600
sg77
g4594
sg70
(lp4601
g63
(g64
g65
NtRp4602
(dp4603
g68
(dp4604
g76
I1
ssg77
g4598
sg70
(lp4605
g4031
(S't\x07\x00\x00\x00Plugins'
tRp4606
asbasbasbag63
(g79
g65
NtRp4607
(dp4608
g68
(dp4609
sg77
g4590
sg70
(lp4610
g63
(g84
g65
NtRp4611
(dp4612
g68
(dp4613
sg77
g4607
sg70
(lp4614
g63
(g64
g65
NtRp4615
(dp4616
g68
(dp4617
g76
I1
ssg77
g4611
sg70
(lp4618
I00
asbasbasbag63
(g79
g65
NtRp4619
(dp4620
g68
(dp4621
sg77
g4590
sg70
(lp4622
g63
(g84
g65
NtRp4623
(dp4624
g68
(dp4625
sg77
g4619
sg70
(lp4626
g63
(g64
g65
NtRp4627
(dp4628
g68
(dp4629
g76
I1
ssg77
g4623
sg70
(lp4630
Nasbasbasbag63
(g79
g65
NtRp4631
(dp4632
g68
(dp4633
sg77
g4590
sg70
(lp4634
g63
(g84
g65
NtRp4635
(dp4636
g68
(dp4637
sg77
g4631
sg70
(lp4638
g63
(g64
g65
NtRp4639
(dp4640
g68
(dp4641
g76
I1
ssg77
g4635
sg70
(lp4642
(lp4643
(S'plugin_wiki'
p4644
I00
S'http://web2py.com/examples/default/download'
p4645
tp4646
a(g4031
(S's\r\x00\x00\x00Other Plugins'
tRp4647
I00
g4377
tp4648
a(g4031
(S's\x0e\x00\x00\x00Layout Plugins'
tRp4649
I00
g4380
tp4650
aasbasbasbasbasbasbasbasbasbasbasbasbasbasbasbasbasbasbasbag63
(g79
g65
NtRp4651
(dp4652
g68
(dp4653
sg77
g3526
sg70
(lp4654
g63
(g84
g65
NtRp4655
(dp4656
g68
(dp4657
g88
g89
ssg77
g4651
sg70
(lp4658
S'meta'
p4659
asbag63
(g84
g65
NtRp4660
(dp4661
g68
(dp4662
g95
g96
ssg77
g4651
sg70
(lp4663
S':'
asbag63
(g84
g65
NtRp4664
(dp4665
g68
(dp4666
sg77
g4651
sg70
(lp4667
g63
(g64
g65
NtRp4668
(dp4669
g68
(dp4670
g76
I5
ssg77
g4664
sg70
(lp4671
g63
(g72
g65
NtRp4672
(dp4673
g68
(dp4674
g76
I4
ssg77
Nsg70
(lp4675
g63
(g79
g65
NtRp4676
(dp4677
g68
(dp4678
sg77
g4672
sg70
(lp4679
g63
(g84
g65
NtRp4680
(dp4681
g68
(dp4682
g88
g89
ssg77
g4676
sg70
(lp4683
S'author'
p4684
asbag63
(g84
g65
NtRp4685
(dp4686
g68
(dp4687
g95
g96
ssg77
g4676
sg70
(lp4688
S':'
asbag63
(g84
g65
NtRp4689
(dp4690
g68
(dp4691
sg77
g4676
sg70
(lp4692
g63
(g64
g65
NtRp4693
(dp4694
g68
(dp4695
g76
I4
ssg77
g4689
sg70
(lp4696
S'Your Name <you@example.com>'
p4697
asbasbasbag63
(g79
g65
NtRp4698
(dp4699
g68
(dp4700
sg77
g4672
sg70
(lp4701
g63
(g84
g65
NtRp4702
(dp4703
g68
(dp4704
g88
g89
ssg77
g4698
sg70
(lp4705
S'copyright'
p4706
asbag63
(g84
g65
NtRp4707
(dp4708
g68
(dp4709
g95
g96
ssg77
g4698
sg70
(lp4710
S':'
asbag63
(g84
g65
NtRp4711
(dp4712
g68
(dp4713
sg77
g4698
sg70
(lp4714
g63
(g64
g65
NtRp4715
(dp4716
g68
(dp4717
g76
I4
ssg77
g4711
sg70
(lp4718
S'Copyright 2011'
p4719
asbasbasbag63
(g79
g65
NtRp4720
(dp4721
g68
(dp4722
sg77
g4672
sg70
(lp4723
g63
(g84
g65
NtRp4724
(dp4725
g68
(dp4726
g88
g89
ssg77
g4720
sg70
(lp4727
S'description'
p4728
asbag63
(g84
g65
NtRp4729
(dp4730
g68
(dp4731
g95
g96
ssg77
g4720
sg70
(lp4732
S':'
asbag63
(g84
g65
NtRp4733
(dp4734
g68
(dp4735
sg77
g4720
sg70
(lp4736
g63
(g64
g65
NtRp4737
(dp4738
g68
(dp4739
g76
I4
ssg77
g4733
sg70
(lp4740
S'a cool new app'
p4741
asbasbasbag63
(g79
g65
NtRp4742
(dp4743
g68
(dp4744
sg77
g4672
sg70
(lp4745
g63
(g84
g65
NtRp4746
(dp4747
g68
(dp4748
g88
g89
ssg77
g4742
sg70
(lp4749
S'generator'
p4750
asbag63
(g84
g65
NtRp4751
(dp4752
g68
(dp4753
g95
g96
ssg77
g4742
sg70
(lp4754
S':'
asbag63
(g84
g65
NtRp4755
(dp4756
g68
(dp4757
sg77
g4742
sg70
(lp4758
g63
(g64
g65
NtRp4759
(dp4760
g68
(dp4761
g76
I4
ssg77
g4755
sg70
(lp4762
S'Web2py Web Framework'
p4763
asbasbasbag63
(g79
g65
NtRp4764
(dp4765
g68
(dp4766
sg77
g4672
sg70
(lp4767
g63
(g84
g65
NtRp4768
(dp4769
g68
(dp4770
g88
g89
ssg77
g4764
sg70
(lp4771
S'keywords'
p4772
asbag63
(g84
g65
NtRp4773
(dp4774
g68
(dp4775
g95
g96
ssg77
g4764
sg70
(lp4776
S':'
asbag63
(g84
g65
NtRp4777
(dp4778
g68
(dp4779
sg77
g4764
sg70
(lp4780
g63
(g64
g65
NtRp4781
(dp4782
g68
(dp4783
g76
I4
ssg77
g4777
sg70
(lp4784
S'web2py, python, framework'
p4785
asbasbasbasbasbasbasbag63
(g79
g65
NtRp4786
(dp4787
g68
(dp4788
sg77
g3526
sg70
(lp4789
g63
(g84
g65
NtRp4790
(dp4791
g68
(dp4792
g88
g89
ssg77
g4786
sg70
(lp4793
S'postprocessing'
p4794
asbag63
(g84
g65
NtRp4795
(dp4796
g68
(dp4797
g95
g96
ssg77
g4786
sg70
(lp4798
S':'
asbag63
(g84
g65
NtRp4799
(dp4800
g68
(dp4801
sg77
g4786
sg70
(lp4802
g63
(g64
g65
NtRp4803
(dp4804
g68
(dp4805
g76
I5
ssg77
g4799
sg70
(lp4806
g63
(g72
g65
NtRp4807
(dp4808
g68
(dp4809
g76
I4
ssg77
Nsg70
(lp4810
sbasbasbasbag63
(g79
g65
NtRp4811
(dp4812
g68
(dp4813
sg77
g3526
sg70
(lp4814
g63
(g84
g65
NtRp4815
(dp4816
g68
(dp4817
g88
g89
ssg77
g4811
sg70
(lp4818
S'session_filename'
p4819
asbag63
(g84
g65
NtRp4820
(dp4821
g68
(dp4822
g95
g96
ssg77
g4811
sg70
(lp4823
S':'
asbag63
(g84
g65
NtRp4824
(dp4825
g68
(dp4826
sg77
g4811
sg70
(lp4827
g63
(g64
g65
NtRp4828
(dp4829
g68
(dp4830
g76
I5
ssg77
g4824
sg70
(lp4831
S'/home/ian/web/web2py/applications/grammateus3/sessions/127.0.0.1-5d84af95-cd72-4247-990b-a239a39cdfd5'
p4832
asbasbasbag63
(g79
g65
NtRp4833
(dp4834
g68
(dp4835
sg77
g3526
sg70
(lp4836
g63
(g84
g65
NtRp4837
(dp4838
g68
(dp4839
g88
g89
ssg77
g4833
sg70
(lp4840
S'session_id'
p4841
asbag63
(g84
g65
NtRp4842
(dp4843
g68
(dp4844
g95
g96
ssg77
g4833
sg70
(lp4845
S':'
asbag63
(g84
g65
NtRp4846
(dp4847
g68
(dp4848
sg77
g4833
sg70
(lp4849
g63
(g64
g65
NtRp4850
(dp4851
g68
(dp4852
g76
I5
ssg77
g4846
sg70
(lp4853
S'127.0.0.1-5d84af95-cd72-4247-990b-a239a39cdfd5'
p4854
asbasbasbag63
(g79
g65
NtRp4855
(dp4856
g68
(dp4857
sg77
g3526
sg70
(lp4858
g63
(g84
g65
NtRp4859
(dp4860
g68
(dp4861
g88
g89
ssg77
g4855
sg70
(lp4862
S'session_id_name'
p4863
asbag63
(g84
g65
NtRp4864
(dp4865
g68
(dp4866
g95
g96
ssg77
g4855
sg70
(lp4867
S':'
asbag63
(g84
g65
NtRp4868
(dp4869
g68
(dp4870
sg77
g4855
sg70
(lp4871
g63
(g64
g65
NtRp4872
(dp4873
g68
(dp4874
g76
I5
ssg77
g4868
sg70
(lp4875
g3583
asbasbasbag63
(g79
g65
NtRp4876
(dp4877
g68
(dp4878
sg77
g3526
sg70
(lp4879
g63
(g84
g65
NtRp4880
(dp4881
g68
(dp4882
g88
g89
ssg77
g4876
sg70
(lp4883
S'session_new'
p4884
asbag63
(g84
g65
NtRp4885
(dp4886
g68
(dp4887
g95
g96
ssg77
g4876
sg70
(lp4888
S':'
asbag63
(g84
g65
NtRp4889
(dp4890
g68
(dp4891
sg77
g4876
sg70
(lp4892
g63
(g64
g65
NtRp4893
(dp4894
g68
(dp4895
g76
I5
ssg77
g4889
sg70
(lp4896
g106
asbasbasbag63
(g79
g65
NtRp4897
(dp4898
g68
(dp4899
sg77
g3526
sg70
(lp4900
g63
(g84
g65
NtRp4901
(dp4902
g68
(dp4903
g88
g89
ssg77
g4897
sg70
(lp4904
S'status'
p4905
asbag63
(g84
g65
NtRp4906
(dp4907
g68
(dp4908
g95
g96
ssg77
g4897
sg70
(lp4909
S':'
asbag63
(g84
g65
NtRp4910
(dp4911
g68
(dp4912
sg77
g4897
sg70
(lp4913
g63
(g64
g65
NtRp4914
(dp4915
g68
(dp4916
g76
I5
ssg77
g4910
sg70
(lp4917
S'200'
p4918
asbasbasbag63
(g79
g65
NtRp4919
(dp4920
g68
(dp4921
sg77
g3526
sg70
(lp4922
g63
(g84
g65
NtRp4923
(dp4924
g68
(dp4925
g88
g89
ssg77
g4919
sg70
(lp4926
S'subtitle'
p4927
asbag63
(g84
g65
NtRp4928
(dp4929
g68
(dp4930
g95
g96
ssg77
g4919
sg70
(lp4931
S':'
asbag63
(g84
g65
NtRp4932
(dp4933
g68
(dp4934
sg77
g4919
sg70
(lp4935
g63
(g64
g65
NtRp4936
(dp4937
g68
(dp4938
g76
I5
ssg77
g4932
sg70
(lp4939
g4031
(S's\r\x00\x00\x00customize me!'
tRp4940
asbasbasbag63
(g79
g65
NtRp4941
(dp4942
g68
(dp4943
sg77
g3526
sg70
(lp4944
g63
(g84
g65
NtRp4945
(dp4946
g68
(dp4947
g88
g89
ssg77
g4941
sg70
(lp4948
S'title'
p4949
asbag63
(g84
g65
NtRp4950
(dp4951
g68
(dp4952
g95
g96
ssg77
g4941
sg70
(lp4953
S':'
asbag63
(g84
g65
NtRp4954
(dp4955
g68
(dp4956
sg77
g4941
sg70
(lp4957
g63
(g64
g65
NtRp4958
(dp4959
g68
(dp4960
g76
I5
ssg77
g4954
sg70
(lp4961
S'Grammateus3'
p4962
asbasbasbag63
(g79
g65
NtRp4963
(dp4964
g68
(dp4965
sg77
g3526
sg70
(lp4966
g63
(g84
g65
NtRp4967
(dp4968
g68
(dp4969
g88
g89
ssg77
g4963
sg70
(lp4970
g2653
asbag63
(g84
g65
NtRp4971
(dp4972
g68
(dp4973
g95
g96
ssg77
g4963
sg70
(lp4974
S':'
asbag63
(g84
g65
NtRp4975
(dp4976
g68
(dp4977
sg77
g4963
sg70
(lp4978
g63
(g64
g65
NtRp4979
(dp4980
g68
(dp4981
g76
I5
ssg77
g4975
sg70
(lp4982
g2666
asbasbasbag63
(g79
g65
NtRp4983
(dp4984
g68
(dp4985
sg77
g3526
sg70
(lp4986
g63
(g84
g65
NtRp4987
(dp4988
g68
(dp4989
g88
g89
ssg77
g4983
sg70
(lp4990
S'view'
p4991
asbag63
(g84
g65
NtRp4992
(dp4993
g68
(dp4994
g95
g96
ssg77
g4983
sg70
(lp4995
S':'
asbag63
(g84
g65
NtRp4996
(dp4997
g68
(dp4998
sg77
g4983
sg70
(lp4999
g63
(g64
g65
NtRp5000
(dp5001
g68
(dp5002
g76
I5
ssg77
g4996
sg70
(lp5003
S'docs/section.load'
p5004
asbasbasbasbasbsS'locals'
p5005
(dp5006
S'_ModifyContentOnlyProxy'
p5007
S"<type 'lxml.etree._ModifyContentOnlyProxy'>"
p5008
sS'XPathEvaluator'
p5009
S'<built-in function XPathEvaluator>'
p5010
sS'ParserBasedElementClassLookup'
p5011
S"<type 'lxml.etree.ParserBasedElementClassLookup'>"
p5012
sS'_Attrib'
p5013
S"<type 'lxml.etree._Attrib'>"
p5014
sS'_FilelikeWriter'
p5015
S"<type 'lxml.etree._FilelikeWriter'>"
p5016
sS'strip_attributes'
p5017
S'<built-in function strip_attributes>'
p5018
sS'SiblingsIterator'
p5019
S"<type 'lxml.etree.SiblingsIterator'>"
p5020
sS'LIBXSLT_VERSION'
p5021
S'(1, 1, 26)'
p5022
sS'XMLDTDID'
p5023
S'<built-in function XMLDTDID>'
p5024
sS'ElementTree'
p5025
S'<built-in function ElementTree>'
p5026
sS'cleanup_namespaces'
p5027
S'<built-in function cleanup_namespaces>'
p5028
sS'set_default_parser'
p5029
S'<built-in function set_default_parser>'
p5030
sS'ElementClassLookup'
p5031
S"<type 'lxml.etree.ElementClassLookup'>"
p5032
sS'parseid'
p5033
S'<built-in function parseid>'
p5034
sS'LxmlSyntaxError'
p5035
S"<class 'lxml.etree.LxmlSyntaxError'>"
p5036
sS'_XSLTProcessingInstruction'
p5037
S"<type 'lxml.etree._XSLTProcessingInstruction'>"
p5038
sS'_ParserContext'
p5039
S"<type 'lxml.etree._ParserContext'>"
p5040
sS'__pyx_capi__'
p5041
S'{\'appendChild\': <capsule object "void (struct LxmlElement *, struct LxmlElement *)">, \'attributeValue\': <capsule object "PyObject *(xmlNode *, xmlAttr *)">, \'attributeValueFromNsName\': <capsule object "PyObject *(xmlNode *, char *, char *)">, \'callLookupFallback\': <capsule object "PyObject *(struct LxmlFallbackE...lassLookup *, struct LxmlDocument *, xmlNode *)">, \'collectAttributes\': <capsule object "PyObject *(xmlNode *, int)">, \'deepcopyNodeToDocument\': <capsule object "struct LxmlElement *(struct LxmlDocument *, xmlNode *)">, \'delAttribute\': <capsule object "int (struct LxmlElement *, PyObject *)">, \'delAttributeFromNsName\': <capsule object "int (xmlNode *, char *, char *)">, \'documentOrRaise\': <capsule object "struct LxmlDocument *(PyObject *)">, \'elementFactory\': <capsule object "struct LxmlElement *(struct LxmlDocument *, xmlNode *)">, ...}'
p5042
sS'_ModifyContentOnlyEntityProxy'
p5043
S"<type 'lxml.etree._ModifyContentOnlyEntityProxy'>"
p5044
sS'_IDDict'
p5045
S"<type 'lxml.etree._IDDict'>"
p5046
sS'XSLTParseError'
p5047
S"<class 'lxml.etree.XSLTParseError'>"
p5048
sS'__ContentOnlyElement'
p5049
S"<type 'lxml.etree.__ContentOnlyElement'>"
p5050
sS'CustomElementClassLookup'
p5051
S"<type 'lxml.etree.CustomElementClassLookup'>"
p5052
sS'_OpaqueNodeWrapper'
p5053
S"<type 'lxml.etree._OpaqueNodeWrapper'>"
p5054
sS'_XPathFunctionNamespaceRegistry'
p5055
S"<type 'lxml.etree._XPathFunctionNamespaceRegistry'>"
p5056
sS'_ReadOnlyElementProxy'
p5057
S"<type 'lxml.etree._ReadOnlyElementProxy'>"
p5058
sS'LxmlRegistryError'
p5059
S"<class 'lxml.etree.LxmlRegistryError'>"
p5060
sS'__file__'
p5061
S"'/usr/lib/python2.7/dist-packages/lxml/etree.so'"
p5062
sS'TreeBuilder'
p5063
S"<type 'lxml.etree.TreeBuilder'>"
p5064
sS'_FileReaderContext'
p5065
S"<type 'lxml.etree._FileReaderContext'>"
p5066
sS'C14NError'
p5067
S"<class 'lxml.etree.C14NError'>"
p5068
sS'CommentBase'
p5069
S"<type 'lxml.etree.CommentBase'>"
p5070
sS'tostring'
p5071
S'<built-in function tostring>'
p5072
sS'iselement'
p5073
S'<built-in function iselement>'
p5074
sS'_FeedParser'
p5075
S"<type 'lxml.etree._FeedParser'>"
p5076
sS'XPathError'
p5077
S"<class 'lxml.etree.XPathError'>"
p5078
sS'LxmlError'
p5079
S"<class 'lxml.etree.LxmlError'>"
p5080
sS'__version__'
p5081
S"u'2.3.2'"
p5082
sS'_ExsltRegExp'
p5083
S"<type 'lxml.etree._ExsltRegExp'>"
p5084
sS'XMLID'
p5085
S'<built-in function XMLID>'
p5086
sS'DocumentInvalid'
p5087
S"<class 'lxml.etree.DocumentInvalid'>"
p5088
sS'FunctionNamespace'
p5089
S'<built-in function FunctionNamespace>'
p5090
sS'XSLTExtensionError'
p5091
S"<class 'lxml.etree.XSLTExtensionError'>"
p5092
sS'_IterparseContext'
p5093
S"<type 'lxml.etree._IterparseContext'>"
p5094
sS'Entity'
p5095
S'<built-in function Entity>'
p5096
sS'_Entity'
p5097
S"<type 'lxml.etree._Entity'>"
p5098
sS'iterparse'
p5099
S"<type 'lxml.etree.iterparse'>"
p5100
sS'_XPathContext'
p5101
S"<type 'lxml.etree._XPathContext'>"
p5102
sS'__package__'
p5103
S"'lxml'"
p5104
sS'ElementChildIterator'
p5105
S"<type 'lxml.etree.ElementChildIterator'>"
p5106
sS'XPath'
p5107
S"<type 'lxml.etree.XPath'>"
p5108
sS'_LogEntry'
p5109
S"<type 'lxml.etree._LogEntry'>"
p5110
sS'_ResolverContext'
p5111
S"<type 'lxml.etree._ResolverContext'>"
p5112
sS'_AttribIterator'
p5113
S"<type 'lxml.etree._AttribIterator'>"
p5114
sS'_ReadOnlyEntityProxy'
p5115
S"<type 'lxml.etree._ReadOnlyEntityProxy'>"
p5116
sS'PyErrorLog'
p5117
S"<type 'lxml.etree.PyErrorLog'>"
p5118
sS'_SaxParserContext'
p5119
S"<type 'lxml.etree._SaxParserContext'>"
p5120
sS'_ElementTree'
p5121
S"<type 'lxml.etree._ElementTree'>"
p5122
sS'_ListErrorLog'
p5123
S"<type 'lxml.etree._ListErrorLog'>"
p5124
sS'DTD'
p5125
S"<type 'lxml.etree.DTD'>"
p5126
sS'AttributeBasedElementClassLookup'
p5127
S"<type 'lxml.etree.AttributeBasedElementClassLookup'>"
p5128
sS'HTMLParser'
p5129
S"<type 'lxml.etree.HTMLParser'>"
p5130
sS'ElementNamespaceClassLookup'
p5131
S"<type 'lxml.etree.ElementNamespaceClassLookup'>"
p5132
sS'XPathFunctionError'
p5133
S"<class 'lxml.etree.XPathFunctionError'>"
p5134
sS'ElementDepthFirstIterator'
p5135
S"<type 'lxml.etree.ElementDepthFirstIterator'>"
p5136
sS'XMLParser'
p5137
S"<type 'lxml.etree.XMLParser'>"
p5138
sS'XInclude'
p5139
S"<type 'lxml.etree.XInclude'>"
p5140
sS'Schematron'
p5141
S"<type 'lxml.etree.Schematron'>"
p5142
sS'__all__'
p5143
S"['AttributeBasedElementClassLookup', 'C14NError', 'CDATA', 'Comment', 'CommentBase', 'CustomElementClassLookup', 'DEBUG', 'DTD', 'DTDError', 'DTDParseError', 'DTDValidateError', 'DocumentInvalid', 'ETCompatXMLParser', 'ETXPath', 'Element', 'ElementBase', 'ElementClassLookup', 'ElementDefaultClassLookup', 'ElementNamespaceClassLookup', 'ElementTree', ...]"
p5144
sS'NamespaceRegistryError'
p5145
S"<class 'lxml.etree.NamespaceRegistryError'>"
p5146
sS'_Document'
p5147
S"<type 'lxml.etree._Document'>"
p5148
sS'strip_elements'
p5149
S'<built-in function strip_elements>'
p5150
sS'_XSLTContext'
p5151
S"<type 'lxml.etree._XSLTContext'>"
p5152
sS'HTML'
p5153
S'<built-in function HTML>'
p5154
sS'RelaxNG'
p5155
S"<type 'lxml.etree.RelaxNG'>"
p5156
sS'_BaseErrorLog'
p5157
S"<type 'lxml.etree._BaseErrorLog'>"
p5158
sS'PI'
p5159
S'<built-in function ProcessingInstruction>'
p5160
sS'_ParserSchemaValidationContext'
p5161
S"<type 'lxml.etree._ParserSchemaValidationContext'>"
p5162
sS'Extension'
p5163
S'<built-in function Extension>'
p5164
sS'__builtins__'
p5165
S"<module '__builtin__' (built-in)>"
p5166
sS'SchematronParseError'
p5167
S"<class 'lxml.etree.SchematronParseError'>"
p5168
sS'_Element'
p5169
S"<type 'lxml.etree._Element'>"
p5170
sS'XSLTExtension'
p5171
S"<type 'lxml.etree.XSLTExtension'>"
p5172
sS'XMLSchemaValidateError'
p5173
S"<class 'lxml.etree.XMLSchemaValidateError'>"
p5174
sS'XMLSchema'
p5175
S"<type 'lxml.etree.XMLSchema'>"
p5176
sS'DEBUG'
p5177
S'1'
sS'__name__'
p5178
S"'lxml.etree'"
p5179
sS'_ElementUnicodeResult'
p5180
S"<type 'lxml.etree._ElementUnicodeResult'>"
p5181
sS'ErrorTypes'
p5182
S"<class 'lxml.etree.ErrorTypes'>"
p5183
sS'Comment'
p5184
S'<built-in function Comment>'
p5185
sS'XMLTreeBuilder'
p5186
S"<type 'lxml.etree.ETCompatXMLParser'>"
p5187
sS'RelaxNGErrorTypes'
p5188
S"<class 'lxml.etree.RelaxNGErrorTypes'>"
p5189
sS'iterwalk'
p5190
S"<type 'lxml.etree.iterwalk'>"
p5191
sS'ProcessingInstruction'
p5192
S'<built-in function ProcessingInstruction>'
p5193
sS'LXML_VERSION'
p5194
S'(2, 3, 2, 0)'
p5195
sS'_InputDocument'
p5196
S"<type 'lxml.etree._InputDocument'>"
p5197
sS'RelaxNGValidateError'
p5198
S"<class 'lxml.etree.RelaxNGValidateError'>"
p5199
sS'strip_tags'
p5200
S'<built-in function strip_tags>'
p5201
sS'XIncludeError'
p5202
S"<class 'lxml.etree.XIncludeError'>"
p5203
sS'tounicode'
p5204
S'<built-in function tounicode>'
p5205
sS'PIBase'
p5206
S"<type 'lxml.etree.PIBase'>"
p5207
sS'_XSLTResolverContext'
p5208
S"<type 'lxml.etree._XSLTResolverContext'>"
p5209
sS'_ParserDictionaryContext'
p5210
S"<type 'lxml.etree._ParserDictionaryContext'>"
p5211
sS'ParserError'
p5212
S"<class 'lxml.etree.ParserError'>"
p5213
sS'_ElementIterator'
p5214
S"<type 'lxml.etree._ElementIterator'>"
p5215
sS'__docformat__'
p5216
S"u'restructuredtext en'"
p5217
sS'SerialisationError'
p5218
S"<class 'lxml.etree.SerialisationError'>"
p5219
sS'_ReadOnlyProxy'
p5220
S"<type 'lxml.etree._ReadOnlyProxy'>"
p5221
sS'_ReadOnlyPIProxy'
p5222
S"<type 'lxml.etree._ReadOnlyPIProxy'>"
p5223
sS'DocInfo'
p5224
S"<type 'lxml.etree.DocInfo'>"
p5225
sg3359
S'<built-in function dump>'
p5226
sS'XSLTSaveError'
p5227
S"<class 'lxml.etree.XSLTSaveError'>"
p5228
sS'LIBXSLT_COMPILED_VERSION'
p5229
S'(1, 1, 26)'
p5230
sS'ElementTextIterator'
p5231
S"<type 'lxml.etree.ElementTextIterator'>"
p5232
sg38
S"'The ``lxml.etree`` module implements the extended ElementTree API\\nfor XML.\\n'"
p5233
sS'_AppendOnlyElementProxy'
p5234
S"<type 'lxml.etree._AppendOnlyElementProxy'>"
p5235
sS'XPathElementEvaluator'
p5236
S"<type 'lxml.etree.XPathElementEvaluator'>"
p5237
sS'XML'
p5238
S'<built-in function XML>'
p5239
sS'XSLTError'
p5240
S"<class 'lxml.etree.XSLTError'>"
p5241
sS'XSLT'
p5242
S"<type 'lxml.etree.XSLT'>"
p5243
sS'_DomainErrorLog'
p5244
S"<type 'lxml.etree._DomainErrorLog'>"
p5245
sS'AncestorsIterator'
p5246
S"<type 'lxml.etree.AncestorsIterator'>"
p5247
sS'_BaseContext'
p5248
S"<type 'lxml.etree._BaseContext'>"
p5249
sS'_ModifyContentOnlyPIProxy'
p5250
S"<type 'lxml.etree._ModifyContentOnlyPIProxy'>"
p5251
sS'_BaseParser'
p5252
S"<type 'lxml.etree._BaseParser'>"
p5253
sS'Error'
p5254
S"<class 'lxml.etree.Error'>"
p5255
sS'ErrorLevels'
p5256
S"<class 'lxml.etree.ErrorLevels'>"
p5257
sS'_TargetParserContext'
p5258
S"<type 'lxml.etree._TargetParserContext'>"
p5259
sS'LIBXML_VERSION'
p5260
S'(2, 7, 8)'
p5261
sS'XPathResultError'
p5262
S"<class 'lxml.etree.XPathResultError'>"
p5263
sS'_OpaqueDocumentWrapper'
p5264
S"<type 'lxml.etree._OpaqueDocumentWrapper'>"
p5265
sS'XSLTAccessControl'
p5266
S"<type 'lxml.etree.XSLTAccessControl'>"
p5267
sS'XMLSyntaxError'
p5268
S"<class 'lxml.etree.XMLSyntaxError'>"
p5269
sS'XMLSchemaParseError'
p5270
S"<class 'lxml.etree.XMLSchemaParseError'>"
p5271
sS'EntityBase'
p5272
S"<type 'lxml.etree.EntityBase'>"
p5273
sS'_ExceptionContext'
p5274
S"<type 'lxml.etree._ExceptionContext'>"
p5275
sS'SubElement'
p5276
S'<built-in function SubElement>'
p5277
sS'CDATA'
p5278
S"<type 'lxml.etree.CDATA'>"
p5279
sS'_ElementTagMatcher'
p5280
S"<type 'lxml.etree._ElementTagMatcher'>"
p5281
sS'DTDError'
p5282
S"<class 'lxml.etree.DTDError'>"
p5283
sS'_ProcessingInstruction'
p5284
S"<type 'lxml.etree._ProcessingInstruction'>"
p5285
sS'get_default_parser'
p5286
S'<built-in function get_default_parser>'
p5287
sS'register_namespace'
p5288
S'<built-in function register_namespace>'
p5289
sS'ErrorDomains'
p5290
S"<class 'lxml.etree.ErrorDomains'>"
p5291
sS'LIBXML_COMPILED_VERSION'
p5292
S'(2, 7, 8)'
p5293
sS'DTDValidateError'
p5294
S"<class 'lxml.etree.DTDValidateError'>"
p5295
sS'_SaxParserTarget'
p5296
S"<type 'lxml.etree._SaxParserTarget'>"
p5297
sS'parse'
p5298
S'<built-in function parse>'
p5299
sS'set_element_class_lookup'
p5300
S'<built-in function set_element_class_lookup>'
p5301
sS'_TargetParserResult'
p5302
S"<class 'lxml.etree._TargetParserResult'>"
p5303
sS'FallbackElementClassLookup'
p5304
S"<type 'lxml.etree.FallbackElementClassLookup'>"
p5305
sS'RelaxNGError'
p5306
S"<class 'lxml.etree.RelaxNGError'>"
p5307
sS'XPathEvalError'
p5308
S"<class 'lxml.etree.XPathEvalError'>"
p5309
sS'PythonElementClassLookup'
p5310
S"<type 'lxml.etree.PythonElementClassLookup'>"
p5311
sS'_FunctionNamespaceRegistry'
p5312
S"<type 'lxml.etree._FunctionNamespaceRegistry'>"
p5313
sS'clear_error_log'
p5314
S'<built-in function clear_error_log>'
p5315
sS'_RotatingErrorLog'
p5316
S"<type 'lxml.etree._RotatingErrorLog'>"
p5317
sS'XPathDocumentEvaluator'
p5318
S"<type 'lxml.etree.XPathDocumentEvaluator'>"
p5319
sS'_XSLTQuotedStringParam'
p5320
S"<type 'lxml.etree._XSLTQuotedStringParam'>"
p5321
sS'ETXPath'
p5322
S"<type 'lxml.etree.ETXPath'>"
p5323
sS'SchematronError'
p5324
S"<class 'lxml.etree.SchematronError'>"
p5325
sS'Resolver'
p5326
S"<type 'lxml.etree.Resolver'>"
p5327
sS'_NamespaceRegistry'
p5328
S"<type 'lxml.etree._NamespaceRegistry'>"
p5329
sS'fromstringlist'
p5330
S'<built-in function fromstringlist>'
p5331
sS'XSLTApplyError'
p5332
S"<class 'lxml.etree.XSLTApplyError'>"
p5333
sS'_Comment'
p5334
S"<type 'lxml.etree._Comment'>"
p5335
sS'_Validator'
p5336
S"<type 'lxml.etree._Validator'>"
p5337
sS'DTDParseError'
p5338
S"<class 'lxml.etree.DTDParseError'>"
p5339
sS'_ResolverRegistry'
p5340
S"<type 'lxml.etree._ResolverRegistry'>"
p5341
sS'_XPathEvaluatorBase'
p5342
S"<type 'lxml.etree._XPathEvaluatorBase'>"
p5343
sS'_ErrorLog'
p5344
S"<type 'lxml.etree._ErrorLog'>"
p5345
sS'Element'
p5346
S'<built-in function Element>'
p5347
sS'ElementBase'
p5348
S"<type 'lxml.etree.ElementBase'>"
p5349
sS'_ElementStringResult'
p5350
S"<class 'lxml.etree._ElementStringResult'>"
p5351
sS'XPathSyntaxError'
p5352
S"<class 'lxml.etree.XPathSyntaxError'>"
p5353
sS'ParseError'
p5354
S"<class 'lxml.etree.ParseError'>"
p5355
sS'_ClassNamespaceRegistry'
p5356
S"<type 'lxml.etree._ClassNamespaceRegistry'>"
p5357
sS'_PythonSaxParserTarget'
p5358
S"<type 'lxml.etree._PythonSaxParserTarget'>"
p5359
sS'_XSLTResultTree'
p5360
S"<type 'lxml.etree._XSLTResultTree'>"
p5361
sS'_TempStore'
p5362
S"<type 'lxml.etree._TempStore'>"
p5363
sS'XMLSchemaError'
p5364
S"<class 'lxml.etree.XMLSchemaError'>"
p5365
sS'use_global_python_log'
p5366
S'<built-in function use_global_python_log>'
p5367
sS'tostringlist'
p5368
S'<built-in function tostringlist>'
p5369
sS'fromstring'
p5370
S'<built-in function fromstring>'
p5371
sS'QName'
p5372
S"<type 'lxml.etree.QName'>"
p5373
sS'SchematronValidateError'
p5374
S"<class 'lxml.etree.SchematronValidateError'>"
p5375
sS'ETCompatXMLParser'
p5376
S"<type 'lxml.etree.ETCompatXMLParser'>"
p5377
sS'RelaxNGParseError'
p5378
S"<class 'lxml.etree.RelaxNGParseError'>"
p5379
sS'__test__'
p5380
S"{u'XML (line 2711)': u'XML(text, parser=None, base_url=None)\\n\\n    P...ternal entities\\n    (DTD, XInclude, ...).\\n    '}"
p5381
sS'ElementDefaultClassLookup'
p5382
S"<type 'lxml.etree.ElementDefaultClassLookup'>"
p5383
sssS'traceback'
p5384
S'Traceback (most recent call last):\n  File "/home/ian/web/web2py/gluon/restricted.py", line 204, in restricted\n    exec ccode in environment\n  File "/home/ian/web/web2py/applications/grammateus3/controllers/docs.py", line 193, in <module>\n  File "/home/ian/web/web2py/gluon/globals.py", line 172, in <lambda>\n    self._caller = lambda f: f()\n  File "/home/ian/web/web2py/applications/grammateus3/controllers/docs.py", line 43, in section\n    p = BookParser(book_file)\n  File "applications/grammateus3/modules/parse.py", line 25, in __init__\n    self.tree = etree.parse(xml_file, parser)\n  File "lxml.etree.pyx", line 2953, in lxml.etree.parse (src/lxml/lxml.etree.c:56204)\n  File "parser.pxi", line 1533, in lxml.etree._parseDocument (src/lxml/lxml.etree.c:82287)\n  File "parser.pxi", line 1562, in lxml.etree._parseDocumentFromURL (src/lxml/lxml.etree.c:82580)\n  File "parser.pxi", line 1462, in lxml.etree._parseDocFromFile (src/lxml/lxml.etree.c:81619)\n  File "parser.pxi", line 1002, in lxml.etree._BaseParser._parseDocFromFile (src/lxml/lxml.etree.c:78528)\n  File "parser.pxi", line 569, in lxml.etree._ParserContext._handleParseResultDoc (src/lxml/lxml.etree.c:74472)\n  File "parser.pxi", line 650, in lxml.etree._handleParseResult (src/lxml/lxml.etree.c:75363)\n  File "parser.pxi", line 588, in lxml.etree._raiseParseError (src/lxml/lxml.etree.c:74665)\nIOError: Error reading file \'applications/grammateus3/static/docs/22.xml\': failed to load external entity "applications/grammateus3/static/docs/22.xml"\n'
p5385
s.