(dp1
S'output'
p2
S''
sS'layer'
p3
S'Framework'
p4
sS'code'
p5
S''
sS'snapshot'
p6
(dp7
S'exception'
p8
(dp9
S'__hash__'
p10
S"<method-wrapper '__hash__' of exceptions.NameError object>"
p11
sS'__setattr__'
p12
S"<method-wrapper '__setattr__' of exceptions.NameError object>"
p13
sS'__reduce_ex__'
p14
S'<built-in method __reduce_ex__ of exceptions.NameError object>'
p15
sS'__getslice__'
p16
S"<method-wrapper '__getslice__' of exceptions.NameError object>"
p17
sS'__getitem__'
p18
S"<method-wrapper '__getitem__' of exceptions.NameError object>"
p19
sS'__setstate__'
p20
S'<built-in method __setstate__ of exceptions.NameError object>'
p21
sS'args'
p22
S'("name \'plugin_framework\' is not defined",)'
p23
sS'__reduce__'
p24
S'<built-in method __reduce__ of exceptions.NameError object>'
p25
sS'__str__'
p26
S"<method-wrapper '__str__' of exceptions.NameError object>"
p27
sS'__format__'
p28
S'<built-in method __format__ of exceptions.NameError object>'
p29
sS'__getattribute__'
p30
S"<method-wrapper '__getattribute__' of exceptions.NameError object>"
p31
sS'__class__'
p32
S"<type 'exceptions.NameError'>"
p33
sS'__unicode__'
p34
S'<built-in method __unicode__ of exceptions.NameError object>'
p35
sS'__delattr__'
p36
S"<method-wrapper '__delattr__' of exceptions.NameError object>"
p37
sS'__subclasshook__'
p38
S'<built-in method __subclasshook__ of type object>'
p39
sS'__repr__'
p40
S"<method-wrapper '__repr__' of exceptions.NameError object>"
p41
sS'__dict__'
p42
S'{}'
p43
sS'__sizeof__'
p44
S'<built-in method __sizeof__ of exceptions.NameError object>'
p45
sS'__doc__'
p46
S"'Name not found globally.'"
p47
sS'__init__'
p48
S"<method-wrapper '__init__' of exceptions.NameError object>"
p49
sS'__new__'
p50
S'<built-in method __new__ of type object>'
p51
ssS'evalue'
p52
S"name 'plugin_framework' is not defined"
p53
sS'request'
p54
ccopy_reg
_reconstructor
p55
(cgluon.html
BEAUTIFY
p56
c__builtin__
object
p57
NtRp58
(dp59
S'attributes'
p60
(dp61
sS'components'
p62
(lp63
g55
(cgluon.html
TABLE
p64
g57
NtRp65
(dp66
g60
(dp67
S'level'
p68
I5
ssS'parent'
p69
Nsg62
(lp70
g55
(cgluon.html
TR
p71
g57
NtRp72
(dp73
g60
(dp74
sg69
g65
sg62
(lp75
g55
(cgluon.html
TD
p76
g57
NtRp77
(dp78
g60
(dp79
S'_style'
p80
S'font-weight:bold;vertical-align:top'
p81
ssg69
g72
sg62
(lp82
S'ajax'
p83
asbag55
(g76
g57
NtRp84
(dp85
g60
(dp86
S'_valign'
p87
S'top'
p88
ssg69
g72
sg62
(lp89
S':'
asbag55
(g76
g57
NtRp90
(dp91
g60
(dp92
sg69
g72
sg62
(lp93
g55
(g56
g57
NtRp94
(dp95
g60
(dp96
g68
I5
ssg69
g90
sg62
(lp97
S'False'
p98
asbasbasbag55
(g71
g57
NtRp99
(dp100
g60
(dp101
sg69
g65
sg62
(lp102
g55
(g76
g57
NtRp103
(dp104
g60
(dp105
g80
g81
ssg69
g99
sg62
(lp106
S'application'
p107
asbag55
(g76
g57
NtRp108
(dp109
g60
(dp110
g87
g88
ssg69
g99
sg62
(lp111
S':'
asbag55
(g76
g57
NtRp112
(dp113
g60
(dp114
sg69
g99
sg62
(lp115
g55
(g56
g57
NtRp116
(dp117
g60
(dp118
g68
I5
ssg69
g112
sg62
(lp119
S'grammateus3'
p120
asbasbasbag55
(g71
g57
NtRp121
(dp122
g60
(dp123
sg69
g65
sg62
(lp124
g55
(g76
g57
NtRp125
(dp126
g60
(dp127
g80
g81
ssg69
g121
sg62
(lp128
g22
asbag55
(g76
g57
NtRp129
(dp130
g60
(dp131
g87
g88
ssg69
g121
sg62
(lp132
S':'
asbag55
(g76
g57
NtRp133
(dp134
g60
(dp135
sg69
g121
sg62
(lp136
g55
(g56
g57
NtRp137
(dp138
g60
(dp139
g68
I5
ssg69
g133
sg62
(lp140
g55
(g64
g57
NtRp141
(dp142
g60
(dp143
g68
I4
ssg69
Nsg62
(lp144
g55
(g71
g57
NtRp145
(dp146
g60
(dp147
sg69
g141
sg62
(lp148
g55
(g76
g57
NtRp149
(dp150
g60
(dp151
sg69
g145
sg62
(lp152
g55
(g56
g57
NtRp153
(dp154
g60
(dp155
g68
I4
ssg69
g149
sg62
(lp156
S'1En'
p157
asbasbasbasbasbasbasbag55
(g71
g57
NtRp158
(dp159
g60
(dp160
sg69
g65
sg62
(lp161
g55
(g76
g57
NtRp162
(dp163
g60
(dp164
g80
g81
ssg69
g158
sg62
(lp165
S'body'
p166
asbag55
(g76
g57
NtRp167
(dp168
g60
(dp169
g87
g88
ssg69
g158
sg62
(lp170
S':'
asbag55
(g76
g57
NtRp171
(dp172
g60
(dp173
sg69
g158
sg62
(lp174
g55
(g56
g57
NtRp175
(dp176
g60
(dp177
g68
I5
ssg69
g171
sg62
(lp178
S'<cStringIO.StringO object at 0x2d3e1f0>'
p179
asbasbasbag55
(g71
g57
NtRp180
(dp181
g60
(dp182
sg69
g65
sg62
(lp183
g55
(g76
g57
NtRp184
(dp185
g60
(dp186
g80
g81
ssg69
g180
sg62
(lp187
S'client'
p188
asbag55
(g76
g57
NtRp189
(dp190
g60
(dp191
g87
g88
ssg69
g180
sg62
(lp192
S':'
asbag55
(g76
g57
NtRp193
(dp194
g60
(dp195
sg69
g180
sg62
(lp196
g55
(g56
g57
NtRp197
(dp198
g60
(dp199
g68
I5
ssg69
g193
sg62
(lp200
S'127.0.0.1'
p201
asbasbasbag55
(g71
g57
NtRp202
(dp203
g60
(dp204
sg69
g65
sg62
(lp205
g55
(g76
g57
NtRp206
(dp207
g60
(dp208
g80
g81
ssg69
g202
sg62
(lp209
S'controller'
p210
asbag55
(g76
g57
NtRp211
(dp212
g60
(dp213
g87
g88
ssg69
g202
sg62
(lp214
S':'
asbag55
(g76
g57
NtRp215
(dp216
g60
(dp217
sg69
g202
sg62
(lp218
g55
(g56
g57
NtRp219
(dp220
g60
(dp221
g68
I5
ssg69
g215
sg62
(lp222
S'docs'
p223
asbasbasbag55
(g71
g57
NtRp224
(dp225
g60
(dp226
sg69
g65
sg62
(lp227
g55
(g76
g57
NtRp228
(dp229
g60
(dp230
g80
g81
ssg69
g224
sg62
(lp231
S'cookies'
p232
asbag55
(g76
g57
NtRp233
(dp234
g60
(dp235
g87
g88
ssg69
g224
sg62
(lp236
S':'
asbag55
(g76
g57
NtRp237
(dp238
g60
(dp239
sg69
g224
sg62
(lp240
g55
(g56
g57
NtRp241
(dp242
g60
(dp243
g68
I5
ssg69
g237
sg62
(lp244
g55
(g64
g57
NtRp245
(dp246
g60
(dp247
g68
I4
ssg69
Nsg62
(lp248
g55
(g71
g57
NtRp249
(dp250
g60
(dp251
sg69
g245
sg62
(lp252
g55
(g76
g57
NtRp253
(dp254
g60
(dp255
g80
g81
ssg69
g249
sg62
(lp256
S'session_id_admin'
p257
asbag55
(g76
g57
NtRp258
(dp259
g60
(dp260
g87
g88
ssg69
g249
sg62
(lp261
S':'
asbag55
(g76
g57
NtRp262
(dp263
g60
(dp264
sg69
g249
sg62
(lp265
g55
(g56
g57
NtRp266
(dp267
g60
(dp268
g68
I4
ssg69
g262
sg62
(lp269
g55
(g64
g57
NtRp270
(dp271
g60
(dp272
g68
I3
ssg69
Nsg62
(lp273
g55
(g71
g57
NtRp274
(dp275
g60
(dp276
sg69
g270
sg62
(lp277
g55
(g76
g57
NtRp278
(dp279
g60
(dp280
g80
g81
ssg69
g274
sg62
(lp281
S'comment'
p282
asbag55
(g76
g57
NtRp283
(dp284
g60
(dp285
g87
g88
ssg69
g274
sg62
(lp286
S':'
asbag55
(g76
g57
NtRp287
(dp288
g60
(dp289
sg69
g274
sg62
(lp290
g55
(g56
g57
NtRp291
(dp292
g60
(dp293
g68
I3
ssg69
g287
sg62
(lp294
S''
asbasbasbag55
(g71
g57
NtRp295
(dp296
g60
(dp297
sg69
g270
sg62
(lp298
g55
(g76
g57
NtRp299
(dp300
g60
(dp301
g80
g81
ssg69
g295
sg62
(lp302
S'domain'
p303
asbag55
(g76
g57
NtRp304
(dp305
g60
(dp306
g87
g88
ssg69
g295
sg62
(lp307
S':'
asbag55
(g76
g57
NtRp308
(dp309
g60
(dp310
sg69
g295
sg62
(lp311
g55
(g56
g57
NtRp312
(dp313
g60
(dp314
g68
I3
ssg69
g308
sg62
(lp315
S''
asbasbasbag55
(g71
g57
NtRp316
(dp317
g60
(dp318
sg69
g270
sg62
(lp319
g55
(g76
g57
NtRp320
(dp321
g60
(dp322
g80
g81
ssg69
g316
sg62
(lp323
S'expires'
p324
asbag55
(g76
g57
NtRp325
(dp326
g60
(dp327
g87
g88
ssg69
g316
sg62
(lp328
S':'
asbag55
(g76
g57
NtRp329
(dp330
g60
(dp331
sg69
g316
sg62
(lp332
g55
(g56
g57
NtRp333
(dp334
g60
(dp335
g68
I3
ssg69
g329
sg62
(lp336
S''
asbasbasbag55
(g71
g57
NtRp337
(dp338
g60
(dp339
sg69
g270
sg62
(lp340
g55
(g76
g57
NtRp341
(dp342
g60
(dp343
g80
g81
ssg69
g337
sg62
(lp344
S'httponly'
p345
asbag55
(g76
g57
NtRp346
(dp347
g60
(dp348
g87
g88
ssg69
g337
sg62
(lp349
S':'
asbag55
(g76
g57
NtRp350
(dp351
g60
(dp352
sg69
g337
sg62
(lp353
g55
(g56
g57
NtRp354
(dp355
g60
(dp356
g68
I3
ssg69
g350
sg62
(lp357
S''
asbasbasbag55
(g71
g57
NtRp358
(dp359
g60
(dp360
sg69
g270
sg62
(lp361
g55
(g76
g57
NtRp362
(dp363
g60
(dp364
g80
g81
ssg69
g358
sg62
(lp365
S'max-age'
p366
asbag55
(g76
g57
NtRp367
(dp368
g60
(dp369
g87
g88
ssg69
g358
sg62
(lp370
S':'
asbag55
(g76
g57
NtRp371
(dp372
g60
(dp373
sg69
g358
sg62
(lp374
g55
(g56
g57
NtRp375
(dp376
g60
(dp377
g68
I3
ssg69
g371
sg62
(lp378
S''
asbasbasbag55
(g71
g57
NtRp379
(dp380
g60
(dp381
sg69
g270
sg62
(lp382
g55
(g76
g57
NtRp383
(dp384
g60
(dp385
g80
g81
ssg69
g379
sg62
(lp386
S'path'
p387
asbag55
(g76
g57
NtRp388
(dp389
g60
(dp390
g87
g88
ssg69
g379
sg62
(lp391
S':'
asbag55
(g76
g57
NtRp392
(dp393
g60
(dp394
sg69
g379
sg62
(lp395
g55
(g56
g57
NtRp396
(dp397
g60
(dp398
g68
I3
ssg69
g392
sg62
(lp399
S''
asbasbasbag55
(g71
g57
NtRp400
(dp401
g60
(dp402
sg69
g270
sg62
(lp403
g55
(g76
g57
NtRp404
(dp405
g60
(dp406
g80
g81
ssg69
g400
sg62
(lp407
S'secure'
p408
asbag55
(g76
g57
NtRp409
(dp410
g60
(dp411
g87
g88
ssg69
g400
sg62
(lp412
S':'
asbag55
(g76
g57
NtRp413
(dp414
g60
(dp415
sg69
g400
sg62
(lp416
g55
(g56
g57
NtRp417
(dp418
g60
(dp419
g68
I3
ssg69
g413
sg62
(lp420
S''
asbasbasbag55
(g71
g57
NtRp421
(dp422
g60
(dp423
sg69
g270
sg62
(lp424
g55
(g76
g57
NtRp425
(dp426
g60
(dp427
g80
g81
ssg69
g421
sg62
(lp428
S'version'
p429
asbag55
(g76
g57
NtRp430
(dp431
g60
(dp432
g87
g88
ssg69
g421
sg62
(lp433
S':'
asbag55
(g76
g57
NtRp434
(dp435
g60
(dp436
sg69
g421
sg62
(lp437
g55
(g56
g57
NtRp438
(dp439
g60
(dp440
g68
I3
ssg69
g434
sg62
(lp441
S''
asbasbasbasbasbasbasbag55
(g71
g57
NtRp442
(dp443
g60
(dp444
sg69
g245
sg62
(lp445
g55
(g76
g57
NtRp446
(dp447
g60
(dp448
g80
g81
ssg69
g442
sg62
(lp449
S'session_id_grammateus3'
p450
asbag55
(g76
g57
NtRp451
(dp452
g60
(dp453
g87
g88
ssg69
g442
sg62
(lp454
S':'
asbag55
(g76
g57
NtRp455
(dp456
g60
(dp457
sg69
g442
sg62
(lp458
g55
(g56
g57
NtRp459
(dp460
g60
(dp461
g68
I4
ssg69
g455
sg62
(lp462
g55
(g64
g57
NtRp463
(dp464
g60
(dp465
g68
I3
ssg69
Nsg62
(lp466
g55
(g71
g57
NtRp467
(dp468
g60
(dp469
sg69
g463
sg62
(lp470
g55
(g76
g57
NtRp471
(dp472
g60
(dp473
g80
g81
ssg69
g467
sg62
(lp474
g282
asbag55
(g76
g57
NtRp475
(dp476
g60
(dp477
g87
g88
ssg69
g467
sg62
(lp478
S':'
asbag55
(g76
g57
NtRp479
(dp480
g60
(dp481
sg69
g467
sg62
(lp482
g55
(g56
g57
NtRp483
(dp484
g60
(dp485
g68
I3
ssg69
g479
sg62
(lp486
S''
asbasbasbag55
(g71
g57
NtRp487
(dp488
g60
(dp489
sg69
g463
sg62
(lp490
g55
(g76
g57
NtRp491
(dp492
g60
(dp493
g80
g81
ssg69
g487
sg62
(lp494
g303
asbag55
(g76
g57
NtRp495
(dp496
g60
(dp497
g87
g88
ssg69
g487
sg62
(lp498
S':'
asbag55
(g76
g57
NtRp499
(dp500
g60
(dp501
sg69
g487
sg62
(lp502
g55
(g56
g57
NtRp503
(dp504
g60
(dp505
g68
I3
ssg69
g499
sg62
(lp506
S''
asbasbasbag55
(g71
g57
NtRp507
(dp508
g60
(dp509
sg69
g463
sg62
(lp510
g55
(g76
g57
NtRp511
(dp512
g60
(dp513
g80
g81
ssg69
g507
sg62
(lp514
g324
asbag55
(g76
g57
NtRp515
(dp516
g60
(dp517
g87
g88
ssg69
g507
sg62
(lp518
S':'
asbag55
(g76
g57
NtRp519
(dp520
g60
(dp521
sg69
g507
sg62
(lp522
g55
(g56
g57
NtRp523
(dp524
g60
(dp525
g68
I3
ssg69
g519
sg62
(lp526
S''
asbasbasbag55
(g71
g57
NtRp527
(dp528
g60
(dp529
sg69
g463
sg62
(lp530
g55
(g76
g57
NtRp531
(dp532
g60
(dp533
g80
g81
ssg69
g527
sg62
(lp534
g345
asbag55
(g76
g57
NtRp535
(dp536
g60
(dp537
g87
g88
ssg69
g527
sg62
(lp538
S':'
asbag55
(g76
g57
NtRp539
(dp540
g60
(dp541
sg69
g527
sg62
(lp542
g55
(g56
g57
NtRp543
(dp544
g60
(dp545
g68
I3
ssg69
g539
sg62
(lp546
S''
asbasbasbag55
(g71
g57
NtRp547
(dp548
g60
(dp549
sg69
g463
sg62
(lp550
g55
(g76
g57
NtRp551
(dp552
g60
(dp553
g80
g81
ssg69
g547
sg62
(lp554
g366
asbag55
(g76
g57
NtRp555
(dp556
g60
(dp557
g87
g88
ssg69
g547
sg62
(lp558
S':'
asbag55
(g76
g57
NtRp559
(dp560
g60
(dp561
sg69
g547
sg62
(lp562
g55
(g56
g57
NtRp563
(dp564
g60
(dp565
g68
I3
ssg69
g559
sg62
(lp566
S''
asbasbasbag55
(g71
g57
NtRp567
(dp568
g60
(dp569
sg69
g463
sg62
(lp570
g55
(g76
g57
NtRp571
(dp572
g60
(dp573
g80
g81
ssg69
g567
sg62
(lp574
g387
asbag55
(g76
g57
NtRp575
(dp576
g60
(dp577
g87
g88
ssg69
g567
sg62
(lp578
S':'
asbag55
(g76
g57
NtRp579
(dp580
g60
(dp581
sg69
g567
sg62
(lp582
g55
(g56
g57
NtRp583
(dp584
g60
(dp585
g68
I3
ssg69
g579
sg62
(lp586
S''
asbasbasbag55
(g71
g57
NtRp587
(dp588
g60
(dp589
sg69
g463
sg62
(lp590
g55
(g76
g57
NtRp591
(dp592
g60
(dp593
g80
g81
ssg69
g587
sg62
(lp594
g408
asbag55
(g76
g57
NtRp595
(dp596
g60
(dp597
g87
g88
ssg69
g587
sg62
(lp598
S':'
asbag55
(g76
g57
NtRp599
(dp600
g60
(dp601
sg69
g587
sg62
(lp602
g55
(g56
g57
NtRp603
(dp604
g60
(dp605
g68
I3
ssg69
g599
sg62
(lp606
S''
asbasbasbag55
(g71
g57
NtRp607
(dp608
g60
(dp609
sg69
g463
sg62
(lp610
g55
(g76
g57
NtRp611
(dp612
g60
(dp613
g80
g81
ssg69
g607
sg62
(lp614
g429
asbag55
(g76
g57
NtRp615
(dp616
g60
(dp617
g87
g88
ssg69
g607
sg62
(lp618
S':'
asbag55
(g76
g57
NtRp619
(dp620
g60
(dp621
sg69
g607
sg62
(lp622
g55
(g56
g57
NtRp623
(dp624
g60
(dp625
g68
I3
ssg69
g619
sg62
(lp626
S''
asbasbasbasbasbasbasbag55
(g71
g57
NtRp627
(dp628
g60
(dp629
sg69
g245
sg62
(lp630
g55
(g76
g57
NtRp631
(dp632
g60
(dp633
g80
g81
ssg69
g627
sg62
(lp634
S'session_id_paideia'
p635
asbag55
(g76
g57
NtRp636
(dp637
g60
(dp638
g87
g88
ssg69
g627
sg62
(lp639
S':'
asbag55
(g76
g57
NtRp640
(dp641
g60
(dp642
sg69
g627
sg62
(lp643
g55
(g56
g57
NtRp644
(dp645
g60
(dp646
g68
I4
ssg69
g640
sg62
(lp647
g55
(g64
g57
NtRp648
(dp649
g60
(dp650
g68
I3
ssg69
Nsg62
(lp651
g55
(g71
g57
NtRp652
(dp653
g60
(dp654
sg69
g648
sg62
(lp655
g55
(g76
g57
NtRp656
(dp657
g60
(dp658
g80
g81
ssg69
g652
sg62
(lp659
g282
asbag55
(g76
g57
NtRp660
(dp661
g60
(dp662
g87
g88
ssg69
g652
sg62
(lp663
S':'
asbag55
(g76
g57
NtRp664
(dp665
g60
(dp666
sg69
g652
sg62
(lp667
g55
(g56
g57
NtRp668
(dp669
g60
(dp670
g68
I3
ssg69
g664
sg62
(lp671
S''
asbasbasbag55
(g71
g57
NtRp672
(dp673
g60
(dp674
sg69
g648
sg62
(lp675
g55
(g76
g57
NtRp676
(dp677
g60
(dp678
g80
g81
ssg69
g672
sg62
(lp679
g303
asbag55
(g76
g57
NtRp680
(dp681
g60
(dp682
g87
g88
ssg69
g672
sg62
(lp683
S':'
asbag55
(g76
g57
NtRp684
(dp685
g60
(dp686
sg69
g672
sg62
(lp687
g55
(g56
g57
NtRp688
(dp689
g60
(dp690
g68
I3
ssg69
g684
sg62
(lp691
S''
asbasbasbag55
(g71
g57
NtRp692
(dp693
g60
(dp694
sg69
g648
sg62
(lp695
g55
(g76
g57
NtRp696
(dp697
g60
(dp698
g80
g81
ssg69
g692
sg62
(lp699
g324
asbag55
(g76
g57
NtRp700
(dp701
g60
(dp702
g87
g88
ssg69
g692
sg62
(lp703
S':'
asbag55
(g76
g57
NtRp704
(dp705
g60
(dp706
sg69
g692
sg62
(lp707
g55
(g56
g57
NtRp708
(dp709
g60
(dp710
g68
I3
ssg69
g704
sg62
(lp711
S''
asbasbasbag55
(g71
g57
NtRp712
(dp713
g60
(dp714
sg69
g648
sg62
(lp715
g55
(g76
g57
NtRp716
(dp717
g60
(dp718
g80
g81
ssg69
g712
sg62
(lp719
g345
asbag55
(g76
g57
NtRp720
(dp721
g60
(dp722
g87
g88
ssg69
g712
sg62
(lp723
S':'
asbag55
(g76
g57
NtRp724
(dp725
g60
(dp726
sg69
g712
sg62
(lp727
g55
(g56
g57
NtRp728
(dp729
g60
(dp730
g68
I3
ssg69
g724
sg62
(lp731
S''
asbasbasbag55
(g71
g57
NtRp732
(dp733
g60
(dp734
sg69
g648
sg62
(lp735
g55
(g76
g57
NtRp736
(dp737
g60
(dp738
g80
g81
ssg69
g732
sg62
(lp739
g366
asbag55
(g76
g57
NtRp740
(dp741
g60
(dp742
g87
g88
ssg69
g732
sg62
(lp743
S':'
asbag55
(g76
g57
NtRp744
(dp745
g60
(dp746
sg69
g732
sg62
(lp747
g55
(g56
g57
NtRp748
(dp749
g60
(dp750
g68
I3
ssg69
g744
sg62
(lp751
S''
asbasbasbag55
(g71
g57
NtRp752
(dp753
g60
(dp754
sg69
g648
sg62
(lp755
g55
(g76
g57
NtRp756
(dp757
g60
(dp758
g80
g81
ssg69
g752
sg62
(lp759
g387
asbag55
(g76
g57
NtRp760
(dp761
g60
(dp762
g87
g88
ssg69
g752
sg62
(lp763
S':'
asbag55
(g76
g57
NtRp764
(dp765
g60
(dp766
sg69
g752
sg62
(lp767
g55
(g56
g57
NtRp768
(dp769
g60
(dp770
g68
I3
ssg69
g764
sg62
(lp771
S''
asbasbasbag55
(g71
g57
NtRp772
(dp773
g60
(dp774
sg69
g648
sg62
(lp775
g55
(g76
g57
NtRp776
(dp777
g60
(dp778
g80
g81
ssg69
g772
sg62
(lp779
g408
asbag55
(g76
g57
NtRp780
(dp781
g60
(dp782
g87
g88
ssg69
g772
sg62
(lp783
S':'
asbag55
(g76
g57
NtRp784
(dp785
g60
(dp786
sg69
g772
sg62
(lp787
g55
(g56
g57
NtRp788
(dp789
g60
(dp790
g68
I3
ssg69
g784
sg62
(lp791
S''
asbasbasbag55
(g71
g57
NtRp792
(dp793
g60
(dp794
sg69
g648
sg62
(lp795
g55
(g76
g57
NtRp796
(dp797
g60
(dp798
g80
g81
ssg69
g792
sg62
(lp799
g429
asbag55
(g76
g57
NtRp800
(dp801
g60
(dp802
g87
g88
ssg69
g792
sg62
(lp803
S':'
asbag55
(g76
g57
NtRp804
(dp805
g60
(dp806
sg69
g792
sg62
(lp807
g55
(g56
g57
NtRp808
(dp809
g60
(dp810
g68
I3
ssg69
g804
sg62
(lp811
S''
asbasbasbasbasbasbasbag55
(g71
g57
NtRp812
(dp813
g60
(dp814
sg69
g245
sg62
(lp815
g55
(g76
g57
NtRp816
(dp817
g60
(dp818
g80
g81
ssg69
g812
sg62
(lp819
S'session_id_welcome'
p820
asbag55
(g76
g57
NtRp821
(dp822
g60
(dp823
g87
g88
ssg69
g812
sg62
(lp824
S':'
asbag55
(g76
g57
NtRp825
(dp826
g60
(dp827
sg69
g812
sg62
(lp828
g55
(g56
g57
NtRp829
(dp830
g60
(dp831
g68
I4
ssg69
g825
sg62
(lp832
g55
(g64
g57
NtRp833
(dp834
g60
(dp835
g68
I3
ssg69
Nsg62
(lp836
g55
(g71
g57
NtRp837
(dp838
g60
(dp839
sg69
g833
sg62
(lp840
g55
(g76
g57
NtRp841
(dp842
g60
(dp843
g80
g81
ssg69
g837
sg62
(lp844
g282
asbag55
(g76
g57
NtRp845
(dp846
g60
(dp847
g87
g88
ssg69
g837
sg62
(lp848
S':'
asbag55
(g76
g57
NtRp849
(dp850
g60
(dp851
sg69
g837
sg62
(lp852
g55
(g56
g57
NtRp853
(dp854
g60
(dp855
g68
I3
ssg69
g849
sg62
(lp856
S''
asbasbasbag55
(g71
g57
NtRp857
(dp858
g60
(dp859
sg69
g833
sg62
(lp860
g55
(g76
g57
NtRp861
(dp862
g60
(dp863
g80
g81
ssg69
g857
sg62
(lp864
g303
asbag55
(g76
g57
NtRp865
(dp866
g60
(dp867
g87
g88
ssg69
g857
sg62
(lp868
S':'
asbag55
(g76
g57
NtRp869
(dp870
g60
(dp871
sg69
g857
sg62
(lp872
g55
(g56
g57
NtRp873
(dp874
g60
(dp875
g68
I3
ssg69
g869
sg62
(lp876
S''
asbasbasbag55
(g71
g57
NtRp877
(dp878
g60
(dp879
sg69
g833
sg62
(lp880
g55
(g76
g57
NtRp881
(dp882
g60
(dp883
g80
g81
ssg69
g877
sg62
(lp884
g324
asbag55
(g76
g57
NtRp885
(dp886
g60
(dp887
g87
g88
ssg69
g877
sg62
(lp888
S':'
asbag55
(g76
g57
NtRp889
(dp890
g60
(dp891
sg69
g877
sg62
(lp892
g55
(g56
g57
NtRp893
(dp894
g60
(dp895
g68
I3
ssg69
g889
sg62
(lp896
S''
asbasbasbag55
(g71
g57
NtRp897
(dp898
g60
(dp899
sg69
g833
sg62
(lp900
g55
(g76
g57
NtRp901
(dp902
g60
(dp903
g80
g81
ssg69
g897
sg62
(lp904
g345
asbag55
(g76
g57
NtRp905
(dp906
g60
(dp907
g87
g88
ssg69
g897
sg62
(lp908
S':'
asbag55
(g76
g57
NtRp909
(dp910
g60
(dp911
sg69
g897
sg62
(lp912
g55
(g56
g57
NtRp913
(dp914
g60
(dp915
g68
I3
ssg69
g909
sg62
(lp916
S''
asbasbasbag55
(g71
g57
NtRp917
(dp918
g60
(dp919
sg69
g833
sg62
(lp920
g55
(g76
g57
NtRp921
(dp922
g60
(dp923
g80
g81
ssg69
g917
sg62
(lp924
g366
asbag55
(g76
g57
NtRp925
(dp926
g60
(dp927
g87
g88
ssg69
g917
sg62
(lp928
S':'
asbag55
(g76
g57
NtRp929
(dp930
g60
(dp931
sg69
g917
sg62
(lp932
g55
(g56
g57
NtRp933
(dp934
g60
(dp935
g68
I3
ssg69
g929
sg62
(lp936
S''
asbasbasbag55
(g71
g57
NtRp937
(dp938
g60
(dp939
sg69
g833
sg62
(lp940
g55
(g76
g57
NtRp941
(dp942
g60
(dp943
g80
g81
ssg69
g937
sg62
(lp944
g387
asbag55
(g76
g57
NtRp945
(dp946
g60
(dp947
g87
g88
ssg69
g937
sg62
(lp948
S':'
asbag55
(g76
g57
NtRp949
(dp950
g60
(dp951
sg69
g937
sg62
(lp952
g55
(g56
g57
NtRp953
(dp954
g60
(dp955
g68
I3
ssg69
g949
sg62
(lp956
S''
asbasbasbag55
(g71
g57
NtRp957
(dp958
g60
(dp959
sg69
g833
sg62
(lp960
g55
(g76
g57
NtRp961
(dp962
g60
(dp963
g80
g81
ssg69
g957
sg62
(lp964
g408
asbag55
(g76
g57
NtRp965
(dp966
g60
(dp967
g87
g88
ssg69
g957
sg62
(lp968
S':'
asbag55
(g76
g57
NtRp969
(dp970
g60
(dp971
sg69
g957
sg62
(lp972
g55
(g56
g57
NtRp973
(dp974
g60
(dp975
g68
I3
ssg69
g969
sg62
(lp976
S''
asbasbasbag55
(g71
g57
NtRp977
(dp978
g60
(dp979
sg69
g833
sg62
(lp980
g55
(g76
g57
NtRp981
(dp982
g60
(dp983
g80
g81
ssg69
g977
sg62
(lp984
g429
asbag55
(g76
g57
NtRp985
(dp986
g60
(dp987
g87
g88
ssg69
g977
sg62
(lp988
S':'
asbag55
(g76
g57
NtRp989
(dp990
g60
(dp991
sg69
g977
sg62
(lp992
g55
(g56
g57
NtRp993
(dp994
g60
(dp995
g68
I3
ssg69
g989
sg62
(lp996
S''
asbasbasbasbasbasbasbasbasbasbasbag55
(g71
g57
NtRp997
(dp998
g60
(dp999
sg69
g65
sg62
(lp1000
g55
(g76
g57
NtRp1001
(dp1002
g60
(dp1003
g80
g81
ssg69
g997
sg62
(lp1004
S'env'
p1005
asbag55
(g76
g57
NtRp1006
(dp1007
g60
(dp1008
g87
g88
ssg69
g997
sg62
(lp1009
S':'
asbag55
(g76
g57
NtRp1010
(dp1011
g60
(dp1012
sg69
g997
sg62
(lp1013
g55
(g56
g57
NtRp1014
(dp1015
g60
(dp1016
g68
I5
ssg69
g1010
sg62
(lp1017
g55
(g64
g57
NtRp1018
(dp1019
g60
(dp1020
g68
I4
ssg69
Nsg62
(lp1021
g55
(g71
g57
NtRp1022
(dp1023
g60
(dp1024
sg69
g1018
sg62
(lp1025
g55
(g76
g57
NtRp1026
(dp1027
g60
(dp1028
g80
g81
ssg69
g1022
sg62
(lp1029
S'app_folders'
p1030
asbag55
(g76
g57
NtRp1031
(dp1032
g60
(dp1033
g87
g88
ssg69
g1022
sg62
(lp1034
S':'
asbag55
(g76
g57
NtRp1035
(dp1036
g60
(dp1037
sg69
g1022
sg62
(lp1038
g55
(g56
g57
NtRp1039
(dp1040
g60
(dp1041
g68
I4
ssg69
g1035
sg62
(lp1042
S"set(['/home/ian/web/web2py/applications/welcome/', '/home/ian/web/web2py/applications/grammateus3/', '/home/ian/web/web2py/applications/admin/'])"
p1043
asbasbasbag55
(g71
g57
NtRp1044
(dp1045
g60
(dp1046
sg69
g1018
sg62
(lp1047
g55
(g76
g57
NtRp1048
(dp1049
g60
(dp1050
g80
g81
ssg69
g1044
sg62
(lp1051
S'applications_parent'
p1052
asbag55
(g76
g57
NtRp1053
(dp1054
g60
(dp1055
g87
g88
ssg69
g1044
sg62
(lp1056
S':'
asbag55
(g76
g57
NtRp1057
(dp1058
g60
(dp1059
sg69
g1044
sg62
(lp1060
g55
(g56
g57
NtRp1061
(dp1062
g60
(dp1063
g68
I4
ssg69
g1057
sg62
(lp1064
S'/home/ian/web/web2py'
p1065
asbasbasbag55
(g71
g57
NtRp1066
(dp1067
g60
(dp1068
sg69
g1018
sg62
(lp1069
g55
(g76
g57
NtRp1070
(dp1071
g60
(dp1072
g80
g81
ssg69
g1066
sg62
(lp1073
S'cmd_args'
p1074
asbag55
(g76
g57
NtRp1075
(dp1076
g60
(dp1077
g87
g88
ssg69
g1066
sg62
(lp1078
S':'
asbag55
(g76
g57
NtRp1079
(dp1080
g60
(dp1081
sg69
g1066
sg62
(lp1082
g55
(g56
g57
NtRp1083
(dp1084
g60
(dp1085
g68
I4
ssg69
g1079
sg62
(lp1086
g55
(g64
g57
NtRp1087
(dp1088
g60
(dp1089
g68
I3
ssg69
Nsg62
(lp1090
sbasbasbasbag55
(g71
g57
NtRp1091
(dp1092
g60
(dp1093
sg69
g1018
sg62
(lp1094
g55
(g76
g57
NtRp1095
(dp1096
g60
(dp1097
g80
g81
ssg69
g1091
sg62
(lp1098
S'cmd_options'
p1099
asbag55
(g76
g57
NtRp1100
(dp1101
g60
(dp1102
g87
g88
ssg69
g1091
sg62
(lp1103
S':'
asbag55
(g76
g57
NtRp1104
(dp1105
g60
(dp1106
sg69
g1091
sg62
(lp1107
g55
(g56
g57
NtRp1108
(dp1109
g60
(dp1110
g68
I4
ssg69
g1104
sg62
(lp1111
S"<Values at 0x2d42758: {'verbose': False, 'ip': '127.0.0.1', 'shutdown_timeout': 5, 'taskbar': False, 'nocron': False, 'pid_filename': 'httpserver.pid', 'maxthreads': None, 'softcron': False, 'server_name': 'uriel', 'bpython': False, 'nogui': False, 'port': 8000, 'extcron': False, 'debuglevel': 30, 'test': None, 'folder': '/home/ian/web/web2py', 'config': '', 'import_models': False, 'winservice': '', 'shell': None, 'run': '', 'log_filename': 'httpserver.log', 'args': [''], 'socket_timeout': 1, 'ssl_ca_certificate': None, 'scheduler': None, 'profiler_filename': None, 'ssl_private_key': '', 'password': '<ask>', 'request_queue_size': 5, 'ssl_certificate': '', 'cronjob': False, 'numthreads': None, 'quiet': False, 'interfaces': None, 'minthreads': None, 'timeout': 10, 'plain': False, 'nobanner': False}>"
p1112
asbasbasbag55
(g71
g57
NtRp1113
(dp1114
g60
(dp1115
sg69
g1018
sg62
(lp1116
g55
(g76
g57
NtRp1117
(dp1118
g60
(dp1119
g80
g81
ssg69
g1113
sg62
(lp1120
S'db_sessions'
p1121
asbag55
(g76
g57
NtRp1122
(dp1123
g60
(dp1124
g87
g88
ssg69
g1113
sg62
(lp1125
S':'
asbag55
(g76
g57
NtRp1126
(dp1127
g60
(dp1128
sg69
g1113
sg62
(lp1129
g55
(g56
g57
NtRp1130
(dp1131
g60
(dp1132
g68
I4
ssg69
g1126
sg62
(lp1133
S'set([])'
p1134
asbasbasbag55
(g71
g57
NtRp1135
(dp1136
g60
(dp1137
sg69
g1018
sg62
(lp1138
g55
(g76
g57
NtRp1139
(dp1140
g60
(dp1141
g80
g81
ssg69
g1135
sg62
(lp1142
S'debugging'
p1143
asbag55
(g76
g57
NtRp1144
(dp1145
g60
(dp1146
g87
g88
ssg69
g1135
sg62
(lp1147
S':'
asbag55
(g76
g57
NtRp1148
(dp1149
g60
(dp1150
sg69
g1135
sg62
(lp1151
g55
(g56
g57
NtRp1152
(dp1153
g60
(dp1154
g68
I4
ssg69
g1148
sg62
(lp1155
g98
asbasbasbag55
(g71
g57
NtRp1156
(dp1157
g60
(dp1158
sg69
g1018
sg62
(lp1159
g55
(g76
g57
NtRp1160
(dp1161
g60
(dp1162
g80
g81
ssg69
g1156
sg62
(lp1163
S'gluon_parent'
p1164
asbag55
(g76
g57
NtRp1165
(dp1166
g60
(dp1167
g87
g88
ssg69
g1156
sg62
(lp1168
S':'
asbag55
(g76
g57
NtRp1169
(dp1170
g60
(dp1171
sg69
g1156
sg62
(lp1172
g55
(g56
g57
NtRp1173
(dp1174
g60
(dp1175
g68
I4
ssg69
g1169
sg62
(lp1176
S'/home/ian/web/web2py'
p1177
asbasbasbag55
(g71
g57
NtRp1178
(dp1179
g60
(dp1180
sg69
g1018
sg62
(lp1181
g55
(g76
g57
NtRp1182
(dp1183
g60
(dp1184
g80
g81
ssg69
g1178
sg62
(lp1185
S'http_accept'
p1186
asbag55
(g76
g57
NtRp1187
(dp1188
g60
(dp1189
g87
g88
ssg69
g1178
sg62
(lp1190
S':'
asbag55
(g76
g57
NtRp1191
(dp1192
g60
(dp1193
sg69
g1178
sg62
(lp1194
g55
(g56
g57
NtRp1195
(dp1196
g60
(dp1197
g68
I4
ssg69
g1191
sg62
(lp1198
S'text/html,application/xhtml+xml,application/xml;q=0.9,*/*;q=0.8'
p1199
asbasbasbag55
(g71
g57
NtRp1200
(dp1201
g60
(dp1202
sg69
g1018
sg62
(lp1203
g55
(g76
g57
NtRp1204
(dp1205
g60
(dp1206
g80
g81
ssg69
g1200
sg62
(lp1207
S'http_accept_encoding'
p1208
asbag55
(g76
g57
NtRp1209
(dp1210
g60
(dp1211
g87
g88
ssg69
g1200
sg62
(lp1212
S':'
asbag55
(g76
g57
NtRp1213
(dp1214
g60
(dp1215
sg69
g1200
sg62
(lp1216
g55
(g56
g57
NtRp1217
(dp1218
g60
(dp1219
g68
I4
ssg69
g1213
sg62
(lp1220
S'gzip, deflate'
p1221
asbasbasbag55
(g71
g57
NtRp1222
(dp1223
g60
(dp1224
sg69
g1018
sg62
(lp1225
g55
(g76
g57
NtRp1226
(dp1227
g60
(dp1228
g80
g81
ssg69
g1222
sg62
(lp1229
S'http_accept_language'
p1230
asbag55
(g76
g57
NtRp1231
(dp1232
g60
(dp1233
g87
g88
ssg69
g1222
sg62
(lp1234
S':'
asbag55
(g76
g57
NtRp1235
(dp1236
g60
(dp1237
sg69
g1222
sg62
(lp1238
g55
(g56
g57
NtRp1239
(dp1240
g60
(dp1241
g68
I4
ssg69
g1235
sg62
(lp1242
S'en-us,en;q=0.5'
p1243
asbasbasbag55
(g71
g57
NtRp1244
(dp1245
g60
(dp1246
sg69
g1018
sg62
(lp1247
g55
(g76
g57
NtRp1248
(dp1249
g60
(dp1250
g80
g81
ssg69
g1244
sg62
(lp1251
S'http_cache_control'
p1252
asbag55
(g76
g57
NtRp1253
(dp1254
g60
(dp1255
g87
g88
ssg69
g1244
sg62
(lp1256
S':'
asbag55
(g76
g57
NtRp1257
(dp1258
g60
(dp1259
sg69
g1244
sg62
(lp1260
g55
(g56
g57
NtRp1261
(dp1262
g60
(dp1263
g68
I4
ssg69
g1257
sg62
(lp1264
S'max-age=0'
p1265
asbasbasbag55
(g71
g57
NtRp1266
(dp1267
g60
(dp1268
sg69
g1018
sg62
(lp1269
g55
(g76
g57
NtRp1270
(dp1271
g60
(dp1272
g80
g81
ssg69
g1266
sg62
(lp1273
S'http_connection'
p1274
asbag55
(g76
g57
NtRp1275
(dp1276
g60
(dp1277
g87
g88
ssg69
g1266
sg62
(lp1278
S':'
asbag55
(g76
g57
NtRp1279
(dp1280
g60
(dp1281
sg69
g1266
sg62
(lp1282
g55
(g56
g57
NtRp1283
(dp1284
g60
(dp1285
g68
I4
ssg69
g1279
sg62
(lp1286
S'keep-alive'
p1287
asbasbasbag55
(g71
g57
NtRp1288
(dp1289
g60
(dp1290
sg69
g1018
sg62
(lp1291
g55
(g76
g57
NtRp1292
(dp1293
g60
(dp1294
g80
g81
ssg69
g1288
sg62
(lp1295
S'http_cookie'
p1296
asbag55
(g76
g57
NtRp1297
(dp1298
g60
(dp1299
g87
g88
ssg69
g1288
sg62
(lp1300
S':'
asbag55
(g76
g57
NtRp1301
(dp1302
g60
(dp1303
sg69
g1288
sg62
(lp1304
g55
(g56
g57
NtRp1305
(dp1306
g60
(dp1307
g68
I4
ssg69
g1301
sg62
(lp1308
S'session_id_paideia=127.0.0.1-d2b16629-afad-4e3f-840d-43f7f7183774; session_id_welcome=127.0.0.1-2d7c426d-8b25-4e09-8198-5df3cafff407; session_id_grammateus3=127.0.0.1-5894554e-8a6e-4b2c-8b1d-b7e1338ab82d; session_id_admin=127.0.0.1-3d3fdf05-cdfd-4c53-911c-74c78a2c13c2'
p1309
asbasbasbag55
(g71
g57
NtRp1310
(dp1311
g60
(dp1312
sg69
g1018
sg62
(lp1313
g55
(g76
g57
NtRp1314
(dp1315
g60
(dp1316
g80
g81
ssg69
g1310
sg62
(lp1317
S'http_host'
p1318
asbag55
(g76
g57
NtRp1319
(dp1320
g60
(dp1321
g87
g88
ssg69
g1310
sg62
(lp1322
S':'
asbag55
(g76
g57
NtRp1323
(dp1324
g60
(dp1325
sg69
g1310
sg62
(lp1326
g55
(g56
g57
NtRp1327
(dp1328
g60
(dp1329
g68
I4
ssg69
g1323
sg62
(lp1330
S'127.0.0.1:8000'
p1331
asbasbasbag55
(g71
g57
NtRp1332
(dp1333
g60
(dp1334
sg69
g1018
sg62
(lp1335
g55
(g76
g57
NtRp1336
(dp1337
g60
(dp1338
g80
g81
ssg69
g1332
sg62
(lp1339
S'http_user_agent'
p1340
asbag55
(g76
g57
NtRp1341
(dp1342
g60
(dp1343
g87
g88
ssg69
g1332
sg62
(lp1344
S':'
asbag55
(g76
g57
NtRp1345
(dp1346
g60
(dp1347
sg69
g1332
sg62
(lp1348
g55
(g56
g57
NtRp1349
(dp1350
g60
(dp1351
g68
I4
ssg69
g1345
sg62
(lp1352
S'Mozilla/5.0 (X11; Ubuntu; Linux x86_64; rv:11.0) Gecko/20100101 Firefox/11.0 openid'
p1353
asbasbasbag55
(g71
g57
NtRp1354
(dp1355
g60
(dp1356
sg69
g1018
sg62
(lp1357
g55
(g76
g57
NtRp1358
(dp1359
g60
(dp1360
g80
g81
ssg69
g1354
sg62
(lp1361
S'is_jython'
p1362
asbag55
(g76
g57
NtRp1363
(dp1364
g60
(dp1365
g87
g88
ssg69
g1354
sg62
(lp1366
S':'
asbag55
(g76
g57
NtRp1367
(dp1368
g60
(dp1369
sg69
g1354
sg62
(lp1370
g55
(g56
g57
NtRp1371
(dp1372
g60
(dp1373
g68
I4
ssg69
g1367
sg62
(lp1374
g98
asbasbasbag55
(g71
g57
NtRp1375
(dp1376
g60
(dp1377
sg69
g1018
sg62
(lp1378
g55
(g76
g57
NtRp1379
(dp1380
g60
(dp1381
g80
g81
ssg69
g1375
sg62
(lp1382
S'is_pypy'
p1383
asbag55
(g76
g57
NtRp1384
(dp1385
g60
(dp1386
g87
g88
ssg69
g1375
sg62
(lp1387
S':'
asbag55
(g76
g57
NtRp1388
(dp1389
g60
(dp1390
sg69
g1375
sg62
(lp1391
g55
(g56
g57
NtRp1392
(dp1393
g60
(dp1394
g68
I4
ssg69
g1388
sg62
(lp1395
g98
asbasbasbag55
(g71
g57
NtRp1396
(dp1397
g60
(dp1398
sg69
g1018
sg62
(lp1399
g55
(g76
g57
NtRp1400
(dp1401
g60
(dp1402
g80
g81
ssg69
g1396
sg62
(lp1403
S'path_info'
p1404
asbag55
(g76
g57
NtRp1405
(dp1406
g60
(dp1407
g87
g88
ssg69
g1396
sg62
(lp1408
S':'
asbag55
(g76
g57
NtRp1409
(dp1410
g60
(dp1411
sg69
g1396
sg62
(lp1412
g55
(g56
g57
NtRp1413
(dp1414
g60
(dp1415
g68
I4
ssg69
g1409
sg62
(lp1416
S'/grammateus3/docs/text/1En'
p1417
asbasbasbag55
(g71
g57
NtRp1418
(dp1419
g60
(dp1420
sg69
g1018
sg62
(lp1421
g55
(g76
g57
NtRp1422
(dp1423
g60
(dp1424
g80
g81
ssg69
g1418
sg62
(lp1425
S'query_string'
p1426
asbag55
(g76
g57
NtRp1427
(dp1428
g60
(dp1429
g87
g88
ssg69
g1418
sg62
(lp1430
S':'
asbag55
(g76
g57
NtRp1431
(dp1432
g60
(dp1433
sg69
g1418
sg62
(lp1434
g55
(g56
g57
NtRp1435
(dp1436
g60
(dp1437
g68
I4
ssg69
g1431
sg62
(lp1438
S''
asbasbasbag55
(g71
g57
NtRp1439
(dp1440
g60
(dp1441
sg69
g1018
sg62
(lp1442
g55
(g76
g57
NtRp1443
(dp1444
g60
(dp1445
g80
g81
ssg69
g1439
sg62
(lp1446
S'remote_addr'
p1447
asbag55
(g76
g57
NtRp1448
(dp1449
g60
(dp1450
g87
g88
ssg69
g1439
sg62
(lp1451
S':'
asbag55
(g76
g57
NtRp1452
(dp1453
g60
(dp1454
sg69
g1439
sg62
(lp1455
g55
(g56
g57
NtRp1456
(dp1457
g60
(dp1458
g68
I4
ssg69
g1452
sg62
(lp1459
g201
asbasbasbag55
(g71
g57
NtRp1460
(dp1461
g60
(dp1462
sg69
g1018
sg62
(lp1463
g55
(g76
g57
NtRp1464
(dp1465
g60
(dp1466
g80
g81
ssg69
g1460
sg62
(lp1467
S'remote_port'
p1468
asbag55
(g76
g57
NtRp1469
(dp1470
g60
(dp1471
g87
g88
ssg69
g1460
sg62
(lp1472
S':'
asbag55
(g76
g57
NtRp1473
(dp1474
g60
(dp1475
sg69
g1460
sg62
(lp1476
g55
(g56
g57
NtRp1477
(dp1478
g60
(dp1479
g68
I4
ssg69
g1473
sg62
(lp1480
S'43067'
p1481
asbasbasbag55
(g71
g57
NtRp1482
(dp1483
g60
(dp1484
sg69
g1018
sg62
(lp1485
g55
(g76
g57
NtRp1486
(dp1487
g60
(dp1488
g80
g81
ssg69
g1482
sg62
(lp1489
S'request_method'
p1490
asbag55
(g76
g57
NtRp1491
(dp1492
g60
(dp1493
g87
g88
ssg69
g1482
sg62
(lp1494
S':'
asbag55
(g76
g57
NtRp1495
(dp1496
g60
(dp1497
sg69
g1482
sg62
(lp1498
g55
(g56
g57
NtRp1499
(dp1500
g60
(dp1501
g68
I4
ssg69
g1495
sg62
(lp1502
S'GET'
p1503
asbasbasbag55
(g71
g57
NtRp1504
(dp1505
g60
(dp1506
sg69
g1018
sg62
(lp1507
g55
(g76
g57
NtRp1508
(dp1509
g60
(dp1510
g80
g81
ssg69
g1504
sg62
(lp1511
S'script_name'
p1512
asbag55
(g76
g57
NtRp1513
(dp1514
g60
(dp1515
g87
g88
ssg69
g1504
sg62
(lp1516
S':'
asbag55
(g76
g57
NtRp1517
(dp1518
g60
(dp1519
sg69
g1504
sg62
(lp1520
g55
(g56
g57
NtRp1521
(dp1522
g60
(dp1523
g68
I4
ssg69
g1517
sg62
(lp1524
S''
asbasbasbag55
(g71
g57
NtRp1525
(dp1526
g60
(dp1527
sg69
g1018
sg62
(lp1528
g55
(g76
g57
NtRp1529
(dp1530
g60
(dp1531
g80
g81
ssg69
g1525
sg62
(lp1532
S'server_name'
p1533
asbag55
(g76
g57
NtRp1534
(dp1535
g60
(dp1536
g87
g88
ssg69
g1525
sg62
(lp1537
S':'
asbag55
(g76
g57
NtRp1538
(dp1539
g60
(dp1540
sg69
g1525
sg62
(lp1541
g55
(g56
g57
NtRp1542
(dp1543
g60
(dp1544
g68
I4
ssg69
g1538
sg62
(lp1545
S'uriel'
p1546
asbasbasbag55
(g71
g57
NtRp1547
(dp1548
g60
(dp1549
sg69
g1018
sg62
(lp1550
g55
(g76
g57
NtRp1551
(dp1552
g60
(dp1553
g80
g81
ssg69
g1547
sg62
(lp1554
S'server_port'
p1555
asbag55
(g76
g57
NtRp1556
(dp1557
g60
(dp1558
g87
g88
ssg69
g1547
sg62
(lp1559
S':'
asbag55
(g76
g57
NtRp1560
(dp1561
g60
(dp1562
sg69
g1547
sg62
(lp1563
g55
(g56
g57
NtRp1564
(dp1565
g60
(dp1566
g68
I4
ssg69
g1560
sg62
(lp1567
S'8000'
p1568
asbasbasbag55
(g71
g57
NtRp1569
(dp1570
g60
(dp1571
sg69
g1018
sg62
(lp1572
g55
(g76
g57
NtRp1573
(dp1574
g60
(dp1575
g80
g81
ssg69
g1569
sg62
(lp1576
S'server_protocol'
p1577
asbag55
(g76
g57
NtRp1578
(dp1579
g60
(dp1580
g87
g88
ssg69
g1569
sg62
(lp1581
S':'
asbag55
(g76
g57
NtRp1582
(dp1583
g60
(dp1584
sg69
g1569
sg62
(lp1585
g55
(g56
g57
NtRp1586
(dp1587
g60
(dp1588
g68
I4
ssg69
g1582
sg62
(lp1589
S'HTTP/1.1'
p1590
asbasbasbag55
(g71
g57
NtRp1591
(dp1592
g60
(dp1593
sg69
g1018
sg62
(lp1594
g55
(g76
g57
NtRp1595
(dp1596
g60
(dp1597
g80
g81
ssg69
g1591
sg62
(lp1598
S'server_software'
p1599
asbag55
(g76
g57
NtRp1600
(dp1601
g60
(dp1602
g87
g88
ssg69
g1591
sg62
(lp1603
S':'
asbag55
(g76
g57
NtRp1604
(dp1605
g60
(dp1606
sg69
g1591
sg62
(lp1607
g55
(g56
g57
NtRp1608
(dp1609
g60
(dp1610
g68
I4
ssg69
g1604
sg62
(lp1611
S'Rocket 1.2.4'
p1612
asbasbasbag55
(g71
g57
NtRp1613
(dp1614
g60
(dp1615
sg69
g1018
sg62
(lp1616
g55
(g76
g57
NtRp1617
(dp1618
g60
(dp1619
g80
g81
ssg69
g1613
sg62
(lp1620
S'web2py_crontype'
p1621
asbag55
(g76
g57
NtRp1622
(dp1623
g60
(dp1624
g87
g88
ssg69
g1613
sg62
(lp1625
S':'
asbag55
(g76
g57
NtRp1626
(dp1627
g60
(dp1628
sg69
g1613
sg62
(lp1629
g55
(g56
g57
NtRp1630
(dp1631
g60
(dp1632
g68
I4
ssg69
g1626
sg62
(lp1633
S'hard'
p1634
asbasbasbag55
(g71
g57
NtRp1635
(dp1636
g60
(dp1637
sg69
g1018
sg62
(lp1638
g55
(g76
g57
NtRp1639
(dp1640
g60
(dp1641
g80
g81
ssg69
g1635
sg62
(lp1642
S'web2py_path'
p1643
asbag55
(g76
g57
NtRp1644
(dp1645
g60
(dp1646
g87
g88
ssg69
g1635
sg62
(lp1647
S':'
asbag55
(g76
g57
NtRp1648
(dp1649
g60
(dp1650
sg69
g1635
sg62
(lp1651
g55
(g56
g57
NtRp1652
(dp1653
g60
(dp1654
g68
I4
ssg69
g1648
sg62
(lp1655
g1065
asbasbasbag55
(g71
g57
NtRp1656
(dp1657
g60
(dp1658
sg69
g1018
sg62
(lp1659
g55
(g76
g57
NtRp1660
(dp1661
g60
(dp1662
g80
g81
ssg69
g1656
sg62
(lp1663
S'web2py_version'
p1664
asbag55
(g76
g57
NtRp1665
(dp1666
g60
(dp1667
g87
g88
ssg69
g1656
sg62
(lp1668
S':'
asbag55
(g76
g57
NtRp1669
(dp1670
g60
(dp1671
sg69
g1656
sg62
(lp1672
g55
(g56
g57
NtRp1673
(dp1674
g60
(dp1675
g68
I4
ssg69
g1669
sg62
(lp1676
g55
(g64
g57
NtRp1677
(dp1678
g60
(dp1679
g68
I3
ssg69
Nsg62
(lp1680
g55
(g71
g57
NtRp1681
(dp1682
g60
(dp1683
sg69
g1677
sg62
(lp1684
g55
(g76
g57
NtRp1685
(dp1686
g60
(dp1687
sg69
g1681
sg62
(lp1688
g55
(g56
g57
NtRp1689
(dp1690
g60
(dp1691
g68
I3
ssg69
g1685
sg62
(lp1692
S'1'
asbasbasbag55
(g71
g57
NtRp1693
(dp1694
g60
(dp1695
sg69
g1677
sg62
(lp1696
g55
(g76
g57
NtRp1697
(dp1698
g60
(dp1699
sg69
g1693
sg62
(lp1700
g55
(g56
g57
NtRp1701
(dp1702
g60
(dp1703
g68
I3
ssg69
g1697
sg62
(lp1704
S'99'
p1705
asbasbasbag55
(g71
g57
NtRp1706
(dp1707
g60
(dp1708
sg69
g1677
sg62
(lp1709
g55
(g76
g57
NtRp1710
(dp1711
g60
(dp1712
sg69
g1706
sg62
(lp1713
g55
(g56
g57
NtRp1714
(dp1715
g60
(dp1716
g68
I3
ssg69
g1710
sg62
(lp1717
S'4'
asbasbasbag55
(g71
g57
NtRp1718
(dp1719
g60
(dp1720
sg69
g1677
sg62
(lp1721
g55
(g76
g57
NtRp1722
(dp1723
g60
(dp1724
sg69
g1718
sg62
(lp1725
g55
(g56
g57
NtRp1726
(dp1727
g60
(dp1728
g68
I3
ssg69
g1722
sg62
(lp1729
S'datetime.datetime(2011, 12, 14, 14, 46, 14)'
p1730
asbasbasbag55
(g71
g57
NtRp1731
(dp1732
g60
(dp1733
sg69
g1677
sg62
(lp1734
g55
(g76
g57
NtRp1735
(dp1736
g60
(dp1737
sg69
g1731
sg62
(lp1738
g55
(g56
g57
NtRp1739
(dp1740
g60
(dp1741
g68
I3
ssg69
g1735
sg62
(lp1742
S'stable'
p1743
asbasbasbasbasbasbasbag55
(g71
g57
NtRp1744
(dp1745
g60
(dp1746
sg69
g1018
sg62
(lp1747
g55
(g76
g57
NtRp1748
(dp1749
g60
(dp1750
g80
g81
ssg69
g1744
sg62
(lp1751
S'wsgi_errors'
p1752
asbag55
(g76
g57
NtRp1753
(dp1754
g60
(dp1755
g87
g88
ssg69
g1744
sg62
(lp1756
S':'
asbag55
(g76
g57
NtRp1757
(dp1758
g60
(dp1759
sg69
g1744
sg62
(lp1760
g55
(g56
g57
NtRp1761
(dp1762
g60
(dp1763
g68
I4
ssg69
g1757
sg62
(lp1764
S"<open file '<stderr>', mode 'w' at 0x7f03f76bb270>"
p1765
asbasbasbag55
(g71
g57
NtRp1766
(dp1767
g60
(dp1768
sg69
g1018
sg62
(lp1769
g55
(g76
g57
NtRp1770
(dp1771
g60
(dp1772
g80
g81
ssg69
g1766
sg62
(lp1773
S'wsgi_file_wrapper'
p1774
asbag55
(g76
g57
NtRp1775
(dp1776
g60
(dp1777
g87
g88
ssg69
g1766
sg62
(lp1778
S':'
asbag55
(g76
g57
NtRp1779
(dp1780
g60
(dp1781
sg69
g1766
sg62
(lp1782
g55
(g56
g57
NtRp1783
(dp1784
g60
(dp1785
g68
I4
ssg69
g1779
sg62
(lp1786
S'<class wsgiref.util.FileWrapper at 0x2c0cd50>'
p1787
asbasbasbag55
(g71
g57
NtRp1788
(dp1789
g60
(dp1790
sg69
g1018
sg62
(lp1791
g55
(g76
g57
NtRp1792
(dp1793
g60
(dp1794
g80
g81
ssg69
g1788
sg62
(lp1795
S'wsgi_input'
p1796
asbag55
(g76
g57
NtRp1797
(dp1798
g60
(dp1799
g87
g88
ssg69
g1788
sg62
(lp1800
S':'
asbag55
(g76
g57
NtRp1801
(dp1802
g60
(dp1803
sg69
g1788
sg62
(lp1804
g55
(g56
g57
NtRp1805
(dp1806
g60
(dp1807
g68
I4
ssg69
g1801
sg62
(lp1808
S'<socket._fileobject object at 0x7f03d4a1d750>'
p1809
asbasbasbag55
(g71
g57
NtRp1810
(dp1811
g60
(dp1812
sg69
g1018
sg62
(lp1813
g55
(g76
g57
NtRp1814
(dp1815
g60
(dp1816
g80
g81
ssg69
g1810
sg62
(lp1817
S'wsgi_multiprocess'
p1818
asbag55
(g76
g57
NtRp1819
(dp1820
g60
(dp1821
g87
g88
ssg69
g1810
sg62
(lp1822
S':'
asbag55
(g76
g57
NtRp1823
(dp1824
g60
(dp1825
sg69
g1810
sg62
(lp1826
g55
(g56
g57
NtRp1827
(dp1828
g60
(dp1829
g68
I4
ssg69
g1823
sg62
(lp1830
g98
asbasbasbag55
(g71
g57
NtRp1831
(dp1832
g60
(dp1833
sg69
g1018
sg62
(lp1834
g55
(g76
g57
NtRp1835
(dp1836
g60
(dp1837
g80
g81
ssg69
g1831
sg62
(lp1838
S'wsgi_multithread'
p1839
asbag55
(g76
g57
NtRp1840
(dp1841
g60
(dp1842
g87
g88
ssg69
g1831
sg62
(lp1843
S':'
asbag55
(g76
g57
NtRp1844
(dp1845
g60
(dp1846
sg69
g1831
sg62
(lp1847
g55
(g56
g57
NtRp1848
(dp1849
g60
(dp1850
g68
I4
ssg69
g1844
sg62
(lp1851
S'True'
p1852
asbasbasbag55
(g71
g57
NtRp1853
(dp1854
g60
(dp1855
sg69
g1018
sg62
(lp1856
g55
(g76
g57
NtRp1857
(dp1858
g60
(dp1859
g80
g81
ssg69
g1853
sg62
(lp1860
S'wsgi_run_once'
p1861
asbag55
(g76
g57
NtRp1862
(dp1863
g60
(dp1864
g87
g88
ssg69
g1853
sg62
(lp1865
S':'
asbag55
(g76
g57
NtRp1866
(dp1867
g60
(dp1868
sg69
g1853
sg62
(lp1869
g55
(g56
g57
NtRp1870
(dp1871
g60
(dp1872
g68
I4
ssg69
g1866
sg62
(lp1873
g98
asbasbasbag55
(g71
g57
NtRp1874
(dp1875
g60
(dp1876
sg69
g1018
sg62
(lp1877
g55
(g76
g57
NtRp1878
(dp1879
g60
(dp1880
g80
g81
ssg69
g1874
sg62
(lp1881
S'wsgi_url_scheme'
p1882
asbag55
(g76
g57
NtRp1883
(dp1884
g60
(dp1885
g87
g88
ssg69
g1874
sg62
(lp1886
S':'
asbag55
(g76
g57
NtRp1887
(dp1888
g60
(dp1889
sg69
g1874
sg62
(lp1890
g55
(g56
g57
NtRp1891
(dp1892
g60
(dp1893
g68
I4
ssg69
g1887
sg62
(lp1894
S'http'
p1895
asbasbasbag55
(g71
g57
NtRp1896
(dp1897
g60
(dp1898
sg69
g1018
sg62
(lp1899
g55
(g76
g57
NtRp1900
(dp1901
g60
(dp1902
g80
g81
ssg69
g1896
sg62
(lp1903
S'wsgi_version'
p1904
asbag55
(g76
g57
NtRp1905
(dp1906
g60
(dp1907
g87
g88
ssg69
g1896
sg62
(lp1908
S':'
asbag55
(g76
g57
NtRp1909
(dp1910
g60
(dp1911
sg69
g1896
sg62
(lp1912
g55
(g56
g57
NtRp1913
(dp1914
g60
(dp1915
g68
I4
ssg69
g1909
sg62
(lp1916
g55
(g64
g57
NtRp1917
(dp1918
g60
(dp1919
g68
I3
ssg69
Nsg62
(lp1920
g55
(g71
g57
NtRp1921
(dp1922
g60
(dp1923
sg69
g1917
sg62
(lp1924
g55
(g76
g57
NtRp1925
(dp1926
g60
(dp1927
sg69
g1921
sg62
(lp1928
g55
(g56
g57
NtRp1929
(dp1930
g60
(dp1931
g68
I3
ssg69
g1925
sg62
(lp1932
S'1'
asbasbasbag55
(g71
g57
NtRp1933
(dp1934
g60
(dp1935
sg69
g1917
sg62
(lp1936
g55
(g76
g57
NtRp1937
(dp1938
g60
(dp1939
sg69
g1933
sg62
(lp1940
g55
(g56
g57
NtRp1941
(dp1942
g60
(dp1943
g68
I3
ssg69
g1937
sg62
(lp1944
S'0'
asbasbasbasbasbasbasbasbasbasbasbag55
(g71
g57
NtRp1945
(dp1946
g60
(dp1947
sg69
g65
sg62
(lp1948
g55
(g76
g57
NtRp1949
(dp1950
g60
(dp1951
g80
g81
ssg69
g1945
sg62
(lp1952
S'extension'
p1953
asbag55
(g76
g57
NtRp1954
(dp1955
g60
(dp1956
g87
g88
ssg69
g1945
sg62
(lp1957
S':'
asbag55
(g76
g57
NtRp1958
(dp1959
g60
(dp1960
sg69
g1945
sg62
(lp1961
g55
(g56
g57
NtRp1962
(dp1963
g60
(dp1964
g68
I5
ssg69
g1958
sg62
(lp1965
S'html'
p1966
asbasbasbag55
(g71
g57
NtRp1967
(dp1968
g60
(dp1969
sg69
g65
sg62
(lp1970
g55
(g76
g57
NtRp1971
(dp1972
g60
(dp1973
g80
g81
ssg69
g1967
sg62
(lp1974
S'folder'
p1975
asbag55
(g76
g57
NtRp1976
(dp1977
g60
(dp1978
g87
g88
ssg69
g1967
sg62
(lp1979
S':'
asbag55
(g76
g57
NtRp1980
(dp1981
g60
(dp1982
sg69
g1967
sg62
(lp1983
g55
(g56
g57
NtRp1984
(dp1985
g60
(dp1986
g68
I5
ssg69
g1980
sg62
(lp1987
S'/home/ian/web/web2py/applications/grammateus3/'
p1988
asbasbasbag55
(g71
g57
NtRp1989
(dp1990
g60
(dp1991
sg69
g65
sg62
(lp1992
g55
(g76
g57
NtRp1993
(dp1994
g60
(dp1995
g80
g81
ssg69
g1989
sg62
(lp1996
S'function'
p1997
asbag55
(g76
g57
NtRp1998
(dp1999
g60
(dp2000
g87
g88
ssg69
g1989
sg62
(lp2001
S':'
asbag55
(g76
g57
NtRp2002
(dp2003
g60
(dp2004
sg69
g1989
sg62
(lp2005
g55
(g56
g57
NtRp2006
(dp2007
g60
(dp2008
g68
I5
ssg69
g2002
sg62
(lp2009
S'text'
p2010
asbasbasbag55
(g71
g57
NtRp2011
(dp2012
g60
(dp2013
sg69
g65
sg62
(lp2014
g55
(g76
g57
NtRp2015
(dp2016
g60
(dp2017
g80
g81
ssg69
g2011
sg62
(lp2018
S'get_vars'
p2019
asbag55
(g76
g57
NtRp2020
(dp2021
g60
(dp2022
g87
g88
ssg69
g2011
sg62
(lp2023
S':'
asbag55
(g76
g57
NtRp2024
(dp2025
g60
(dp2026
sg69
g2011
sg62
(lp2027
g55
(g56
g57
NtRp2028
(dp2029
g60
(dp2030
g68
I5
ssg69
g2024
sg62
(lp2031
g55
(g64
g57
NtRp2032
(dp2033
g60
(dp2034
g68
I4
ssg69
Nsg62
(lp2035
sbasbasbasbag55
(g71
g57
NtRp2036
(dp2037
g60
(dp2038
sg69
g65
sg62
(lp2039
g55
(g76
g57
NtRp2040
(dp2041
g60
(dp2042
g80
g81
ssg69
g2036
sg62
(lp2043
S'global_settings'
p2044
asbag55
(g76
g57
NtRp2045
(dp2046
g60
(dp2047
g87
g88
ssg69
g2036
sg62
(lp2048
S':'
asbag55
(g76
g57
NtRp2049
(dp2050
g60
(dp2051
sg69
g2036
sg62
(lp2052
g55
(g56
g57
NtRp2053
(dp2054
g60
(dp2055
g68
I5
ssg69
g2049
sg62
(lp2056
g55
(g64
g57
NtRp2057
(dp2058
g60
(dp2059
g68
I4
ssg69
Nsg62
(lp2060
g55
(g71
g57
NtRp2061
(dp2062
g60
(dp2063
sg69
g2057
sg62
(lp2064
g55
(g76
g57
NtRp2065
(dp2066
g60
(dp2067
g80
g81
ssg69
g2061
sg62
(lp2068
g1030
asbag55
(g76
g57
NtRp2069
(dp2070
g60
(dp2071
g87
g88
ssg69
g2061
sg62
(lp2072
S':'
asbag55
(g76
g57
NtRp2073
(dp2074
g60
(dp2075
sg69
g2061
sg62
(lp2076
g55
(g56
g57
NtRp2077
(dp2078
g60
(dp2079
g68
I4
ssg69
g2073
sg62
(lp2080
S"set(['/home/ian/web/web2py/applications/welcome/', '/home/ian/web/web2py/applications/grammateus3/', '/home/ian/web/web2py/applications/admin/'])"
p2081
asbasbasbag55
(g71
g57
NtRp2082
(dp2083
g60
(dp2084
sg69
g2057
sg62
(lp2085
g55
(g76
g57
NtRp2086
(dp2087
g60
(dp2088
g80
g81
ssg69
g2082
sg62
(lp2089
g1052
asbag55
(g76
g57
NtRp2090
(dp2091
g60
(dp2092
g87
g88
ssg69
g2082
sg62
(lp2093
S':'
asbag55
(g76
g57
NtRp2094
(dp2095
g60
(dp2096
sg69
g2082
sg62
(lp2097
g55
(g56
g57
NtRp2098
(dp2099
g60
(dp2100
g68
I4
ssg69
g2094
sg62
(lp2101
g1065
asbasbasbag55
(g71
g57
NtRp2102
(dp2103
g60
(dp2104
sg69
g2057
sg62
(lp2105
g55
(g76
g57
NtRp2106
(dp2107
g60
(dp2108
g80
g81
ssg69
g2102
sg62
(lp2109
g1074
asbag55
(g76
g57
NtRp2110
(dp2111
g60
(dp2112
g87
g88
ssg69
g2102
sg62
(lp2113
S':'
asbag55
(g76
g57
NtRp2114
(dp2115
g60
(dp2116
sg69
g2102
sg62
(lp2117
g55
(g56
g57
NtRp2118
(dp2119
g60
(dp2120
g68
I4
ssg69
g2114
sg62
(lp2121
g55
(g64
g57
NtRp2122
(dp2123
g60
(dp2124
g68
I3
ssg69
Nsg62
(lp2125
sbasbasbasbag55
(g71
g57
NtRp2126
(dp2127
g60
(dp2128
sg69
g2057
sg62
(lp2129
g55
(g76
g57
NtRp2130
(dp2131
g60
(dp2132
g80
g81
ssg69
g2126
sg62
(lp2133
g1099
asbag55
(g76
g57
NtRp2134
(dp2135
g60
(dp2136
g87
g88
ssg69
g2126
sg62
(lp2137
S':'
asbag55
(g76
g57
NtRp2138
(dp2139
g60
(dp2140
sg69
g2126
sg62
(lp2141
g55
(g56
g57
NtRp2142
(dp2143
g60
(dp2144
g68
I4
ssg69
g2138
sg62
(lp2145
S"<Values at 0x2d42758: {'verbose': False, 'ip': '127.0.0.1', 'shutdown_timeout': 5, 'taskbar': False, 'nocron': False, 'pid_filename': 'httpserver.pid', 'maxthreads': None, 'softcron': False, 'server_name': 'uriel', 'bpython': False, 'nogui': False, 'port': 8000, 'extcron': False, 'debuglevel': 30, 'test': None, 'folder': '/home/ian/web/web2py', 'config': '', 'import_models': False, 'winservice': '', 'shell': None, 'run': '', 'log_filename': 'httpserver.log', 'args': [''], 'socket_timeout': 1, 'ssl_ca_certificate': None, 'scheduler': None, 'profiler_filename': None, 'ssl_private_key': '', 'password': '<ask>', 'request_queue_size': 5, 'ssl_certificate': '', 'cronjob': False, 'numthreads': None, 'quiet': False, 'interfaces': None, 'minthreads': None, 'timeout': 10, 'plain': False, 'nobanner': False}>"
p2146
asbasbasbag55
(g71
g57
NtRp2147
(dp2148
g60
(dp2149
sg69
g2057
sg62
(lp2150
g55
(g76
g57
NtRp2151
(dp2152
g60
(dp2153
g80
g81
ssg69
g2147
sg62
(lp2154
g1121
asbag55
(g76
g57
NtRp2155
(dp2156
g60
(dp2157
g87
g88
ssg69
g2147
sg62
(lp2158
S':'
asbag55
(g76
g57
NtRp2159
(dp2160
g60
(dp2161
sg69
g2147
sg62
(lp2162
g55
(g56
g57
NtRp2163
(dp2164
g60
(dp2165
g68
I4
ssg69
g2159
sg62
(lp2166
S'set([])'
p2167
asbasbasbag55
(g71
g57
NtRp2168
(dp2169
g60
(dp2170
sg69
g2057
sg62
(lp2171
g55
(g76
g57
NtRp2172
(dp2173
g60
(dp2174
g80
g81
ssg69
g2168
sg62
(lp2175
g1143
asbag55
(g76
g57
NtRp2176
(dp2177
g60
(dp2178
g87
g88
ssg69
g2168
sg62
(lp2179
S':'
asbag55
(g76
g57
NtRp2180
(dp2181
g60
(dp2182
sg69
g2168
sg62
(lp2183
g55
(g56
g57
NtRp2184
(dp2185
g60
(dp2186
g68
I4
ssg69
g2180
sg62
(lp2187
g98
asbasbasbag55
(g71
g57
NtRp2188
(dp2189
g60
(dp2190
sg69
g2057
sg62
(lp2191
g55
(g76
g57
NtRp2192
(dp2193
g60
(dp2194
g80
g81
ssg69
g2188
sg62
(lp2195
g1164
asbag55
(g76
g57
NtRp2196
(dp2197
g60
(dp2198
g87
g88
ssg69
g2188
sg62
(lp2199
S':'
asbag55
(g76
g57
NtRp2200
(dp2201
g60
(dp2202
sg69
g2188
sg62
(lp2203
g55
(g56
g57
NtRp2204
(dp2205
g60
(dp2206
g68
I4
ssg69
g2200
sg62
(lp2207
g1177
asbasbasbag55
(g71
g57
NtRp2208
(dp2209
g60
(dp2210
sg69
g2057
sg62
(lp2211
g55
(g76
g57
NtRp2212
(dp2213
g60
(dp2214
g80
g81
ssg69
g2208
sg62
(lp2215
g1362
asbag55
(g76
g57
NtRp2216
(dp2217
g60
(dp2218
g87
g88
ssg69
g2208
sg62
(lp2219
S':'
asbag55
(g76
g57
NtRp2220
(dp2221
g60
(dp2222
sg69
g2208
sg62
(lp2223
g55
(g56
g57
NtRp2224
(dp2225
g60
(dp2226
g68
I4
ssg69
g2220
sg62
(lp2227
g98
asbasbasbag55
(g71
g57
NtRp2228
(dp2229
g60
(dp2230
sg69
g2057
sg62
(lp2231
g55
(g76
g57
NtRp2232
(dp2233
g60
(dp2234
g80
g81
ssg69
g2228
sg62
(lp2235
g1383
asbag55
(g76
g57
NtRp2236
(dp2237
g60
(dp2238
g87
g88
ssg69
g2228
sg62
(lp2239
S':'
asbag55
(g76
g57
NtRp2240
(dp2241
g60
(dp2242
sg69
g2228
sg62
(lp2243
g55
(g56
g57
NtRp2244
(dp2245
g60
(dp2246
g68
I4
ssg69
g2240
sg62
(lp2247
g98
asbasbasbag55
(g71
g57
NtRp2248
(dp2249
g60
(dp2250
sg69
g2057
sg62
(lp2251
g55
(g76
g57
NtRp2252
(dp2253
g60
(dp2254
g80
g81
ssg69
g2248
sg62
(lp2255
g1621
asbag55
(g76
g57
NtRp2256
(dp2257
g60
(dp2258
g87
g88
ssg69
g2248
sg62
(lp2259
S':'
asbag55
(g76
g57
NtRp2260
(dp2261
g60
(dp2262
sg69
g2248
sg62
(lp2263
g55
(g56
g57
NtRp2264
(dp2265
g60
(dp2266
g68
I4
ssg69
g2260
sg62
(lp2267
g1634
asbasbasbag55
(g71
g57
NtRp2268
(dp2269
g60
(dp2270
sg69
g2057
sg62
(lp2271
g55
(g76
g57
NtRp2272
(dp2273
g60
(dp2274
g80
g81
ssg69
g2268
sg62
(lp2275
g1664
asbag55
(g76
g57
NtRp2276
(dp2277
g60
(dp2278
g87
g88
ssg69
g2268
sg62
(lp2279
S':'
asbag55
(g76
g57
NtRp2280
(dp2281
g60
(dp2282
sg69
g2268
sg62
(lp2283
g55
(g56
g57
NtRp2284
(dp2285
g60
(dp2286
g68
I4
ssg69
g2280
sg62
(lp2287
g55
(g64
g57
NtRp2288
(dp2289
g60
(dp2290
g68
I3
ssg69
Nsg62
(lp2291
g55
(g71
g57
NtRp2292
(dp2293
g60
(dp2294
sg69
g2288
sg62
(lp2295
g55
(g76
g57
NtRp2296
(dp2297
g60
(dp2298
sg69
g2292
sg62
(lp2299
g55
(g56
g57
NtRp2300
(dp2301
g60
(dp2302
g68
I3
ssg69
g2296
sg62
(lp2303
S'1'
asbasbasbag55
(g71
g57
NtRp2304
(dp2305
g60
(dp2306
sg69
g2288
sg62
(lp2307
g55
(g76
g57
NtRp2308
(dp2309
g60
(dp2310
sg69
g2304
sg62
(lp2311
g55
(g56
g57
NtRp2312
(dp2313
g60
(dp2314
g68
I3
ssg69
g2308
sg62
(lp2315
S'99'
p2316
asbasbasbag55
(g71
g57
NtRp2317
(dp2318
g60
(dp2319
sg69
g2288
sg62
(lp2320
g55
(g76
g57
NtRp2321
(dp2322
g60
(dp2323
sg69
g2317
sg62
(lp2324
g55
(g56
g57
NtRp2325
(dp2326
g60
(dp2327
g68
I3
ssg69
g2321
sg62
(lp2328
S'4'
asbasbasbag55
(g71
g57
NtRp2329
(dp2330
g60
(dp2331
sg69
g2288
sg62
(lp2332
g55
(g76
g57
NtRp2333
(dp2334
g60
(dp2335
sg69
g2329
sg62
(lp2336
g55
(g56
g57
NtRp2337
(dp2338
g60
(dp2339
g68
I3
ssg69
g2333
sg62
(lp2340
S'datetime.datetime(2011, 12, 14, 14, 46, 14)'
p2341
asbasbasbag55
(g71
g57
NtRp2342
(dp2343
g60
(dp2344
sg69
g2288
sg62
(lp2345
g55
(g76
g57
NtRp2346
(dp2347
g60
(dp2348
sg69
g2342
sg62
(lp2349
g55
(g56
g57
NtRp2350
(dp2351
g60
(dp2352
g68
I3
ssg69
g2346
sg62
(lp2353
g1743
asbasbasbasbasbasbasbasbasbasbasbag55
(g71
g57
NtRp2354
(dp2355
g60
(dp2356
sg69
g65
sg62
(lp2357
g55
(g76
g57
NtRp2358
(dp2359
g60
(dp2360
g80
g81
ssg69
g2354
sg62
(lp2361
S'is_https'
p2362
asbag55
(g76
g57
NtRp2363
(dp2364
g60
(dp2365
g87
g88
ssg69
g2354
sg62
(lp2366
S':'
asbag55
(g76
g57
NtRp2367
(dp2368
g60
(dp2369
sg69
g2354
sg62
(lp2370
g55
(g56
g57
NtRp2371
(dp2372
g60
(dp2373
g68
I5
ssg69
g2367
sg62
(lp2374
g98
asbasbasbag55
(g71
g57
NtRp2375
(dp2376
g60
(dp2377
sg69
g65
sg62
(lp2378
g55
(g76
g57
NtRp2379
(dp2380
g60
(dp2381
g80
g81
ssg69
g2375
sg62
(lp2382
S'is_local'
p2383
asbag55
(g76
g57
NtRp2384
(dp2385
g60
(dp2386
g87
g88
ssg69
g2375
sg62
(lp2387
S':'
asbag55
(g76
g57
NtRp2388
(dp2389
g60
(dp2390
sg69
g2375
sg62
(lp2391
g55
(g56
g57
NtRp2392
(dp2393
g60
(dp2394
g68
I5
ssg69
g2388
sg62
(lp2395
g1852
asbasbasbag55
(g71
g57
NtRp2396
(dp2397
g60
(dp2398
sg69
g65
sg62
(lp2399
g55
(g76
g57
NtRp2400
(dp2401
g60
(dp2402
g80
g81
ssg69
g2396
sg62
(lp2403
S'is_restful'
p2404
asbag55
(g76
g57
NtRp2405
(dp2406
g60
(dp2407
g87
g88
ssg69
g2396
sg62
(lp2408
S':'
asbag55
(g76
g57
NtRp2409
(dp2410
g60
(dp2411
sg69
g2396
sg62
(lp2412
g55
(g56
g57
NtRp2413
(dp2414
g60
(dp2415
g68
I5
ssg69
g2409
sg62
(lp2416
g98
asbasbasbag55
(g71
g57
NtRp2417
(dp2418
g60
(dp2419
sg69
g65
sg62
(lp2420
g55
(g76
g57
NtRp2421
(dp2422
g60
(dp2423
g80
g81
ssg69
g2417
sg62
(lp2424
S'now'
p2425
asbag55
(g76
g57
NtRp2426
(dp2427
g60
(dp2428
g87
g88
ssg69
g2417
sg62
(lp2429
S':'
asbag55
(g76
g57
NtRp2430
(dp2431
g60
(dp2432
sg69
g2417
sg62
(lp2433
g55
(g56
g57
NtRp2434
(dp2435
g60
(dp2436
g68
I5
ssg69
g2430
sg62
(lp2437
S'datetime.datetime(2012, 3, 12, 12, 33, 33, 269993)'
p2438
asbasbasbag55
(g71
g57
NtRp2439
(dp2440
g60
(dp2441
sg69
g65
sg62
(lp2442
g55
(g76
g57
NtRp2443
(dp2444
g60
(dp2445
g80
g81
ssg69
g2439
sg62
(lp2446
S'post_vars'
p2447
asbag55
(g76
g57
NtRp2448
(dp2449
g60
(dp2450
g87
g88
ssg69
g2439
sg62
(lp2451
S':'
asbag55
(g76
g57
NtRp2452
(dp2453
g60
(dp2454
sg69
g2439
sg62
(lp2455
g55
(g56
g57
NtRp2456
(dp2457
g60
(dp2458
g68
I5
ssg69
g2452
sg62
(lp2459
g55
(g64
g57
NtRp2460
(dp2461
g60
(dp2462
g68
I4
ssg69
Nsg62
(lp2463
sbasbasbasbag55
(g71
g57
NtRp2464
(dp2465
g60
(dp2466
sg69
g65
sg62
(lp2467
g55
(g76
g57
NtRp2468
(dp2469
g60
(dp2470
g80
g81
ssg69
g2464
sg62
(lp2471
S'raw_args'
p2472
asbag55
(g76
g57
NtRp2473
(dp2474
g60
(dp2475
g87
g88
ssg69
g2464
sg62
(lp2476
S':'
asbag55
(g76
g57
NtRp2477
(dp2478
g60
(dp2479
sg69
g2464
sg62
(lp2480
g55
(g56
g57
NtRp2481
(dp2482
g60
(dp2483
g68
I5
ssg69
g2477
sg62
(lp2484
g157
asbasbasbag55
(g71
g57
NtRp2485
(dp2486
g60
(dp2487
sg69
g65
sg62
(lp2488
g55
(g76
g57
NtRp2489
(dp2490
g60
(dp2491
g80
g81
ssg69
g2485
sg62
(lp2492
S'url'
p2493
asbag55
(g76
g57
NtRp2494
(dp2495
g60
(dp2496
g87
g88
ssg69
g2485
sg62
(lp2497
S':'
asbag55
(g76
g57
NtRp2498
(dp2499
g60
(dp2500
sg69
g2485
sg62
(lp2501
g55
(g56
g57
NtRp2502
(dp2503
g60
(dp2504
g68
I5
ssg69
g2498
sg62
(lp2505
S'/grammateus3/docs/text/1En'
p2506
asbasbasbag55
(g71
g57
NtRp2507
(dp2508
g60
(dp2509
sg69
g65
sg62
(lp2510
g55
(g76
g57
NtRp2511
(dp2512
g60
(dp2513
g80
g81
ssg69
g2507
sg62
(lp2514
S'utcnow'
p2515
asbag55
(g76
g57
NtRp2516
(dp2517
g60
(dp2518
g87
g88
ssg69
g2507
sg62
(lp2519
S':'
asbag55
(g76
g57
NtRp2520
(dp2521
g60
(dp2522
sg69
g2507
sg62
(lp2523
g55
(g56
g57
NtRp2524
(dp2525
g60
(dp2526
g68
I5
ssg69
g2520
sg62
(lp2527
S'datetime.datetime(2012, 3, 12, 16, 33, 33, 270049)'
p2528
asbasbasbag55
(g71
g57
NtRp2529
(dp2530
g60
(dp2531
sg69
g65
sg62
(lp2532
g55
(g76
g57
NtRp2533
(dp2534
g60
(dp2535
g80
g81
ssg69
g2529
sg62
(lp2536
S'uuid'
p2537
asbag55
(g76
g57
NtRp2538
(dp2539
g60
(dp2540
g87
g88
ssg69
g2529
sg62
(lp2541
S':'
asbag55
(g76
g57
NtRp2542
(dp2543
g60
(dp2544
sg69
g2529
sg62
(lp2545
g55
(g56
g57
NtRp2546
(dp2547
g60
(dp2548
g68
I5
ssg69
g2542
sg62
(lp2549
S'grammateus3/127.0.0.1.2012-03-12.12-33-33.3a334cb4-7455-4e7a-b2d5-6da7712f97af'
p2550
asbasbasbag55
(g71
g57
NtRp2551
(dp2552
g60
(dp2553
sg69
g65
sg62
(lp2554
g55
(g76
g57
NtRp2555
(dp2556
g60
(dp2557
g80
g81
ssg69
g2551
sg62
(lp2558
S'vars'
p2559
asbag55
(g76
g57
NtRp2560
(dp2561
g60
(dp2562
g87
g88
ssg69
g2551
sg62
(lp2563
S':'
asbag55
(g76
g57
NtRp2564
(dp2565
g60
(dp2566
sg69
g2551
sg62
(lp2567
g55
(g56
g57
NtRp2568
(dp2569
g60
(dp2570
g68
I5
ssg69
g2564
sg62
(lp2571
g55
(g64
g57
NtRp2572
(dp2573
g60
(dp2574
g68
I4
ssg69
Nsg62
(lp2575
sbasbasbasbag55
(g71
g57
NtRp2576
(dp2577
g60
(dp2578
sg69
g65
sg62
(lp2579
g55
(g76
g57
NtRp2580
(dp2581
g60
(dp2582
g80
g81
ssg69
g2576
sg62
(lp2583
S'wsgi'
p2584
asbag55
(g76
g57
NtRp2585
(dp2586
g60
(dp2587
g87
g88
ssg69
g2576
sg62
(lp2588
S':'
asbag55
(g76
g57
NtRp2589
(dp2590
g60
(dp2591
sg69
g2576
sg62
(lp2592
g55
(g56
g57
NtRp2593
(dp2594
g60
(dp2595
g68
I5
ssg69
g2589
sg62
(lp2596
g55
(g64
g57
NtRp2597
(dp2598
g60
(dp2599
g68
I4
ssg69
Nsg62
(lp2600
g55
(g71
g57
NtRp2601
(dp2602
g60
(dp2603
sg69
g2597
sg62
(lp2604
g55
(g76
g57
NtRp2605
(dp2606
g60
(dp2607
g80
g81
ssg69
g2601
sg62
(lp2608
S'environ'
p2609
asbag55
(g76
g57
NtRp2610
(dp2611
g60
(dp2612
g87
g88
ssg69
g2601
sg62
(lp2613
S':'
asbag55
(g76
g57
NtRp2614
(dp2615
g60
(dp2616
sg69
g2601
sg62
(lp2617
g55
(g56
g57
NtRp2618
(dp2619
g60
(dp2620
g68
I4
ssg69
g2614
sg62
(lp2621
g55
(g64
g57
NtRp2622
(dp2623
g60
(dp2624
g68
I3
ssg69
Nsg62
(lp2625
g55
(g71
g57
NtRp2626
(dp2627
g60
(dp2628
sg69
g2622
sg62
(lp2629
g55
(g76
g57
NtRp2630
(dp2631
g60
(dp2632
g80
g81
ssg69
g2626
sg62
(lp2633
S'HTTP_ACCEPT'
p2634
asbag55
(g76
g57
NtRp2635
(dp2636
g60
(dp2637
g87
g88
ssg69
g2626
sg62
(lp2638
S':'
asbag55
(g76
g57
NtRp2639
(dp2640
g60
(dp2641
sg69
g2626
sg62
(lp2642
g55
(g56
g57
NtRp2643
(dp2644
g60
(dp2645
g68
I3
ssg69
g2639
sg62
(lp2646
g1199
asbasbasbag55
(g71
g57
NtRp2647
(dp2648
g60
(dp2649
sg69
g2622
sg62
(lp2650
g55
(g76
g57
NtRp2651
(dp2652
g60
(dp2653
g80
g81
ssg69
g2647
sg62
(lp2654
S'HTTP_ACCEPT_ENCODING'
p2655
asbag55
(g76
g57
NtRp2656
(dp2657
g60
(dp2658
g87
g88
ssg69
g2647
sg62
(lp2659
S':'
asbag55
(g76
g57
NtRp2660
(dp2661
g60
(dp2662
sg69
g2647
sg62
(lp2663
g55
(g56
g57
NtRp2664
(dp2665
g60
(dp2666
g68
I3
ssg69
g2660
sg62
(lp2667
g1221
asbasbasbag55
(g71
g57
NtRp2668
(dp2669
g60
(dp2670
sg69
g2622
sg62
(lp2671
g55
(g76
g57
NtRp2672
(dp2673
g60
(dp2674
g80
g81
ssg69
g2668
sg62
(lp2675
S'HTTP_ACCEPT_LANGUAGE'
p2676
asbag55
(g76
g57
NtRp2677
(dp2678
g60
(dp2679
g87
g88
ssg69
g2668
sg62
(lp2680
S':'
asbag55
(g76
g57
NtRp2681
(dp2682
g60
(dp2683
sg69
g2668
sg62
(lp2684
g55
(g56
g57
NtRp2685
(dp2686
g60
(dp2687
g68
I3
ssg69
g2681
sg62
(lp2688
g1243
asbasbasbag55
(g71
g57
NtRp2689
(dp2690
g60
(dp2691
sg69
g2622
sg62
(lp2692
g55
(g76
g57
NtRp2693
(dp2694
g60
(dp2695
g80
g81
ssg69
g2689
sg62
(lp2696
S'HTTP_CACHE_CONTROL'
p2697
asbag55
(g76
g57
NtRp2698
(dp2699
g60
(dp2700
g87
g88
ssg69
g2689
sg62
(lp2701
S':'
asbag55
(g76
g57
NtRp2702
(dp2703
g60
(dp2704
sg69
g2689
sg62
(lp2705
g55
(g56
g57
NtRp2706
(dp2707
g60
(dp2708
g68
I3
ssg69
g2702
sg62
(lp2709
g1265
asbasbasbag55
(g71
g57
NtRp2710
(dp2711
g60
(dp2712
sg69
g2622
sg62
(lp2713
g55
(g76
g57
NtRp2714
(dp2715
g60
(dp2716
g80
g81
ssg69
g2710
sg62
(lp2717
S'HTTP_CONNECTION'
p2718
asbag55
(g76
g57
NtRp2719
(dp2720
g60
(dp2721
g87
g88
ssg69
g2710
sg62
(lp2722
S':'
asbag55
(g76
g57
NtRp2723
(dp2724
g60
(dp2725
sg69
g2710
sg62
(lp2726
g55
(g56
g57
NtRp2727
(dp2728
g60
(dp2729
g68
I3
ssg69
g2723
sg62
(lp2730
g1287
asbasbasbag55
(g71
g57
NtRp2731
(dp2732
g60
(dp2733
sg69
g2622
sg62
(lp2734
g55
(g76
g57
NtRp2735
(dp2736
g60
(dp2737
g80
g81
ssg69
g2731
sg62
(lp2738
S'HTTP_COOKIE'
p2739
asbag55
(g76
g57
NtRp2740
(dp2741
g60
(dp2742
g87
g88
ssg69
g2731
sg62
(lp2743
S':'
asbag55
(g76
g57
NtRp2744
(dp2745
g60
(dp2746
sg69
g2731
sg62
(lp2747
g55
(g56
g57
NtRp2748
(dp2749
g60
(dp2750
g68
I3
ssg69
g2744
sg62
(lp2751
g1309
asbasbasbag55
(g71
g57
NtRp2752
(dp2753
g60
(dp2754
sg69
g2622
sg62
(lp2755
g55
(g76
g57
NtRp2756
(dp2757
g60
(dp2758
g80
g81
ssg69
g2752
sg62
(lp2759
S'HTTP_HOST'
p2760
asbag55
(g76
g57
NtRp2761
(dp2762
g60
(dp2763
g87
g88
ssg69
g2752
sg62
(lp2764
S':'
asbag55
(g76
g57
NtRp2765
(dp2766
g60
(dp2767
sg69
g2752
sg62
(lp2768
g55
(g56
g57
NtRp2769
(dp2770
g60
(dp2771
g68
I3
ssg69
g2765
sg62
(lp2772
g1331
asbasbasbag55
(g71
g57
NtRp2773
(dp2774
g60
(dp2775
sg69
g2622
sg62
(lp2776
g55
(g76
g57
NtRp2777
(dp2778
g60
(dp2779
g80
g81
ssg69
g2773
sg62
(lp2780
S'HTTP_USER_AGENT'
p2781
asbag55
(g76
g57
NtRp2782
(dp2783
g60
(dp2784
g87
g88
ssg69
g2773
sg62
(lp2785
S':'
asbag55
(g76
g57
NtRp2786
(dp2787
g60
(dp2788
sg69
g2773
sg62
(lp2789
g55
(g56
g57
NtRp2790
(dp2791
g60
(dp2792
g68
I3
ssg69
g2786
sg62
(lp2793
g1353
asbasbasbag55
(g71
g57
NtRp2794
(dp2795
g60
(dp2796
sg69
g2622
sg62
(lp2797
g55
(g76
g57
NtRp2798
(dp2799
g60
(dp2800
g80
g81
ssg69
g2794
sg62
(lp2801
S'PATH_INFO'
p2802
asbag55
(g76
g57
NtRp2803
(dp2804
g60
(dp2805
g87
g88
ssg69
g2794
sg62
(lp2806
S':'
asbag55
(g76
g57
NtRp2807
(dp2808
g60
(dp2809
sg69
g2794
sg62
(lp2810
g55
(g56
g57
NtRp2811
(dp2812
g60
(dp2813
g68
I3
ssg69
g2807
sg62
(lp2814
g1417
asbasbasbag55
(g71
g57
NtRp2815
(dp2816
g60
(dp2817
sg69
g2622
sg62
(lp2818
g55
(g76
g57
NtRp2819
(dp2820
g60
(dp2821
g80
g81
ssg69
g2815
sg62
(lp2822
S'QUERY_STRING'
p2823
asbag55
(g76
g57
NtRp2824
(dp2825
g60
(dp2826
g87
g88
ssg69
g2815
sg62
(lp2827
S':'
asbag55
(g76
g57
NtRp2828
(dp2829
g60
(dp2830
sg69
g2815
sg62
(lp2831
g55
(g56
g57
NtRp2832
(dp2833
g60
(dp2834
g68
I3
ssg69
g2828
sg62
(lp2835
S''
asbasbasbag55
(g71
g57
NtRp2836
(dp2837
g60
(dp2838
sg69
g2622
sg62
(lp2839
g55
(g76
g57
NtRp2840
(dp2841
g60
(dp2842
g80
g81
ssg69
g2836
sg62
(lp2843
S'REMOTE_ADDR'
p2844
asbag55
(g76
g57
NtRp2845
(dp2846
g60
(dp2847
g87
g88
ssg69
g2836
sg62
(lp2848
S':'
asbag55
(g76
g57
NtRp2849
(dp2850
g60
(dp2851
sg69
g2836
sg62
(lp2852
g55
(g56
g57
NtRp2853
(dp2854
g60
(dp2855
g68
I3
ssg69
g2849
sg62
(lp2856
g201
asbasbasbag55
(g71
g57
NtRp2857
(dp2858
g60
(dp2859
sg69
g2622
sg62
(lp2860
g55
(g76
g57
NtRp2861
(dp2862
g60
(dp2863
g80
g81
ssg69
g2857
sg62
(lp2864
S'REMOTE_PORT'
p2865
asbag55
(g76
g57
NtRp2866
(dp2867
g60
(dp2868
g87
g88
ssg69
g2857
sg62
(lp2869
S':'
asbag55
(g76
g57
NtRp2870
(dp2871
g60
(dp2872
sg69
g2857
sg62
(lp2873
g55
(g56
g57
NtRp2874
(dp2875
g60
(dp2876
g68
I3
ssg69
g2870
sg62
(lp2877
g1481
asbasbasbag55
(g71
g57
NtRp2878
(dp2879
g60
(dp2880
sg69
g2622
sg62
(lp2881
g55
(g76
g57
NtRp2882
(dp2883
g60
(dp2884
g80
g81
ssg69
g2878
sg62
(lp2885
S'REQUEST_METHOD'
p2886
asbag55
(g76
g57
NtRp2887
(dp2888
g60
(dp2889
g87
g88
ssg69
g2878
sg62
(lp2890
S':'
asbag55
(g76
g57
NtRp2891
(dp2892
g60
(dp2893
sg69
g2878
sg62
(lp2894
g55
(g56
g57
NtRp2895
(dp2896
g60
(dp2897
g68
I3
ssg69
g2891
sg62
(lp2898
g1503
asbasbasbag55
(g71
g57
NtRp2899
(dp2900
g60
(dp2901
sg69
g2622
sg62
(lp2902
g55
(g76
g57
NtRp2903
(dp2904
g60
(dp2905
g80
g81
ssg69
g2899
sg62
(lp2906
S'SCRIPT_NAME'
p2907
asbag55
(g76
g57
NtRp2908
(dp2909
g60
(dp2910
g87
g88
ssg69
g2899
sg62
(lp2911
S':'
asbag55
(g76
g57
NtRp2912
(dp2913
g60
(dp2914
sg69
g2899
sg62
(lp2915
g55
(g56
g57
NtRp2916
(dp2917
g60
(dp2918
g68
I3
ssg69
g2912
sg62
(lp2919
S''
asbasbasbag55
(g71
g57
NtRp2920
(dp2921
g60
(dp2922
sg69
g2622
sg62
(lp2923
g55
(g76
g57
NtRp2924
(dp2925
g60
(dp2926
g80
g81
ssg69
g2920
sg62
(lp2927
S'SERVER_NAME'
p2928
asbag55
(g76
g57
NtRp2929
(dp2930
g60
(dp2931
g87
g88
ssg69
g2920
sg62
(lp2932
S':'
asbag55
(g76
g57
NtRp2933
(dp2934
g60
(dp2935
sg69
g2920
sg62
(lp2936
g55
(g56
g57
NtRp2937
(dp2938
g60
(dp2939
g68
I3
ssg69
g2933
sg62
(lp2940
g1546
asbasbasbag55
(g71
g57
NtRp2941
(dp2942
g60
(dp2943
sg69
g2622
sg62
(lp2944
g55
(g76
g57
NtRp2945
(dp2946
g60
(dp2947
g80
g81
ssg69
g2941
sg62
(lp2948
S'SERVER_PORT'
p2949
asbag55
(g76
g57
NtRp2950
(dp2951
g60
(dp2952
g87
g88
ssg69
g2941
sg62
(lp2953
S':'
asbag55
(g76
g57
NtRp2954
(dp2955
g60
(dp2956
sg69
g2941
sg62
(lp2957
g55
(g56
g57
NtRp2958
(dp2959
g60
(dp2960
g68
I3
ssg69
g2954
sg62
(lp2961
g1568
asbasbasbag55
(g71
g57
NtRp2962
(dp2963
g60
(dp2964
sg69
g2622
sg62
(lp2965
g55
(g76
g57
NtRp2966
(dp2967
g60
(dp2968
g80
g81
ssg69
g2962
sg62
(lp2969
S'SERVER_PROTOCOL'
p2970
asbag55
(g76
g57
NtRp2971
(dp2972
g60
(dp2973
g87
g88
ssg69
g2962
sg62
(lp2974
S':'
asbag55
(g76
g57
NtRp2975
(dp2976
g60
(dp2977
sg69
g2962
sg62
(lp2978
g55
(g56
g57
NtRp2979
(dp2980
g60
(dp2981
g68
I3
ssg69
g2975
sg62
(lp2982
g1590
asbasbasbag55
(g71
g57
NtRp2983
(dp2984
g60
(dp2985
sg69
g2622
sg62
(lp2986
g55
(g76
g57
NtRp2987
(dp2988
g60
(dp2989
g80
g81
ssg69
g2983
sg62
(lp2990
S'SERVER_SOFTWARE'
p2991
asbag55
(g76
g57
NtRp2992
(dp2993
g60
(dp2994
g87
g88
ssg69
g2983
sg62
(lp2995
S':'
asbag55
(g76
g57
NtRp2996
(dp2997
g60
(dp2998
sg69
g2983
sg62
(lp2999
g55
(g56
g57
NtRp3000
(dp3001
g60
(dp3002
g68
I3
ssg69
g2996
sg62
(lp3003
g1612
asbasbasbag55
(g71
g57
NtRp3004
(dp3005
g60
(dp3006
sg69
g2622
sg62
(lp3007
g55
(g76
g57
NtRp3008
(dp3009
g60
(dp3010
g80
g81
ssg69
g3004
sg62
(lp3011
S'wsgi.errors'
p3012
asbag55
(g76
g57
NtRp3013
(dp3014
g60
(dp3015
g87
g88
ssg69
g3004
sg62
(lp3016
S':'
asbag55
(g76
g57
NtRp3017
(dp3018
g60
(dp3019
sg69
g3004
sg62
(lp3020
g55
(g56
g57
NtRp3021
(dp3022
g60
(dp3023
g68
I3
ssg69
g3017
sg62
(lp3024
S"<open file '<stderr>', mode 'w' at 0x7f03f76bb270>"
p3025
asbasbasbag55
(g71
g57
NtRp3026
(dp3027
g60
(dp3028
sg69
g2622
sg62
(lp3029
g55
(g76
g57
NtRp3030
(dp3031
g60
(dp3032
g80
g81
ssg69
g3026
sg62
(lp3033
S'wsgi.file_wrapper'
p3034
asbag55
(g76
g57
NtRp3035
(dp3036
g60
(dp3037
g87
g88
ssg69
g3026
sg62
(lp3038
S':'
asbag55
(g76
g57
NtRp3039
(dp3040
g60
(dp3041
sg69
g3026
sg62
(lp3042
g55
(g56
g57
NtRp3043
(dp3044
g60
(dp3045
g68
I3
ssg69
g3039
sg62
(lp3046
S'<class wsgiref.util.FileWrapper at 0x2c0cd50>'
p3047
asbasbasbag55
(g71
g57
NtRp3048
(dp3049
g60
(dp3050
sg69
g2622
sg62
(lp3051
g55
(g76
g57
NtRp3052
(dp3053
g60
(dp3054
g80
g81
ssg69
g3048
sg62
(lp3055
S'wsgi.input'
p3056
asbag55
(g76
g57
NtRp3057
(dp3058
g60
(dp3059
g87
g88
ssg69
g3048
sg62
(lp3060
S':'
asbag55
(g76
g57
NtRp3061
(dp3062
g60
(dp3063
sg69
g3048
sg62
(lp3064
g55
(g56
g57
NtRp3065
(dp3066
g60
(dp3067
g68
I3
ssg69
g3061
sg62
(lp3068
S'<cStringIO.StringO object at 0x2d3e1f0>'
p3069
asbasbasbag55
(g71
g57
NtRp3070
(dp3071
g60
(dp3072
sg69
g2622
sg62
(lp3073
g55
(g76
g57
NtRp3074
(dp3075
g60
(dp3076
g80
g81
ssg69
g3070
sg62
(lp3077
S'wsgi.multiprocess'
p3078
asbag55
(g76
g57
NtRp3079
(dp3080
g60
(dp3081
g87
g88
ssg69
g3070
sg62
(lp3082
S':'
asbag55
(g76
g57
NtRp3083
(dp3084
g60
(dp3085
sg69
g3070
sg62
(lp3086
g55
(g56
g57
NtRp3087
(dp3088
g60
(dp3089
g68
I3
ssg69
g3083
sg62
(lp3090
g98
asbasbasbag55
(g71
g57
NtRp3091
(dp3092
g60
(dp3093
sg69
g2622
sg62
(lp3094
g55
(g76
g57
NtRp3095
(dp3096
g60
(dp3097
g80
g81
ssg69
g3091
sg62
(lp3098
S'wsgi.multithread'
p3099
asbag55
(g76
g57
NtRp3100
(dp3101
g60
(dp3102
g87
g88
ssg69
g3091
sg62
(lp3103
S':'
asbag55
(g76
g57
NtRp3104
(dp3105
g60
(dp3106
sg69
g3091
sg62
(lp3107
g55
(g56
g57
NtRp3108
(dp3109
g60
(dp3110
g68
I3
ssg69
g3104
sg62
(lp3111
g1852
asbasbasbag55
(g71
g57
NtRp3112
(dp3113
g60
(dp3114
sg69
g2622
sg62
(lp3115
g55
(g76
g57
NtRp3116
(dp3117
g60
(dp3118
g80
g81
ssg69
g3112
sg62
(lp3119
S'wsgi.run_once'
p3120
asbag55
(g76
g57
NtRp3121
(dp3122
g60
(dp3123
g87
g88
ssg69
g3112
sg62
(lp3124
S':'
asbag55
(g76
g57
NtRp3125
(dp3126
g60
(dp3127
sg69
g3112
sg62
(lp3128
g55
(g56
g57
NtRp3129
(dp3130
g60
(dp3131
g68
I3
ssg69
g3125
sg62
(lp3132
g98
asbasbasbag55
(g71
g57
NtRp3133
(dp3134
g60
(dp3135
sg69
g2622
sg62
(lp3136
g55
(g76
g57
NtRp3137
(dp3138
g60
(dp3139
g80
g81
ssg69
g3133
sg62
(lp3140
S'wsgi.url_scheme'
p3141
asbag55
(g76
g57
NtRp3142
(dp3143
g60
(dp3144
g87
g88
ssg69
g3133
sg62
(lp3145
S':'
asbag55
(g76
g57
NtRp3146
(dp3147
g60
(dp3148
sg69
g3133
sg62
(lp3149
g55
(g56
g57
NtRp3150
(dp3151
g60
(dp3152
g68
I3
ssg69
g3146
sg62
(lp3153
g1895
asbasbasbag55
(g71
g57
NtRp3154
(dp3155
g60
(dp3156
sg69
g2622
sg62
(lp3157
g55
(g76
g57
NtRp3158
(dp3159
g60
(dp3160
g80
g81
ssg69
g3154
sg62
(lp3161
S'wsgi.version'
p3162
asbag55
(g76
g57
NtRp3163
(dp3164
g60
(dp3165
g87
g88
ssg69
g3154
sg62
(lp3166
S':'
asbag55
(g76
g57
NtRp3167
(dp3168
g60
(dp3169
sg69
g3154
sg62
(lp3170
g55
(g56
g57
NtRp3171
(dp3172
g60
(dp3173
g68
I3
ssg69
g3167
sg62
(lp3174
S'1'
asbasbasbasbasbasbasbasbasbasbasbasbasbsS'frames'
p3175
(lp3176
(dp3177
S'file'
p3178
S'/home/ian/web/web2py/gluon/main.py'
p3179
sS'dump'
p3180
(dp3181
S'global serve_controller'
p3182
S'<function serve_controller>'
p3183
sS'session'
p3184
S"<Storage {'_Session__hash': '\\xc8[\\xd5\\xc1#\\xd8e\\x10\\xe3\\x06\\x0ba\\xddT\\x92m'}>"
p3185
sS'request'
p3186
S"<Storage {'body': <cStringIO.StringO object at 0..._vars': <Storage {}>, 'post_vars': <Storage {}>}>"
p3187
sS'response'
p3188
S"<Storage {'status': 200, 'body': <cStringIO.Stri...0236e60>, 'files': [], 'view': 'docs/text.html'}>"
p3189
ssS'lnum'
p3190
I493
sS'lines'
p3191
(dp3192
I488
S''
sI489
S'                # ##################################################'
p3193
sI490
S'                # run controller'
p3194
sI491
S'                # ##################################################'
p3195
sI492
S''
sI493
S'                serve_controller(request, response, session)'
p3196
sI494
S''
sI495
S'            except HTTP, http_response:'
p3197
sI496
S'                if static_file:'
p3198
sI497
S'                    return http_response.to(responder)'
p3199
ssS'call'
p3200
S"(environ={'HTTP_ACCEPT': 'text/html,application/xhtml+xml,application/xml;q=0.9,*/*;q=0.8', 'HTTP_ACCEPT_ENCODING': 'gzip, deflate', 'HTTP_ACCEPT_LANGUAGE': 'en-us,en;q=0.5', 'HTTP_CACHE_CONTROL': 'max-age=0', 'HTTP_CONNECTION': 'keep-alive', 'HTTP_COOKIE': 'session_id_paideia=127.0.0.1-d2b16629-afad-4e3f-...in=127.0.0.1-3d3fdf05-cdfd-4c53-911c-74c78a2c13c2', 'HTTP_HOST': '127.0.0.1:8000', 'HTTP_USER_AGENT': 'Mozilla/5.0 (X11; Ubuntu; Linux x86_64; rv:11.0) Gecko/20100101 Firefox/11.0 openid', 'PATH_INFO': '/grammateus3/docs/text/1En', 'QUERY_STRING': '', ...}, responder=<function responder2>)"
p3201
sS'func'
p3202
S'wsgibase'
p3203
sa(dp3204
g3178
S'/home/ian/web/web2py/gluon/main.py'
p3205
sg3180
(dp3206
S'response._view_environment'
p3207
S"{'A': <class 'gluon.html.A'>, 'Auth': <class 'gluon.tools.Auth'>, 'B': <class 'gluon.html.B'>, 'BEAUTIFY': <class 'gluon.html.BEAUTIFY'>, 'BODY': <class 'gluon.html.BODY'>, 'BR': <class 'gluon.html.BR'>, 'BUTTON': <class 'gluon.html.BUTTON'>, 'CAT': <class 'gluon.html.CAT'>, 'CENTER': <class 'gluon.html.CENTER'>, 'CLEANUP': <class 'gluon.validators.CLEANUP'>, ...}"
p3208
sS'response'
p3209
S"<Storage {'status': 200, 'body': <cStringIO.Stri...0236e60>, 'files': [], 'view': 'docs/text.html'}>"
p3210
sS'global run_view_in'
p3211
S'<function run_view_in>'
p3212
ssg3190
I207
sg3191
(dp3213
I202
S'    page = run_controller_in(request.controller, request.function, environment)'
p3214
sI203
S'    if isinstance(page, dict):'
p3215
sI204
S'        response._vars = page'
p3216
sI205
S'        for key in page:'
p3217
sI206
S'            response._view_environment[key] = page[key]'
p3218
sI207
S'        run_view_in(response._view_environment)'
p3219
sI208
S'        page = response.body.getvalue()'
p3220
sI209
S'    # logic to garbage collect after exec, not always, once every 100 requests'
p3221
sI210
S'    global requests'
p3222
sI211
S"    requests = ('requests' in globals()) and (requests+1) % 100 or 0"
p3223
ssg3200
S"(request=<Storage {'body': <cStringIO.StringO object at 0..._vars': <Storage {}>, 'post_vars': <Storage {}>}>, response=<Storage {'status': 200, 'body': <cStringIO.Stri...0236e60>, 'files': [], 'view': 'docs/text.html'}>, session=<Storage {'_Session__hash': '\\xc8[\\xd5\\xc1#\\xd8e\\x10\\xe3\\x06\\x0ba\\xddT\\x92m'}>)"
p3224
sg3202
S'serve_controller'
p3225
sa(dp3226
g3178
S'/home/ian/web/web2py/gluon/compileapp.py'
p3227
sg3180
(dp3228
S'environment'
p3229
S"{'A': <class 'gluon.html.A'>, 'Auth': <class 'gluon.tools.Auth'>, 'B': <class 'gluon.html.B'>, 'BEAUTIFY': <class 'gluon.html.BEAUTIFY'>, 'BODY': <class 'gluon.html.BODY'>, 'BR': <class 'gluon.html.BR'>, 'BUTTON': <class 'gluon.html.BUTTON'>, 'CAT': <class 'gluon.html.CAT'>, 'CENTER': <class 'gluon.html.CENTER'>, 'CLEANUP': <class 'gluon.validators.CLEANUP'>, ...}"
p3230
sS'context'
p3231
S'undefined'
p3232
ssg3190
I608
sg3191
(dp3233
I608
S'                                   context=environment)'
p3234
sI609
S'        restricted(ccode, environment, layer)'
p3235
sI610
S''
sI611
S'def remove_compiled_application(folder):'
p3236
sI612
S'    """'
p3237
sI603
S"                                            os.path.join(folder, 'views'),"
p3238
sI604
S'                                            context=environment),layer))'
p3239
sI605
S'        else:'
p3240
sI606
S'            ccode = parse_template(response.view,'
p3241
sI607
S"                                   os.path.join(folder, 'views'),"
p3242
ssg3200
S"(environment={'A': <class 'gluon.html.A'>, 'Auth': <class 'gluon.tools.Auth'>, 'B': <class 'gluon.html.B'>, 'BEAUTIFY': <class 'gluon.html.BEAUTIFY'>, 'BODY': <class 'gluon.html.BODY'>, 'BR': <class 'gluon.html.BR'>, 'BUTTON': <class 'gluon.html.BUTTON'>, 'CAT': <class 'gluon.html.CAT'>, 'CENTER': <class 'gluon.html.CENTER'>, 'CLEANUP': <class 'gluon.validators.CLEANUP'>, ...})"
p3243
sg3202
S'run_view_in'
p3244
sa(dp3245
g3178
S'/home/ian/web/web2py/gluon/template.py'
p3246
sg3180
(dp3247
S'builtinstr'
p3248
S"<type 'str'>"
p3249
sS'global TemplateParser'
p3250
S"<class 'gluon.template.TemplateParser'>"
p3251
sS'delimiters'
p3252
S"('{{', '}}')"
p3253
sS'context'
p3254
S"{'A': <class 'gluon.html.A'>, 'Auth': <class 'gluon.tools.Auth'>, 'B': <class 'gluon.html.B'>, 'BEAUTIFY': <class 'gluon.html.BEAUTIFY'>, 'BODY': <class 'gluon.html.BODY'>, 'BR': <class 'gluon.html.BR'>, 'BUTTON': <class 'gluon.html.BUTTON'>, 'CAT': <class 'gluon.html.CAT'>, 'CENTER': <class 'gluon.html.CENTER'>, 'CLEANUP': <class 'gluon.validators.CLEANUP'>, ...}"
p3255
sS'text'
p3256
S'"{{extend \'layout.html\'}}\\n<a id=\'versionadder\' hr...omponent()\\n\\tevent.preventDefault();\\n});\\n</script>"'
p3257
sS'path'
p3258
S"'/home/ian/web/web2py/applications/grammateus3/views'"
p3259
sS'lexers'
p3260
g43
ssg3190
I821
sg3191
(dp3261
I816
S"            raise RestrictedError(filename, '', 'Unable to find the file')"
p3262
sI817
S'    else:'
p3263
sI818
S'        text = filename.read()'
p3264
sI819
S''
sI820
S'    # Use the file contents to get a parsed template and return it.'
p3265
sI821
S'    return str(TemplateParser(text, context=context, path=path, lexers=lexers, delimiters=delimiters))'
p3266
sI822
S''
sI823
S'def get_parsed(text):'
p3267
sI824
S'    """'
p3268
sI825
S'    Returns the indented python code of text. Useful for unit testing.'
p3269
ssg3200
S"(filename='docs/text.html', path='/home/ian/web/web2py/applications/grammateus3/views', context={'A': <class 'gluon.html.A'>, 'Auth': <class 'gluon.tools.Auth'>, 'B': <class 'gluon.html.B'>, 'BEAUTIFY': <class 'gluon.html.BEAUTIFY'>, 'BODY': <class 'gluon.html.BODY'>, 'BR': <class 'gluon.html.BR'>, 'BUTTON': <class 'gluon.html.BUTTON'>, 'CAT': <class 'gluon.html.CAT'>, 'CENTER': <class 'gluon.html.CENTER'>, 'CLEANUP': <class 'gluon.validators.CLEANUP'>, ...}, lexers={}, delimiters=('{{', '}}'))"
p3270
sg3202
S'parse_template'
p3271
sa(dp3272
g3178
S'/home/ian/web/web2py/gluon/template.py'
p3273
sg3180
(dp3274
S'text'
p3275
S'"{{extend \'layout.html\'}}\\n<a id=\'versionadder\' hr...omponent()\\n\\tevent.preventDefault();\\n});\\n</script>"'
p3276
sS'self'
p3277
S'<gluon.template.TemplateParser object>'
p3278
sS'self.parse'
p3279
S'<bound method TemplateParser.parse of <gluon.template.TemplateParser object>>'
p3280
ssg3190
I315
sg3191
(dp3281
I310
S'        # This variable will hold a reference to every block'
p3282
sI311
S'        # that we come across in this template'
p3283
sI312
S'        self.blocks = {}'
p3284
sI313
S''
sI314
S'        # Begin parsing.'
p3285
sI315
S'        self.parse(text)'
p3286
sI316
S''
sI317
S'    def to_string(self):'
p3287
sI318
S'        """'
p3288
sI319
S'        Return the parsed template with correct indentation.'
p3289
ssg3200
S'(self=<gluon.template.TemplateParser object>, text="{{extend \'layout.html\'}}\\n<a id=\'versionadder\' hr...omponent()\\n\\tevent.preventDefault();\\n});\\n</script>", name=\'ParserContainer\', context={\'A\': <class \'gluon.html.A\'>, \'Auth\': <class \'gluon.tools.Auth\'>, \'B\': <class \'gluon.html.B\'>, \'BEAUTIFY\': <class \'gluon.html.BEAUTIFY\'>, \'BODY\': <class \'gluon.html.BODY\'>, \'BR\': <class \'gluon.html.BR\'>, \'BUTTON\': <class \'gluon.html.BUTTON\'>, \'CAT\': <class \'gluon.html.CAT\'>, \'CENTER\': <class \'gluon.html.CENTER\'>, \'CLEANUP\': <class \'gluon.validators.CLEANUP\'>, ...}, path=\'/home/ian/web/web2py/applications/grammateus3/views\', writer=\'response.write\', lexers={}, delimiters=(\'{{\', \'}}\'), _super_nodes=[])'
p3290
sg3202
g48
sa(dp3291
g3178
S'/home/ian/web/web2py/gluon/template.py'
p3292
sg3180
(dp3293
S'self'
p3294
S'<gluon.template.TemplateParser object>'
p3295
sS'extend'
p3296
S'"\'layout.html\'"'
p3297
sS'self.extend'
p3298
S'<bound method TemplateParser.extend of <gluon.template.TemplateParser object>>'
p3299
ssg3190
I794
sg3191
(dp3300
I789
S'            # Sometimes I miss C-Style pointers... I want my asterisk...'
p3301
sI790
S'            self.child_super_nodes.remove(node)'
p3302
sI791
S''
sI792
S'        # If we need to extend a template.'
p3303
sI793
S'        if extend:'
p3304
sI794
S'            self.extend(extend)'
p3305
sI795
S''
sI796
S'# We need this for integration with gluon'
p3306
sI797
S'def parse_template(filename,'
p3307
sI798
S"                   path    = 'views/',"
p3308
ssg3200
S'(self=<gluon.template.TemplateParser object>, text="{{extend \'layout.html\'}}\\n<a id=\'versionadder\' hr...omponent()\\n\\tevent.preventDefault();\\n});\\n</script>")'
p3309
sg3202
S'parse'
p3310
sa(dp3311
g3178
S'/home/ian/web/web2py/gluon/template.py'
p3312
sg3180
(dp3313
S'super_nodes'
p3314
S'[]'
p3315
sS'_super_nodes'
p3316
g3232
ssg3190
I480
sg3191
(dp3317
I480
S'                    _super_nodes = super_nodes)'
p3318
sI481
S''
sI482
S'        # Make a temporary buffer that is unique for parent'
p3319
sI483
S'        # template.'
p3320
sI484
S"        buf = BlockNode(name='__include__' + filename, delimiters=self.delimiters)"
p3321
sI475
S'                    name         = filename,'
p3322
sI476
S'                    context      = self.context,'
p3323
sI477
S'                    path         = self.path,'
p3324
sI478
S'                    writer       = self.writer,'
p3325
sI479
S'                    delimiters   = self.delimiters,'
p3326
ssg3200
S'(self=<gluon.template.TemplateParser object>, filename="\'layout.html\'")'
p3327
sg3202
S'extend'
p3328
sa(dp3329
g3178
S'/home/ian/web/web2py/gluon/template.py'
p3330
sg3180
(dp3331
S'text'
p3332
S'"{{extend \'plugin_framework/plugin_framework.html\'}}\\n{{include}}"'
p3333
sS'self'
p3334
S'<gluon.template.TemplateParser object>'
p3335
sS'self.parse'
p3336
S'<bound method TemplateParser.parse of <gluon.template.TemplateParser object>>'
p3337
ssg3190
I315
sg3191
(dp3338
I310
S'        # This variable will hold a reference to every block'
p3339
sI311
S'        # that we come across in this template'
p3340
sI312
S'        self.blocks = {}'
p3341
sI313
S''
sI314
S'        # Begin parsing.'
p3342
sI315
S'        self.parse(text)'
p3343
sI316
S''
sI317
S'    def to_string(self):'
p3344
sI318
S'        """'
p3345
sI319
S'        Return the parsed template with correct indentation.'
p3346
ssg3200
S'(self=<gluon.template.TemplateParser object>, text="{{extend \'plugin_framework/plugin_framework.html\'}}\\n{{include}}", name="\'layout.html\'", context={\'A\': <class \'gluon.html.A\'>, \'Auth\': <class \'gluon.tools.Auth\'>, \'B\': <class \'gluon.html.B\'>, \'BEAUTIFY\': <class \'gluon.html.BEAUTIFY\'>, \'BODY\': <class \'gluon.html.BODY\'>, \'BR\': <class \'gluon.html.BR\'>, \'BUTTON\': <class \'gluon.html.BUTTON\'>, \'CAT\': <class \'gluon.html.CAT\'>, \'CENTER\': <class \'gluon.html.CENTER\'>, \'CLEANUP\': <class \'gluon.validators.CLEANUP\'>, ...}, path=\'/home/ian/web/web2py/applications/grammateus3/views\', writer=\'response.write\', lexers={}, delimiters=(\'{{\', \'}}\'), _super_nodes=[])'
p3347
sg3202
g48
sa(dp3348
g3178
S'/home/ian/web/web2py/gluon/template.py'
p3349
sg3180
(dp3350
S'self'
p3351
S'<gluon.template.TemplateParser object>'
p3352
sS'extend'
p3353
S'"\'plugin_framework/plugin_framework.html\'"'
p3354
sS'self.extend'
p3355
S'<bound method TemplateParser.extend of <gluon.template.TemplateParser object>>'
p3356
ssg3190
I794
sg3191
(dp3357
I789
S'            # Sometimes I miss C-Style pointers... I want my asterisk...'
p3358
sI790
S'            self.child_super_nodes.remove(node)'
p3359
sI791
S''
sI792
S'        # If we need to extend a template.'
p3360
sI793
S'        if extend:'
p3361
sI794
S'            self.extend(extend)'
p3362
sI795
S''
sI796
S'# We need this for integration with gluon'
p3363
sI797
S'def parse_template(filename,'
p3364
sI798
S"                   path    = 'views/',"
p3365
ssg3200
S'(self=<gluon.template.TemplateParser object>, text="{{extend \'plugin_framework/plugin_framework.html\'}}\\n{{include}}")'
p3366
sg3202
g3310
sa(dp3367
g3178
S'/home/ian/web/web2py/gluon/template.py'
p3368
sg3180
(dp3369
S'super_nodes'
p3370
S'[]'
p3371
sS'_super_nodes'
p3372
g3232
ssg3190
I480
sg3191
(dp3373
I480
S'                    _super_nodes = super_nodes)'
p3374
sI481
S''
sI482
S'        # Make a temporary buffer that is unique for parent'
p3375
sI483
S'        # template.'
p3376
sI484
S"        buf = BlockNode(name='__include__' + filename, delimiters=self.delimiters)"
p3377
sI475
S'                    name         = filename,'
p3378
sI476
S'                    context      = self.context,'
p3379
sI477
S'                    path         = self.path,'
p3380
sI478
S'                    writer       = self.writer,'
p3381
sI479
S'                    delimiters   = self.delimiters,'
p3382
ssg3200
S'(self=<gluon.template.TemplateParser object>, filename="\'plugin_framework/plugin_framework.html\'")'
p3383
sg3202
g3328
sa(dp3384
g3178
S'/home/ian/web/web2py/gluon/template.py'
p3385
sg3180
(dp3386
S'text'
p3387
S'\'<!DOCTYPE html>\\n<html lang="{{=T.accepted_langua...);\\n       </script>\\n       -->\\n  </body>\\n</html>\\n\''
p3388
sS'self'
p3389
S'<gluon.template.TemplateParser object>'
p3390
sS'self.parse'
p3391
S'<bound method TemplateParser.parse of <gluon.template.TemplateParser object>>'
p3392
ssg3190
I315
sg3191
(dp3393
I310
S'        # This variable will hold a reference to every block'
p3394
sI311
S'        # that we come across in this template'
p3395
sI312
S'        self.blocks = {}'
p3396
sI313
S''
sI314
S'        # Begin parsing.'
p3397
sI315
S'        self.parse(text)'
p3398
sI316
S''
sI317
S'    def to_string(self):'
p3399
sI318
S'        """'
p3400
sI319
S'        Return the parsed template with correct indentation.'
p3401
ssg3200
S'(self=<gluon.template.TemplateParser object>, text=\'<!DOCTYPE html>\\n<html lang="{{=T.accepted_langua...);\\n       </script>\\n       -->\\n  </body>\\n</html>\\n\', name="\'plugin_framework/plugin_framework.html\'", context={\'A\': <class \'gluon.html.A\'>, \'Auth\': <class \'gluon.tools.Auth\'>, \'B\': <class \'gluon.html.B\'>, \'BEAUTIFY\': <class \'gluon.html.BEAUTIFY\'>, \'BODY\': <class \'gluon.html.BODY\'>, \'BR\': <class \'gluon.html.BR\'>, \'BUTTON\': <class \'gluon.html.BUTTON\'>, \'CAT\': <class \'gluon.html.CAT\'>, \'CENTER\': <class \'gluon.html.CENTER\'>, \'CLEANUP\': <class \'gluon.validators.CLEANUP\'>, ...}, path=\'/home/ian/web/web2py/applications/grammateus3/views\', writer=\'response.write\', lexers={}, delimiters=(\'{{\', \'}}\'), _super_nodes=[])'
p3402
sg3202
g48
sa(dp3403
g3178
S'/home/ian/web/web2py/gluon/template.py'
p3404
sg3180
(dp3405
S'self'
p3406
S'<gluon.template.TemplateParser object>'
p3407
sS'self.include'
p3408
S'<bound method TemplateParser.include of <gluon.template.TemplateParser object>>'
p3409
sS'top'
p3410
S"{{block authbar}}\nresponse.write('\\n                ', escape=False){{end}}"
p3411
sS'value'
p3412
S"'plugin_framework/authbar.html'"
p3413
ssg3190
I715
sg3191
(dp3414
I710
S'                        top.append(node)'
p3415
sI711
S''
sI712
S"                    elif name == 'include' and not value.startswith('='):"
p3416
sI713
S'                        # If we know the target file to include'
p3417
sI714
S'                        if value:'
p3418
sI715
S'                            self.include(top, value)'
p3419
sI716
S''
sI717
S'                        # Otherwise, make a temporary include node'
p3420
sI718
S'                        # That the child node will know to hook into.'
p3421
sI719
S'                        else:'
p3422
ssg3200
S'(self=<gluon.template.TemplateParser object>, text=\'<!DOCTYPE html>\\n<html lang="{{=T.accepted_langua...);\\n       </script>\\n       -->\\n  </body>\\n</html>\\n\')'
p3423
sg3202
g3310
sa(dp3424
g3178
S'/home/ian/web/web2py/gluon/template.py'
p3425
sg3180
(dp3426
S'text'
p3427
g3232
sS'self'
p3428
S'<gluon.template.TemplateParser object>'
p3429
sS'self._get_file_text'
p3430
S'<bound method TemplateParser._get_file_text of <gluon.template.TemplateParser object>>'
p3431
sS'filename'
p3432
S"'plugin_framework/authbar.html'"
p3433
ssg3190
I449
sg3191
(dp3434
I448
S'        """'
p3435
sI449
S'        text = self._get_file_text(filename)'
p3436
sI450
S''
sI451
S'        t = TemplateParser(text,'
p3437
sI452
S'                           name    = filename,'
p3438
sI453
S'                           context = self.context,'
p3439
sI444
S''
sI445
S'    def include(self, content, filename):'
p3440
sI446
S'        """'
p3441
sI447
S'        Include ``filename`` here.'
p3442
ssg3200
S"(self=<gluon.template.TemplateParser object>, content={{block authbar}}\nresponse.write('\\n                ', escape=False){{end}}, filename='plugin_framework/authbar.html')"
p3443
sg3202
S'include'
p3444
sa(dp3445
g3178
S'/home/ian/web/web2py/gluon/template.py'
p3446
sg3180
(dp3447
S'self.context'
p3448
S"{'A': <class 'gluon.html.A'>, 'Auth': <class 'gluon.tools.Auth'>, 'B': <class 'gluon.html.B'>, 'BEAUTIFY': <class 'gluon.html.BEAUTIFY'>, 'BODY': <class 'gluon.html.BODY'>, 'BR': <class 'gluon.html.BR'>, 'BUTTON': <class 'gluon.html.BUTTON'>, 'CAT': <class 'gluon.html.CAT'>, 'CENTER': <class 'gluon.html.CENTER'>, 'CLEANUP': <class 'gluon.validators.CLEANUP'>, ...}"
p3449
sS'self'
p3450
S'<gluon.template.TemplateParser object>'
p3451
sS'builtineval'
p3452
S'<built-in function eval>'
p3453
sS'filename'
p3454
S"'plugin_framework/authbar.html'"
p3455
ssg3190
I430
sg3191
(dp3456
I425
S'        if not filename.strip():'
p3457
sI426
S"            self._raise_error('Invalid template filename')"
p3458
sI427
S''
sI428
S'        # Get the filename; filename looks like ``"template.html"``.'
p3459
sI429
S'        # We need to eval to remove the quotes and get the string type.'
p3460
sI430
S'        filename = eval(filename, self.context)'
p3461
sI431
S''
sI432
S'        # Get the path of the file on the system.'
p3462
sI433
S'        filepath = os.path.join(self.path, filename)'
p3463
sI434
S''
ssg3200
S"(self=<gluon.template.TemplateParser object>, filename='plugin_framework/authbar.html')"
p3464
sg3202
S'_get_file_text'
p3465
sa(dp3466
g3178
S'/home/ian/web/web2py/<string>'
p3467
sg3180
(dp3468
sg3190
I1
sg3191
(dp3469
sg3200
S'()'
p3470
sg3202
S'<module>'
p3471
sasS'pyver'
p3472
S'Python 2.7.3rc1: /usr/bin/python2.7'
p3473
sS'session'
p3474
g55
(g56
g57
NtRp3475
(dp3476
g60
(dp3477
sg62
(lp3478
g55
(g64
g57
NtRp3479
(dp3480
g60
(dp3481
g68
I5
ssg69
Nsg62
(lp3482
sbasbsS'etype'
p3483
S"<type 'exceptions.NameError'>"
p3484
sS'date'
p3485
S'Mon Mar 12 12:33:33 2012'
p3486
sS'response'
p3487
g55
(g56
g57
NtRp3488
(dp3489
g60
(dp3490
sg62
(lp3491
g55
(g64
g57
NtRp3492
(dp3493
g60
(dp3494
g68
I5
ssg69
Nsg62
(lp3495
g55
(g71
g57
NtRp3496
(dp3497
g60
(dp3498
sg69
g3492
sg62
(lp3499
g55
(g76
g57
NtRp3500
(dp3501
g60
(dp3502
g80
g81
ssg69
g3496
sg62
(lp3503
g166
asbag55
(g76
g57
NtRp3504
(dp3505
g60
(dp3506
g87
g88
ssg69
g3496
sg62
(lp3507
S':'
asbag55
(g76
g57
NtRp3508
(dp3509
g60
(dp3510
sg69
g3496
sg62
(lp3511
g55
(g56
g57
NtRp3512
(dp3513
g60
(dp3514
g68
I5
ssg69
g3508
sg62
(lp3515
S'<cStringIO.StringO object at 0x7f03d46c6ca8>'
p3516
asbasbasbag55
(g71
g57
NtRp3517
(dp3518
g60
(dp3519
sg69
g3492
sg62
(lp3520
g55
(g76
g57
NtRp3521
(dp3522
g60
(dp3523
g80
g81
ssg69
g3517
sg62
(lp3524
g232
asbag55
(g76
g57
NtRp3525
(dp3526
g60
(dp3527
g87
g88
ssg69
g3517
sg62
(lp3528
S':'
asbag55
(g76
g57
NtRp3529
(dp3530
g60
(dp3531
sg69
g3517
sg62
(lp3532
g55
(g56
g57
NtRp3533
(dp3534
g60
(dp3535
g68
I5
ssg69
g3529
sg62
(lp3536
g55
(g64
g57
NtRp3537
(dp3538
g60
(dp3539
g68
I4
ssg69
Nsg62
(lp3540
g55
(g71
g57
NtRp3541
(dp3542
g60
(dp3543
sg69
g3537
sg62
(lp3544
g55
(g76
g57
NtRp3545
(dp3546
g60
(dp3547
g80
g81
ssg69
g3541
sg62
(lp3548
S'session_id_grammateus3'
p3549
asbag55
(g76
g57
NtRp3550
(dp3551
g60
(dp3552
g87
g88
ssg69
g3541
sg62
(lp3553
S':'
asbag55
(g76
g57
NtRp3554
(dp3555
g60
(dp3556
sg69
g3541
sg62
(lp3557
g55
(g56
g57
NtRp3558
(dp3559
g60
(dp3560
g68
I4
ssg69
g3554
sg62
(lp3561
g55
(g64
g57
NtRp3562
(dp3563
g60
(dp3564
g68
I3
ssg69
Nsg62
(lp3565
g55
(g71
g57
NtRp3566
(dp3567
g60
(dp3568
sg69
g3562
sg62
(lp3569
g55
(g76
g57
NtRp3570
(dp3571
g60
(dp3572
g80
g81
ssg69
g3566
sg62
(lp3573
g282
asbag55
(g76
g57
NtRp3574
(dp3575
g60
(dp3576
g87
g88
ssg69
g3566
sg62
(lp3577
S':'
asbag55
(g76
g57
NtRp3578
(dp3579
g60
(dp3580
sg69
g3566
sg62
(lp3581
g55
(g56
g57
NtRp3582
(dp3583
g60
(dp3584
g68
I3
ssg69
g3578
sg62
(lp3585
S''
asbasbasbag55
(g71
g57
NtRp3586
(dp3587
g60
(dp3588
sg69
g3562
sg62
(lp3589
g55
(g76
g57
NtRp3590
(dp3591
g60
(dp3592
g80
g81
ssg69
g3586
sg62
(lp3593
g303
asbag55
(g76
g57
NtRp3594
(dp3595
g60
(dp3596
g87
g88
ssg69
g3586
sg62
(lp3597
S':'
asbag55
(g76
g57
NtRp3598
(dp3599
g60
(dp3600
sg69
g3586
sg62
(lp3601
g55
(g56
g57
NtRp3602
(dp3603
g60
(dp3604
g68
I3
ssg69
g3598
sg62
(lp3605
S''
asbasbasbag55
(g71
g57
NtRp3606
(dp3607
g60
(dp3608
sg69
g3562
sg62
(lp3609
g55
(g76
g57
NtRp3610
(dp3611
g60
(dp3612
g80
g81
ssg69
g3606
sg62
(lp3613
g324
asbag55
(g76
g57
NtRp3614
(dp3615
g60
(dp3616
g87
g88
ssg69
g3606
sg62
(lp3617
S':'
asbag55
(g76
g57
NtRp3618
(dp3619
g60
(dp3620
sg69
g3606
sg62
(lp3621
g55
(g56
g57
NtRp3622
(dp3623
g60
(dp3624
g68
I3
ssg69
g3618
sg62
(lp3625
S''
asbasbasbag55
(g71
g57
NtRp3626
(dp3627
g60
(dp3628
sg69
g3562
sg62
(lp3629
g55
(g76
g57
NtRp3630
(dp3631
g60
(dp3632
g80
g81
ssg69
g3626
sg62
(lp3633
g345
asbag55
(g76
g57
NtRp3634
(dp3635
g60
(dp3636
g87
g88
ssg69
g3626
sg62
(lp3637
S':'
asbag55
(g76
g57
NtRp3638
(dp3639
g60
(dp3640
sg69
g3626
sg62
(lp3641
g55
(g56
g57
NtRp3642
(dp3643
g60
(dp3644
g68
I3
ssg69
g3638
sg62
(lp3645
S''
asbasbasbag55
(g71
g57
NtRp3646
(dp3647
g60
(dp3648
sg69
g3562
sg62
(lp3649
g55
(g76
g57
NtRp3650
(dp3651
g60
(dp3652
g80
g81
ssg69
g3646
sg62
(lp3653
g366
asbag55
(g76
g57
NtRp3654
(dp3655
g60
(dp3656
g87
g88
ssg69
g3646
sg62
(lp3657
S':'
asbag55
(g76
g57
NtRp3658
(dp3659
g60
(dp3660
sg69
g3646
sg62
(lp3661
g55
(g56
g57
NtRp3662
(dp3663
g60
(dp3664
g68
I3
ssg69
g3658
sg62
(lp3665
S''
asbasbasbag55
(g71
g57
NtRp3666
(dp3667
g60
(dp3668
sg69
g3562
sg62
(lp3669
g55
(g76
g57
NtRp3670
(dp3671
g60
(dp3672
g80
g81
ssg69
g3666
sg62
(lp3673
g387
asbag55
(g76
g57
NtRp3674
(dp3675
g60
(dp3676
g87
g88
ssg69
g3666
sg62
(lp3677
S':'
asbag55
(g76
g57
NtRp3678
(dp3679
g60
(dp3680
sg69
g3666
sg62
(lp3681
g55
(g56
g57
NtRp3682
(dp3683
g60
(dp3684
g68
I3
ssg69
g3678
sg62
(lp3685
S'/'
asbasbasbag55
(g71
g57
NtRp3686
(dp3687
g60
(dp3688
sg69
g3562
sg62
(lp3689
g55
(g76
g57
NtRp3690
(dp3691
g60
(dp3692
g80
g81
ssg69
g3686
sg62
(lp3693
g408
asbag55
(g76
g57
NtRp3694
(dp3695
g60
(dp3696
g87
g88
ssg69
g3686
sg62
(lp3697
S':'
asbag55
(g76
g57
NtRp3698
(dp3699
g60
(dp3700
sg69
g3686
sg62
(lp3701
g55
(g56
g57
NtRp3702
(dp3703
g60
(dp3704
g68
I3
ssg69
g3698
sg62
(lp3705
S''
asbasbasbag55
(g71
g57
NtRp3706
(dp3707
g60
(dp3708
sg69
g3562
sg62
(lp3709
g55
(g76
g57
NtRp3710
(dp3711
g60
(dp3712
g80
g81
ssg69
g3706
sg62
(lp3713
g429
asbag55
(g76
g57
NtRp3714
(dp3715
g60
(dp3716
g87
g88
ssg69
g3706
sg62
(lp3717
S':'
asbag55
(g76
g57
NtRp3718
(dp3719
g60
(dp3720
sg69
g3706
sg62
(lp3721
g55
(g56
g57
NtRp3722
(dp3723
g60
(dp3724
g68
I3
ssg69
g3718
sg62
(lp3725
S''
asbasbasbasbasbasbasbasbasbasbasbag55
(g71
g57
NtRp3726
(dp3727
g60
(dp3728
sg69
g3492
sg62
(lp3729
g55
(g76
g57
NtRp3730
(dp3731
g60
(dp3732
g80
g81
ssg69
g3726
sg62
(lp3733
S'files'
p3734
asbag55
(g76
g57
NtRp3735
(dp3736
g60
(dp3737
g87
g88
ssg69
g3726
sg62
(lp3738
S':'
asbag55
(g76
g57
NtRp3739
(dp3740
g60
(dp3741
sg69
g3726
sg62
(lp3742
g55
(g56
g57
NtRp3743
(dp3744
g60
(dp3745
g68
I5
ssg69
g3739
sg62
(lp3746
g55
(g64
g57
NtRp3747
(dp3748
g60
(dp3749
g68
I4
ssg69
Nsg62
(lp3750
sbasbasbasbag55
(g71
g57
NtRp3751
(dp3752
g60
(dp3753
sg69
g3492
sg62
(lp3754
g55
(g76
g57
NtRp3755
(dp3756
g60
(dp3757
g80
g81
ssg69
g3751
sg62
(lp3758
S'flash'
p3759
asbag55
(g76
g57
NtRp3760
(dp3761
g60
(dp3762
g87
g88
ssg69
g3751
sg62
(lp3763
S':'
asbag55
(g76
g57
NtRp3764
(dp3765
g60
(dp3766
sg69
g3751
sg62
(lp3767
g55
(g56
g57
NtRp3768
(dp3769
g60
(dp3770
g68
I5
ssg69
g3764
sg62
(lp3771
S''
asbasbasbag55
(g71
g57
NtRp3772
(dp3773
g60
(dp3774
sg69
g3492
sg62
(lp3775
g55
(g76
g57
NtRp3776
(dp3777
g60
(dp3778
g80
g81
ssg69
g3772
sg62
(lp3779
S'generic_patterns'
p3780
asbag55
(g76
g57
NtRp3781
(dp3782
g60
(dp3783
g87
g88
ssg69
g3772
sg62
(lp3784
S':'
asbag55
(g76
g57
NtRp3785
(dp3786
g60
(dp3787
sg69
g3772
sg62
(lp3788
g55
(g56
g57
NtRp3789
(dp3790
g60
(dp3791
g68
I5
ssg69
g3785
sg62
(lp3792
g55
(g64
g57
NtRp3793
(dp3794
g60
(dp3795
g68
I4
ssg69
Nsg62
(lp3796
g55
(g71
g57
NtRp3797
(dp3798
g60
(dp3799
sg69
g3793
sg62
(lp3800
g55
(g76
g57
NtRp3801
(dp3802
g60
(dp3803
sg69
g3797
sg62
(lp3804
g55
(g56
g57
NtRp3805
(dp3806
g60
(dp3807
g68
I4
ssg69
g3801
sg62
(lp3808
S'*'
asbasbasbasbasbasbasbag55
(g71
g57
NtRp3809
(dp3810
g60
(dp3811
sg69
g3492
sg62
(lp3812
g55
(g76
g57
NtRp3813
(dp3814
g60
(dp3815
g80
g81
ssg69
g3809
sg62
(lp3816
S'headers'
p3817
asbag55
(g76
g57
NtRp3818
(dp3819
g60
(dp3820
g87
g88
ssg69
g3809
sg62
(lp3821
S':'
asbag55
(g76
g57
NtRp3822
(dp3823
g60
(dp3824
sg69
g3809
sg62
(lp3825
g55
(g56
g57
NtRp3826
(dp3827
g60
(dp3828
g68
I5
ssg69
g3822
sg62
(lp3829
g55
(g64
g57
NtRp3830
(dp3831
g60
(dp3832
g68
I4
ssg69
Nsg62
(lp3833
g55
(g71
g57
NtRp3834
(dp3835
g60
(dp3836
sg69
g3830
sg62
(lp3837
g55
(g76
g57
NtRp3838
(dp3839
g60
(dp3840
g80
g81
ssg69
g3834
sg62
(lp3841
S'Cache-Control'
p3842
asbag55
(g76
g57
NtRp3843
(dp3844
g60
(dp3845
g87
g88
ssg69
g3834
sg62
(lp3846
S':'
asbag55
(g76
g57
NtRp3847
(dp3848
g60
(dp3849
sg69
g3834
sg62
(lp3850
g55
(g56
g57
NtRp3851
(dp3852
g60
(dp3853
g68
I4
ssg69
g3847
sg62
(lp3854
S'no-store, no-cache, must-revalidate, post-check=0, pre-check=0'
p3855
asbasbasbag55
(g71
g57
NtRp3856
(dp3857
g60
(dp3858
sg69
g3830
sg62
(lp3859
g55
(g76
g57
NtRp3860
(dp3861
g60
(dp3862
g80
g81
ssg69
g3856
sg62
(lp3863
S'Content-Type'
p3864
asbag55
(g76
g57
NtRp3865
(dp3866
g60
(dp3867
g87
g88
ssg69
g3856
sg62
(lp3868
S':'
asbag55
(g76
g57
NtRp3869
(dp3870
g60
(dp3871
sg69
g3856
sg62
(lp3872
g55
(g56
g57
NtRp3873
(dp3874
g60
(dp3875
g68
I4
ssg69
g3869
sg62
(lp3876
S'text/html; charset=utf-8'
p3877
asbasbasbag55
(g71
g57
NtRp3878
(dp3879
g60
(dp3880
sg69
g3830
sg62
(lp3881
g55
(g76
g57
NtRp3882
(dp3883
g60
(dp3884
g80
g81
ssg69
g3878
sg62
(lp3885
S'Expires'
p3886
asbag55
(g76
g57
NtRp3887
(dp3888
g60
(dp3889
g87
g88
ssg69
g3878
sg62
(lp3890
S':'
asbag55
(g76
g57
NtRp3891
(dp3892
g60
(dp3893
sg69
g3878
sg62
(lp3894
g55
(g56
g57
NtRp3895
(dp3896
g60
(dp3897
g68
I4
ssg69
g3891
sg62
(lp3898
S'Mon, 12 Mar 2012 16:33:33 GMT'
p3899
asbasbasbag55
(g71
g57
NtRp3900
(dp3901
g60
(dp3902
sg69
g3830
sg62
(lp3903
g55
(g76
g57
NtRp3904
(dp3905
g60
(dp3906
g80
g81
ssg69
g3900
sg62
(lp3907
S'Pragma'
p3908
asbag55
(g76
g57
NtRp3909
(dp3910
g60
(dp3911
g87
g88
ssg69
g3900
sg62
(lp3912
S':'
asbag55
(g76
g57
NtRp3913
(dp3914
g60
(dp3915
sg69
g3900
sg62
(lp3916
g55
(g56
g57
NtRp3917
(dp3918
g60
(dp3919
g68
I4
ssg69
g3913
sg62
(lp3920
S'no-cache'
p3921
asbasbasbag55
(g71
g57
NtRp3922
(dp3923
g60
(dp3924
sg69
g3830
sg62
(lp3925
g55
(g76
g57
NtRp3926
(dp3927
g60
(dp3928
g80
g81
ssg69
g3922
sg62
(lp3929
S'X-Powered-By'
p3930
asbag55
(g76
g57
NtRp3931
(dp3932
g60
(dp3933
g87
g88
ssg69
g3922
sg62
(lp3934
S':'
asbag55
(g76
g57
NtRp3935
(dp3936
g60
(dp3937
sg69
g3922
sg62
(lp3938
g55
(g56
g57
NtRp3939
(dp3940
g60
(dp3941
g68
I4
ssg69
g3935
sg62
(lp3942
S'web2py'
p3943
asbasbasbasbasbasbasbag55
(g71
g57
NtRp3944
(dp3945
g60
(dp3946
sg69
g3492
sg62
(lp3947
g55
(g76
g57
NtRp3948
(dp3949
g60
(dp3950
g80
g81
ssg69
g3944
sg62
(lp3951
S'menu'
p3952
asbag55
(g76
g57
NtRp3953
(dp3954
g60
(dp3955
g87
g88
ssg69
g3944
sg62
(lp3956
S':'
asbag55
(g76
g57
NtRp3957
(dp3958
g60
(dp3959
sg69
g3944
sg62
(lp3960
g55
(g56
g57
NtRp3961
(dp3962
g60
(dp3963
g68
I5
ssg69
g3957
sg62
(lp3964
g55
(g64
g57
NtRp3965
(dp3966
g60
(dp3967
g68
I4
ssg69
Nsg62
(lp3968
g55
(g71
g57
NtRp3969
(dp3970
g60
(dp3971
sg69
g3965
sg62
(lp3972
g55
(g76
g57
NtRp3973
(dp3974
g60
(dp3975
sg69
g3969
sg62
(lp3976
g55
(g56
g57
NtRp3977
(dp3978
g60
(dp3979
g68
I4
ssg69
g3973
sg62
(lp3980
g55
(g64
g57
NtRp3981
(dp3982
g60
(dp3983
g68
I3
ssg69
Nsg62
(lp3984
g55
(g71
g57
NtRp3985
(dp3986
g60
(dp3987
sg69
g3981
sg62
(lp3988
g55
(g76
g57
NtRp3989
(dp3990
g60
(dp3991
sg69
g3985
sg62
(lp3992
g55
(g56
g57
NtRp3993
(dp3994
g60
(dp3995
g68
I3
ssg69
g3989
sg62
(lp3996
cgluon.languages
lazyT_unpickle
p3997
(S't\t\x00\x00\x00Documents'
tRp3998
asbasbasbag55
(g71
g57
NtRp3999
(dp4000
g60
(dp4001
sg69
g3981
sg62
(lp4002
g55
(g76
g57
NtRp4003
(dp4004
g60
(dp4005
sg69
g3999
sg62
(lp4006
g55
(g56
g57
NtRp4007
(dp4008
g60
(dp4009
g68
I3
ssg69
g4003
sg62
(lp4010
g98
asbasbasbag55
(g71
g57
NtRp4011
(dp4012
g60
(dp4013
sg69
g3981
sg62
(lp4014
g55
(g76
g57
NtRp4015
(dp4016
g60
(dp4017
sg69
g4011
sg62
(lp4018
g55
(g56
g57
NtRp4019
(dp4020
g60
(dp4021
g68
I3
ssg69
g4015
sg62
(lp4022
S'/grammateus3/default/index'
p4023
asbasbasbag55
(g71
g57
NtRp4024
(dp4025
g60
(dp4026
sg69
g3981
sg62
(lp4027
g55
(g76
g57
NtRp4028
(dp4029
g60
(dp4030
sg69
g4024
sg62
(lp4031
g55
(g56
g57
NtRp4032
(dp4033
g60
(dp4034
g68
I3
ssg69
g4028
sg62
(lp4035
g55
(g64
g57
NtRp4036
(dp4037
g60
(dp4038
g68
I2
ssg69
Nsg62
(lp4039
sbasbasbasbasbasbasbasbag55
(g71
g57
NtRp4040
(dp4041
g60
(dp4042
sg69
g3965
sg62
(lp4043
g55
(g76
g57
NtRp4044
(dp4045
g60
(dp4046
sg69
g4040
sg62
(lp4047
g55
(g56
g57
NtRp4048
(dp4049
g60
(dp4050
g68
I4
ssg69
g4044
sg62
(lp4051
g55
(g64
g57
NtRp4052
(dp4053
g60
(dp4054
g68
I3
ssg69
Nsg62
(lp4055
g55
(g71
g57
NtRp4056
(dp4057
g60
(dp4058
sg69
g4052
sg62
(lp4059
g55
(g76
g57
NtRp4060
(dp4061
g60
(dp4062
sg69
g4056
sg62
(lp4063
g55
(g56
g57
NtRp4064
(dp4065
g60
(dp4066
g68
I3
ssg69
g4060
sg62
(lp4067
g3997
(S's\x0c\x00\x00\x00Get involved'
tRp4068
asbasbasbag55
(g71
g57
NtRp4069
(dp4070
g60
(dp4071
sg69
g4052
sg62
(lp4072
g55
(g76
g57
NtRp4073
(dp4074
g60
(dp4075
sg69
g4069
sg62
(lp4076
g55
(g56
g57
NtRp4077
(dp4078
g60
(dp4079
g68
I3
ssg69
g4073
sg62
(lp4080
g98
asbasbasbag55
(g71
g57
NtRp4081
(dp4082
g60
(dp4083
sg69
g4052
sg62
(lp4084
g55
(g76
g57
NtRp4085
(dp4086
g60
(dp4087
sg69
g4081
sg62
(lp4088
g55
(g56
g57
NtRp4089
(dp4090
g60
(dp4091
g68
I3
ssg69
g4085
sg62
(lp4092
S'/grammateus3/default/page/get-involved'
p4093
asbasbasbag55
(g71
g57
NtRp4094
(dp4095
g60
(dp4096
sg69
g4052
sg62
(lp4097
g55
(g76
g57
NtRp4098
(dp4099
g60
(dp4100
sg69
g4094
sg62
(lp4101
g55
(g56
g57
NtRp4102
(dp4103
g60
(dp4104
g68
I3
ssg69
g4098
sg62
(lp4105
g55
(g64
g57
NtRp4106
(dp4107
g60
(dp4108
g68
I2
ssg69
Nsg62
(lp4109
sbasbasbasbasbasbasbasbag55
(g71
g57
NtRp4110
(dp4111
g60
(dp4112
sg69
g3965
sg62
(lp4113
g55
(g76
g57
NtRp4114
(dp4115
g60
(dp4116
sg69
g4110
sg62
(lp4117
g55
(g56
g57
NtRp4118
(dp4119
g60
(dp4120
g68
I4
ssg69
g4114
sg62
(lp4121
g55
(g64
g57
NtRp4122
(dp4123
g60
(dp4124
g68
I3
ssg69
Nsg62
(lp4125
g55
(g71
g57
NtRp4126
(dp4127
g60
(dp4128
sg69
g4122
sg62
(lp4129
g55
(g76
g57
NtRp4130
(dp4131
g60
(dp4132
sg69
g4126
sg62
(lp4133
g55
(g56
g57
NtRp4134
(dp4135
g60
(dp4136
g68
I3
ssg69
g4130
sg62
(lp4137
g3997
(S't\x04\x00\x00\x00Help'
tRp4138
asbasbasbag55
(g71
g57
NtRp4139
(dp4140
g60
(dp4141
sg69
g4122
sg62
(lp4142
g55
(g76
g57
NtRp4143
(dp4144
g60
(dp4145
sg69
g4139
sg62
(lp4146
g55
(g56
g57
NtRp4147
(dp4148
g60
(dp4149
g68
I3
ssg69
g4143
sg62
(lp4150
g98
asbasbasbag55
(g71
g57
NtRp4151
(dp4152
g60
(dp4153
sg69
g4122
sg62
(lp4154
g55
(g76
g57
NtRp4155
(dp4156
g60
(dp4157
sg69
g4151
sg62
(lp4158
g55
(g56
g57
NtRp4159
(dp4160
g60
(dp4161
g68
I3
ssg69
g4155
sg62
(lp4162
S'/grammateus3/default/page/help'
p4163
asbasbasbag55
(g71
g57
NtRp4164
(dp4165
g60
(dp4166
sg69
g4122
sg62
(lp4167
g55
(g76
g57
NtRp4168
(dp4169
g60
(dp4170
sg69
g4164
sg62
(lp4171
g55
(g56
g57
NtRp4172
(dp4173
g60
(dp4174
g68
I3
ssg69
g4168
sg62
(lp4175
g55
(g64
g57
NtRp4176
(dp4177
g60
(dp4178
g68
I2
ssg69
Nsg62
(lp4179
sbasbasbasbasbasbasbasbag55
(g71
g57
NtRp4180
(dp4181
g60
(dp4182
sg69
g3965
sg62
(lp4183
g55
(g76
g57
NtRp4184
(dp4185
g60
(dp4186
sg69
g4180
sg62
(lp4187
g55
(g56
g57
NtRp4188
(dp4189
g60
(dp4190
g68
I4
ssg69
g4184
sg62
(lp4191
g55
(g64
g57
NtRp4192
(dp4193
g60
(dp4194
g68
I3
ssg69
Nsg62
(lp4195
g55
(g71
g57
NtRp4196
(dp4197
g60
(dp4198
sg69
g4192
sg62
(lp4199
g55
(g76
g57
NtRp4200
(dp4201
g60
(dp4202
sg69
g4196
sg62
(lp4203
g55
(g56
g57
NtRp4204
(dp4205
g60
(dp4206
g68
I3
ssg69
g4200
sg62
(lp4207
g3997
(S's\x0b\x00\x00\x00Bug reports'
tRp4208
asbasbasbag55
(g71
g57
NtRp4209
(dp4210
g60
(dp4211
sg69
g4192
sg62
(lp4212
g55
(g76
g57
NtRp4213
(dp4214
g60
(dp4215
sg69
g4209
sg62
(lp4216
g55
(g56
g57
NtRp4217
(dp4218
g60
(dp4219
g68
I3
ssg69
g4213
sg62
(lp4220
g98
asbasbasbag55
(g71
g57
NtRp4221
(dp4222
g60
(dp4223
sg69
g4192
sg62
(lp4224
g55
(g76
g57
NtRp4225
(dp4226
g60
(dp4227
sg69
g4221
sg62
(lp4228
g55
(g56
g57
NtRp4229
(dp4230
g60
(dp4231
g68
I3
ssg69
g4225
sg62
(lp4232
S'/grammateus3/default/page/bugs'
p4233
asbasbasbag55
(g71
g57
NtRp4234
(dp4235
g60
(dp4236
sg69
g4192
sg62
(lp4237
g55
(g76
g57
NtRp4238
(dp4239
g60
(dp4240
sg69
g4234
sg62
(lp4241
g55
(g56
g57
NtRp4242
(dp4243
g60
(dp4244
g68
I3
ssg69
g4238
sg62
(lp4245
g55
(g64
g57
NtRp4246
(dp4247
g60
(dp4248
g68
I2
ssg69
Nsg62
(lp4249
sbasbasbasbasbasbasbasbag55
(g71
g57
NtRp4250
(dp4251
g60
(dp4252
sg69
g3965
sg62
(lp4253
g55
(g76
g57
NtRp4254
(dp4255
g60
(dp4256
sg69
g4250
sg62
(lp4257
g55
(g56
g57
NtRp4258
(dp4259
g60
(dp4260
g68
I4
ssg69
g4254
sg62
(lp4261
g55
(g64
g57
NtRp4262
(dp4263
g60
(dp4264
g68
I3
ssg69
Nsg62
(lp4265
g55
(g71
g57
NtRp4266
(dp4267
g60
(dp4268
sg69
g4262
sg62
(lp4269
g55
(g76
g57
NtRp4270
(dp4271
g60
(dp4272
sg69
g4266
sg62
(lp4273
g55
(g56
g57
NtRp4274
(dp4275
g60
(dp4276
g68
I3
ssg69
g4270
sg62
(lp4277
g3997
(S't\x07\x00\x00\x00Roadmap'
tRp4278
asbasbasbag55
(g71
g57
NtRp4279
(dp4280
g60
(dp4281
sg69
g4262
sg62
(lp4282
g55
(g76
g57
NtRp4283
(dp4284
g60
(dp4285
sg69
g4279
sg62
(lp4286
g55
(g56
g57
NtRp4287
(dp4288
g60
(dp4289
g68
I3
ssg69
g4283
sg62
(lp4290
g98
asbasbasbag55
(g71
g57
NtRp4291
(dp4292
g60
(dp4293
sg69
g4262
sg62
(lp4294
g55
(g76
g57
NtRp4295
(dp4296
g60
(dp4297
sg69
g4291
sg62
(lp4298
g55
(g56
g57
NtRp4299
(dp4300
g60
(dp4301
g68
I3
ssg69
g4295
sg62
(lp4302
S'/grammateus3/default/page/roadmap'
p4303
asbasbasbag55
(g71
g57
NtRp4304
(dp4305
g60
(dp4306
sg69
g4262
sg62
(lp4307
g55
(g76
g57
NtRp4308
(dp4309
g60
(dp4310
sg69
g4304
sg62
(lp4311
g55
(g56
g57
NtRp4312
(dp4313
g60
(dp4314
g68
I3
ssg69
g4308
sg62
(lp4315
g55
(g64
g57
NtRp4316
(dp4317
g60
(dp4318
g68
I2
ssg69
Nsg62
(lp4319
sbasbasbasbasbasbasbasbag55
(g71
g57
NtRp4320
(dp4321
g60
(dp4322
sg69
g3965
sg62
(lp4323
g55
(g76
g57
NtRp4324
(dp4325
g60
(dp4326
sg69
g4320
sg62
(lp4327
g55
(g56
g57
NtRp4328
(dp4329
g60
(dp4330
g68
I4
ssg69
g4324
sg62
(lp4331
g55
(g64
g57
NtRp4332
(dp4333
g60
(dp4334
g68
I3
ssg69
Nsg62
(lp4335
g55
(g71
g57
NtRp4336
(dp4337
g60
(dp4338
sg69
g4332
sg62
(lp4339
g55
(g76
g57
NtRp4340
(dp4341
g60
(dp4342
sg69
g4336
sg62
(lp4343
g55
(g56
g57
NtRp4344
(dp4345
g60
(dp4346
g68
I3
ssg69
g4340
sg62
(lp4347
g3997
(S't\t\x00\x00\x00Copyright'
tRp4348
asbasbasbag55
(g71
g57
NtRp4349
(dp4350
g60
(dp4351
sg69
g4332
sg62
(lp4352
g55
(g76
g57
NtRp4353
(dp4354
g60
(dp4355
sg69
g4349
sg62
(lp4356
g55
(g56
g57
NtRp4357
(dp4358
g60
(dp4359
g68
I3
ssg69
g4353
sg62
(lp4360
g98
asbasbasbag55
(g71
g57
NtRp4361
(dp4362
g60
(dp4363
sg69
g4332
sg62
(lp4364
g55
(g76
g57
NtRp4365
(dp4366
g60
(dp4367
sg69
g4361
sg62
(lp4368
g55
(g56
g57
NtRp4369
(dp4370
g60
(dp4371
g68
I3
ssg69
g4365
sg62
(lp4372
S'/grammateus3/default/page/copyright'
p4373
asbasbasbag55
(g71
g57
NtRp4374
(dp4375
g60
(dp4376
sg69
g4332
sg62
(lp4377
g55
(g76
g57
NtRp4378
(dp4379
g60
(dp4380
sg69
g4374
sg62
(lp4381
g55
(g56
g57
NtRp4382
(dp4383
g60
(dp4384
g68
I3
ssg69
g4378
sg62
(lp4385
g55
(g64
g57
NtRp4386
(dp4387
g60
(dp4388
g68
I2
ssg69
Nsg62
(lp4389
sbasbasbasbasbasbasbasbag55
(g71
g57
NtRp4390
(dp4391
g60
(dp4392
sg69
g3965
sg62
(lp4393
g55
(g76
g57
NtRp4394
(dp4395
g60
(dp4396
sg69
g4390
sg62
(lp4397
g55
(g56
g57
NtRp4398
(dp4399
g60
(dp4400
g68
I4
ssg69
g4394
sg62
(lp4401
g55
(g64
g57
NtRp4402
(dp4403
g60
(dp4404
g68
I3
ssg69
Nsg62
(lp4405
g55
(g71
g57
NtRp4406
(dp4407
g60
(dp4408
sg69
g4402
sg62
(lp4409
g55
(g76
g57
NtRp4410
(dp4411
g60
(dp4412
sg69
g4406
sg62
(lp4413
g55
(g56
g57
NtRp4414
(dp4415
g60
(dp4416
g68
I3
ssg69
g4410
sg62
(lp4417
g3997
(S's\n\x00\x00\x00Contact us'
tRp4418
asbasbasbag55
(g71
g57
NtRp4419
(dp4420
g60
(dp4421
sg69
g4402
sg62
(lp4422
g55
(g76
g57
NtRp4423
(dp4424
g60
(dp4425
sg69
g4419
sg62
(lp4426
g55
(g56
g57
NtRp4427
(dp4428
g60
(dp4429
g68
I3
ssg69
g4423
sg62
(lp4430
g98
asbasbasbag55
(g71
g57
NtRp4431
(dp4432
g60
(dp4433
sg69
g4402
sg62
(lp4434
g55
(g76
g57
NtRp4435
(dp4436
g60
(dp4437
sg69
g4431
sg62
(lp4438
g55
(g56
g57
NtRp4439
(dp4440
g60
(dp4441
g68
I3
ssg69
g4435
sg62
(lp4442
S'/grammateus3/default/page/contact'
p4443
asbasbasbag55
(g71
g57
NtRp4444
(dp4445
g60
(dp4446
sg69
g4402
sg62
(lp4447
g55
(g76
g57
NtRp4448
(dp4449
g60
(dp4450
sg69
g4444
sg62
(lp4451
g55
(g56
g57
NtRp4452
(dp4453
g60
(dp4454
g68
I3
ssg69
g4448
sg62
(lp4455
g55
(g64
g57
NtRp4456
(dp4457
g60
(dp4458
g68
I2
ssg69
Nsg62
(lp4459
sbasbasbasbasbasbasbasbasbasbasbasbag55
(g71
g57
NtRp4460
(dp4461
g60
(dp4462
sg69
g3492
sg62
(lp4463
g55
(g76
g57
NtRp4464
(dp4465
g60
(dp4466
g80
g81
ssg69
g4460
sg62
(lp4467
S'meta'
p4468
asbag55
(g76
g57
NtRp4469
(dp4470
g60
(dp4471
g87
g88
ssg69
g4460
sg62
(lp4472
S':'
asbag55
(g76
g57
NtRp4473
(dp4474
g60
(dp4475
sg69
g4460
sg62
(lp4476
g55
(g56
g57
NtRp4477
(dp4478
g60
(dp4479
g68
I5
ssg69
g4473
sg62
(lp4480
g55
(g64
g57
NtRp4481
(dp4482
g60
(dp4483
g68
I4
ssg69
Nsg62
(lp4484
g55
(g71
g57
NtRp4485
(dp4486
g60
(dp4487
sg69
g4481
sg62
(lp4488
g55
(g76
g57
NtRp4489
(dp4490
g60
(dp4491
g80
g81
ssg69
g4485
sg62
(lp4492
S'author'
p4493
asbag55
(g76
g57
NtRp4494
(dp4495
g60
(dp4496
g87
g88
ssg69
g4485
sg62
(lp4497
S':'
asbag55
(g76
g57
NtRp4498
(dp4499
g60
(dp4500
sg69
g4485
sg62
(lp4501
g55
(g56
g57
NtRp4502
(dp4503
g60
(dp4504
g68
I4
ssg69
g4498
sg62
(lp4505
S'Ian W. Scott <you@example.com>'
p4506
asbasbasbag55
(g71
g57
NtRp4507
(dp4508
g60
(dp4509
sg69
g4481
sg62
(lp4510
g55
(g76
g57
NtRp4511
(dp4512
g60
(dp4513
g80
g81
ssg69
g4507
sg62
(lp4514
S'copyright'
p4515
asbag55
(g76
g57
NtRp4516
(dp4517
g60
(dp4518
g87
g88
ssg69
g4507
sg62
(lp4519
S':'
asbag55
(g76
g57
NtRp4520
(dp4521
g60
(dp4522
sg69
g4507
sg62
(lp4523
g55
(g56
g57
NtRp4524
(dp4525
g60
(dp4526
g68
I4
ssg69
g4520
sg62
(lp4527
S'Copyright 2006-2012'
p4528
asbasbasbag55
(g71
g57
NtRp4529
(dp4530
g60
(dp4531
sg69
g4481
sg62
(lp4532
g55
(g76
g57
NtRp4533
(dp4534
g60
(dp4535
g80
g81
ssg69
g4529
sg62
(lp4536
S'description'
p4537
asbag55
(g76
g57
NtRp4538
(dp4539
g60
(dp4540
g87
g88
ssg69
g4529
sg62
(lp4541
S':'
asbag55
(g76
g57
NtRp4542
(dp4543
g60
(dp4544
sg69
g4529
sg62
(lp4545
g55
(g56
g57
NtRp4546
(dp4547
g60
(dp4548
g68
I4
ssg69
g4542
sg62
(lp4549
S'Free-access editions of the "Old Testament Pseudepigrapha"    and related literature'
p4550
asbasbasbag55
(g71
g57
NtRp4551
(dp4552
g60
(dp4553
sg69
g4481
sg62
(lp4554
g55
(g76
g57
NtRp4555
(dp4556
g60
(dp4557
g80
g81
ssg69
g4551
sg62
(lp4558
S'generator'
p4559
asbag55
(g76
g57
NtRp4560
(dp4561
g60
(dp4562
g87
g88
ssg69
g4551
sg62
(lp4563
S':'
asbag55
(g76
g57
NtRp4564
(dp4565
g60
(dp4566
sg69
g4551
sg62
(lp4567
g55
(g56
g57
NtRp4568
(dp4569
g60
(dp4570
g68
I4
ssg69
g4564
sg62
(lp4571
S'Web2py Web Framework'
p4572
asbasbasbag55
(g71
g57
NtRp4573
(dp4574
g60
(dp4575
sg69
g4481
sg62
(lp4576
g55
(g76
g57
NtRp4577
(dp4578
g60
(dp4579
g80
g81
ssg69
g4573
sg62
(lp4580
S'keywords'
p4581
asbag55
(g76
g57
NtRp4582
(dp4583
g60
(dp4584
g87
g88
ssg69
g4573
sg62
(lp4585
S':'
asbag55
(g76
g57
NtRp4586
(dp4587
g60
(dp4588
sg69
g4573
sg62
(lp4589
g55
(g56
g57
NtRp4590
(dp4591
g60
(dp4592
g68
I4
ssg69
g4586
sg62
(lp4593
S'early judaism, religion, ancient, literature, Pseudepigrapha,    apocrypha, textual criticism, primary texts, sources, manuscripts'
p4594
asbasbasbasbasbasbasbag55
(g71
g57
NtRp4595
(dp4596
g60
(dp4597
sg69
g3492
sg62
(lp4598
g55
(g76
g57
NtRp4599
(dp4600
g60
(dp4601
g80
g81
ssg69
g4595
sg62
(lp4602
S'postprocessing'
p4603
asbag55
(g76
g57
NtRp4604
(dp4605
g60
(dp4606
g87
g88
ssg69
g4595
sg62
(lp4607
S':'
asbag55
(g76
g57
NtRp4608
(dp4609
g60
(dp4610
sg69
g4595
sg62
(lp4611
g55
(g56
g57
NtRp4612
(dp4613
g60
(dp4614
g68
I5
ssg69
g4608
sg62
(lp4615
g55
(g64
g57
NtRp4616
(dp4617
g60
(dp4618
g68
I4
ssg69
Nsg62
(lp4619
sbasbasbasbag55
(g71
g57
NtRp4620
(dp4621
g60
(dp4622
sg69
g3492
sg62
(lp4623
g55
(g76
g57
NtRp4624
(dp4625
g60
(dp4626
g80
g81
ssg69
g4620
sg62
(lp4627
S'session_filename'
p4628
asbag55
(g76
g57
NtRp4629
(dp4630
g60
(dp4631
g87
g88
ssg69
g4620
sg62
(lp4632
S':'
asbag55
(g76
g57
NtRp4633
(dp4634
g60
(dp4635
sg69
g4620
sg62
(lp4636
g55
(g56
g57
NtRp4637
(dp4638
g60
(dp4639
g68
I5
ssg69
g4633
sg62
(lp4640
S'/home/ian/web/web2py/applications/grammateus3/sessions/127.0.0.1-bb3b6261-f2ec-4d2c-8cda-d8b97c689411'
p4641
asbasbasbag55
(g71
g57
NtRp4642
(dp4643
g60
(dp4644
sg69
g3492
sg62
(lp4645
g55
(g76
g57
NtRp4646
(dp4647
g60
(dp4648
g80
g81
ssg69
g4642
sg62
(lp4649
S'session_id'
p4650
asbag55
(g76
g57
NtRp4651
(dp4652
g60
(dp4653
g87
g88
ssg69
g4642
sg62
(lp4654
S':'
asbag55
(g76
g57
NtRp4655
(dp4656
g60
(dp4657
sg69
g4642
sg62
(lp4658
g55
(g56
g57
NtRp4659
(dp4660
g60
(dp4661
g68
I5
ssg69
g4655
sg62
(lp4662
S'127.0.0.1-bb3b6261-f2ec-4d2c-8cda-d8b97c689411'
p4663
asbasbasbag55
(g71
g57
NtRp4664
(dp4665
g60
(dp4666
sg69
g3492
sg62
(lp4667
g55
(g76
g57
NtRp4668
(dp4669
g60
(dp4670
g80
g81
ssg69
g4664
sg62
(lp4671
S'session_id_name'
p4672
asbag55
(g76
g57
NtRp4673
(dp4674
g60
(dp4675
g87
g88
ssg69
g4664
sg62
(lp4676
S':'
asbag55
(g76
g57
NtRp4677
(dp4678
g60
(dp4679
sg69
g4664
sg62
(lp4680
g55
(g56
g57
NtRp4681
(dp4682
g60
(dp4683
g68
I5
ssg69
g4677
sg62
(lp4684
g3549
asbasbasbag55
(g71
g57
NtRp4685
(dp4686
g60
(dp4687
sg69
g3492
sg62
(lp4688
g55
(g76
g57
NtRp4689
(dp4690
g60
(dp4691
g80
g81
ssg69
g4685
sg62
(lp4692
S'session_new'
p4693
asbag55
(g76
g57
NtRp4694
(dp4695
g60
(dp4696
g87
g88
ssg69
g4685
sg62
(lp4697
S':'
asbag55
(g76
g57
NtRp4698
(dp4699
g60
(dp4700
sg69
g4685
sg62
(lp4701
g55
(g56
g57
NtRp4702
(dp4703
g60
(dp4704
g68
I5
ssg69
g4698
sg62
(lp4705
g1852
asbasbasbag55
(g71
g57
NtRp4706
(dp4707
g60
(dp4708
sg69
g3492
sg62
(lp4709
g55
(g76
g57
NtRp4710
(dp4711
g60
(dp4712
g80
g81
ssg69
g4706
sg62
(lp4713
S'status'
p4714
asbag55
(g76
g57
NtRp4715
(dp4716
g60
(dp4717
g87
g88
ssg69
g4706
sg62
(lp4718
S':'
asbag55
(g76
g57
NtRp4719
(dp4720
g60
(dp4721
sg69
g4706
sg62
(lp4722
g55
(g56
g57
NtRp4723
(dp4724
g60
(dp4725
g68
I5
ssg69
g4719
sg62
(lp4726
S'200'
p4727
asbasbasbag55
(g71
g57
NtRp4728
(dp4729
g60
(dp4730
sg69
g3492
sg62
(lp4731
g55
(g76
g57
NtRp4732
(dp4733
g60
(dp4734
g80
g81
ssg69
g4728
sg62
(lp4735
S'subtitle'
p4736
asbag55
(g76
g57
NtRp4737
(dp4738
g60
(dp4739
g87
g88
ssg69
g4728
sg62
(lp4740
S':'
asbag55
(g76
g57
NtRp4741
(dp4742
g60
(dp4743
sg69
g4728
sg62
(lp4744
g55
(g56
g57
NtRp4745
(dp4746
g60
(dp4747
g68
I5
ssg69
g4741
sg62
(lp4748
g3997
(S'sh\x00\x00\x00Developing and Publishing Accurate Texts of the "Old Testament Pseudepigrapha"    and related literature'
tRp4749
asbasbasbag55
(g71
g57
NtRp4750
(dp4751
g60
(dp4752
sg69
g3492
sg62
(lp4753
g55
(g76
g57
NtRp4754
(dp4755
g60
(dp4756
g80
g81
ssg69
g4750
sg62
(lp4757
S'title'
p4758
asbag55
(g76
g57
NtRp4759
(dp4760
g60
(dp4761
g87
g88
ssg69
g4750
sg62
(lp4762
S':'
asbag55
(g76
g57
NtRp4763
(dp4764
g60
(dp4765
sg69
g4750
sg62
(lp4766
g55
(g56
g57
NtRp4767
(dp4768
g60
(dp4769
g68
I5
ssg69
g4763
sg62
(lp4770
S'The Online Critical Pseudepigrapha'
p4771
asbasbasbag55
(g71
g57
NtRp4772
(dp4773
g60
(dp4774
sg69
g3492
sg62
(lp4775
g55
(g76
g57
NtRp4776
(dp4777
g60
(dp4778
g80
g81
ssg69
g4772
sg62
(lp4779
g2537
asbag55
(g76
g57
NtRp4780
(dp4781
g60
(dp4782
g87
g88
ssg69
g4772
sg62
(lp4783
S':'
asbag55
(g76
g57
NtRp4784
(dp4785
g60
(dp4786
sg69
g4772
sg62
(lp4787
g55
(g56
g57
NtRp4788
(dp4789
g60
(dp4790
g68
I5
ssg69
g4784
sg62
(lp4791
g2550
asbasbasbag55
(g71
g57
NtRp4792
(dp4793
g60
(dp4794
sg69
g3492
sg62
(lp4795
g55
(g76
g57
NtRp4796
(dp4797
g60
(dp4798
g80
g81
ssg69
g4792
sg62
(lp4799
S'view'
p4800
asbag55
(g76
g57
NtRp4801
(dp4802
g60
(dp4803
g87
g88
ssg69
g4792
sg62
(lp4804
S':'
asbag55
(g76
g57
NtRp4805
(dp4806
g60
(dp4807
sg69
g4792
sg62
(lp4808
g55
(g56
g57
NtRp4809
(dp4810
g60
(dp4811
g68
I5
ssg69
g4805
sg62
(lp4812
S'docs/text.html'
p4813
asbasbasbasbasbsS'locals'
p4814
(dp4815
S'Service'
p4816
S"<class 'gluon.tools.Service'>"
p4817
sS'OBJECT'
p4818
S"<class 'gluon.html.OBJECT'>"
p4819
sS'SQLDB'
p4820
S"<class 'gluon.dal.DAL'>"
p4821
sg3474
S"<Storage {'_Session__hash': '\\xc8[\\xd5\\xc1#\\xd8e\\x10\\xe3\\x06\\x0ba\\xddT\\x92m'}>"
p4822
sS'LINK'
p4823
S"<class 'gluon.html.LINK'>"
p4824
sS'BR'
p4825
S"<class 'gluon.html.BR'>"
p4826
sS'local_import'
p4827
S'<function <lambda>>'
p4828
sS'OPTGROUP'
p4829
S"<class 'gluon.html.OPTGROUP'>"
p4830
sS'PRE'
p4831
S"<class 'gluon.html.PRE'>"
p4832
sS'IS_INT_IN_RANGE'
p4833
S"<class 'gluon.validators.IS_INT_IN_RANGE'>"
p4834
sS'IS_LOWER'
p4835
S"<class 'gluon.validators.IS_LOWER'>"
p4836
sS'IS_STRONG'
p4837
S"<class 'gluon.validators.IS_STRONG'>"
p4838
sS'Recaptcha'
p4839
S"<class 'gluon.tools.Recaptcha'>"
p4840
sS'cache'
p4841
S'<gluon.cache.Cache object>'
p4842
sS'IS_IN_DB'
p4843
S"<class 'gluon.validators.IS_IN_DB'>"
p4844
sS'TAG'
p4845
S'<gluon.html.__TAG__ object>'
p4846
sS'SQLField'
p4847
S"<class 'gluon.dal.Field'>"
p4848
sS'mail'
p4849
S'<gluon.tools.Mail object>'
p4850
sS'BODY'
p4851
S"<class 'gluon.html.BODY'>"
p4852
sS'IS_DATE_IN_RANGE'
p4853
S"<class 'gluon.validators.IS_DATE_IN_RANGE'>"
p4854
sS'TH'
p4855
S"<class 'gluon.html.TH'>"
p4856
sS'URL'
p4857
S'<function URL>'
p4858
sS'__file__'
p4859
S"'/home/ian/web/web2py/applications/grammateus3/models/menu.py'"
p4860
sS'db'
p4861
S"<DAL {'auth_event': <Table {'origin': <gluon.dal...': <gluon.dal.Field object at 0x7f03e0279a90>}>}>"
p4862
sS'auth'
p4863
S'<gluon.tools.Auth object>'
p4864
sS'P'
S"<class 'gluon.html.P'>"
p4865
sS'TFOOT'
p4866
S"<class 'gluon.html.TFOOT'>"
p4867
sS'XHTML'
p4868
S"<class 'gluon.html.XHTML'>"
p4869
sS'datetime'
p4870
S"<module 'datetime' from '/usr/lib/python2.7/lib-dynload/datetime.so'>"
p4871
sS'ON'
p4872
g1852
sS'OL'
p4873
S"<class 'gluon.html.OL'>"
p4874
sS'TEXTAREA'
p4875
S"<class 'gluon.html.TEXTAREA'>"
p4876
sS'MENU'
p4877
S"<class 'gluon.html.MENU'>"
p4878
sS'LOAD'
p4879
S'<function LOAD>'
p4880
sS'CODE'
p4881
S"<class 'gluon.html.CODE'>"
p4882
sS'HTTP'
p4883
S"<class 'gluon.http.HTTP'>"
p4884
sS'HR'
p4885
S"<class 'gluon.html.HR'>"
p4886
sS'IS_DATETIME'
p4887
S"<class 'gluon.validators.IS_DATETIME'>"
p4888
sS'HEAD'
p4889
S"<class 'gluon.html.HEAD'>"
p4890
sS'LABEL'
p4891
S"<class 'gluon.html.LABEL'>"
p4892
sS'CLEANUP'
p4893
S"<class 'gluon.validators.CLEANUP'>"
p4894
sS'plugins'
p4895
S'<gluon.tools.PluginManager object>'
p4896
sS'SELECT'
p4897
S"<class 'gluon.html.SELECT'>"
p4898
sS'CENTER'
p4899
S"<class 'gluon.html.CENTER'>"
p4900
sS'prettydate'
p4901
S'<function prettydate>'
p4902
sS'Crud'
p4903
S"<class 'gluon.tools.Crud'>"
p4904
sS'Auth'
p4905
S"<class 'gluon.tools.Auth'>"
p4906
sS'filename'
p4907
S"'1En'"
p4908
sS'__builtins__'
p4909
S"{'ArithmeticError': <type 'exceptions.ArithmeticError'>, 'AssertionError': <type 'exceptions.AssertionError'>, 'AttributeError': <type 'exceptions.AttributeError'>, 'BaseException': <type 'exceptions.BaseException'>, 'BufferError': <type 'exceptions.BufferError'>, 'BytesWarning': <type 'exceptions.BytesWarning'>, 'DeprecationWarning': <type 'exceptions.DeprecationWarning'>, 'EOFError': <type 'exceptions.EOFError'>, 'Ellipsis': Ellipsis, 'EnvironmentError': <type 'exceptions.EnvironmentError'>, ...}"
p4910
sS'HTML'
p4911
S"<class 'gluon.html.HTML'>"
p4912
sS'SQLFORM'
p4913
S"<class 'gluon.sqlhtml.SQLFORM'>"
p4914
sS'EM'
p4915
S"<class 'gluon.html.EM'>"
p4916
sS'redirect'
p4917
S'<function redirect>'
p4918
sS'FIELDSET'
p4919
S"<class 'gluon.html.FIELDSET'>"
p4920
sS'IS_EQUAL_TO'
p4921
S"<class 'gluon.validators.IS_EQUAL_TO'>"
p4922
sS'embed64'
p4923
S'<function embed64>'
p4924
sS'IS_LIST_OF'
p4925
S"<class 'gluon.validators.IS_LIST_OF'>"
p4926
sS'INPUT'
p4927
S"<class 'gluon.html.INPUT'>"
p4928
sS'EMBED'
p4929
S"<class 'gluon.html.EMBED'>"
p4930
sS'_'
S'<function _>'
p4931
sS'FORM'
p4932
S"<class 'gluon.html.FORM'>"
p4933
sS'H2'
p4934
S"<class 'gluon.html.H2'>"
p4935
sS'H3'
p4936
S"<class 'gluon.html.H3'>"
p4937
sS'BUTTON'
p4938
S"<class 'gluon.html.BUTTON'>"
p4939
sS'H1'
p4940
S"<class 'gluon.html.H1'>"
p4941
sS'H6'
p4942
S"<class 'gluon.html.H6'>"
p4943
sS'H4'
p4944
S"<class 'gluon.html.H4'>"
p4945
sS'H5'
p4946
S"<class 'gluon.html.H5'>"
p4947
sS'UL'
p4948
S"<class 'gluon.html.UL'>"
p4949
sS'IS_UPPER'
p4950
S"<class 'gluon.validators.IS_UPPER'>"
p4951
sS'xmlescape'
p4952
S'<function xmlescape>'
p4953
sS'IS_TIME'
p4954
S"<class 'gluon.validators.IS_TIME'>"
p4955
sS'OPTION'
p4956
S"<class 'gluon.html.OPTION'>"
p4957
sS'TITLE'
p4958
S"<class 'gluon.html.TITLE'>"
p4959
sS'CRYPT'
p4960
S"<class 'gluon.validators.CRYPT'>"
p4961
sS'IS_EMPTY_OR'
p4962
S"<class 'gluon.validators.IS_EMPTY_OR'>"
p4963
sS'MARKMIN'
p4964
S"<class 'gluon.html.MARKMIN'>"
p4965
sS'COL'
p4966
S"<class 'gluon.html.COL'>"
p4967
sS'service'
p4968
S'<gluon.tools.Service object>'
p4969
sS'SCRIPT'
p4970
S"<class 'gluon.html.SCRIPT'>"
p4971
sS'TABLE'
p4972
S"<class 'gluon.html.TABLE'>"
p4973
sS'IS_IPV4'
p4974
S"<class 'gluon.validators.IS_IPV4'>"
p4975
sS'IS_LENGTH'
p4976
S"<class 'gluon.validators.IS_LENGTH'>"
p4977
sS'XML'
p4978
S"<class 'gluon.html.XML'>"
p4979
sS'B'
S"<class 'gluon.html.B'>"
p4980
sS'IMG'
p4981
S"<class 'gluon.html.IMG'>"
p4982
sS'SQLTABLE'
p4983
S"<class 'gluon.sqlhtml.SQLTABLE'>"
p4984
sS'IS_MATCH'
p4985
S"<class 'gluon.validators.IS_MATCH'>"
p4986
sS'IS_ALPHANUMERIC'
p4987
S"<class 'gluon.validators.IS_ALPHANUMERIC'>"
p4988
sS'SPAN'
p4989
S"<class 'gluon.html.SPAN'>"
p4990
sS'IS_SLUG'
p4991
S"<class 'gluon.validators.IS_SLUG'>"
p4992
sS'BEAUTIFY'
p4993
S"<class 'gluon.html.BEAUTIFY'>"
p4994
sS'META'
p4995
S"<class 'gluon.html.META'>"
p4996
sS'IS_DATE'
p4997
S"<class 'gluon.validators.IS_DATE'>"
p4998
sS'IS_EMAIL'
p4999
S"<class 'gluon.validators.IS_EMAIL'>"
p5000
sS'IS_NOT_EMPTY'
p5001
S"<class 'gluon.validators.IS_NOT_EMPTY'>"
p5002
sg54
S"<Storage {'body': <cStringIO.StringO object at 0..._vars': <Storage {}>, 'post_vars': <Storage {}>}>"
p5003
sS'TBODY'
p5004
S"<class 'gluon.html.TBODY'>"
p5005
sS'CAT'
p5006
S"<class 'gluon.html.CAT'>"
p5007
sS'Field'
p5008
S"<class 'gluon.dal.Field'>"
p5009
sS'DIV'
p5010
S"<class 'gluon.html.DIV'>"
p5011
sS'LEGEND'
p5012
S"<class 'gluon.html.LEGEND'>"
p5013
sS'load_url'
p5014
S"'/grammateus3/docs/section.load/1En'"
p5015
sS'COLGROUP'
p5016
S"<class 'gluon.html.COLGROUP'>"
p5017
sS'DAL'
p5018
S"<class 'gluon.dal.DAL'>"
p5019
sS'TT'
p5020
S"<class 'gluon.html.TT'>"
p5021
sS'TR'
p5022
S"<class 'gluon.html.TR'>"
p5023
sS'LI'
p5024
S"<class 'gluon.html.LI'>"
p5025
sS'IFRAME'
p5026
S"<class 'gluon.html.IFRAME'>"
p5027
sS'TD'
p5028
S"<class 'gluon.html.TD'>"
p5029
sS'PluginManager'
p5030
S"<class 'gluon.tools.PluginManager'>"
p5031
sS'IS_URL'
p5032
S"<class 'gluon.validators.IS_URL'>"
p5033
sS'A'
S"<class 'gluon.html.A'>"
p5034
sS'STYLE'
p5035
S"<class 'gluon.html.STYLE'>"
p5036
sS'IS_DATETIME_IN_RANGE'
p5037
S"<class 'gluon.validators.IS_DATETIME_IN_RANGE'>"
p5038
sS'IS_IMAGE'
p5039
S"<class 'gluon.validators.IS_IMAGE'>"
p5040
sS'I'
S"<class 'gluon.html.I'>"
p5041
sS'crud'
p5042
S'<gluon.tools.Crud object>'
p5043
sS'IS_NOT_IN_DB'
p5044
S"<class 'gluon.validators.IS_NOT_IN_DB'>"
p5045
sg3487
S"<Storage {'status': 200, 'body': <cStringIO.Stri...0236e60>, 'files': [], 'view': 'docs/text.html'}>"
p5046
sS'THEAD'
p5047
S"<class 'gluon.html.THEAD'>"
p5048
sS'IS_NULL_OR'
p5049
S"<class 'gluon.validators.IS_EMPTY_OR'>"
p5050
sS'IS_FLOAT_IN_RANGE'
p5051
S"<class 'gluon.validators.IS_FLOAT_IN_RANGE'>"
p5052
sS'IS_EXPR'
p5053
S"<class 'gluon.validators.IS_EXPR'>"
p5054
sS'T'
S'<gluon.languages.translator object>'
p5055
sS'IS_IN_SET'
p5056
S"<class 'gluon.validators.IS_IN_SET'>"
p5057
sS'IS_UPLOAD_FILENAME'
p5058
S"<class 'gluon.validators.IS_UPLOAD_FILENAME'>"
p5059
sS'IS_DECIMAL_IN_RANGE'
p5060
S"<class 'gluon.validators.IS_DECIMAL_IN_RANGE'>"
p5061
sssS'traceback'
p5062
S'Traceback (most recent call last):\n  File "/home/ian/web/web2py/gluon/main.py", line 493, in wsgibase\n    serve_controller(request, response, session)\n  File "/home/ian/web/web2py/gluon/main.py", line 207, in serve_controller\n    run_view_in(response._view_environment)\n  File "/home/ian/web/web2py/gluon/compileapp.py", line 608, in run_view_in\n    context=environment)\n  File "/home/ian/web/web2py/gluon/template.py", line 821, in parse_template\n    return str(TemplateParser(text, context=context, path=path, lexers=lexers, delimiters=delimiters))\n  File "/home/ian/web/web2py/gluon/template.py", line 315, in __init__\n    self.parse(text)\n  File "/home/ian/web/web2py/gluon/template.py", line 794, in parse\n    self.extend(extend)\n  File "/home/ian/web/web2py/gluon/template.py", line 480, in extend\n    _super_nodes = super_nodes)\n  File "/home/ian/web/web2py/gluon/template.py", line 315, in __init__\n    self.parse(text)\n  File "/home/ian/web/web2py/gluon/template.py", line 794, in parse\n    self.extend(extend)\n  File "/home/ian/web/web2py/gluon/template.py", line 480, in extend\n    _super_nodes = super_nodes)\n  File "/home/ian/web/web2py/gluon/template.py", line 315, in __init__\n    self.parse(text)\n  File "/home/ian/web/web2py/gluon/template.py", line 715, in parse\n    self.include(top, value)\n  File "/home/ian/web/web2py/gluon/template.py", line 449, in include\n    text = self._get_file_text(filename)\n  File "/home/ian/web/web2py/gluon/template.py", line 430, in _get_file_text\n    filename = eval(filename, self.context)\n  File "<string>", line 1, in <module>\nNameError: name \'plugin_framework\' is not defined\n'
p5063
s.