(dp1
S'output'
p2
S"<type 'exceptions.SyntaxError'> invalid syntax (docs.py, line 36)"
p3
sS'layer'
p4
S'/home/iscott/web/web2py/applications/grammateus3/controllers/docs.py'
p5
sS'code'
p6
S'# coding: utf8\nfrom lxml import etree\n\nfrom parse import BookParser\n\nimport pprint\n\nimport re\n\n"""\nList of session objects used in text display:\nsession.filename\nsession.info -- dict; parsed results of BookParser class for current doc\nsession.title -- string; title of current doc\nsession.versions -- list; names of all versions in current doc\n"""\n\ndef index():\n    filename = request.args[0]\n    return dict(filename = filename)\n\ndef text():\n    filename = request.args[0]\n    #TODO: provide fallback and prompt if no filename is given in url\n    \n    #url to pass to web2py load helper in view to load doc section via ajax\n    load_url = URL(\'docs\', \'section.load\', args=filename)\n\n    return dict(load_url = load_url, filename = filename)\n\ndef section():\n    """\n    populates a single text pane via the section.load view (refreshable via ajax)\n    """\n    #print url input for debugging purposes\n    varlist = str(k) + \':\' + str(v) for k, v in request.vars.items()\n    print \'start of section() method with url \', request.url\n    #get filename from end of url and parse the file with BookParser class\n    filename = request.args[0]\n    print filename\n    book_file = \'applications/grammateus3/static/docs/%s.xml\' % filename\n    p = BookParser(book_file)\n    info = p.book_info()\n    #get title of document\n    title = info[\'title\']\n\n    #get names of all versions of current doc and select the version to display\n    versions = [version[\'title\'] for version in info[\'versions\']]     \n    if \'version\' in request.vars:\n        current_version = request.vars[\'version\'].replace(\'_\', \' \')\n        #move selected version to top of list for selectbox\n        i = versions.index(current_version)\n        versions.insert(0, versions.pop(i))\n    else:\n        current_version = versions[0]\n\n    #find selected version in parsed text\n    for version in info[\'versions\']:\n        for k, v in version.items():\n            if k == \'title\' and v == current_version:\n                curv = version\n                vlang = curv[\'language\']\n                levels = curv[\'organisation_levels\']\n            else:\n                pass\n\n    #get list of mss\n    mslist = [k.strip() for k, v in curv[\'manuscript\'].items()]\n    print \'mslist\', mslist\n    #use the third url argument as manuscript name if present, otherwise default to first version\n    #check for \'newval\' value, indicating the version has changed\n    if \'type\' in request.vars and request.vars[\'type\'] != \'newval\':\n        current_ms = request.vars[\'type\'].replace(\'_\', \' \')\n        current_ms = current_ms.strip()\n        print \'current_ms\', current_ms\n        #move selected text type to top of list for ms selectbox\n        i = mslist.index(current_ms)\n        mslist.insert(0, mslist.pop(i))        \n    else:\n        current_ms = mslist[0]\n\n    #build hierarchical dict of references\n    reflist = [ref for ref, units in curv[\'text_structure\'].items()]\n\n    #build list for starting ref\n    if \'from\' in request.vars:\n        from_input = request.vars[\'from\']\n        start_sel = from_input.split(\'-\')\n        del start_sel[-1]\n        print \'using url ref\'\n    else:\n        firstref = reflist[0]\n        firstref_parts = re.split(\'[:\\.,;_-]\', firstref)\n        start_sel = [firstref_parts[l-1] for l in range(levels)]\n        print \'using default first ref\'\n\n    #build list for ending ref\n    if \'to\' in request.vars:                \n        to_input = request.vars[\'to\']\n        end_sel = to_input.split(\'-\')\n        del end_sel[-1]\n    else:\n        end_sel = start_sel\n    print \'start_sel\', start_sel\n    print \'end_sel\', end_sel\n    #gather text from units within the selected section of the doc\n    #filters the current version for only readings in the current\n    #text type\n    sel_text = []\n    for ref, units in curv[\'text_structure\'].items():\n        ref_parts = re.split(\'[:\\.,;_-]\', ref)\n        if int(ref_parts[0]) >= int(start_sel[0]) and int(ref_parts[0]) <= int(end_sel[0]):\n                print ref_parts\n                sel_text.append(SPAN(ref, _class = \'ref\'))\n                for unit_ref, unit_val in units.items():\n                    for mss, raw_text in unit_val.items():\n                        if current_ms[-1] != \' \':\n                            current_ms += \' \'\n                        if current_ms in (mss + \' \'):\n                            if len(units) > 1:\n                                sel_text.append(A(raw_text, _class = vlang, _href=unit_ref))\n                            else:\n                                sel_text.append(SPAN(raw_text, _class = vlang))\n                        else:\n                            pass\n\n    return dict(title = title, versions = versions, current_version = current_version, \n                info = info, filename = filename, mslist = mslist, \n                sel_text = sel_text, levels = levels, start_sel = start_sel, \n                end_sel = end_sel)\n\n\ndef test():\n    filename = request.args[0]\n    book_file = \'applications/grammateus3/static/docs/%s.xml\' % filename\n    p = BookParser(book_file)\n    info = p.book_info()\n\n    title = info[\'title\']\n    for version in info[\'versions\']:\n        for key, value in version.items():\n            if key != \'text_structure\':\n                print \'Version\', key, \'-->\', value\n\n            else:\n                print \'Version textstructure\'\n                for ref, ref_val in value.items():\n                    for unit, unit_val in ref_val.items():\n                        for mss, mss_val in unit_val.items():\n                            print \'\\t\', ref, \'-->\', unit, \'-->\', mss, \'-->\', mss_val\n        print \'************\'\n    print\n    print\n\n    return dict(title = title, info = info)\n\nresponse._vars=response._caller(text)\n'
p7
sS'snapshot'
p8
(dp9
S'exception'
p10
(dp11
S'__getslice__'
p12
S"<method-wrapper '__getslice__' of exceptions.SyntaxError object>"
p13
sS'text'
p14
S'"    varlist = str(k) + \':\' + str(v) for k, v in request.vars.items()\\n"'
p15
sS'__str__'
p16
S"<method-wrapper '__str__' of exceptions.SyntaxError object>"
p17
sS'__reduce__'
p18
S'<built-in method __reduce__ of exceptions.SyntaxError object>'
p19
sS'__dict__'
p20
S'{}'
p21
sS'__sizeof__'
p22
S'<built-in method __sizeof__ of exceptions.SyntaxError object>'
p23
sS'__init__'
p24
S"<method-wrapper '__init__' of exceptions.SyntaxError object>"
p25
sS'__setattr__'
p26
S"<method-wrapper '__setattr__' of exceptions.SyntaxError object>"
p27
sS'__reduce_ex__'
p28
S'<built-in method __reduce_ex__ of exceptions.SyntaxError object>'
p29
sS'__new__'
p30
S'<built-in method __new__ of type object>'
p31
sS'__format__'
p32
S'<built-in method __format__ of exceptions.SyntaxError object>'
p33
sS'__class__'
p34
S"<type 'exceptions.SyntaxError'>"
p35
sS'filename'
p36
S"'/home/iscott/web/web2py/applications/grammateus3/controllers/docs.py'"
p37
sS'lineno'
p38
S'36'
p39
sS'msg'
p40
S"'invalid syntax'"
p41
sS'__doc__'
p42
S"'Invalid syntax.'"
p43
sS'__getitem__'
p44
S"<method-wrapper '__getitem__' of exceptions.SyntaxError object>"
p45
sS'__setstate__'
p46
S'<built-in method __setstate__ of exceptions.SyntaxError object>'
p47
sS'__getattribute__'
p48
S"<method-wrapper '__getattribute__' of exceptions.SyntaxError object>"
p49
sS'print_file_and_line'
p50
S'None'
p51
sS'args'
p52
S'(\'invalid syntax\', (\'/home/iscott/web/web2py/applications/grammateus3/controllers/docs.py\', 36, 39, "    varlist = str(k) + \':\' + str(v) for k, v in request.vars.items()\\n"))'
p53
sS'__subclasshook__'
p54
S'<built-in method __subclasshook__ of type object>'
p55
sS'offset'
p56
S'39'
p57
sS'__unicode__'
p58
S'<built-in method __unicode__ of exceptions.SyntaxError object>'
p59
sS'__delattr__'
p60
S"<method-wrapper '__delattr__' of exceptions.SyntaxError object>"
p61
sS'__repr__'
p62
S"<method-wrapper '__repr__' of exceptions.SyntaxError object>"
p63
sS'__hash__'
p64
S"<method-wrapper '__hash__' of exceptions.SyntaxError object>"
p65
ssS'evalue'
p66
S'invalid syntax (docs.py, line 36)'
p67
sS'request'
p68
ccopy_reg
_reconstructor
p69
(cgluon.html
BEAUTIFY
p70
c__builtin__
object
p71
NtRp72
(dp73
S'attributes'
p74
(dp75
sS'components'
p76
(lp77
g69
(cgluon.html
TABLE
p78
g71
NtRp79
(dp80
g74
(dp81
S'level'
p82
I5
ssS'parent'
p83
Nsg76
(lp84
g69
(cgluon.html
TR
p85
g71
NtRp86
(dp87
g74
(dp88
sg83
g79
sg76
(lp89
g69
(cgluon.html
TD
p90
g71
NtRp91
(dp92
g74
(dp93
S'_style'
p94
S'font-weight:bold;vertical-align:top'
p95
ssg83
g86
sg76
(lp96
S'ajax'
p97
asbag69
(g90
g71
NtRp98
(dp99
g74
(dp100
S'_valign'
p101
S'top'
p102
ssg83
g86
sg76
(lp103
S':'
asbag69
(g90
g71
NtRp104
(dp105
g74
(dp106
sg83
g86
sg76
(lp107
g69
(g70
g71
NtRp108
(dp109
g74
(dp110
g82
I5
ssg83
g104
sg76
(lp111
S'False'
p112
asbasbasbag69
(g85
g71
NtRp113
(dp114
g74
(dp115
sg83
g79
sg76
(lp116
g69
(g90
g71
NtRp117
(dp118
g74
(dp119
g94
g95
ssg83
g113
sg76
(lp120
S'application'
p121
asbag69
(g90
g71
NtRp122
(dp123
g74
(dp124
g101
g102
ssg83
g113
sg76
(lp125
S':'
asbag69
(g90
g71
NtRp126
(dp127
g74
(dp128
sg83
g113
sg76
(lp129
g69
(g70
g71
NtRp130
(dp131
g74
(dp132
g82
I5
ssg83
g126
sg76
(lp133
S'grammateus3'
p134
asbasbasbag69
(g85
g71
NtRp135
(dp136
g74
(dp137
sg83
g79
sg76
(lp138
g69
(g90
g71
NtRp139
(dp140
g74
(dp141
g94
g95
ssg83
g135
sg76
(lp142
g52
asbag69
(g90
g71
NtRp143
(dp144
g74
(dp145
g101
g102
ssg83
g135
sg76
(lp146
S':'
asbag69
(g90
g71
NtRp147
(dp148
g74
(dp149
sg83
g135
sg76
(lp150
g69
(g70
g71
NtRp151
(dp152
g74
(dp153
g82
I5
ssg83
g147
sg76
(lp154
g69
(g78
g71
NtRp155
(dp156
g74
(dp157
g82
I4
ssg83
Nsg76
(lp158
g69
(g85
g71
NtRp159
(dp160
g74
(dp161
sg83
g155
sg76
(lp162
g69
(g90
g71
NtRp163
(dp164
g74
(dp165
sg83
g159
sg76
(lp166
g69
(g70
g71
NtRp167
(dp168
g74
(dp169
g82
I4
ssg83
g163
sg76
(lp170
S'1En'
p171
asbasbasbasbasbasbasbag69
(g85
g71
NtRp172
(dp173
g74
(dp174
sg83
g79
sg76
(lp175
g69
(g90
g71
NtRp176
(dp177
g74
(dp178
g94
g95
ssg83
g172
sg76
(lp179
S'body'
p180
asbag69
(g90
g71
NtRp181
(dp182
g74
(dp183
g101
g102
ssg83
g172
sg76
(lp184
S':'
asbag69
(g90
g71
NtRp185
(dp186
g74
(dp187
sg83
g172
sg76
(lp188
g69
(g70
g71
NtRp189
(dp190
g74
(dp191
g82
I5
ssg83
g185
sg76
(lp192
S'<cStringIO.StringO object at 0xaf6dfc0>'
p193
asbasbasbag69
(g85
g71
NtRp194
(dp195
g74
(dp196
sg83
g79
sg76
(lp197
g69
(g90
g71
NtRp198
(dp199
g74
(dp200
g94
g95
ssg83
g194
sg76
(lp201
S'client'
p202
asbag69
(g90
g71
NtRp203
(dp204
g74
(dp205
g101
g102
ssg83
g194
sg76
(lp206
S':'
asbag69
(g90
g71
NtRp207
(dp208
g74
(dp209
sg83
g194
sg76
(lp210
g69
(g70
g71
NtRp211
(dp212
g74
(dp213
g82
I5
ssg83
g207
sg76
(lp214
S'127.0.0.1'
p215
asbasbasbag69
(g85
g71
NtRp216
(dp217
g74
(dp218
sg83
g79
sg76
(lp219
g69
(g90
g71
NtRp220
(dp221
g74
(dp222
g94
g95
ssg83
g216
sg76
(lp223
S'controller'
p224
asbag69
(g90
g71
NtRp225
(dp226
g74
(dp227
g101
g102
ssg83
g216
sg76
(lp228
S':'
asbag69
(g90
g71
NtRp229
(dp230
g74
(dp231
sg83
g216
sg76
(lp232
g69
(g70
g71
NtRp233
(dp234
g74
(dp235
g82
I5
ssg83
g229
sg76
(lp236
S'docs'
p237
asbasbasbag69
(g85
g71
NtRp238
(dp239
g74
(dp240
sg83
g79
sg76
(lp241
g69
(g90
g71
NtRp242
(dp243
g74
(dp244
g94
g95
ssg83
g238
sg76
(lp245
S'cookies'
p246
asbag69
(g90
g71
NtRp247
(dp248
g74
(dp249
g101
g102
ssg83
g238
sg76
(lp250
S':'
asbag69
(g90
g71
NtRp251
(dp252
g74
(dp253
sg83
g238
sg76
(lp254
g69
(g70
g71
NtRp255
(dp256
g74
(dp257
g82
I5
ssg83
g251
sg76
(lp258
g69
(g78
g71
NtRp259
(dp260
g74
(dp261
g82
I4
ssg83
Nsg76
(lp262
g69
(g85
g71
NtRp263
(dp264
g74
(dp265
sg83
g259
sg76
(lp266
g69
(g90
g71
NtRp267
(dp268
g74
(dp269
g94
g95
ssg83
g263
sg76
(lp270
S'session_id_admin'
p271
asbag69
(g90
g71
NtRp272
(dp273
g74
(dp274
g101
g102
ssg83
g263
sg76
(lp275
S':'
asbag69
(g90
g71
NtRp276
(dp277
g74
(dp278
sg83
g263
sg76
(lp279
g69
(g70
g71
NtRp280
(dp281
g74
(dp282
g82
I4
ssg83
g276
sg76
(lp283
g69
(g78
g71
NtRp284
(dp285
g74
(dp286
g82
I3
ssg83
Nsg76
(lp287
g69
(g85
g71
NtRp288
(dp289
g74
(dp290
sg83
g284
sg76
(lp291
g69
(g90
g71
NtRp292
(dp293
g74
(dp294
g94
g95
ssg83
g288
sg76
(lp295
S'comment'
p296
asbag69
(g90
g71
NtRp297
(dp298
g74
(dp299
g101
g102
ssg83
g288
sg76
(lp300
S':'
asbag69
(g90
g71
NtRp301
(dp302
g74
(dp303
sg83
g288
sg76
(lp304
g69
(g70
g71
NtRp305
(dp306
g74
(dp307
g82
I3
ssg83
g301
sg76
(lp308
S''
asbasbasbag69
(g85
g71
NtRp309
(dp310
g74
(dp311
sg83
g284
sg76
(lp312
g69
(g90
g71
NtRp313
(dp314
g74
(dp315
g94
g95
ssg83
g309
sg76
(lp316
S'domain'
p317
asbag69
(g90
g71
NtRp318
(dp319
g74
(dp320
g101
g102
ssg83
g309
sg76
(lp321
S':'
asbag69
(g90
g71
NtRp322
(dp323
g74
(dp324
sg83
g309
sg76
(lp325
g69
(g70
g71
NtRp326
(dp327
g74
(dp328
g82
I3
ssg83
g322
sg76
(lp329
S''
asbasbasbag69
(g85
g71
NtRp330
(dp331
g74
(dp332
sg83
g284
sg76
(lp333
g69
(g90
g71
NtRp334
(dp335
g74
(dp336
g94
g95
ssg83
g330
sg76
(lp337
S'expires'
p338
asbag69
(g90
g71
NtRp339
(dp340
g74
(dp341
g101
g102
ssg83
g330
sg76
(lp342
S':'
asbag69
(g90
g71
NtRp343
(dp344
g74
(dp345
sg83
g330
sg76
(lp346
g69
(g70
g71
NtRp347
(dp348
g74
(dp349
g82
I3
ssg83
g343
sg76
(lp350
S''
asbasbasbag69
(g85
g71
NtRp351
(dp352
g74
(dp353
sg83
g284
sg76
(lp354
g69
(g90
g71
NtRp355
(dp356
g74
(dp357
g94
g95
ssg83
g351
sg76
(lp358
S'httponly'
p359
asbag69
(g90
g71
NtRp360
(dp361
g74
(dp362
g101
g102
ssg83
g351
sg76
(lp363
S':'
asbag69
(g90
g71
NtRp364
(dp365
g74
(dp366
sg83
g351
sg76
(lp367
g69
(g70
g71
NtRp368
(dp369
g74
(dp370
g82
I3
ssg83
g364
sg76
(lp371
S''
asbasbasbag69
(g85
g71
NtRp372
(dp373
g74
(dp374
sg83
g284
sg76
(lp375
g69
(g90
g71
NtRp376
(dp377
g74
(dp378
g94
g95
ssg83
g372
sg76
(lp379
S'max-age'
p380
asbag69
(g90
g71
NtRp381
(dp382
g74
(dp383
g101
g102
ssg83
g372
sg76
(lp384
S':'
asbag69
(g90
g71
NtRp385
(dp386
g74
(dp387
sg83
g372
sg76
(lp388
g69
(g70
g71
NtRp389
(dp390
g74
(dp391
g82
I3
ssg83
g385
sg76
(lp392
S''
asbasbasbag69
(g85
g71
NtRp393
(dp394
g74
(dp395
sg83
g284
sg76
(lp396
g69
(g90
g71
NtRp397
(dp398
g74
(dp399
g94
g95
ssg83
g393
sg76
(lp400
S'path'
p401
asbag69
(g90
g71
NtRp402
(dp403
g74
(dp404
g101
g102
ssg83
g393
sg76
(lp405
S':'
asbag69
(g90
g71
NtRp406
(dp407
g74
(dp408
sg83
g393
sg76
(lp409
g69
(g70
g71
NtRp410
(dp411
g74
(dp412
g82
I3
ssg83
g406
sg76
(lp413
S''
asbasbasbag69
(g85
g71
NtRp414
(dp415
g74
(dp416
sg83
g284
sg76
(lp417
g69
(g90
g71
NtRp418
(dp419
g74
(dp420
g94
g95
ssg83
g414
sg76
(lp421
S'secure'
p422
asbag69
(g90
g71
NtRp423
(dp424
g74
(dp425
g101
g102
ssg83
g414
sg76
(lp426
S':'
asbag69
(g90
g71
NtRp427
(dp428
g74
(dp429
sg83
g414
sg76
(lp430
g69
(g70
g71
NtRp431
(dp432
g74
(dp433
g82
I3
ssg83
g427
sg76
(lp434
S''
asbasbasbag69
(g85
g71
NtRp435
(dp436
g74
(dp437
sg83
g284
sg76
(lp438
g69
(g90
g71
NtRp439
(dp440
g74
(dp441
g94
g95
ssg83
g435
sg76
(lp442
S'version'
p443
asbag69
(g90
g71
NtRp444
(dp445
g74
(dp446
g101
g102
ssg83
g435
sg76
(lp447
S':'
asbag69
(g90
g71
NtRp448
(dp449
g74
(dp450
sg83
g435
sg76
(lp451
g69
(g70
g71
NtRp452
(dp453
g74
(dp454
g82
I3
ssg83
g448
sg76
(lp455
S''
asbasbasbasbasbasbasbag69
(g85
g71
NtRp456
(dp457
g74
(dp458
sg83
g259
sg76
(lp459
g69
(g90
g71
NtRp460
(dp461
g74
(dp462
g94
g95
ssg83
g456
sg76
(lp463
S'session_id_bloglet'
p464
asbag69
(g90
g71
NtRp465
(dp466
g74
(dp467
g101
g102
ssg83
g456
sg76
(lp468
S':'
asbag69
(g90
g71
NtRp469
(dp470
g74
(dp471
sg83
g456
sg76
(lp472
g69
(g70
g71
NtRp473
(dp474
g74
(dp475
g82
I4
ssg83
g469
sg76
(lp476
g69
(g78
g71
NtRp477
(dp478
g74
(dp479
g82
I3
ssg83
Nsg76
(lp480
g69
(g85
g71
NtRp481
(dp482
g74
(dp483
sg83
g477
sg76
(lp484
g69
(g90
g71
NtRp485
(dp486
g74
(dp487
g94
g95
ssg83
g481
sg76
(lp488
g296
asbag69
(g90
g71
NtRp489
(dp490
g74
(dp491
g101
g102
ssg83
g481
sg76
(lp492
S':'
asbag69
(g90
g71
NtRp493
(dp494
g74
(dp495
sg83
g481
sg76
(lp496
g69
(g70
g71
NtRp497
(dp498
g74
(dp499
g82
I3
ssg83
g493
sg76
(lp500
S''
asbasbasbag69
(g85
g71
NtRp501
(dp502
g74
(dp503
sg83
g477
sg76
(lp504
g69
(g90
g71
NtRp505
(dp506
g74
(dp507
g94
g95
ssg83
g501
sg76
(lp508
g317
asbag69
(g90
g71
NtRp509
(dp510
g74
(dp511
g101
g102
ssg83
g501
sg76
(lp512
S':'
asbag69
(g90
g71
NtRp513
(dp514
g74
(dp515
sg83
g501
sg76
(lp516
g69
(g70
g71
NtRp517
(dp518
g74
(dp519
g82
I3
ssg83
g513
sg76
(lp520
S''
asbasbasbag69
(g85
g71
NtRp521
(dp522
g74
(dp523
sg83
g477
sg76
(lp524
g69
(g90
g71
NtRp525
(dp526
g74
(dp527
g94
g95
ssg83
g521
sg76
(lp528
g338
asbag69
(g90
g71
NtRp529
(dp530
g74
(dp531
g101
g102
ssg83
g521
sg76
(lp532
S':'
asbag69
(g90
g71
NtRp533
(dp534
g74
(dp535
sg83
g521
sg76
(lp536
g69
(g70
g71
NtRp537
(dp538
g74
(dp539
g82
I3
ssg83
g533
sg76
(lp540
S''
asbasbasbag69
(g85
g71
NtRp541
(dp542
g74
(dp543
sg83
g477
sg76
(lp544
g69
(g90
g71
NtRp545
(dp546
g74
(dp547
g94
g95
ssg83
g541
sg76
(lp548
g359
asbag69
(g90
g71
NtRp549
(dp550
g74
(dp551
g101
g102
ssg83
g541
sg76
(lp552
S':'
asbag69
(g90
g71
NtRp553
(dp554
g74
(dp555
sg83
g541
sg76
(lp556
g69
(g70
g71
NtRp557
(dp558
g74
(dp559
g82
I3
ssg83
g553
sg76
(lp560
S''
asbasbasbag69
(g85
g71
NtRp561
(dp562
g74
(dp563
sg83
g477
sg76
(lp564
g69
(g90
g71
NtRp565
(dp566
g74
(dp567
g94
g95
ssg83
g561
sg76
(lp568
g380
asbag69
(g90
g71
NtRp569
(dp570
g74
(dp571
g101
g102
ssg83
g561
sg76
(lp572
S':'
asbag69
(g90
g71
NtRp573
(dp574
g74
(dp575
sg83
g561
sg76
(lp576
g69
(g70
g71
NtRp577
(dp578
g74
(dp579
g82
I3
ssg83
g573
sg76
(lp580
S''
asbasbasbag69
(g85
g71
NtRp581
(dp582
g74
(dp583
sg83
g477
sg76
(lp584
g69
(g90
g71
NtRp585
(dp586
g74
(dp587
g94
g95
ssg83
g581
sg76
(lp588
g401
asbag69
(g90
g71
NtRp589
(dp590
g74
(dp591
g101
g102
ssg83
g581
sg76
(lp592
S':'
asbag69
(g90
g71
NtRp593
(dp594
g74
(dp595
sg83
g581
sg76
(lp596
g69
(g70
g71
NtRp597
(dp598
g74
(dp599
g82
I3
ssg83
g593
sg76
(lp600
S''
asbasbasbag69
(g85
g71
NtRp601
(dp602
g74
(dp603
sg83
g477
sg76
(lp604
g69
(g90
g71
NtRp605
(dp606
g74
(dp607
g94
g95
ssg83
g601
sg76
(lp608
g422
asbag69
(g90
g71
NtRp609
(dp610
g74
(dp611
g101
g102
ssg83
g601
sg76
(lp612
S':'
asbag69
(g90
g71
NtRp613
(dp614
g74
(dp615
sg83
g601
sg76
(lp616
g69
(g70
g71
NtRp617
(dp618
g74
(dp619
g82
I3
ssg83
g613
sg76
(lp620
S''
asbasbasbag69
(g85
g71
NtRp621
(dp622
g74
(dp623
sg83
g477
sg76
(lp624
g69
(g90
g71
NtRp625
(dp626
g74
(dp627
g94
g95
ssg83
g621
sg76
(lp628
g443
asbag69
(g90
g71
NtRp629
(dp630
g74
(dp631
g101
g102
ssg83
g621
sg76
(lp632
S':'
asbag69
(g90
g71
NtRp633
(dp634
g74
(dp635
sg83
g621
sg76
(lp636
g69
(g70
g71
NtRp637
(dp638
g74
(dp639
g82
I3
ssg83
g633
sg76
(lp640
S''
asbasbasbasbasbasbasbag69
(g85
g71
NtRp641
(dp642
g74
(dp643
sg83
g259
sg76
(lp644
g69
(g90
g71
NtRp645
(dp646
g74
(dp647
g94
g95
ssg83
g641
sg76
(lp648
S'session_id_grammateus3'
p649
asbag69
(g90
g71
NtRp650
(dp651
g74
(dp652
g101
g102
ssg83
g641
sg76
(lp653
S':'
asbag69
(g90
g71
NtRp654
(dp655
g74
(dp656
sg83
g641
sg76
(lp657
g69
(g70
g71
NtRp658
(dp659
g74
(dp660
g82
I4
ssg83
g654
sg76
(lp661
g69
(g78
g71
NtRp662
(dp663
g74
(dp664
g82
I3
ssg83
Nsg76
(lp665
g69
(g85
g71
NtRp666
(dp667
g74
(dp668
sg83
g662
sg76
(lp669
g69
(g90
g71
NtRp670
(dp671
g74
(dp672
g94
g95
ssg83
g666
sg76
(lp673
g296
asbag69
(g90
g71
NtRp674
(dp675
g74
(dp676
g101
g102
ssg83
g666
sg76
(lp677
S':'
asbag69
(g90
g71
NtRp678
(dp679
g74
(dp680
sg83
g666
sg76
(lp681
g69
(g70
g71
NtRp682
(dp683
g74
(dp684
g82
I3
ssg83
g678
sg76
(lp685
S''
asbasbasbag69
(g85
g71
NtRp686
(dp687
g74
(dp688
sg83
g662
sg76
(lp689
g69
(g90
g71
NtRp690
(dp691
g74
(dp692
g94
g95
ssg83
g686
sg76
(lp693
g317
asbag69
(g90
g71
NtRp694
(dp695
g74
(dp696
g101
g102
ssg83
g686
sg76
(lp697
S':'
asbag69
(g90
g71
NtRp698
(dp699
g74
(dp700
sg83
g686
sg76
(lp701
g69
(g70
g71
NtRp702
(dp703
g74
(dp704
g82
I3
ssg83
g698
sg76
(lp705
S''
asbasbasbag69
(g85
g71
NtRp706
(dp707
g74
(dp708
sg83
g662
sg76
(lp709
g69
(g90
g71
NtRp710
(dp711
g74
(dp712
g94
g95
ssg83
g706
sg76
(lp713
g338
asbag69
(g90
g71
NtRp714
(dp715
g74
(dp716
g101
g102
ssg83
g706
sg76
(lp717
S':'
asbag69
(g90
g71
NtRp718
(dp719
g74
(dp720
sg83
g706
sg76
(lp721
g69
(g70
g71
NtRp722
(dp723
g74
(dp724
g82
I3
ssg83
g718
sg76
(lp725
S''
asbasbasbag69
(g85
g71
NtRp726
(dp727
g74
(dp728
sg83
g662
sg76
(lp729
g69
(g90
g71
NtRp730
(dp731
g74
(dp732
g94
g95
ssg83
g726
sg76
(lp733
g359
asbag69
(g90
g71
NtRp734
(dp735
g74
(dp736
g101
g102
ssg83
g726
sg76
(lp737
S':'
asbag69
(g90
g71
NtRp738
(dp739
g74
(dp740
sg83
g726
sg76
(lp741
g69
(g70
g71
NtRp742
(dp743
g74
(dp744
g82
I3
ssg83
g738
sg76
(lp745
S''
asbasbasbag69
(g85
g71
NtRp746
(dp747
g74
(dp748
sg83
g662
sg76
(lp749
g69
(g90
g71
NtRp750
(dp751
g74
(dp752
g94
g95
ssg83
g746
sg76
(lp753
g380
asbag69
(g90
g71
NtRp754
(dp755
g74
(dp756
g101
g102
ssg83
g746
sg76
(lp757
S':'
asbag69
(g90
g71
NtRp758
(dp759
g74
(dp760
sg83
g746
sg76
(lp761
g69
(g70
g71
NtRp762
(dp763
g74
(dp764
g82
I3
ssg83
g758
sg76
(lp765
S''
asbasbasbag69
(g85
g71
NtRp766
(dp767
g74
(dp768
sg83
g662
sg76
(lp769
g69
(g90
g71
NtRp770
(dp771
g74
(dp772
g94
g95
ssg83
g766
sg76
(lp773
g401
asbag69
(g90
g71
NtRp774
(dp775
g74
(dp776
g101
g102
ssg83
g766
sg76
(lp777
S':'
asbag69
(g90
g71
NtRp778
(dp779
g74
(dp780
sg83
g766
sg76
(lp781
g69
(g70
g71
NtRp782
(dp783
g74
(dp784
g82
I3
ssg83
g778
sg76
(lp785
S''
asbasbasbag69
(g85
g71
NtRp786
(dp787
g74
(dp788
sg83
g662
sg76
(lp789
g69
(g90
g71
NtRp790
(dp791
g74
(dp792
g94
g95
ssg83
g786
sg76
(lp793
g422
asbag69
(g90
g71
NtRp794
(dp795
g74
(dp796
g101
g102
ssg83
g786
sg76
(lp797
S':'
asbag69
(g90
g71
NtRp798
(dp799
g74
(dp800
sg83
g786
sg76
(lp801
g69
(g70
g71
NtRp802
(dp803
g74
(dp804
g82
I3
ssg83
g798
sg76
(lp805
S''
asbasbasbag69
(g85
g71
NtRp806
(dp807
g74
(dp808
sg83
g662
sg76
(lp809
g69
(g90
g71
NtRp810
(dp811
g74
(dp812
g94
g95
ssg83
g806
sg76
(lp813
g443
asbag69
(g90
g71
NtRp814
(dp815
g74
(dp816
g101
g102
ssg83
g806
sg76
(lp817
S':'
asbag69
(g90
g71
NtRp818
(dp819
g74
(dp820
sg83
g806
sg76
(lp821
g69
(g70
g71
NtRp822
(dp823
g74
(dp824
g82
I3
ssg83
g818
sg76
(lp825
S''
asbasbasbasbasbasbasbag69
(g85
g71
NtRp826
(dp827
g74
(dp828
sg83
g259
sg76
(lp829
g69
(g90
g71
NtRp830
(dp831
g74
(dp832
g94
g95
ssg83
g826
sg76
(lp833
S'session_id_paideia'
p834
asbag69
(g90
g71
NtRp835
(dp836
g74
(dp837
g101
g102
ssg83
g826
sg76
(lp838
S':'
asbag69
(g90
g71
NtRp839
(dp840
g74
(dp841
sg83
g826
sg76
(lp842
g69
(g70
g71
NtRp843
(dp844
g74
(dp845
g82
I4
ssg83
g839
sg76
(lp846
g69
(g78
g71
NtRp847
(dp848
g74
(dp849
g82
I3
ssg83
Nsg76
(lp850
g69
(g85
g71
NtRp851
(dp852
g74
(dp853
sg83
g847
sg76
(lp854
g69
(g90
g71
NtRp855
(dp856
g74
(dp857
g94
g95
ssg83
g851
sg76
(lp858
g296
asbag69
(g90
g71
NtRp859
(dp860
g74
(dp861
g101
g102
ssg83
g851
sg76
(lp862
S':'
asbag69
(g90
g71
NtRp863
(dp864
g74
(dp865
sg83
g851
sg76
(lp866
g69
(g70
g71
NtRp867
(dp868
g74
(dp869
g82
I3
ssg83
g863
sg76
(lp870
S''
asbasbasbag69
(g85
g71
NtRp871
(dp872
g74
(dp873
sg83
g847
sg76
(lp874
g69
(g90
g71
NtRp875
(dp876
g74
(dp877
g94
g95
ssg83
g871
sg76
(lp878
g317
asbag69
(g90
g71
NtRp879
(dp880
g74
(dp881
g101
g102
ssg83
g871
sg76
(lp882
S':'
asbag69
(g90
g71
NtRp883
(dp884
g74
(dp885
sg83
g871
sg76
(lp886
g69
(g70
g71
NtRp887
(dp888
g74
(dp889
g82
I3
ssg83
g883
sg76
(lp890
S''
asbasbasbag69
(g85
g71
NtRp891
(dp892
g74
(dp893
sg83
g847
sg76
(lp894
g69
(g90
g71
NtRp895
(dp896
g74
(dp897
g94
g95
ssg83
g891
sg76
(lp898
g338
asbag69
(g90
g71
NtRp899
(dp900
g74
(dp901
g101
g102
ssg83
g891
sg76
(lp902
S':'
asbag69
(g90
g71
NtRp903
(dp904
g74
(dp905
sg83
g891
sg76
(lp906
g69
(g70
g71
NtRp907
(dp908
g74
(dp909
g82
I3
ssg83
g903
sg76
(lp910
S''
asbasbasbag69
(g85
g71
NtRp911
(dp912
g74
(dp913
sg83
g847
sg76
(lp914
g69
(g90
g71
NtRp915
(dp916
g74
(dp917
g94
g95
ssg83
g911
sg76
(lp918
g359
asbag69
(g90
g71
NtRp919
(dp920
g74
(dp921
g101
g102
ssg83
g911
sg76
(lp922
S':'
asbag69
(g90
g71
NtRp923
(dp924
g74
(dp925
sg83
g911
sg76
(lp926
g69
(g70
g71
NtRp927
(dp928
g74
(dp929
g82
I3
ssg83
g923
sg76
(lp930
S''
asbasbasbag69
(g85
g71
NtRp931
(dp932
g74
(dp933
sg83
g847
sg76
(lp934
g69
(g90
g71
NtRp935
(dp936
g74
(dp937
g94
g95
ssg83
g931
sg76
(lp938
g380
asbag69
(g90
g71
NtRp939
(dp940
g74
(dp941
g101
g102
ssg83
g931
sg76
(lp942
S':'
asbag69
(g90
g71
NtRp943
(dp944
g74
(dp945
sg83
g931
sg76
(lp946
g69
(g70
g71
NtRp947
(dp948
g74
(dp949
g82
I3
ssg83
g943
sg76
(lp950
S''
asbasbasbag69
(g85
g71
NtRp951
(dp952
g74
(dp953
sg83
g847
sg76
(lp954
g69
(g90
g71
NtRp955
(dp956
g74
(dp957
g94
g95
ssg83
g951
sg76
(lp958
g401
asbag69
(g90
g71
NtRp959
(dp960
g74
(dp961
g101
g102
ssg83
g951
sg76
(lp962
S':'
asbag69
(g90
g71
NtRp963
(dp964
g74
(dp965
sg83
g951
sg76
(lp966
g69
(g70
g71
NtRp967
(dp968
g74
(dp969
g82
I3
ssg83
g963
sg76
(lp970
S''
asbasbasbag69
(g85
g71
NtRp971
(dp972
g74
(dp973
sg83
g847
sg76
(lp974
g69
(g90
g71
NtRp975
(dp976
g74
(dp977
g94
g95
ssg83
g971
sg76
(lp978
g422
asbag69
(g90
g71
NtRp979
(dp980
g74
(dp981
g101
g102
ssg83
g971
sg76
(lp982
S':'
asbag69
(g90
g71
NtRp983
(dp984
g74
(dp985
sg83
g971
sg76
(lp986
g69
(g70
g71
NtRp987
(dp988
g74
(dp989
g82
I3
ssg83
g983
sg76
(lp990
S''
asbasbasbag69
(g85
g71
NtRp991
(dp992
g74
(dp993
sg83
g847
sg76
(lp994
g69
(g90
g71
NtRp995
(dp996
g74
(dp997
g94
g95
ssg83
g991
sg76
(lp998
g443
asbag69
(g90
g71
NtRp999
(dp1000
g74
(dp1001
g101
g102
ssg83
g991
sg76
(lp1002
S':'
asbag69
(g90
g71
NtRp1003
(dp1004
g74
(dp1005
sg83
g991
sg76
(lp1006
g69
(g70
g71
NtRp1007
(dp1008
g74
(dp1009
g82
I3
ssg83
g1003
sg76
(lp1010
S''
asbasbasbasbasbasbasbag69
(g85
g71
NtRp1011
(dp1012
g74
(dp1013
sg83
g259
sg76
(lp1014
g69
(g90
g71
NtRp1015
(dp1016
g74
(dp1017
g94
g95
ssg83
g1011
sg76
(lp1018
S'session_id_welcome'
p1019
asbag69
(g90
g71
NtRp1020
(dp1021
g74
(dp1022
g101
g102
ssg83
g1011
sg76
(lp1023
S':'
asbag69
(g90
g71
NtRp1024
(dp1025
g74
(dp1026
sg83
g1011
sg76
(lp1027
g69
(g70
g71
NtRp1028
(dp1029
g74
(dp1030
g82
I4
ssg83
g1024
sg76
(lp1031
g69
(g78
g71
NtRp1032
(dp1033
g74
(dp1034
g82
I3
ssg83
Nsg76
(lp1035
g69
(g85
g71
NtRp1036
(dp1037
g74
(dp1038
sg83
g1032
sg76
(lp1039
g69
(g90
g71
NtRp1040
(dp1041
g74
(dp1042
g94
g95
ssg83
g1036
sg76
(lp1043
g296
asbag69
(g90
g71
NtRp1044
(dp1045
g74
(dp1046
g101
g102
ssg83
g1036
sg76
(lp1047
S':'
asbag69
(g90
g71
NtRp1048
(dp1049
g74
(dp1050
sg83
g1036
sg76
(lp1051
g69
(g70
g71
NtRp1052
(dp1053
g74
(dp1054
g82
I3
ssg83
g1048
sg76
(lp1055
S''
asbasbasbag69
(g85
g71
NtRp1056
(dp1057
g74
(dp1058
sg83
g1032
sg76
(lp1059
g69
(g90
g71
NtRp1060
(dp1061
g74
(dp1062
g94
g95
ssg83
g1056
sg76
(lp1063
g317
asbag69
(g90
g71
NtRp1064
(dp1065
g74
(dp1066
g101
g102
ssg83
g1056
sg76
(lp1067
S':'
asbag69
(g90
g71
NtRp1068
(dp1069
g74
(dp1070
sg83
g1056
sg76
(lp1071
g69
(g70
g71
NtRp1072
(dp1073
g74
(dp1074
g82
I3
ssg83
g1068
sg76
(lp1075
S''
asbasbasbag69
(g85
g71
NtRp1076
(dp1077
g74
(dp1078
sg83
g1032
sg76
(lp1079
g69
(g90
g71
NtRp1080
(dp1081
g74
(dp1082
g94
g95
ssg83
g1076
sg76
(lp1083
g338
asbag69
(g90
g71
NtRp1084
(dp1085
g74
(dp1086
g101
g102
ssg83
g1076
sg76
(lp1087
S':'
asbag69
(g90
g71
NtRp1088
(dp1089
g74
(dp1090
sg83
g1076
sg76
(lp1091
g69
(g70
g71
NtRp1092
(dp1093
g74
(dp1094
g82
I3
ssg83
g1088
sg76
(lp1095
S''
asbasbasbag69
(g85
g71
NtRp1096
(dp1097
g74
(dp1098
sg83
g1032
sg76
(lp1099
g69
(g90
g71
NtRp1100
(dp1101
g74
(dp1102
g94
g95
ssg83
g1096
sg76
(lp1103
g359
asbag69
(g90
g71
NtRp1104
(dp1105
g74
(dp1106
g101
g102
ssg83
g1096
sg76
(lp1107
S':'
asbag69
(g90
g71
NtRp1108
(dp1109
g74
(dp1110
sg83
g1096
sg76
(lp1111
g69
(g70
g71
NtRp1112
(dp1113
g74
(dp1114
g82
I3
ssg83
g1108
sg76
(lp1115
S''
asbasbasbag69
(g85
g71
NtRp1116
(dp1117
g74
(dp1118
sg83
g1032
sg76
(lp1119
g69
(g90
g71
NtRp1120
(dp1121
g74
(dp1122
g94
g95
ssg83
g1116
sg76
(lp1123
g380
asbag69
(g90
g71
NtRp1124
(dp1125
g74
(dp1126
g101
g102
ssg83
g1116
sg76
(lp1127
S':'
asbag69
(g90
g71
NtRp1128
(dp1129
g74
(dp1130
sg83
g1116
sg76
(lp1131
g69
(g70
g71
NtRp1132
(dp1133
g74
(dp1134
g82
I3
ssg83
g1128
sg76
(lp1135
S''
asbasbasbag69
(g85
g71
NtRp1136
(dp1137
g74
(dp1138
sg83
g1032
sg76
(lp1139
g69
(g90
g71
NtRp1140
(dp1141
g74
(dp1142
g94
g95
ssg83
g1136
sg76
(lp1143
g401
asbag69
(g90
g71
NtRp1144
(dp1145
g74
(dp1146
g101
g102
ssg83
g1136
sg76
(lp1147
S':'
asbag69
(g90
g71
NtRp1148
(dp1149
g74
(dp1150
sg83
g1136
sg76
(lp1151
g69
(g70
g71
NtRp1152
(dp1153
g74
(dp1154
g82
I3
ssg83
g1148
sg76
(lp1155
S''
asbasbasbag69
(g85
g71
NtRp1156
(dp1157
g74
(dp1158
sg83
g1032
sg76
(lp1159
g69
(g90
g71
NtRp1160
(dp1161
g74
(dp1162
g94
g95
ssg83
g1156
sg76
(lp1163
g422
asbag69
(g90
g71
NtRp1164
(dp1165
g74
(dp1166
g101
g102
ssg83
g1156
sg76
(lp1167
S':'
asbag69
(g90
g71
NtRp1168
(dp1169
g74
(dp1170
sg83
g1156
sg76
(lp1171
g69
(g70
g71
NtRp1172
(dp1173
g74
(dp1174
g82
I3
ssg83
g1168
sg76
(lp1175
S''
asbasbasbag69
(g85
g71
NtRp1176
(dp1177
g74
(dp1178
sg83
g1032
sg76
(lp1179
g69
(g90
g71
NtRp1180
(dp1181
g74
(dp1182
g94
g95
ssg83
g1176
sg76
(lp1183
g443
asbag69
(g90
g71
NtRp1184
(dp1185
g74
(dp1186
g101
g102
ssg83
g1176
sg76
(lp1187
S':'
asbag69
(g90
g71
NtRp1188
(dp1189
g74
(dp1190
sg83
g1176
sg76
(lp1191
g69
(g70
g71
NtRp1192
(dp1193
g74
(dp1194
g82
I3
ssg83
g1188
sg76
(lp1195
S''
asbasbasbasbasbasbasbasbasbasbasbag69
(g85
g71
NtRp1196
(dp1197
g74
(dp1198
sg83
g79
sg76
(lp1199
g69
(g90
g71
NtRp1200
(dp1201
g74
(dp1202
g94
g95
ssg83
g1196
sg76
(lp1203
S'env'
p1204
asbag69
(g90
g71
NtRp1205
(dp1206
g74
(dp1207
g101
g102
ssg83
g1196
sg76
(lp1208
S':'
asbag69
(g90
g71
NtRp1209
(dp1210
g74
(dp1211
sg83
g1196
sg76
(lp1212
g69
(g70
g71
NtRp1213
(dp1214
g74
(dp1215
g82
I5
ssg83
g1209
sg76
(lp1216
g69
(g78
g71
NtRp1217
(dp1218
g74
(dp1219
g82
I4
ssg83
Nsg76
(lp1220
g69
(g85
g71
NtRp1221
(dp1222
g74
(dp1223
sg83
g1217
sg76
(lp1224
g69
(g90
g71
NtRp1225
(dp1226
g74
(dp1227
g94
g95
ssg83
g1221
sg76
(lp1228
S'app_folders'
p1229
asbag69
(g90
g71
NtRp1230
(dp1231
g74
(dp1232
g101
g102
ssg83
g1221
sg76
(lp1233
S':'
asbag69
(g90
g71
NtRp1234
(dp1235
g74
(dp1236
sg83
g1221
sg76
(lp1237
g69
(g70
g71
NtRp1238
(dp1239
g74
(dp1240
g82
I4
ssg83
g1234
sg76
(lp1241
S"set(['/home/iscott/web/web2py/applications/grammateus3/', '/home/iscott/web/web2py/applications/admin/', '/home/iscott/web/web2py/applications/welcome/'])"
p1242
asbasbasbag69
(g85
g71
NtRp1243
(dp1244
g74
(dp1245
sg83
g1217
sg76
(lp1246
g69
(g90
g71
NtRp1247
(dp1248
g74
(dp1249
g94
g95
ssg83
g1243
sg76
(lp1250
S'applications_parent'
p1251
asbag69
(g90
g71
NtRp1252
(dp1253
g74
(dp1254
g101
g102
ssg83
g1243
sg76
(lp1255
S':'
asbag69
(g90
g71
NtRp1256
(dp1257
g74
(dp1258
sg83
g1243
sg76
(lp1259
g69
(g70
g71
NtRp1260
(dp1261
g74
(dp1262
g82
I4
ssg83
g1256
sg76
(lp1263
S'/home/iscott/web/web2py'
p1264
asbasbasbag69
(g85
g71
NtRp1265
(dp1266
g74
(dp1267
sg83
g1217
sg76
(lp1268
g69
(g90
g71
NtRp1269
(dp1270
g74
(dp1271
g94
g95
ssg83
g1265
sg76
(lp1272
S'cmd_args'
p1273
asbag69
(g90
g71
NtRp1274
(dp1275
g74
(dp1276
g101
g102
ssg83
g1265
sg76
(lp1277
S':'
asbag69
(g90
g71
NtRp1278
(dp1279
g74
(dp1280
sg83
g1265
sg76
(lp1281
g69
(g70
g71
NtRp1282
(dp1283
g74
(dp1284
g82
I4
ssg83
g1278
sg76
(lp1285
g69
(g78
g71
NtRp1286
(dp1287
g74
(dp1288
g82
I3
ssg83
Nsg76
(lp1289
sbasbasbasbag69
(g85
g71
NtRp1290
(dp1291
g74
(dp1292
sg83
g1217
sg76
(lp1293
g69
(g90
g71
NtRp1294
(dp1295
g74
(dp1296
g94
g95
ssg83
g1290
sg76
(lp1297
S'cmd_options'
p1298
asbag69
(g90
g71
NtRp1299
(dp1300
g74
(dp1301
g101
g102
ssg83
g1290
sg76
(lp1302
S':'
asbag69
(g90
g71
NtRp1303
(dp1304
g74
(dp1305
sg83
g1290
sg76
(lp1306
g69
(g70
g71
NtRp1307
(dp1308
g74
(dp1309
g82
I4
ssg83
g1303
sg76
(lp1310
S"<Values at 0x9e62b8c: {'verbose': False, 'ip': '127.0.0.1', 'shutdown_timeout': 5, 'taskbar': False, 'nocron': False, 'pid_filename': 'httpserver.pid', 'maxthreads': None, 'softcron': False, 'server_name': 'ubuntu', 'bpython': False, 'nogui': False, 'port': 8000, 'extcron': False, 'debuglevel': 30, 'test': None, 'folder': '/home/iscott/web/web2py', 'config': '', 'import_models': False, 'winservice': '', 'shell': None, 'run': '', 'log_filename': 'httpserver.log', 'args': [''], 'socket_timeout': 1, 'ssl_ca_certificate': None, 'scheduler': None, 'profiler_filename': None, 'ssl_private_key': '', 'password': '<ask>', 'request_queue_size': 5, 'ssl_certificate': '', 'cronjob': False, 'numthreads': None, 'quiet': False, 'interfaces': None, 'minthreads': None, 'timeout': 10, 'plain': False, 'nobanner': False}>"
p1311
asbasbasbag69
(g85
g71
NtRp1312
(dp1313
g74
(dp1314
sg83
g1217
sg76
(lp1315
g69
(g90
g71
NtRp1316
(dp1317
g74
(dp1318
g94
g95
ssg83
g1312
sg76
(lp1319
S'db_sessions'
p1320
asbag69
(g90
g71
NtRp1321
(dp1322
g74
(dp1323
g101
g102
ssg83
g1312
sg76
(lp1324
S':'
asbag69
(g90
g71
NtRp1325
(dp1326
g74
(dp1327
sg83
g1312
sg76
(lp1328
g69
(g70
g71
NtRp1329
(dp1330
g74
(dp1331
g82
I4
ssg83
g1325
sg76
(lp1332
S'set([])'
p1333
asbasbasbag69
(g85
g71
NtRp1334
(dp1335
g74
(dp1336
sg83
g1217
sg76
(lp1337
g69
(g90
g71
NtRp1338
(dp1339
g74
(dp1340
g94
g95
ssg83
g1334
sg76
(lp1341
S'debugging'
p1342
asbag69
(g90
g71
NtRp1343
(dp1344
g74
(dp1345
g101
g102
ssg83
g1334
sg76
(lp1346
S':'
asbag69
(g90
g71
NtRp1347
(dp1348
g74
(dp1349
sg83
g1334
sg76
(lp1350
g69
(g70
g71
NtRp1351
(dp1352
g74
(dp1353
g82
I4
ssg83
g1347
sg76
(lp1354
g112
asbasbasbag69
(g85
g71
NtRp1355
(dp1356
g74
(dp1357
sg83
g1217
sg76
(lp1358
g69
(g90
g71
NtRp1359
(dp1360
g74
(dp1361
g94
g95
ssg83
g1355
sg76
(lp1362
S'gluon_parent'
p1363
asbag69
(g90
g71
NtRp1364
(dp1365
g74
(dp1366
g101
g102
ssg83
g1355
sg76
(lp1367
S':'
asbag69
(g90
g71
NtRp1368
(dp1369
g74
(dp1370
sg83
g1355
sg76
(lp1371
g69
(g70
g71
NtRp1372
(dp1373
g74
(dp1374
g82
I4
ssg83
g1368
sg76
(lp1375
S'/home/iscott/web/web2py'
p1376
asbasbasbag69
(g85
g71
NtRp1377
(dp1378
g74
(dp1379
sg83
g1217
sg76
(lp1380
g69
(g90
g71
NtRp1381
(dp1382
g74
(dp1383
g94
g95
ssg83
g1377
sg76
(lp1384
S'http_accept'
p1385
asbag69
(g90
g71
NtRp1386
(dp1387
g74
(dp1388
g101
g102
ssg83
g1377
sg76
(lp1389
S':'
asbag69
(g90
g71
NtRp1390
(dp1391
g74
(dp1392
sg83
g1377
sg76
(lp1393
g69
(g70
g71
NtRp1394
(dp1395
g74
(dp1396
g82
I4
ssg83
g1390
sg76
(lp1397
S'text/html,application/xhtml+xml,application/xml;q=0.9,*/*;q=0.8'
p1398
asbasbasbag69
(g85
g71
NtRp1399
(dp1400
g74
(dp1401
sg83
g1217
sg76
(lp1402
g69
(g90
g71
NtRp1403
(dp1404
g74
(dp1405
g94
g95
ssg83
g1399
sg76
(lp1406
S'http_accept_encoding'
p1407
asbag69
(g90
g71
NtRp1408
(dp1409
g74
(dp1410
g101
g102
ssg83
g1399
sg76
(lp1411
S':'
asbag69
(g90
g71
NtRp1412
(dp1413
g74
(dp1414
sg83
g1399
sg76
(lp1415
g69
(g70
g71
NtRp1416
(dp1417
g74
(dp1418
g82
I4
ssg83
g1412
sg76
(lp1419
S'gzip, deflate'
p1420
asbasbasbag69
(g85
g71
NtRp1421
(dp1422
g74
(dp1423
sg83
g1217
sg76
(lp1424
g69
(g90
g71
NtRp1425
(dp1426
g74
(dp1427
g94
g95
ssg83
g1421
sg76
(lp1428
S'http_accept_language'
p1429
asbag69
(g90
g71
NtRp1430
(dp1431
g74
(dp1432
g101
g102
ssg83
g1421
sg76
(lp1433
S':'
asbag69
(g90
g71
NtRp1434
(dp1435
g74
(dp1436
sg83
g1421
sg76
(lp1437
g69
(g70
g71
NtRp1438
(dp1439
g74
(dp1440
g82
I4
ssg83
g1434
sg76
(lp1441
S'en-us,en;q=0.5'
p1442
asbasbasbag69
(g85
g71
NtRp1443
(dp1444
g74
(dp1445
sg83
g1217
sg76
(lp1446
g69
(g90
g71
NtRp1447
(dp1448
g74
(dp1449
g94
g95
ssg83
g1443
sg76
(lp1450
S'http_cache_control'
p1451
asbag69
(g90
g71
NtRp1452
(dp1453
g74
(dp1454
g101
g102
ssg83
g1443
sg76
(lp1455
S':'
asbag69
(g90
g71
NtRp1456
(dp1457
g74
(dp1458
sg83
g1443
sg76
(lp1459
g69
(g70
g71
NtRp1460
(dp1461
g74
(dp1462
g82
I4
ssg83
g1456
sg76
(lp1463
S'max-age=0'
p1464
asbasbasbag69
(g85
g71
NtRp1465
(dp1466
g74
(dp1467
sg83
g1217
sg76
(lp1468
g69
(g90
g71
NtRp1469
(dp1470
g74
(dp1471
g94
g95
ssg83
g1465
sg76
(lp1472
S'http_connection'
p1473
asbag69
(g90
g71
NtRp1474
(dp1475
g74
(dp1476
g101
g102
ssg83
g1465
sg76
(lp1477
S':'
asbag69
(g90
g71
NtRp1478
(dp1479
g74
(dp1480
sg83
g1465
sg76
(lp1481
g69
(g70
g71
NtRp1482
(dp1483
g74
(dp1484
g82
I4
ssg83
g1478
sg76
(lp1485
S'keep-alive'
p1486
asbasbasbag69
(g85
g71
NtRp1487
(dp1488
g74
(dp1489
sg83
g1217
sg76
(lp1490
g69
(g90
g71
NtRp1491
(dp1492
g74
(dp1493
g94
g95
ssg83
g1487
sg76
(lp1494
S'http_cookie'
p1495
asbag69
(g90
g71
NtRp1496
(dp1497
g74
(dp1498
g101
g102
ssg83
g1487
sg76
(lp1499
S':'
asbag69
(g90
g71
NtRp1500
(dp1501
g74
(dp1502
sg83
g1487
sg76
(lp1503
g69
(g70
g71
NtRp1504
(dp1505
g74
(dp1506
g82
I4
ssg83
g1500
sg76
(lp1507
S'session_id_paideia=127.0.0.1-2edda130-d654-4b0f-a819-06652e443aa6; session_id_bloglet=127.0.0.1-e84b0934-9abc-4375-99c8-24980b610007; session_id_welcome=127.0.0.1-875183c3-33d3-41d0-8035-815b0ac6dec9; session_id_admin=127.0.0.1-dfd1439a-7b97-4261-9a07-bb7d5507c55f; session_id_grammateus3=127.0.0.1-03d15d8e-e891-4307-a6bf-5717208181cd'
p1508
asbasbasbag69
(g85
g71
NtRp1509
(dp1510
g74
(dp1511
sg83
g1217
sg76
(lp1512
g69
(g90
g71
NtRp1513
(dp1514
g74
(dp1515
g94
g95
ssg83
g1509
sg76
(lp1516
S'http_host'
p1517
asbag69
(g90
g71
NtRp1518
(dp1519
g74
(dp1520
g101
g102
ssg83
g1509
sg76
(lp1521
S':'
asbag69
(g90
g71
NtRp1522
(dp1523
g74
(dp1524
sg83
g1509
sg76
(lp1525
g69
(g70
g71
NtRp1526
(dp1527
g74
(dp1528
g82
I4
ssg83
g1522
sg76
(lp1529
S'127.0.0.1:8000'
p1530
asbasbasbag69
(g85
g71
NtRp1531
(dp1532
g74
(dp1533
sg83
g1217
sg76
(lp1534
g69
(g90
g71
NtRp1535
(dp1536
g74
(dp1537
g94
g95
ssg83
g1531
sg76
(lp1538
S'http_referer'
p1539
asbag69
(g90
g71
NtRp1540
(dp1541
g74
(dp1542
g101
g102
ssg83
g1531
sg76
(lp1543
S':'
asbag69
(g90
g71
NtRp1544
(dp1545
g74
(dp1546
sg83
g1531
sg76
(lp1547
g69
(g70
g71
NtRp1548
(dp1549
g74
(dp1550
g82
I4
ssg83
g1544
sg76
(lp1551
S'http://127.0.0.1:8000/grammateus3/docs/text/1En'
p1552
asbasbasbag69
(g85
g71
NtRp1553
(dp1554
g74
(dp1555
sg83
g1217
sg76
(lp1556
g69
(g90
g71
NtRp1557
(dp1558
g74
(dp1559
g94
g95
ssg83
g1553
sg76
(lp1560
S'http_user_agent'
p1561
asbag69
(g90
g71
NtRp1562
(dp1563
g74
(dp1564
g101
g102
ssg83
g1553
sg76
(lp1565
S':'
asbag69
(g90
g71
NtRp1566
(dp1567
g74
(dp1568
sg83
g1553
sg76
(lp1569
g69
(g70
g71
NtRp1570
(dp1571
g74
(dp1572
g82
I4
ssg83
g1566
sg76
(lp1573
S'Mozilla/5.0 (X11; Ubuntu; Linux i686; rv:10.0.2) Gecko/20100101 Firefox/10.0.2'
p1574
asbasbasbag69
(g85
g71
NtRp1575
(dp1576
g74
(dp1577
sg83
g1217
sg76
(lp1578
g69
(g90
g71
NtRp1579
(dp1580
g74
(dp1581
g94
g95
ssg83
g1575
sg76
(lp1582
S'is_jython'
p1583
asbag69
(g90
g71
NtRp1584
(dp1585
g74
(dp1586
g101
g102
ssg83
g1575
sg76
(lp1587
S':'
asbag69
(g90
g71
NtRp1588
(dp1589
g74
(dp1590
sg83
g1575
sg76
(lp1591
g69
(g70
g71
NtRp1592
(dp1593
g74
(dp1594
g82
I4
ssg83
g1588
sg76
(lp1595
g112
asbasbasbag69
(g85
g71
NtRp1596
(dp1597
g74
(dp1598
sg83
g1217
sg76
(lp1599
g69
(g90
g71
NtRp1600
(dp1601
g74
(dp1602
g94
g95
ssg83
g1596
sg76
(lp1603
S'is_pypy'
p1604
asbag69
(g90
g71
NtRp1605
(dp1606
g74
(dp1607
g101
g102
ssg83
g1596
sg76
(lp1608
S':'
asbag69
(g90
g71
NtRp1609
(dp1610
g74
(dp1611
sg83
g1596
sg76
(lp1612
g69
(g70
g71
NtRp1613
(dp1614
g74
(dp1615
g82
I4
ssg83
g1609
sg76
(lp1616
g112
asbasbasbag69
(g85
g71
NtRp1617
(dp1618
g74
(dp1619
sg83
g1217
sg76
(lp1620
g69
(g90
g71
NtRp1621
(dp1622
g74
(dp1623
g94
g95
ssg83
g1617
sg76
(lp1624
S'path_info'
p1625
asbag69
(g90
g71
NtRp1626
(dp1627
g74
(dp1628
g101
g102
ssg83
g1617
sg76
(lp1629
S':'
asbag69
(g90
g71
NtRp1630
(dp1631
g74
(dp1632
sg83
g1617
sg76
(lp1633
g69
(g70
g71
NtRp1634
(dp1635
g74
(dp1636
g82
I4
ssg83
g1630
sg76
(lp1637
S'/grammateus3/docs/text/1En'
p1638
asbasbasbag69
(g85
g71
NtRp1639
(dp1640
g74
(dp1641
sg83
g1217
sg76
(lp1642
g69
(g90
g71
NtRp1643
(dp1644
g74
(dp1645
g94
g95
ssg83
g1639
sg76
(lp1646
S'query_string'
p1647
asbag69
(g90
g71
NtRp1648
(dp1649
g74
(dp1650
g101
g102
ssg83
g1639
sg76
(lp1651
S':'
asbag69
(g90
g71
NtRp1652
(dp1653
g74
(dp1654
sg83
g1639
sg76
(lp1655
g69
(g70
g71
NtRp1656
(dp1657
g74
(dp1658
g82
I4
ssg83
g1652
sg76
(lp1659
S''
asbasbasbag69
(g85
g71
NtRp1660
(dp1661
g74
(dp1662
sg83
g1217
sg76
(lp1663
g69
(g90
g71
NtRp1664
(dp1665
g74
(dp1666
g94
g95
ssg83
g1660
sg76
(lp1667
S'remote_addr'
p1668
asbag69
(g90
g71
NtRp1669
(dp1670
g74
(dp1671
g101
g102
ssg83
g1660
sg76
(lp1672
S':'
asbag69
(g90
g71
NtRp1673
(dp1674
g74
(dp1675
sg83
g1660
sg76
(lp1676
g69
(g70
g71
NtRp1677
(dp1678
g74
(dp1679
g82
I4
ssg83
g1673
sg76
(lp1680
g215
asbasbasbag69
(g85
g71
NtRp1681
(dp1682
g74
(dp1683
sg83
g1217
sg76
(lp1684
g69
(g90
g71
NtRp1685
(dp1686
g74
(dp1687
g94
g95
ssg83
g1681
sg76
(lp1688
S'remote_port'
p1689
asbag69
(g90
g71
NtRp1690
(dp1691
g74
(dp1692
g101
g102
ssg83
g1681
sg76
(lp1693
S':'
asbag69
(g90
g71
NtRp1694
(dp1695
g74
(dp1696
sg83
g1681
sg76
(lp1697
g69
(g70
g71
NtRp1698
(dp1699
g74
(dp1700
g82
I4
ssg83
g1694
sg76
(lp1701
S'41971'
p1702
asbasbasbag69
(g85
g71
NtRp1703
(dp1704
g74
(dp1705
sg83
g1217
sg76
(lp1706
g69
(g90
g71
NtRp1707
(dp1708
g74
(dp1709
g94
g95
ssg83
g1703
sg76
(lp1710
S'request_method'
p1711
asbag69
(g90
g71
NtRp1712
(dp1713
g74
(dp1714
g101
g102
ssg83
g1703
sg76
(lp1715
S':'
asbag69
(g90
g71
NtRp1716
(dp1717
g74
(dp1718
sg83
g1703
sg76
(lp1719
g69
(g70
g71
NtRp1720
(dp1721
g74
(dp1722
g82
I4
ssg83
g1716
sg76
(lp1723
S'GET'
p1724
asbasbasbag69
(g85
g71
NtRp1725
(dp1726
g74
(dp1727
sg83
g1217
sg76
(lp1728
g69
(g90
g71
NtRp1729
(dp1730
g74
(dp1731
g94
g95
ssg83
g1725
sg76
(lp1732
S'script_name'
p1733
asbag69
(g90
g71
NtRp1734
(dp1735
g74
(dp1736
g101
g102
ssg83
g1725
sg76
(lp1737
S':'
asbag69
(g90
g71
NtRp1738
(dp1739
g74
(dp1740
sg83
g1725
sg76
(lp1741
g69
(g70
g71
NtRp1742
(dp1743
g74
(dp1744
g82
I4
ssg83
g1738
sg76
(lp1745
S''
asbasbasbag69
(g85
g71
NtRp1746
(dp1747
g74
(dp1748
sg83
g1217
sg76
(lp1749
g69
(g90
g71
NtRp1750
(dp1751
g74
(dp1752
g94
g95
ssg83
g1746
sg76
(lp1753
S'server_name'
p1754
asbag69
(g90
g71
NtRp1755
(dp1756
g74
(dp1757
g101
g102
ssg83
g1746
sg76
(lp1758
S':'
asbag69
(g90
g71
NtRp1759
(dp1760
g74
(dp1761
sg83
g1746
sg76
(lp1762
g69
(g70
g71
NtRp1763
(dp1764
g74
(dp1765
g82
I4
ssg83
g1759
sg76
(lp1766
S'ubuntu'
p1767
asbasbasbag69
(g85
g71
NtRp1768
(dp1769
g74
(dp1770
sg83
g1217
sg76
(lp1771
g69
(g90
g71
NtRp1772
(dp1773
g74
(dp1774
g94
g95
ssg83
g1768
sg76
(lp1775
S'server_port'
p1776
asbag69
(g90
g71
NtRp1777
(dp1778
g74
(dp1779
g101
g102
ssg83
g1768
sg76
(lp1780
S':'
asbag69
(g90
g71
NtRp1781
(dp1782
g74
(dp1783
sg83
g1768
sg76
(lp1784
g69
(g70
g71
NtRp1785
(dp1786
g74
(dp1787
g82
I4
ssg83
g1781
sg76
(lp1788
S'8000'
p1789
asbasbasbag69
(g85
g71
NtRp1790
(dp1791
g74
(dp1792
sg83
g1217
sg76
(lp1793
g69
(g90
g71
NtRp1794
(dp1795
g74
(dp1796
g94
g95
ssg83
g1790
sg76
(lp1797
S'server_protocol'
p1798
asbag69
(g90
g71
NtRp1799
(dp1800
g74
(dp1801
g101
g102
ssg83
g1790
sg76
(lp1802
S':'
asbag69
(g90
g71
NtRp1803
(dp1804
g74
(dp1805
sg83
g1790
sg76
(lp1806
g69
(g70
g71
NtRp1807
(dp1808
g74
(dp1809
g82
I4
ssg83
g1803
sg76
(lp1810
S'HTTP/1.1'
p1811
asbasbasbag69
(g85
g71
NtRp1812
(dp1813
g74
(dp1814
sg83
g1217
sg76
(lp1815
g69
(g90
g71
NtRp1816
(dp1817
g74
(dp1818
g94
g95
ssg83
g1812
sg76
(lp1819
S'server_software'
p1820
asbag69
(g90
g71
NtRp1821
(dp1822
g74
(dp1823
g101
g102
ssg83
g1812
sg76
(lp1824
S':'
asbag69
(g90
g71
NtRp1825
(dp1826
g74
(dp1827
sg83
g1812
sg76
(lp1828
g69
(g70
g71
NtRp1829
(dp1830
g74
(dp1831
g82
I4
ssg83
g1825
sg76
(lp1832
S'Rocket 1.2.4'
p1833
asbasbasbag69
(g85
g71
NtRp1834
(dp1835
g74
(dp1836
sg83
g1217
sg76
(lp1837
g69
(g90
g71
NtRp1838
(dp1839
g74
(dp1840
g94
g95
ssg83
g1834
sg76
(lp1841
S'web2py_crontype'
p1842
asbag69
(g90
g71
NtRp1843
(dp1844
g74
(dp1845
g101
g102
ssg83
g1834
sg76
(lp1846
S':'
asbag69
(g90
g71
NtRp1847
(dp1848
g74
(dp1849
sg83
g1834
sg76
(lp1850
g69
(g70
g71
NtRp1851
(dp1852
g74
(dp1853
g82
I4
ssg83
g1847
sg76
(lp1854
S'hard'
p1855
asbasbasbag69
(g85
g71
NtRp1856
(dp1857
g74
(dp1858
sg83
g1217
sg76
(lp1859
g69
(g90
g71
NtRp1860
(dp1861
g74
(dp1862
g94
g95
ssg83
g1856
sg76
(lp1863
S'web2py_path'
p1864
asbag69
(g90
g71
NtRp1865
(dp1866
g74
(dp1867
g101
g102
ssg83
g1856
sg76
(lp1868
S':'
asbag69
(g90
g71
NtRp1869
(dp1870
g74
(dp1871
sg83
g1856
sg76
(lp1872
g69
(g70
g71
NtRp1873
(dp1874
g74
(dp1875
g82
I4
ssg83
g1869
sg76
(lp1876
g1264
asbasbasbag69
(g85
g71
NtRp1877
(dp1878
g74
(dp1879
sg83
g1217
sg76
(lp1880
g69
(g90
g71
NtRp1881
(dp1882
g74
(dp1883
g94
g95
ssg83
g1877
sg76
(lp1884
S'web2py_version'
p1885
asbag69
(g90
g71
NtRp1886
(dp1887
g74
(dp1888
g101
g102
ssg83
g1877
sg76
(lp1889
S':'
asbag69
(g90
g71
NtRp1890
(dp1891
g74
(dp1892
sg83
g1877
sg76
(lp1893
g69
(g70
g71
NtRp1894
(dp1895
g74
(dp1896
g82
I4
ssg83
g1890
sg76
(lp1897
g69
(g78
g71
NtRp1898
(dp1899
g74
(dp1900
g82
I3
ssg83
Nsg76
(lp1901
g69
(g85
g71
NtRp1902
(dp1903
g74
(dp1904
sg83
g1898
sg76
(lp1905
g69
(g90
g71
NtRp1906
(dp1907
g74
(dp1908
sg83
g1902
sg76
(lp1909
g69
(g70
g71
NtRp1910
(dp1911
g74
(dp1912
g82
I3
ssg83
g1906
sg76
(lp1913
S'1'
asbasbasbag69
(g85
g71
NtRp1914
(dp1915
g74
(dp1916
sg83
g1898
sg76
(lp1917
g69
(g90
g71
NtRp1918
(dp1919
g74
(dp1920
sg83
g1914
sg76
(lp1921
g69
(g70
g71
NtRp1922
(dp1923
g74
(dp1924
g82
I3
ssg83
g1918
sg76
(lp1925
S'99'
p1926
asbasbasbag69
(g85
g71
NtRp1927
(dp1928
g74
(dp1929
sg83
g1898
sg76
(lp1930
g69
(g90
g71
NtRp1931
(dp1932
g74
(dp1933
sg83
g1927
sg76
(lp1934
g69
(g70
g71
NtRp1935
(dp1936
g74
(dp1937
g82
I3
ssg83
g1931
sg76
(lp1938
S'4'
asbasbasbag69
(g85
g71
NtRp1939
(dp1940
g74
(dp1941
sg83
g1898
sg76
(lp1942
g69
(g90
g71
NtRp1943
(dp1944
g74
(dp1945
sg83
g1939
sg76
(lp1946
g69
(g70
g71
NtRp1947
(dp1948
g74
(dp1949
g82
I3
ssg83
g1943
sg76
(lp1950
S'datetime.datetime(2011, 12, 14, 14, 46, 14)'
p1951
asbasbasbag69
(g85
g71
NtRp1952
(dp1953
g74
(dp1954
sg83
g1898
sg76
(lp1955
g69
(g90
g71
NtRp1956
(dp1957
g74
(dp1958
sg83
g1952
sg76
(lp1959
g69
(g70
g71
NtRp1960
(dp1961
g74
(dp1962
g82
I3
ssg83
g1956
sg76
(lp1963
S'stable'
p1964
asbasbasbasbasbasbasbag69
(g85
g71
NtRp1965
(dp1966
g74
(dp1967
sg83
g1217
sg76
(lp1968
g69
(g90
g71
NtRp1969
(dp1970
g74
(dp1971
g94
g95
ssg83
g1965
sg76
(lp1972
S'wsgi_errors'
p1973
asbag69
(g90
g71
NtRp1974
(dp1975
g74
(dp1976
g101
g102
ssg83
g1965
sg76
(lp1977
S':'
asbag69
(g90
g71
NtRp1978
(dp1979
g74
(dp1980
sg83
g1965
sg76
(lp1981
g69
(g70
g71
NtRp1982
(dp1983
g74
(dp1984
g82
I4
ssg83
g1978
sg76
(lp1985
S"<open file '<stderr>', mode 'w' at 0xb77770d0>"
p1986
asbasbasbag69
(g85
g71
NtRp1987
(dp1988
g74
(dp1989
sg83
g1217
sg76
(lp1990
g69
(g90
g71
NtRp1991
(dp1992
g74
(dp1993
g94
g95
ssg83
g1987
sg76
(lp1994
S'wsgi_file_wrapper'
p1995
asbag69
(g90
g71
NtRp1996
(dp1997
g74
(dp1998
g101
g102
ssg83
g1987
sg76
(lp1999
S':'
asbag69
(g90
g71
NtRp2000
(dp2001
g74
(dp2002
sg83
g1987
sg76
(lp2003
g69
(g70
g71
NtRp2004
(dp2005
g74
(dp2006
g82
I4
ssg83
g2000
sg76
(lp2007
S'<class wsgiref.util.FileWrapper at 0x9dab20c>'
p2008
asbasbasbag69
(g85
g71
NtRp2009
(dp2010
g74
(dp2011
sg83
g1217
sg76
(lp2012
g69
(g90
g71
NtRp2013
(dp2014
g74
(dp2015
g94
g95
ssg83
g2009
sg76
(lp2016
S'wsgi_input'
p2017
asbag69
(g90
g71
NtRp2018
(dp2019
g74
(dp2020
g101
g102
ssg83
g2009
sg76
(lp2021
S':'
asbag69
(g90
g71
NtRp2022
(dp2023
g74
(dp2024
sg83
g2009
sg76
(lp2025
g69
(g70
g71
NtRp2026
(dp2027
g74
(dp2028
g82
I4
ssg83
g2022
sg76
(lp2029
S'<socket._fileobject object at 0xce1572c>'
p2030
asbasbasbag69
(g85
g71
NtRp2031
(dp2032
g74
(dp2033
sg83
g1217
sg76
(lp2034
g69
(g90
g71
NtRp2035
(dp2036
g74
(dp2037
g94
g95
ssg83
g2031
sg76
(lp2038
S'wsgi_multiprocess'
p2039
asbag69
(g90
g71
NtRp2040
(dp2041
g74
(dp2042
g101
g102
ssg83
g2031
sg76
(lp2043
S':'
asbag69
(g90
g71
NtRp2044
(dp2045
g74
(dp2046
sg83
g2031
sg76
(lp2047
g69
(g70
g71
NtRp2048
(dp2049
g74
(dp2050
g82
I4
ssg83
g2044
sg76
(lp2051
g112
asbasbasbag69
(g85
g71
NtRp2052
(dp2053
g74
(dp2054
sg83
g1217
sg76
(lp2055
g69
(g90
g71
NtRp2056
(dp2057
g74
(dp2058
g94
g95
ssg83
g2052
sg76
(lp2059
S'wsgi_multithread'
p2060
asbag69
(g90
g71
NtRp2061
(dp2062
g74
(dp2063
g101
g102
ssg83
g2052
sg76
(lp2064
S':'
asbag69
(g90
g71
NtRp2065
(dp2066
g74
(dp2067
sg83
g2052
sg76
(lp2068
g69
(g70
g71
NtRp2069
(dp2070
g74
(dp2071
g82
I4
ssg83
g2065
sg76
(lp2072
S'True'
p2073
asbasbasbag69
(g85
g71
NtRp2074
(dp2075
g74
(dp2076
sg83
g1217
sg76
(lp2077
g69
(g90
g71
NtRp2078
(dp2079
g74
(dp2080
g94
g95
ssg83
g2074
sg76
(lp2081
S'wsgi_run_once'
p2082
asbag69
(g90
g71
NtRp2083
(dp2084
g74
(dp2085
g101
g102
ssg83
g2074
sg76
(lp2086
S':'
asbag69
(g90
g71
NtRp2087
(dp2088
g74
(dp2089
sg83
g2074
sg76
(lp2090
g69
(g70
g71
NtRp2091
(dp2092
g74
(dp2093
g82
I4
ssg83
g2087
sg76
(lp2094
g112
asbasbasbag69
(g85
g71
NtRp2095
(dp2096
g74
(dp2097
sg83
g1217
sg76
(lp2098
g69
(g90
g71
NtRp2099
(dp2100
g74
(dp2101
g94
g95
ssg83
g2095
sg76
(lp2102
S'wsgi_url_scheme'
p2103
asbag69
(g90
g71
NtRp2104
(dp2105
g74
(dp2106
g101
g102
ssg83
g2095
sg76
(lp2107
S':'
asbag69
(g90
g71
NtRp2108
(dp2109
g74
(dp2110
sg83
g2095
sg76
(lp2111
g69
(g70
g71
NtRp2112
(dp2113
g74
(dp2114
g82
I4
ssg83
g2108
sg76
(lp2115
S'http'
p2116
asbasbasbag69
(g85
g71
NtRp2117
(dp2118
g74
(dp2119
sg83
g1217
sg76
(lp2120
g69
(g90
g71
NtRp2121
(dp2122
g74
(dp2123
g94
g95
ssg83
g2117
sg76
(lp2124
S'wsgi_version'
p2125
asbag69
(g90
g71
NtRp2126
(dp2127
g74
(dp2128
g101
g102
ssg83
g2117
sg76
(lp2129
S':'
asbag69
(g90
g71
NtRp2130
(dp2131
g74
(dp2132
sg83
g2117
sg76
(lp2133
g69
(g70
g71
NtRp2134
(dp2135
g74
(dp2136
g82
I4
ssg83
g2130
sg76
(lp2137
g69
(g78
g71
NtRp2138
(dp2139
g74
(dp2140
g82
I3
ssg83
Nsg76
(lp2141
g69
(g85
g71
NtRp2142
(dp2143
g74
(dp2144
sg83
g2138
sg76
(lp2145
g69
(g90
g71
NtRp2146
(dp2147
g74
(dp2148
sg83
g2142
sg76
(lp2149
g69
(g70
g71
NtRp2150
(dp2151
g74
(dp2152
g82
I3
ssg83
g2146
sg76
(lp2153
S'1'
asbasbasbag69
(g85
g71
NtRp2154
(dp2155
g74
(dp2156
sg83
g2138
sg76
(lp2157
g69
(g90
g71
NtRp2158
(dp2159
g74
(dp2160
sg83
g2154
sg76
(lp2161
g69
(g70
g71
NtRp2162
(dp2163
g74
(dp2164
g82
I3
ssg83
g2158
sg76
(lp2165
S'0'
asbasbasbasbasbasbasbasbasbasbasbag69
(g85
g71
NtRp2166
(dp2167
g74
(dp2168
sg83
g79
sg76
(lp2169
g69
(g90
g71
NtRp2170
(dp2171
g74
(dp2172
g94
g95
ssg83
g2166
sg76
(lp2173
S'extension'
p2174
asbag69
(g90
g71
NtRp2175
(dp2176
g74
(dp2177
g101
g102
ssg83
g2166
sg76
(lp2178
S':'
asbag69
(g90
g71
NtRp2179
(dp2180
g74
(dp2181
sg83
g2166
sg76
(lp2182
g69
(g70
g71
NtRp2183
(dp2184
g74
(dp2185
g82
I5
ssg83
g2179
sg76
(lp2186
S'html'
p2187
asbasbasbag69
(g85
g71
NtRp2188
(dp2189
g74
(dp2190
sg83
g79
sg76
(lp2191
g69
(g90
g71
NtRp2192
(dp2193
g74
(dp2194
g94
g95
ssg83
g2188
sg76
(lp2195
S'folder'
p2196
asbag69
(g90
g71
NtRp2197
(dp2198
g74
(dp2199
g101
g102
ssg83
g2188
sg76
(lp2200
S':'
asbag69
(g90
g71
NtRp2201
(dp2202
g74
(dp2203
sg83
g2188
sg76
(lp2204
g69
(g70
g71
NtRp2205
(dp2206
g74
(dp2207
g82
I5
ssg83
g2201
sg76
(lp2208
S'/home/iscott/web/web2py/applications/grammateus3/'
p2209
asbasbasbag69
(g85
g71
NtRp2210
(dp2211
g74
(dp2212
sg83
g79
sg76
(lp2213
g69
(g90
g71
NtRp2214
(dp2215
g74
(dp2216
g94
g95
ssg83
g2210
sg76
(lp2217
S'function'
p2218
asbag69
(g90
g71
NtRp2219
(dp2220
g74
(dp2221
g101
g102
ssg83
g2210
sg76
(lp2222
S':'
asbag69
(g90
g71
NtRp2223
(dp2224
g74
(dp2225
sg83
g2210
sg76
(lp2226
g69
(g70
g71
NtRp2227
(dp2228
g74
(dp2229
g82
I5
ssg83
g2223
sg76
(lp2230
S'text'
p2231
asbasbasbag69
(g85
g71
NtRp2232
(dp2233
g74
(dp2234
sg83
g79
sg76
(lp2235
g69
(g90
g71
NtRp2236
(dp2237
g74
(dp2238
g94
g95
ssg83
g2232
sg76
(lp2239
S'get_vars'
p2240
asbag69
(g90
g71
NtRp2241
(dp2242
g74
(dp2243
g101
g102
ssg83
g2232
sg76
(lp2244
S':'
asbag69
(g90
g71
NtRp2245
(dp2246
g74
(dp2247
sg83
g2232
sg76
(lp2248
g69
(g70
g71
NtRp2249
(dp2250
g74
(dp2251
g82
I5
ssg83
g2245
sg76
(lp2252
g69
(g78
g71
NtRp2253
(dp2254
g74
(dp2255
g82
I4
ssg83
Nsg76
(lp2256
sbasbasbasbag69
(g85
g71
NtRp2257
(dp2258
g74
(dp2259
sg83
g79
sg76
(lp2260
g69
(g90
g71
NtRp2261
(dp2262
g74
(dp2263
g94
g95
ssg83
g2257
sg76
(lp2264
S'global_settings'
p2265
asbag69
(g90
g71
NtRp2266
(dp2267
g74
(dp2268
g101
g102
ssg83
g2257
sg76
(lp2269
S':'
asbag69
(g90
g71
NtRp2270
(dp2271
g74
(dp2272
sg83
g2257
sg76
(lp2273
g69
(g70
g71
NtRp2274
(dp2275
g74
(dp2276
g82
I5
ssg83
g2270
sg76
(lp2277
g69
(g78
g71
NtRp2278
(dp2279
g74
(dp2280
g82
I4
ssg83
Nsg76
(lp2281
g69
(g85
g71
NtRp2282
(dp2283
g74
(dp2284
sg83
g2278
sg76
(lp2285
g69
(g90
g71
NtRp2286
(dp2287
g74
(dp2288
g94
g95
ssg83
g2282
sg76
(lp2289
g1229
asbag69
(g90
g71
NtRp2290
(dp2291
g74
(dp2292
g101
g102
ssg83
g2282
sg76
(lp2293
S':'
asbag69
(g90
g71
NtRp2294
(dp2295
g74
(dp2296
sg83
g2282
sg76
(lp2297
g69
(g70
g71
NtRp2298
(dp2299
g74
(dp2300
g82
I4
ssg83
g2294
sg76
(lp2301
S"set(['/home/iscott/web/web2py/applications/grammateus3/', '/home/iscott/web/web2py/applications/admin/', '/home/iscott/web/web2py/applications/welcome/'])"
p2302
asbasbasbag69
(g85
g71
NtRp2303
(dp2304
g74
(dp2305
sg83
g2278
sg76
(lp2306
g69
(g90
g71
NtRp2307
(dp2308
g74
(dp2309
g94
g95
ssg83
g2303
sg76
(lp2310
g1251
asbag69
(g90
g71
NtRp2311
(dp2312
g74
(dp2313
g101
g102
ssg83
g2303
sg76
(lp2314
S':'
asbag69
(g90
g71
NtRp2315
(dp2316
g74
(dp2317
sg83
g2303
sg76
(lp2318
g69
(g70
g71
NtRp2319
(dp2320
g74
(dp2321
g82
I4
ssg83
g2315
sg76
(lp2322
g1264
asbasbasbag69
(g85
g71
NtRp2323
(dp2324
g74
(dp2325
sg83
g2278
sg76
(lp2326
g69
(g90
g71
NtRp2327
(dp2328
g74
(dp2329
g94
g95
ssg83
g2323
sg76
(lp2330
g1273
asbag69
(g90
g71
NtRp2331
(dp2332
g74
(dp2333
g101
g102
ssg83
g2323
sg76
(lp2334
S':'
asbag69
(g90
g71
NtRp2335
(dp2336
g74
(dp2337
sg83
g2323
sg76
(lp2338
g69
(g70
g71
NtRp2339
(dp2340
g74
(dp2341
g82
I4
ssg83
g2335
sg76
(lp2342
g69
(g78
g71
NtRp2343
(dp2344
g74
(dp2345
g82
I3
ssg83
Nsg76
(lp2346
sbasbasbasbag69
(g85
g71
NtRp2347
(dp2348
g74
(dp2349
sg83
g2278
sg76
(lp2350
g69
(g90
g71
NtRp2351
(dp2352
g74
(dp2353
g94
g95
ssg83
g2347
sg76
(lp2354
g1298
asbag69
(g90
g71
NtRp2355
(dp2356
g74
(dp2357
g101
g102
ssg83
g2347
sg76
(lp2358
S':'
asbag69
(g90
g71
NtRp2359
(dp2360
g74
(dp2361
sg83
g2347
sg76
(lp2362
g69
(g70
g71
NtRp2363
(dp2364
g74
(dp2365
g82
I4
ssg83
g2359
sg76
(lp2366
S"<Values at 0x9e62b8c: {'verbose': False, 'ip': '127.0.0.1', 'shutdown_timeout': 5, 'taskbar': False, 'nocron': False, 'pid_filename': 'httpserver.pid', 'maxthreads': None, 'softcron': False, 'server_name': 'ubuntu', 'bpython': False, 'nogui': False, 'port': 8000, 'extcron': False, 'debuglevel': 30, 'test': None, 'folder': '/home/iscott/web/web2py', 'config': '', 'import_models': False, 'winservice': '', 'shell': None, 'run': '', 'log_filename': 'httpserver.log', 'args': [''], 'socket_timeout': 1, 'ssl_ca_certificate': None, 'scheduler': None, 'profiler_filename': None, 'ssl_private_key': '', 'password': '<ask>', 'request_queue_size': 5, 'ssl_certificate': '', 'cronjob': False, 'numthreads': None, 'quiet': False, 'interfaces': None, 'minthreads': None, 'timeout': 10, 'plain': False, 'nobanner': False}>"
p2367
asbasbasbag69
(g85
g71
NtRp2368
(dp2369
g74
(dp2370
sg83
g2278
sg76
(lp2371
g69
(g90
g71
NtRp2372
(dp2373
g74
(dp2374
g94
g95
ssg83
g2368
sg76
(lp2375
g1320
asbag69
(g90
g71
NtRp2376
(dp2377
g74
(dp2378
g101
g102
ssg83
g2368
sg76
(lp2379
S':'
asbag69
(g90
g71
NtRp2380
(dp2381
g74
(dp2382
sg83
g2368
sg76
(lp2383
g69
(g70
g71
NtRp2384
(dp2385
g74
(dp2386
g82
I4
ssg83
g2380
sg76
(lp2387
S'set([])'
p2388
asbasbasbag69
(g85
g71
NtRp2389
(dp2390
g74
(dp2391
sg83
g2278
sg76
(lp2392
g69
(g90
g71
NtRp2393
(dp2394
g74
(dp2395
g94
g95
ssg83
g2389
sg76
(lp2396
g1342
asbag69
(g90
g71
NtRp2397
(dp2398
g74
(dp2399
g101
g102
ssg83
g2389
sg76
(lp2400
S':'
asbag69
(g90
g71
NtRp2401
(dp2402
g74
(dp2403
sg83
g2389
sg76
(lp2404
g69
(g70
g71
NtRp2405
(dp2406
g74
(dp2407
g82
I4
ssg83
g2401
sg76
(lp2408
g112
asbasbasbag69
(g85
g71
NtRp2409
(dp2410
g74
(dp2411
sg83
g2278
sg76
(lp2412
g69
(g90
g71
NtRp2413
(dp2414
g74
(dp2415
g94
g95
ssg83
g2409
sg76
(lp2416
g1363
asbag69
(g90
g71
NtRp2417
(dp2418
g74
(dp2419
g101
g102
ssg83
g2409
sg76
(lp2420
S':'
asbag69
(g90
g71
NtRp2421
(dp2422
g74
(dp2423
sg83
g2409
sg76
(lp2424
g69
(g70
g71
NtRp2425
(dp2426
g74
(dp2427
g82
I4
ssg83
g2421
sg76
(lp2428
g1376
asbasbasbag69
(g85
g71
NtRp2429
(dp2430
g74
(dp2431
sg83
g2278
sg76
(lp2432
g69
(g90
g71
NtRp2433
(dp2434
g74
(dp2435
g94
g95
ssg83
g2429
sg76
(lp2436
g1583
asbag69
(g90
g71
NtRp2437
(dp2438
g74
(dp2439
g101
g102
ssg83
g2429
sg76
(lp2440
S':'
asbag69
(g90
g71
NtRp2441
(dp2442
g74
(dp2443
sg83
g2429
sg76
(lp2444
g69
(g70
g71
NtRp2445
(dp2446
g74
(dp2447
g82
I4
ssg83
g2441
sg76
(lp2448
g112
asbasbasbag69
(g85
g71
NtRp2449
(dp2450
g74
(dp2451
sg83
g2278
sg76
(lp2452
g69
(g90
g71
NtRp2453
(dp2454
g74
(dp2455
g94
g95
ssg83
g2449
sg76
(lp2456
g1604
asbag69
(g90
g71
NtRp2457
(dp2458
g74
(dp2459
g101
g102
ssg83
g2449
sg76
(lp2460
S':'
asbag69
(g90
g71
NtRp2461
(dp2462
g74
(dp2463
sg83
g2449
sg76
(lp2464
g69
(g70
g71
NtRp2465
(dp2466
g74
(dp2467
g82
I4
ssg83
g2461
sg76
(lp2468
g112
asbasbasbag69
(g85
g71
NtRp2469
(dp2470
g74
(dp2471
sg83
g2278
sg76
(lp2472
g69
(g90
g71
NtRp2473
(dp2474
g74
(dp2475
g94
g95
ssg83
g2469
sg76
(lp2476
g1842
asbag69
(g90
g71
NtRp2477
(dp2478
g74
(dp2479
g101
g102
ssg83
g2469
sg76
(lp2480
S':'
asbag69
(g90
g71
NtRp2481
(dp2482
g74
(dp2483
sg83
g2469
sg76
(lp2484
g69
(g70
g71
NtRp2485
(dp2486
g74
(dp2487
g82
I4
ssg83
g2481
sg76
(lp2488
g1855
asbasbasbag69
(g85
g71
NtRp2489
(dp2490
g74
(dp2491
sg83
g2278
sg76
(lp2492
g69
(g90
g71
NtRp2493
(dp2494
g74
(dp2495
g94
g95
ssg83
g2489
sg76
(lp2496
g1885
asbag69
(g90
g71
NtRp2497
(dp2498
g74
(dp2499
g101
g102
ssg83
g2489
sg76
(lp2500
S':'
asbag69
(g90
g71
NtRp2501
(dp2502
g74
(dp2503
sg83
g2489
sg76
(lp2504
g69
(g70
g71
NtRp2505
(dp2506
g74
(dp2507
g82
I4
ssg83
g2501
sg76
(lp2508
g69
(g78
g71
NtRp2509
(dp2510
g74
(dp2511
g82
I3
ssg83
Nsg76
(lp2512
g69
(g85
g71
NtRp2513
(dp2514
g74
(dp2515
sg83
g2509
sg76
(lp2516
g69
(g90
g71
NtRp2517
(dp2518
g74
(dp2519
sg83
g2513
sg76
(lp2520
g69
(g70
g71
NtRp2521
(dp2522
g74
(dp2523
g82
I3
ssg83
g2517
sg76
(lp2524
S'1'
asbasbasbag69
(g85
g71
NtRp2525
(dp2526
g74
(dp2527
sg83
g2509
sg76
(lp2528
g69
(g90
g71
NtRp2529
(dp2530
g74
(dp2531
sg83
g2525
sg76
(lp2532
g69
(g70
g71
NtRp2533
(dp2534
g74
(dp2535
g82
I3
ssg83
g2529
sg76
(lp2536
S'99'
p2537
asbasbasbag69
(g85
g71
NtRp2538
(dp2539
g74
(dp2540
sg83
g2509
sg76
(lp2541
g69
(g90
g71
NtRp2542
(dp2543
g74
(dp2544
sg83
g2538
sg76
(lp2545
g69
(g70
g71
NtRp2546
(dp2547
g74
(dp2548
g82
I3
ssg83
g2542
sg76
(lp2549
S'4'
asbasbasbag69
(g85
g71
NtRp2550
(dp2551
g74
(dp2552
sg83
g2509
sg76
(lp2553
g69
(g90
g71
NtRp2554
(dp2555
g74
(dp2556
sg83
g2550
sg76
(lp2557
g69
(g70
g71
NtRp2558
(dp2559
g74
(dp2560
g82
I3
ssg83
g2554
sg76
(lp2561
S'datetime.datetime(2011, 12, 14, 14, 46, 14)'
p2562
asbasbasbag69
(g85
g71
NtRp2563
(dp2564
g74
(dp2565
sg83
g2509
sg76
(lp2566
g69
(g90
g71
NtRp2567
(dp2568
g74
(dp2569
sg83
g2563
sg76
(lp2570
g69
(g70
g71
NtRp2571
(dp2572
g74
(dp2573
g82
I3
ssg83
g2567
sg76
(lp2574
g1964
asbasbasbasbasbasbasbasbasbasbasbag69
(g85
g71
NtRp2575
(dp2576
g74
(dp2577
sg83
g79
sg76
(lp2578
g69
(g90
g71
NtRp2579
(dp2580
g74
(dp2581
g94
g95
ssg83
g2575
sg76
(lp2582
S'is_https'
p2583
asbag69
(g90
g71
NtRp2584
(dp2585
g74
(dp2586
g101
g102
ssg83
g2575
sg76
(lp2587
S':'
asbag69
(g90
g71
NtRp2588
(dp2589
g74
(dp2590
sg83
g2575
sg76
(lp2591
g69
(g70
g71
NtRp2592
(dp2593
g74
(dp2594
g82
I5
ssg83
g2588
sg76
(lp2595
g112
asbasbasbag69
(g85
g71
NtRp2596
(dp2597
g74
(dp2598
sg83
g79
sg76
(lp2599
g69
(g90
g71
NtRp2600
(dp2601
g74
(dp2602
g94
g95
ssg83
g2596
sg76
(lp2603
S'is_local'
p2604
asbag69
(g90
g71
NtRp2605
(dp2606
g74
(dp2607
g101
g102
ssg83
g2596
sg76
(lp2608
S':'
asbag69
(g90
g71
NtRp2609
(dp2610
g74
(dp2611
sg83
g2596
sg76
(lp2612
g69
(g70
g71
NtRp2613
(dp2614
g74
(dp2615
g82
I5
ssg83
g2609
sg76
(lp2616
g2073
asbasbasbag69
(g85
g71
NtRp2617
(dp2618
g74
(dp2619
sg83
g79
sg76
(lp2620
g69
(g90
g71
NtRp2621
(dp2622
g74
(dp2623
g94
g95
ssg83
g2617
sg76
(lp2624
S'is_restful'
p2625
asbag69
(g90
g71
NtRp2626
(dp2627
g74
(dp2628
g101
g102
ssg83
g2617
sg76
(lp2629
S':'
asbag69
(g90
g71
NtRp2630
(dp2631
g74
(dp2632
sg83
g2617
sg76
(lp2633
g69
(g70
g71
NtRp2634
(dp2635
g74
(dp2636
g82
I5
ssg83
g2630
sg76
(lp2637
g112
asbasbasbag69
(g85
g71
NtRp2638
(dp2639
g74
(dp2640
sg83
g79
sg76
(lp2641
g69
(g90
g71
NtRp2642
(dp2643
g74
(dp2644
g94
g95
ssg83
g2638
sg76
(lp2645
S'now'
p2646
asbag69
(g90
g71
NtRp2647
(dp2648
g74
(dp2649
g101
g102
ssg83
g2638
sg76
(lp2650
S':'
asbag69
(g90
g71
NtRp2651
(dp2652
g74
(dp2653
sg83
g2638
sg76
(lp2654
g69
(g70
g71
NtRp2655
(dp2656
g74
(dp2657
g82
I5
ssg83
g2651
sg76
(lp2658
S'datetime.datetime(2012, 3, 8, 10, 27, 14, 714691)'
p2659
asbasbasbag69
(g85
g71
NtRp2660
(dp2661
g74
(dp2662
sg83
g79
sg76
(lp2663
g69
(g90
g71
NtRp2664
(dp2665
g74
(dp2666
g94
g95
ssg83
g2660
sg76
(lp2667
S'post_vars'
p2668
asbag69
(g90
g71
NtRp2669
(dp2670
g74
(dp2671
g101
g102
ssg83
g2660
sg76
(lp2672
S':'
asbag69
(g90
g71
NtRp2673
(dp2674
g74
(dp2675
sg83
g2660
sg76
(lp2676
g69
(g70
g71
NtRp2677
(dp2678
g74
(dp2679
g82
I5
ssg83
g2673
sg76
(lp2680
g69
(g78
g71
NtRp2681
(dp2682
g74
(dp2683
g82
I4
ssg83
Nsg76
(lp2684
sbasbasbasbag69
(g85
g71
NtRp2685
(dp2686
g74
(dp2687
sg83
g79
sg76
(lp2688
g69
(g90
g71
NtRp2689
(dp2690
g74
(dp2691
g94
g95
ssg83
g2685
sg76
(lp2692
S'raw_args'
p2693
asbag69
(g90
g71
NtRp2694
(dp2695
g74
(dp2696
g101
g102
ssg83
g2685
sg76
(lp2697
S':'
asbag69
(g90
g71
NtRp2698
(dp2699
g74
(dp2700
sg83
g2685
sg76
(lp2701
g69
(g70
g71
NtRp2702
(dp2703
g74
(dp2704
g82
I5
ssg83
g2698
sg76
(lp2705
g171
asbasbasbag69
(g85
g71
NtRp2706
(dp2707
g74
(dp2708
sg83
g79
sg76
(lp2709
g69
(g90
g71
NtRp2710
(dp2711
g74
(dp2712
g94
g95
ssg83
g2706
sg76
(lp2713
S'url'
p2714
asbag69
(g90
g71
NtRp2715
(dp2716
g74
(dp2717
g101
g102
ssg83
g2706
sg76
(lp2718
S':'
asbag69
(g90
g71
NtRp2719
(dp2720
g74
(dp2721
sg83
g2706
sg76
(lp2722
g69
(g70
g71
NtRp2723
(dp2724
g74
(dp2725
g82
I5
ssg83
g2719
sg76
(lp2726
S'/grammateus3/docs/text/1En'
p2727
asbasbasbag69
(g85
g71
NtRp2728
(dp2729
g74
(dp2730
sg83
g79
sg76
(lp2731
g69
(g90
g71
NtRp2732
(dp2733
g74
(dp2734
g94
g95
ssg83
g2728
sg76
(lp2735
S'utcnow'
p2736
asbag69
(g90
g71
NtRp2737
(dp2738
g74
(dp2739
g101
g102
ssg83
g2728
sg76
(lp2740
S':'
asbag69
(g90
g71
NtRp2741
(dp2742
g74
(dp2743
sg83
g2728
sg76
(lp2744
g69
(g70
g71
NtRp2745
(dp2746
g74
(dp2747
g82
I5
ssg83
g2741
sg76
(lp2748
S'datetime.datetime(2012, 3, 8, 15, 27, 14, 714779)'
p2749
asbasbasbag69
(g85
g71
NtRp2750
(dp2751
g74
(dp2752
sg83
g79
sg76
(lp2753
g69
(g90
g71
NtRp2754
(dp2755
g74
(dp2756
g94
g95
ssg83
g2750
sg76
(lp2757
S'uuid'
p2758
asbag69
(g90
g71
NtRp2759
(dp2760
g74
(dp2761
g101
g102
ssg83
g2750
sg76
(lp2762
S':'
asbag69
(g90
g71
NtRp2763
(dp2764
g74
(dp2765
sg83
g2750
sg76
(lp2766
g69
(g70
g71
NtRp2767
(dp2768
g74
(dp2769
g82
I5
ssg83
g2763
sg76
(lp2770
S'grammateus3/127.0.0.1.2012-03-08.10-27-14.86e71a98-e3ab-47cc-b7cb-cd67165c260d'
p2771
asbasbasbag69
(g85
g71
NtRp2772
(dp2773
g74
(dp2774
sg83
g79
sg76
(lp2775
g69
(g90
g71
NtRp2776
(dp2777
g74
(dp2778
g94
g95
ssg83
g2772
sg76
(lp2779
S'vars'
p2780
asbag69
(g90
g71
NtRp2781
(dp2782
g74
(dp2783
g101
g102
ssg83
g2772
sg76
(lp2784
S':'
asbag69
(g90
g71
NtRp2785
(dp2786
g74
(dp2787
sg83
g2772
sg76
(lp2788
g69
(g70
g71
NtRp2789
(dp2790
g74
(dp2791
g82
I5
ssg83
g2785
sg76
(lp2792
g69
(g78
g71
NtRp2793
(dp2794
g74
(dp2795
g82
I4
ssg83
Nsg76
(lp2796
sbasbasbasbag69
(g85
g71
NtRp2797
(dp2798
g74
(dp2799
sg83
g79
sg76
(lp2800
g69
(g90
g71
NtRp2801
(dp2802
g74
(dp2803
g94
g95
ssg83
g2797
sg76
(lp2804
S'wsgi'
p2805
asbag69
(g90
g71
NtRp2806
(dp2807
g74
(dp2808
g101
g102
ssg83
g2797
sg76
(lp2809
S':'
asbag69
(g90
g71
NtRp2810
(dp2811
g74
(dp2812
sg83
g2797
sg76
(lp2813
g69
(g70
g71
NtRp2814
(dp2815
g74
(dp2816
g82
I5
ssg83
g2810
sg76
(lp2817
g69
(g78
g71
NtRp2818
(dp2819
g74
(dp2820
g82
I4
ssg83
Nsg76
(lp2821
g69
(g85
g71
NtRp2822
(dp2823
g74
(dp2824
sg83
g2818
sg76
(lp2825
g69
(g90
g71
NtRp2826
(dp2827
g74
(dp2828
g94
g95
ssg83
g2822
sg76
(lp2829
S'environ'
p2830
asbag69
(g90
g71
NtRp2831
(dp2832
g74
(dp2833
g101
g102
ssg83
g2822
sg76
(lp2834
S':'
asbag69
(g90
g71
NtRp2835
(dp2836
g74
(dp2837
sg83
g2822
sg76
(lp2838
g69
(g70
g71
NtRp2839
(dp2840
g74
(dp2841
g82
I4
ssg83
g2835
sg76
(lp2842
g69
(g78
g71
NtRp2843
(dp2844
g74
(dp2845
g82
I3
ssg83
Nsg76
(lp2846
g69
(g85
g71
NtRp2847
(dp2848
g74
(dp2849
sg83
g2843
sg76
(lp2850
g69
(g90
g71
NtRp2851
(dp2852
g74
(dp2853
g94
g95
ssg83
g2847
sg76
(lp2854
S'HTTP_ACCEPT'
p2855
asbag69
(g90
g71
NtRp2856
(dp2857
g74
(dp2858
g101
g102
ssg83
g2847
sg76
(lp2859
S':'
asbag69
(g90
g71
NtRp2860
(dp2861
g74
(dp2862
sg83
g2847
sg76
(lp2863
g69
(g70
g71
NtRp2864
(dp2865
g74
(dp2866
g82
I3
ssg83
g2860
sg76
(lp2867
g1398
asbasbasbag69
(g85
g71
NtRp2868
(dp2869
g74
(dp2870
sg83
g2843
sg76
(lp2871
g69
(g90
g71
NtRp2872
(dp2873
g74
(dp2874
g94
g95
ssg83
g2868
sg76
(lp2875
S'HTTP_ACCEPT_ENCODING'
p2876
asbag69
(g90
g71
NtRp2877
(dp2878
g74
(dp2879
g101
g102
ssg83
g2868
sg76
(lp2880
S':'
asbag69
(g90
g71
NtRp2881
(dp2882
g74
(dp2883
sg83
g2868
sg76
(lp2884
g69
(g70
g71
NtRp2885
(dp2886
g74
(dp2887
g82
I3
ssg83
g2881
sg76
(lp2888
g1420
asbasbasbag69
(g85
g71
NtRp2889
(dp2890
g74
(dp2891
sg83
g2843
sg76
(lp2892
g69
(g90
g71
NtRp2893
(dp2894
g74
(dp2895
g94
g95
ssg83
g2889
sg76
(lp2896
S'HTTP_ACCEPT_LANGUAGE'
p2897
asbag69
(g90
g71
NtRp2898
(dp2899
g74
(dp2900
g101
g102
ssg83
g2889
sg76
(lp2901
S':'
asbag69
(g90
g71
NtRp2902
(dp2903
g74
(dp2904
sg83
g2889
sg76
(lp2905
g69
(g70
g71
NtRp2906
(dp2907
g74
(dp2908
g82
I3
ssg83
g2902
sg76
(lp2909
g1442
asbasbasbag69
(g85
g71
NtRp2910
(dp2911
g74
(dp2912
sg83
g2843
sg76
(lp2913
g69
(g90
g71
NtRp2914
(dp2915
g74
(dp2916
g94
g95
ssg83
g2910
sg76
(lp2917
S'HTTP_CACHE_CONTROL'
p2918
asbag69
(g90
g71
NtRp2919
(dp2920
g74
(dp2921
g101
g102
ssg83
g2910
sg76
(lp2922
S':'
asbag69
(g90
g71
NtRp2923
(dp2924
g74
(dp2925
sg83
g2910
sg76
(lp2926
g69
(g70
g71
NtRp2927
(dp2928
g74
(dp2929
g82
I3
ssg83
g2923
sg76
(lp2930
g1464
asbasbasbag69
(g85
g71
NtRp2931
(dp2932
g74
(dp2933
sg83
g2843
sg76
(lp2934
g69
(g90
g71
NtRp2935
(dp2936
g74
(dp2937
g94
g95
ssg83
g2931
sg76
(lp2938
S'HTTP_CONNECTION'
p2939
asbag69
(g90
g71
NtRp2940
(dp2941
g74
(dp2942
g101
g102
ssg83
g2931
sg76
(lp2943
S':'
asbag69
(g90
g71
NtRp2944
(dp2945
g74
(dp2946
sg83
g2931
sg76
(lp2947
g69
(g70
g71
NtRp2948
(dp2949
g74
(dp2950
g82
I3
ssg83
g2944
sg76
(lp2951
g1486
asbasbasbag69
(g85
g71
NtRp2952
(dp2953
g74
(dp2954
sg83
g2843
sg76
(lp2955
g69
(g90
g71
NtRp2956
(dp2957
g74
(dp2958
g94
g95
ssg83
g2952
sg76
(lp2959
S'HTTP_COOKIE'
p2960
asbag69
(g90
g71
NtRp2961
(dp2962
g74
(dp2963
g101
g102
ssg83
g2952
sg76
(lp2964
S':'
asbag69
(g90
g71
NtRp2965
(dp2966
g74
(dp2967
sg83
g2952
sg76
(lp2968
g69
(g70
g71
NtRp2969
(dp2970
g74
(dp2971
g82
I3
ssg83
g2965
sg76
(lp2972
g1508
asbasbasbag69
(g85
g71
NtRp2973
(dp2974
g74
(dp2975
sg83
g2843
sg76
(lp2976
g69
(g90
g71
NtRp2977
(dp2978
g74
(dp2979
g94
g95
ssg83
g2973
sg76
(lp2980
S'HTTP_HOST'
p2981
asbag69
(g90
g71
NtRp2982
(dp2983
g74
(dp2984
g101
g102
ssg83
g2973
sg76
(lp2985
S':'
asbag69
(g90
g71
NtRp2986
(dp2987
g74
(dp2988
sg83
g2973
sg76
(lp2989
g69
(g70
g71
NtRp2990
(dp2991
g74
(dp2992
g82
I3
ssg83
g2986
sg76
(lp2993
g1530
asbasbasbag69
(g85
g71
NtRp2994
(dp2995
g74
(dp2996
sg83
g2843
sg76
(lp2997
g69
(g90
g71
NtRp2998
(dp2999
g74
(dp3000
g94
g95
ssg83
g2994
sg76
(lp3001
S'HTTP_REFERER'
p3002
asbag69
(g90
g71
NtRp3003
(dp3004
g74
(dp3005
g101
g102
ssg83
g2994
sg76
(lp3006
S':'
asbag69
(g90
g71
NtRp3007
(dp3008
g74
(dp3009
sg83
g2994
sg76
(lp3010
g69
(g70
g71
NtRp3011
(dp3012
g74
(dp3013
g82
I3
ssg83
g3007
sg76
(lp3014
g1552
asbasbasbag69
(g85
g71
NtRp3015
(dp3016
g74
(dp3017
sg83
g2843
sg76
(lp3018
g69
(g90
g71
NtRp3019
(dp3020
g74
(dp3021
g94
g95
ssg83
g3015
sg76
(lp3022
S'HTTP_USER_AGENT'
p3023
asbag69
(g90
g71
NtRp3024
(dp3025
g74
(dp3026
g101
g102
ssg83
g3015
sg76
(lp3027
S':'
asbag69
(g90
g71
NtRp3028
(dp3029
g74
(dp3030
sg83
g3015
sg76
(lp3031
g69
(g70
g71
NtRp3032
(dp3033
g74
(dp3034
g82
I3
ssg83
g3028
sg76
(lp3035
g1574
asbasbasbag69
(g85
g71
NtRp3036
(dp3037
g74
(dp3038
sg83
g2843
sg76
(lp3039
g69
(g90
g71
NtRp3040
(dp3041
g74
(dp3042
g94
g95
ssg83
g3036
sg76
(lp3043
S'PATH_INFO'
p3044
asbag69
(g90
g71
NtRp3045
(dp3046
g74
(dp3047
g101
g102
ssg83
g3036
sg76
(lp3048
S':'
asbag69
(g90
g71
NtRp3049
(dp3050
g74
(dp3051
sg83
g3036
sg76
(lp3052
g69
(g70
g71
NtRp3053
(dp3054
g74
(dp3055
g82
I3
ssg83
g3049
sg76
(lp3056
g1638
asbasbasbag69
(g85
g71
NtRp3057
(dp3058
g74
(dp3059
sg83
g2843
sg76
(lp3060
g69
(g90
g71
NtRp3061
(dp3062
g74
(dp3063
g94
g95
ssg83
g3057
sg76
(lp3064
S'QUERY_STRING'
p3065
asbag69
(g90
g71
NtRp3066
(dp3067
g74
(dp3068
g101
g102
ssg83
g3057
sg76
(lp3069
S':'
asbag69
(g90
g71
NtRp3070
(dp3071
g74
(dp3072
sg83
g3057
sg76
(lp3073
g69
(g70
g71
NtRp3074
(dp3075
g74
(dp3076
g82
I3
ssg83
g3070
sg76
(lp3077
S''
asbasbasbag69
(g85
g71
NtRp3078
(dp3079
g74
(dp3080
sg83
g2843
sg76
(lp3081
g69
(g90
g71
NtRp3082
(dp3083
g74
(dp3084
g94
g95
ssg83
g3078
sg76
(lp3085
S'REMOTE_ADDR'
p3086
asbag69
(g90
g71
NtRp3087
(dp3088
g74
(dp3089
g101
g102
ssg83
g3078
sg76
(lp3090
S':'
asbag69
(g90
g71
NtRp3091
(dp3092
g74
(dp3093
sg83
g3078
sg76
(lp3094
g69
(g70
g71
NtRp3095
(dp3096
g74
(dp3097
g82
I3
ssg83
g3091
sg76
(lp3098
g215
asbasbasbag69
(g85
g71
NtRp3099
(dp3100
g74
(dp3101
sg83
g2843
sg76
(lp3102
g69
(g90
g71
NtRp3103
(dp3104
g74
(dp3105
g94
g95
ssg83
g3099
sg76
(lp3106
S'REMOTE_PORT'
p3107
asbag69
(g90
g71
NtRp3108
(dp3109
g74
(dp3110
g101
g102
ssg83
g3099
sg76
(lp3111
S':'
asbag69
(g90
g71
NtRp3112
(dp3113
g74
(dp3114
sg83
g3099
sg76
(lp3115
g69
(g70
g71
NtRp3116
(dp3117
g74
(dp3118
g82
I3
ssg83
g3112
sg76
(lp3119
g1702
asbasbasbag69
(g85
g71
NtRp3120
(dp3121
g74
(dp3122
sg83
g2843
sg76
(lp3123
g69
(g90
g71
NtRp3124
(dp3125
g74
(dp3126
g94
g95
ssg83
g3120
sg76
(lp3127
S'REQUEST_METHOD'
p3128
asbag69
(g90
g71
NtRp3129
(dp3130
g74
(dp3131
g101
g102
ssg83
g3120
sg76
(lp3132
S':'
asbag69
(g90
g71
NtRp3133
(dp3134
g74
(dp3135
sg83
g3120
sg76
(lp3136
g69
(g70
g71
NtRp3137
(dp3138
g74
(dp3139
g82
I3
ssg83
g3133
sg76
(lp3140
g1724
asbasbasbag69
(g85
g71
NtRp3141
(dp3142
g74
(dp3143
sg83
g2843
sg76
(lp3144
g69
(g90
g71
NtRp3145
(dp3146
g74
(dp3147
g94
g95
ssg83
g3141
sg76
(lp3148
S'SCRIPT_NAME'
p3149
asbag69
(g90
g71
NtRp3150
(dp3151
g74
(dp3152
g101
g102
ssg83
g3141
sg76
(lp3153
S':'
asbag69
(g90
g71
NtRp3154
(dp3155
g74
(dp3156
sg83
g3141
sg76
(lp3157
g69
(g70
g71
NtRp3158
(dp3159
g74
(dp3160
g82
I3
ssg83
g3154
sg76
(lp3161
S''
asbasbasbag69
(g85
g71
NtRp3162
(dp3163
g74
(dp3164
sg83
g2843
sg76
(lp3165
g69
(g90
g71
NtRp3166
(dp3167
g74
(dp3168
g94
g95
ssg83
g3162
sg76
(lp3169
S'SERVER_NAME'
p3170
asbag69
(g90
g71
NtRp3171
(dp3172
g74
(dp3173
g101
g102
ssg83
g3162
sg76
(lp3174
S':'
asbag69
(g90
g71
NtRp3175
(dp3176
g74
(dp3177
sg83
g3162
sg76
(lp3178
g69
(g70
g71
NtRp3179
(dp3180
g74
(dp3181
g82
I3
ssg83
g3175
sg76
(lp3182
g1767
asbasbasbag69
(g85
g71
NtRp3183
(dp3184
g74
(dp3185
sg83
g2843
sg76
(lp3186
g69
(g90
g71
NtRp3187
(dp3188
g74
(dp3189
g94
g95
ssg83
g3183
sg76
(lp3190
S'SERVER_PORT'
p3191
asbag69
(g90
g71
NtRp3192
(dp3193
g74
(dp3194
g101
g102
ssg83
g3183
sg76
(lp3195
S':'
asbag69
(g90
g71
NtRp3196
(dp3197
g74
(dp3198
sg83
g3183
sg76
(lp3199
g69
(g70
g71
NtRp3200
(dp3201
g74
(dp3202
g82
I3
ssg83
g3196
sg76
(lp3203
g1789
asbasbasbag69
(g85
g71
NtRp3204
(dp3205
g74
(dp3206
sg83
g2843
sg76
(lp3207
g69
(g90
g71
NtRp3208
(dp3209
g74
(dp3210
g94
g95
ssg83
g3204
sg76
(lp3211
S'SERVER_PROTOCOL'
p3212
asbag69
(g90
g71
NtRp3213
(dp3214
g74
(dp3215
g101
g102
ssg83
g3204
sg76
(lp3216
S':'
asbag69
(g90
g71
NtRp3217
(dp3218
g74
(dp3219
sg83
g3204
sg76
(lp3220
g69
(g70
g71
NtRp3221
(dp3222
g74
(dp3223
g82
I3
ssg83
g3217
sg76
(lp3224
g1811
asbasbasbag69
(g85
g71
NtRp3225
(dp3226
g74
(dp3227
sg83
g2843
sg76
(lp3228
g69
(g90
g71
NtRp3229
(dp3230
g74
(dp3231
g94
g95
ssg83
g3225
sg76
(lp3232
S'SERVER_SOFTWARE'
p3233
asbag69
(g90
g71
NtRp3234
(dp3235
g74
(dp3236
g101
g102
ssg83
g3225
sg76
(lp3237
S':'
asbag69
(g90
g71
NtRp3238
(dp3239
g74
(dp3240
sg83
g3225
sg76
(lp3241
g69
(g70
g71
NtRp3242
(dp3243
g74
(dp3244
g82
I3
ssg83
g3238
sg76
(lp3245
g1833
asbasbasbag69
(g85
g71
NtRp3246
(dp3247
g74
(dp3248
sg83
g2843
sg76
(lp3249
g69
(g90
g71
NtRp3250
(dp3251
g74
(dp3252
g94
g95
ssg83
g3246
sg76
(lp3253
S'wsgi.errors'
p3254
asbag69
(g90
g71
NtRp3255
(dp3256
g74
(dp3257
g101
g102
ssg83
g3246
sg76
(lp3258
S':'
asbag69
(g90
g71
NtRp3259
(dp3260
g74
(dp3261
sg83
g3246
sg76
(lp3262
g69
(g70
g71
NtRp3263
(dp3264
g74
(dp3265
g82
I3
ssg83
g3259
sg76
(lp3266
S"<open file '<stderr>', mode 'w' at 0xb77770d0>"
p3267
asbasbasbag69
(g85
g71
NtRp3268
(dp3269
g74
(dp3270
sg83
g2843
sg76
(lp3271
g69
(g90
g71
NtRp3272
(dp3273
g74
(dp3274
g94
g95
ssg83
g3268
sg76
(lp3275
S'wsgi.file_wrapper'
p3276
asbag69
(g90
g71
NtRp3277
(dp3278
g74
(dp3279
g101
g102
ssg83
g3268
sg76
(lp3280
S':'
asbag69
(g90
g71
NtRp3281
(dp3282
g74
(dp3283
sg83
g3268
sg76
(lp3284
g69
(g70
g71
NtRp3285
(dp3286
g74
(dp3287
g82
I3
ssg83
g3281
sg76
(lp3288
S'<class wsgiref.util.FileWrapper at 0x9dab20c>'
p3289
asbasbasbag69
(g85
g71
NtRp3290
(dp3291
g74
(dp3292
sg83
g2843
sg76
(lp3293
g69
(g90
g71
NtRp3294
(dp3295
g74
(dp3296
g94
g95
ssg83
g3290
sg76
(lp3297
S'wsgi.input'
p3298
asbag69
(g90
g71
NtRp3299
(dp3300
g74
(dp3301
g101
g102
ssg83
g3290
sg76
(lp3302
S':'
asbag69
(g90
g71
NtRp3303
(dp3304
g74
(dp3305
sg83
g3290
sg76
(lp3306
g69
(g70
g71
NtRp3307
(dp3308
g74
(dp3309
g82
I3
ssg83
g3303
sg76
(lp3310
S'<cStringIO.StringO object at 0xaf6dfc0>'
p3311
asbasbasbag69
(g85
g71
NtRp3312
(dp3313
g74
(dp3314
sg83
g2843
sg76
(lp3315
g69
(g90
g71
NtRp3316
(dp3317
g74
(dp3318
g94
g95
ssg83
g3312
sg76
(lp3319
S'wsgi.multiprocess'
p3320
asbag69
(g90
g71
NtRp3321
(dp3322
g74
(dp3323
g101
g102
ssg83
g3312
sg76
(lp3324
S':'
asbag69
(g90
g71
NtRp3325
(dp3326
g74
(dp3327
sg83
g3312
sg76
(lp3328
g69
(g70
g71
NtRp3329
(dp3330
g74
(dp3331
g82
I3
ssg83
g3325
sg76
(lp3332
g112
asbasbasbag69
(g85
g71
NtRp3333
(dp3334
g74
(dp3335
sg83
g2843
sg76
(lp3336
g69
(g90
g71
NtRp3337
(dp3338
g74
(dp3339
g94
g95
ssg83
g3333
sg76
(lp3340
S'wsgi.multithread'
p3341
asbag69
(g90
g71
NtRp3342
(dp3343
g74
(dp3344
g101
g102
ssg83
g3333
sg76
(lp3345
S':'
asbag69
(g90
g71
NtRp3346
(dp3347
g74
(dp3348
sg83
g3333
sg76
(lp3349
g69
(g70
g71
NtRp3350
(dp3351
g74
(dp3352
g82
I3
ssg83
g3346
sg76
(lp3353
g2073
asbasbasbag69
(g85
g71
NtRp3354
(dp3355
g74
(dp3356
sg83
g2843
sg76
(lp3357
g69
(g90
g71
NtRp3358
(dp3359
g74
(dp3360
g94
g95
ssg83
g3354
sg76
(lp3361
S'wsgi.run_once'
p3362
asbag69
(g90
g71
NtRp3363
(dp3364
g74
(dp3365
g101
g102
ssg83
g3354
sg76
(lp3366
S':'
asbag69
(g90
g71
NtRp3367
(dp3368
g74
(dp3369
sg83
g3354
sg76
(lp3370
g69
(g70
g71
NtRp3371
(dp3372
g74
(dp3373
g82
I3
ssg83
g3367
sg76
(lp3374
g112
asbasbasbag69
(g85
g71
NtRp3375
(dp3376
g74
(dp3377
sg83
g2843
sg76
(lp3378
g69
(g90
g71
NtRp3379
(dp3380
g74
(dp3381
g94
g95
ssg83
g3375
sg76
(lp3382
S'wsgi.url_scheme'
p3383
asbag69
(g90
g71
NtRp3384
(dp3385
g74
(dp3386
g101
g102
ssg83
g3375
sg76
(lp3387
S':'
asbag69
(g90
g71
NtRp3388
(dp3389
g74
(dp3390
sg83
g3375
sg76
(lp3391
g69
(g70
g71
NtRp3392
(dp3393
g74
(dp3394
g82
I3
ssg83
g3388
sg76
(lp3395
g2116
asbasbasbag69
(g85
g71
NtRp3396
(dp3397
g74
(dp3398
sg83
g2843
sg76
(lp3399
g69
(g90
g71
NtRp3400
(dp3401
g74
(dp3402
g94
g95
ssg83
g3396
sg76
(lp3403
S'wsgi.version'
p3404
asbag69
(g90
g71
NtRp3405
(dp3406
g74
(dp3407
g101
g102
ssg83
g3396
sg76
(lp3408
S':'
asbag69
(g90
g71
NtRp3409
(dp3410
g74
(dp3411
sg83
g3396
sg76
(lp3412
g69
(g70
g71
NtRp3413
(dp3414
g74
(dp3415
g82
I3
ssg83
g3409
sg76
(lp3416
S'1'
asbasbasbasbasbasbasbasbasbasbasbasbasbsS'frames'
p3417
(lp3418
(dp3419
S'file'
p3420
S'/home/iscott/web/web2py/gluon/restricted.py'
p3421
sS'dump'
p3422
(dp3423
S'code'
p3424
S"'# coding: utf8\\nfrom lxml import etree\\n\\nfrom pars...o = info)\\n\\nresponse._vars=response._caller(text)\\n'"
p3425
sS'layer'
p3426
S"'/home/iscott/web/web2py/applications/grammateus3/controllers/docs.py'"
p3427
sS'global compile2'
p3428
S'<function compile2>'
p3429
sS'ccode'
p3430
S'undefined'
p3431
ssS'lnum'
p3432
I203
sS'lines'
p3433
(dp3434
I198
S"    environment['__file__'] = layer"
p3435
sI199
S'    try:'
p3436
sI200
S'        if type(code) == types.CodeType:'
p3437
sI201
S'            ccode = code'
p3438
sI202
S'        else:'
p3439
sI203
S'            ccode = compile2(code,layer)'
p3440
sI204
S'        exec ccode in environment'
p3441
sI205
S'    except HTTP:'
p3442
sI206
S'        raise'
p3443
sI207
S'    except RestrictedError:'
p3444
ssS'call'
p3445
S"(code='# coding: utf8\\nfrom lxml import etree\\n\\nfrom pars...o = info)\\n\\nresponse._vars=response._caller(text)\\n', environment={'A': <class 'gluon.html.A'>, 'Auth': <class 'gluon.tools.Auth'>, 'B': <class 'gluon.html.B'>, 'BEAUTIFY': <class 'gluon.html.BEAUTIFY'>, 'BODY': <class 'gluon.html.BODY'>, 'BR': <class 'gluon.html.BR'>, 'BUTTON': <class 'gluon.html.BUTTON'>, 'CAT': <class 'gluon.html.CAT'>, 'CENTER': <class 'gluon.html.CENTER'>, 'CLEANUP': <class 'gluon.validators.CLEANUP'>, ...}, layer='/home/iscott/web/web2py/applications/grammateus3/controllers/docs.py')"
p3446
sS'func'
p3447
S'restricted'
p3448
sa(dp3449
g3420
S'/home/iscott/web/web2py/gluon/restricted.py'
p3450
sg3422
(dp3451
S'builtincompile'
p3452
S'<built-in function compile>'
p3453
sS'code'
p3454
S"'# coding: utf8\\nfrom lxml import etree\\n\\nfrom pars...o = info)\\n\\nresponse._vars=response._caller(text)\\n'"
p3455
sS'code.rstrip'
p3456
S'<built-in method rstrip of str object>'
p3457
sS').replace'
p3458
g3431
sS'layer'
p3459
S"'/home/iscott/web/web2py/applications/grammateus3/controllers/docs.py'"
p3460
ssg3432
I189
sg3433
(dp3461
I192
S'    """'
p3462
sI193
S'    runs code in environment and returns the output. if an exception occurs'
p3463
sI184
S''
sI185
S'def compile2(code,layer):'
p3464
sI186
S'    """'
p3465
sI187
S"    The +'\\n' is necessary else compile fails when code ends in a comment."
p3466
sI188
S'    """'
p3467
sI189
S"    return compile(code.rstrip().replace('\\r\\n','\\n')+'\\n', layer, 'exec')"
p3468
sI190
S''
sI191
S"def restricted(code, environment=None, layer='Unknown'):"
p3469
ssg3445
S"(code='# coding: utf8\\nfrom lxml import etree\\n\\nfrom pars...o = info)\\n\\nresponse._vars=response._caller(text)\\n', layer='/home/iscott/web/web2py/applications/grammateus3/controllers/docs.py')"
p3470
sg3447
S'compile2'
p3471
sasS'pyver'
p3472
S'Python 2.7.2+: /usr/bin/python2.7'
p3473
sS'session'
p3474
g69
(g70
g71
NtRp3475
(dp3476
g74
(dp3477
sg76
(lp3478
g69
(g78
g71
NtRp3479
(dp3480
g74
(dp3481
g82
I5
ssg83
Nsg76
(lp3482
sbasbsS'etype'
p3483
S"<type 'exceptions.SyntaxError'>"
p3484
sS'date'
p3485
S'Thu Mar  8 10:27:14 2012'
p3486
sS'response'
p3487
g69
(g70
g71
NtRp3488
(dp3489
g74
(dp3490
sg76
(lp3491
g69
(g78
g71
NtRp3492
(dp3493
g74
(dp3494
g82
I5
ssg83
Nsg76
(lp3495
g69
(g85
g71
NtRp3496
(dp3497
g74
(dp3498
sg83
g3492
sg76
(lp3499
g69
(g90
g71
NtRp3500
(dp3501
g74
(dp3502
g94
g95
ssg83
g3496
sg76
(lp3503
g180
asbag69
(g90
g71
NtRp3504
(dp3505
g74
(dp3506
g101
g102
ssg83
g3496
sg76
(lp3507
S':'
asbag69
(g90
g71
NtRp3508
(dp3509
g74
(dp3510
sg83
g3496
sg76
(lp3511
g69
(g70
g71
NtRp3512
(dp3513
g74
(dp3514
g82
I5
ssg83
g3508
sg76
(lp3515
S'<cStringIO.StringO object at 0xb37a26e0>'
p3516
asbasbasbag69
(g85
g71
NtRp3517
(dp3518
g74
(dp3519
sg83
g3492
sg76
(lp3520
g69
(g90
g71
NtRp3521
(dp3522
g74
(dp3523
g94
g95
ssg83
g3517
sg76
(lp3524
g246
asbag69
(g90
g71
NtRp3525
(dp3526
g74
(dp3527
g101
g102
ssg83
g3517
sg76
(lp3528
S':'
asbag69
(g90
g71
NtRp3529
(dp3530
g74
(dp3531
sg83
g3517
sg76
(lp3532
g69
(g70
g71
NtRp3533
(dp3534
g74
(dp3535
g82
I5
ssg83
g3529
sg76
(lp3536
g69
(g78
g71
NtRp3537
(dp3538
g74
(dp3539
g82
I4
ssg83
Nsg76
(lp3540
g69
(g85
g71
NtRp3541
(dp3542
g74
(dp3543
sg83
g3537
sg76
(lp3544
g69
(g90
g71
NtRp3545
(dp3546
g74
(dp3547
g94
g95
ssg83
g3541
sg76
(lp3548
S'session_id_grammateus3'
p3549
asbag69
(g90
g71
NtRp3550
(dp3551
g74
(dp3552
g101
g102
ssg83
g3541
sg76
(lp3553
S':'
asbag69
(g90
g71
NtRp3554
(dp3555
g74
(dp3556
sg83
g3541
sg76
(lp3557
g69
(g70
g71
NtRp3558
(dp3559
g74
(dp3560
g82
I4
ssg83
g3554
sg76
(lp3561
g69
(g78
g71
NtRp3562
(dp3563
g74
(dp3564
g82
I3
ssg83
Nsg76
(lp3565
g69
(g85
g71
NtRp3566
(dp3567
g74
(dp3568
sg83
g3562
sg76
(lp3569
g69
(g90
g71
NtRp3570
(dp3571
g74
(dp3572
g94
g95
ssg83
g3566
sg76
(lp3573
g296
asbag69
(g90
g71
NtRp3574
(dp3575
g74
(dp3576
g101
g102
ssg83
g3566
sg76
(lp3577
S':'
asbag69
(g90
g71
NtRp3578
(dp3579
g74
(dp3580
sg83
g3566
sg76
(lp3581
g69
(g70
g71
NtRp3582
(dp3583
g74
(dp3584
g82
I3
ssg83
g3578
sg76
(lp3585
S''
asbasbasbag69
(g85
g71
NtRp3586
(dp3587
g74
(dp3588
sg83
g3562
sg76
(lp3589
g69
(g90
g71
NtRp3590
(dp3591
g74
(dp3592
g94
g95
ssg83
g3586
sg76
(lp3593
g317
asbag69
(g90
g71
NtRp3594
(dp3595
g74
(dp3596
g101
g102
ssg83
g3586
sg76
(lp3597
S':'
asbag69
(g90
g71
NtRp3598
(dp3599
g74
(dp3600
sg83
g3586
sg76
(lp3601
g69
(g70
g71
NtRp3602
(dp3603
g74
(dp3604
g82
I3
ssg83
g3598
sg76
(lp3605
S''
asbasbasbag69
(g85
g71
NtRp3606
(dp3607
g74
(dp3608
sg83
g3562
sg76
(lp3609
g69
(g90
g71
NtRp3610
(dp3611
g74
(dp3612
g94
g95
ssg83
g3606
sg76
(lp3613
g338
asbag69
(g90
g71
NtRp3614
(dp3615
g74
(dp3616
g101
g102
ssg83
g3606
sg76
(lp3617
S':'
asbag69
(g90
g71
NtRp3618
(dp3619
g74
(dp3620
sg83
g3606
sg76
(lp3621
g69
(g70
g71
NtRp3622
(dp3623
g74
(dp3624
g82
I3
ssg83
g3618
sg76
(lp3625
S''
asbasbasbag69
(g85
g71
NtRp3626
(dp3627
g74
(dp3628
sg83
g3562
sg76
(lp3629
g69
(g90
g71
NtRp3630
(dp3631
g74
(dp3632
g94
g95
ssg83
g3626
sg76
(lp3633
g359
asbag69
(g90
g71
NtRp3634
(dp3635
g74
(dp3636
g101
g102
ssg83
g3626
sg76
(lp3637
S':'
asbag69
(g90
g71
NtRp3638
(dp3639
g74
(dp3640
sg83
g3626
sg76
(lp3641
g69
(g70
g71
NtRp3642
(dp3643
g74
(dp3644
g82
I3
ssg83
g3638
sg76
(lp3645
S''
asbasbasbag69
(g85
g71
NtRp3646
(dp3647
g74
(dp3648
sg83
g3562
sg76
(lp3649
g69
(g90
g71
NtRp3650
(dp3651
g74
(dp3652
g94
g95
ssg83
g3646
sg76
(lp3653
g380
asbag69
(g90
g71
NtRp3654
(dp3655
g74
(dp3656
g101
g102
ssg83
g3646
sg76
(lp3657
S':'
asbag69
(g90
g71
NtRp3658
(dp3659
g74
(dp3660
sg83
g3646
sg76
(lp3661
g69
(g70
g71
NtRp3662
(dp3663
g74
(dp3664
g82
I3
ssg83
g3658
sg76
(lp3665
S''
asbasbasbag69
(g85
g71
NtRp3666
(dp3667
g74
(dp3668
sg83
g3562
sg76
(lp3669
g69
(g90
g71
NtRp3670
(dp3671
g74
(dp3672
g94
g95
ssg83
g3666
sg76
(lp3673
g401
asbag69
(g90
g71
NtRp3674
(dp3675
g74
(dp3676
g101
g102
ssg83
g3666
sg76
(lp3677
S':'
asbag69
(g90
g71
NtRp3678
(dp3679
g74
(dp3680
sg83
g3666
sg76
(lp3681
g69
(g70
g71
NtRp3682
(dp3683
g74
(dp3684
g82
I3
ssg83
g3678
sg76
(lp3685
S'/'
asbasbasbag69
(g85
g71
NtRp3686
(dp3687
g74
(dp3688
sg83
g3562
sg76
(lp3689
g69
(g90
g71
NtRp3690
(dp3691
g74
(dp3692
g94
g95
ssg83
g3686
sg76
(lp3693
g422
asbag69
(g90
g71
NtRp3694
(dp3695
g74
(dp3696
g101
g102
ssg83
g3686
sg76
(lp3697
S':'
asbag69
(g90
g71
NtRp3698
(dp3699
g74
(dp3700
sg83
g3686
sg76
(lp3701
g69
(g70
g71
NtRp3702
(dp3703
g74
(dp3704
g82
I3
ssg83
g3698
sg76
(lp3705
S''
asbasbasbag69
(g85
g71
NtRp3706
(dp3707
g74
(dp3708
sg83
g3562
sg76
(lp3709
g69
(g90
g71
NtRp3710
(dp3711
g74
(dp3712
g94
g95
ssg83
g3706
sg76
(lp3713
g443
asbag69
(g90
g71
NtRp3714
(dp3715
g74
(dp3716
g101
g102
ssg83
g3706
sg76
(lp3717
S':'
asbag69
(g90
g71
NtRp3718
(dp3719
g74
(dp3720
sg83
g3706
sg76
(lp3721
g69
(g70
g71
NtRp3722
(dp3723
g74
(dp3724
g82
I3
ssg83
g3718
sg76
(lp3725
S''
asbasbasbasbasbasbasbasbasbasbasbag69
(g85
g71
NtRp3726
(dp3727
g74
(dp3728
sg83
g3492
sg76
(lp3729
g69
(g90
g71
NtRp3730
(dp3731
g74
(dp3732
g94
g95
ssg83
g3726
sg76
(lp3733
S'files'
p3734
asbag69
(g90
g71
NtRp3735
(dp3736
g74
(dp3737
g101
g102
ssg83
g3726
sg76
(lp3738
S':'
asbag69
(g90
g71
NtRp3739
(dp3740
g74
(dp3741
sg83
g3726
sg76
(lp3742
g69
(g70
g71
NtRp3743
(dp3744
g74
(dp3745
g82
I5
ssg83
g3739
sg76
(lp3746
g69
(g78
g71
NtRp3747
(dp3748
g74
(dp3749
g82
I4
ssg83
Nsg76
(lp3750
sbasbasbasbag69
(g85
g71
NtRp3751
(dp3752
g74
(dp3753
sg83
g3492
sg76
(lp3754
g69
(g90
g71
NtRp3755
(dp3756
g74
(dp3757
g94
g95
ssg83
g3751
sg76
(lp3758
S'flash'
p3759
asbag69
(g90
g71
NtRp3760
(dp3761
g74
(dp3762
g101
g102
ssg83
g3751
sg76
(lp3763
S':'
asbag69
(g90
g71
NtRp3764
(dp3765
g74
(dp3766
sg83
g3751
sg76
(lp3767
g69
(g70
g71
NtRp3768
(dp3769
g74
(dp3770
g82
I5
ssg83
g3764
sg76
(lp3771
S''
asbasbasbag69
(g85
g71
NtRp3772
(dp3773
g74
(dp3774
sg83
g3492
sg76
(lp3775
g69
(g90
g71
NtRp3776
(dp3777
g74
(dp3778
g94
g95
ssg83
g3772
sg76
(lp3779
S'generic_patterns'
p3780
asbag69
(g90
g71
NtRp3781
(dp3782
g74
(dp3783
g101
g102
ssg83
g3772
sg76
(lp3784
S':'
asbag69
(g90
g71
NtRp3785
(dp3786
g74
(dp3787
sg83
g3772
sg76
(lp3788
g69
(g70
g71
NtRp3789
(dp3790
g74
(dp3791
g82
I5
ssg83
g3785
sg76
(lp3792
g69
(g78
g71
NtRp3793
(dp3794
g74
(dp3795
g82
I4
ssg83
Nsg76
(lp3796
g69
(g85
g71
NtRp3797
(dp3798
g74
(dp3799
sg83
g3793
sg76
(lp3800
g69
(g90
g71
NtRp3801
(dp3802
g74
(dp3803
sg83
g3797
sg76
(lp3804
g69
(g70
g71
NtRp3805
(dp3806
g74
(dp3807
g82
I4
ssg83
g3801
sg76
(lp3808
S'*'
asbasbasbasbasbasbasbag69
(g85
g71
NtRp3809
(dp3810
g74
(dp3811
sg83
g3492
sg76
(lp3812
g69
(g90
g71
NtRp3813
(dp3814
g74
(dp3815
g94
g95
ssg83
g3809
sg76
(lp3816
S'headers'
p3817
asbag69
(g90
g71
NtRp3818
(dp3819
g74
(dp3820
g101
g102
ssg83
g3809
sg76
(lp3821
S':'
asbag69
(g90
g71
NtRp3822
(dp3823
g74
(dp3824
sg83
g3809
sg76
(lp3825
g69
(g70
g71
NtRp3826
(dp3827
g74
(dp3828
g82
I5
ssg83
g3822
sg76
(lp3829
g69
(g78
g71
NtRp3830
(dp3831
g74
(dp3832
g82
I4
ssg83
Nsg76
(lp3833
g69
(g85
g71
NtRp3834
(dp3835
g74
(dp3836
sg83
g3830
sg76
(lp3837
g69
(g90
g71
NtRp3838
(dp3839
g74
(dp3840
g94
g95
ssg83
g3834
sg76
(lp3841
S'Cache-Control'
p3842
asbag69
(g90
g71
NtRp3843
(dp3844
g74
(dp3845
g101
g102
ssg83
g3834
sg76
(lp3846
S':'
asbag69
(g90
g71
NtRp3847
(dp3848
g74
(dp3849
sg83
g3834
sg76
(lp3850
g69
(g70
g71
NtRp3851
(dp3852
g74
(dp3853
g82
I4
ssg83
g3847
sg76
(lp3854
S'no-store, no-cache, must-revalidate, post-check=0, pre-check=0'
p3855
asbasbasbag69
(g85
g71
NtRp3856
(dp3857
g74
(dp3858
sg83
g3830
sg76
(lp3859
g69
(g90
g71
NtRp3860
(dp3861
g74
(dp3862
g94
g95
ssg83
g3856
sg76
(lp3863
S'Content-Type'
p3864
asbag69
(g90
g71
NtRp3865
(dp3866
g74
(dp3867
g101
g102
ssg83
g3856
sg76
(lp3868
S':'
asbag69
(g90
g71
NtRp3869
(dp3870
g74
(dp3871
sg83
g3856
sg76
(lp3872
g69
(g70
g71
NtRp3873
(dp3874
g74
(dp3875
g82
I4
ssg83
g3869
sg76
(lp3876
S'text/html; charset=utf-8'
p3877
asbasbasbag69
(g85
g71
NtRp3878
(dp3879
g74
(dp3880
sg83
g3830
sg76
(lp3881
g69
(g90
g71
NtRp3882
(dp3883
g74
(dp3884
g94
g95
ssg83
g3878
sg76
(lp3885
S'Expires'
p3886
asbag69
(g90
g71
NtRp3887
(dp3888
g74
(dp3889
g101
g102
ssg83
g3878
sg76
(lp3890
S':'
asbag69
(g90
g71
NtRp3891
(dp3892
g74
(dp3893
sg83
g3878
sg76
(lp3894
g69
(g70
g71
NtRp3895
(dp3896
g74
(dp3897
g82
I4
ssg83
g3891
sg76
(lp3898
S'Thu, 08 Mar 2012 15:27:14 GMT'
p3899
asbasbasbag69
(g85
g71
NtRp3900
(dp3901
g74
(dp3902
sg83
g3830
sg76
(lp3903
g69
(g90
g71
NtRp3904
(dp3905
g74
(dp3906
g94
g95
ssg83
g3900
sg76
(lp3907
S'Pragma'
p3908
asbag69
(g90
g71
NtRp3909
(dp3910
g74
(dp3911
g101
g102
ssg83
g3900
sg76
(lp3912
S':'
asbag69
(g90
g71
NtRp3913
(dp3914
g74
(dp3915
sg83
g3900
sg76
(lp3916
g69
(g70
g71
NtRp3917
(dp3918
g74
(dp3919
g82
I4
ssg83
g3913
sg76
(lp3920
S'no-cache'
p3921
asbasbasbag69
(g85
g71
NtRp3922
(dp3923
g74
(dp3924
sg83
g3830
sg76
(lp3925
g69
(g90
g71
NtRp3926
(dp3927
g74
(dp3928
g94
g95
ssg83
g3922
sg76
(lp3929
S'X-Powered-By'
p3930
asbag69
(g90
g71
NtRp3931
(dp3932
g74
(dp3933
g101
g102
ssg83
g3922
sg76
(lp3934
S':'
asbag69
(g90
g71
NtRp3935
(dp3936
g74
(dp3937
sg83
g3922
sg76
(lp3938
g69
(g70
g71
NtRp3939
(dp3940
g74
(dp3941
g82
I4
ssg83
g3935
sg76
(lp3942
S'web2py'
p3943
asbasbasbasbasbasbasbag69
(g85
g71
NtRp3944
(dp3945
g74
(dp3946
sg83
g3492
sg76
(lp3947
g69
(g90
g71
NtRp3948
(dp3949
g74
(dp3950
g94
g95
ssg83
g3944
sg76
(lp3951
S'menu'
p3952
asbag69
(g90
g71
NtRp3953
(dp3954
g74
(dp3955
g101
g102
ssg83
g3944
sg76
(lp3956
S':'
asbag69
(g90
g71
NtRp3957
(dp3958
g74
(dp3959
sg83
g3944
sg76
(lp3960
g69
(g70
g71
NtRp3961
(dp3962
g74
(dp3963
g82
I5
ssg83
g3957
sg76
(lp3964
g69
(g78
g71
NtRp3965
(dp3966
g74
(dp3967
g82
I4
ssg83
Nsg76
(lp3968
g69
(g85
g71
NtRp3969
(dp3970
g74
(dp3971
sg83
g3965
sg76
(lp3972
g69
(g90
g71
NtRp3973
(dp3974
g74
(dp3975
sg83
g3969
sg76
(lp3976
g69
(g70
g71
NtRp3977
(dp3978
g74
(dp3979
g82
I4
ssg83
g3973
sg76
(lp3980
g69
(g78
g71
NtRp3981
(dp3982
g74
(dp3983
g82
I3
ssg83
Nsg76
(lp3984
g69
(g85
g71
NtRp3985
(dp3986
g74
(dp3987
sg83
g3981
sg76
(lp3988
g69
(g90
g71
NtRp3989
(dp3990
g74
(dp3991
sg83
g3985
sg76
(lp3992
g69
(g70
g71
NtRp3993
(dp3994
g74
(dp3995
g82
I3
ssg83
g3989
sg76
(lp3996
cgluon.languages
lazyT_unpickle
p3997
(S't\x04\x00\x00\x00Home'
tRp3998
asbasbasbag69
(g85
g71
NtRp3999
(dp4000
g74
(dp4001
sg83
g3981
sg76
(lp4002
g69
(g90
g71
NtRp4003
(dp4004
g74
(dp4005
sg83
g3999
sg76
(lp4006
g69
(g70
g71
NtRp4007
(dp4008
g74
(dp4009
g82
I3
ssg83
g4003
sg76
(lp4010
g112
asbasbasbag69
(g85
g71
NtRp4011
(dp4012
g74
(dp4013
sg83
g3981
sg76
(lp4014
g69
(g90
g71
NtRp4015
(dp4016
g74
(dp4017
sg83
g4011
sg76
(lp4018
g69
(g70
g71
NtRp4019
(dp4020
g74
(dp4021
g82
I3
ssg83
g4015
sg76
(lp4022
S'/grammateus3/default/index'
p4023
asbasbasbag69
(g85
g71
NtRp4024
(dp4025
g74
(dp4026
sg83
g3981
sg76
(lp4027
g69
(g90
g71
NtRp4028
(dp4029
g74
(dp4030
sg83
g4024
sg76
(lp4031
g69
(g70
g71
NtRp4032
(dp4033
g74
(dp4034
g82
I3
ssg83
g4028
sg76
(lp4035
g69
(g78
g71
NtRp4036
(dp4037
g74
(dp4038
g82
I2
ssg83
Nsg76
(lp4039
sbasbasbasbasbasbasbasbag69
(g85
g71
NtRp4040
(dp4041
g74
(dp4042
sg83
g3965
sg76
(lp4043
g69
(g90
g71
NtRp4044
(dp4045
g74
(dp4046
sg83
g4040
sg76
(lp4047
g69
(g70
g71
NtRp4048
(dp4049
g74
(dp4050
g82
I4
ssg83
g4044
sg76
(lp4051
g69
(g78
g71
NtRp4052
(dp4053
g74
(dp4054
g82
I3
ssg83
Nsg76
(lp4055
g69
(g85
g71
NtRp4056
(dp4057
g74
(dp4058
sg83
g4052
sg76
(lp4059
g69
(g90
g71
NtRp4060
(dp4061
g74
(dp4062
sg83
g4056
sg76
(lp4063
g69
(g70
g71
NtRp4064
(dp4065
g74
(dp4066
g82
I3
ssg83
g4060
sg76
(lp4067
g69
(cgluon.html
SPAN
p4068
g71
NtRp4069
(dp4070
g74
(dp4071
g94
S'color:yellow'
p4072
ssg83
Nsg76
(lp4073
g3943
asbasbasbasbag69
(g85
g71
NtRp4074
(dp4075
g74
(dp4076
sg83
g4052
sg76
(lp4077
g69
(g90
g71
NtRp4078
(dp4079
g74
(dp4080
sg83
g4074
sg76
(lp4081
g69
(g70
g71
NtRp4082
(dp4083
g74
(dp4084
g82
I3
ssg83
g4078
sg76
(lp4085
g112
asbasbasbag69
(g85
g71
NtRp4086
(dp4087
g74
(dp4088
sg83
g4052
sg76
(lp4089
g69
(g90
g71
NtRp4090
(dp4091
g74
(dp4092
sg83
g4086
sg76
(lp4093
g69
(g70
g71
NtRp4094
(dp4095
g74
(dp4096
g82
I3
ssg83
g4090
sg76
(lp4097
S'None'
p4098
asbasbasbag69
(g85
g71
NtRp4099
(dp4100
g74
(dp4101
sg83
g4052
sg76
(lp4102
g69
(g90
g71
NtRp4103
(dp4104
g74
(dp4105
sg83
g4099
sg76
(lp4106
g69
(g70
g71
NtRp4107
(dp4108
g74
(dp4109
g82
I3
ssg83
g4103
sg76
(lp4110
g69
(g78
g71
NtRp4111
(dp4112
g74
(dp4113
g82
I2
ssg83
Nsg76
(lp4114
g69
(g85
g71
NtRp4115
(dp4116
g74
(dp4117
sg83
g4111
sg76
(lp4118
g69
(g90
g71
NtRp4119
(dp4120
g74
(dp4121
sg83
g4115
sg76
(lp4122
g69
(g70
g71
NtRp4123
(dp4124
g74
(dp4125
g82
I2
ssg83
g4119
sg76
(lp4126
g69
(g78
g71
NtRp4127
(dp4128
g74
(dp4129
g82
I1
ssg83
Nsg76
(lp4130
g69
(g85
g71
NtRp4131
(dp4132
g74
(dp4133
sg83
g4127
sg76
(lp4134
g69
(g90
g71
NtRp4135
(dp4136
g74
(dp4137
sg83
g4131
sg76
(lp4138
g69
(g70
g71
NtRp4139
(dp4140
g74
(dp4141
g82
I1
ssg83
g4135
sg76
(lp4142
g3997
(S's\x08\x00\x00\x00My Sites'
tRp4143
asbasbasbag69
(g85
g71
NtRp4144
(dp4145
g74
(dp4146
sg83
g4127
sg76
(lp4147
g69
(g90
g71
NtRp4148
(dp4149
g74
(dp4150
sg83
g4144
sg76
(lp4151
g69
(g70
g71
NtRp4152
(dp4153
g74
(dp4154
g82
I1
ssg83
g4148
sg76
(lp4155
I00
asbasbasbag69
(g85
g71
NtRp4156
(dp4157
g74
(dp4158
sg83
g4127
sg76
(lp4159
g69
(g90
g71
NtRp4160
(dp4161
g74
(dp4162
sg83
g4156
sg76
(lp4163
g69
(g70
g71
NtRp4164
(dp4165
g74
(dp4166
g82
I1
ssg83
g4160
sg76
(lp4167
S'/admin/default/site'
p4168
asbasbasbasbasbasbasbag69
(g85
g71
NtRp4169
(dp4170
g74
(dp4171
sg83
g4111
sg76
(lp4172
g69
(g90
g71
NtRp4173
(dp4174
g74
(dp4175
sg83
g4169
sg76
(lp4176
g69
(g70
g71
NtRp4177
(dp4178
g74
(dp4179
g82
I2
ssg83
g4173
sg76
(lp4180
g69
(g78
g71
NtRp4181
(dp4182
g74
(dp4183
g82
I1
ssg83
Nsg76
(lp4184
g69
(g85
g71
NtRp4185
(dp4186
g74
(dp4187
sg83
g4181
sg76
(lp4188
g69
(g90
g71
NtRp4189
(dp4190
g74
(dp4191
sg83
g4185
sg76
(lp4192
g69
(g70
g71
NtRp4193
(dp4194
g74
(dp4195
g82
I1
ssg83
g4189
sg76
(lp4196
g3997
(S's\x08\x00\x00\x00This App'
tRp4197
asbasbasbag69
(g85
g71
NtRp4198
(dp4199
g74
(dp4200
sg83
g4181
sg76
(lp4201
g69
(g90
g71
NtRp4202
(dp4203
g74
(dp4204
sg83
g4198
sg76
(lp4205
g69
(g70
g71
NtRp4206
(dp4207
g74
(dp4208
g82
I1
ssg83
g4202
sg76
(lp4209
I00
asbasbasbag69
(g85
g71
NtRp4210
(dp4211
g74
(dp4212
sg83
g4181
sg76
(lp4213
g69
(g90
g71
NtRp4214
(dp4215
g74
(dp4216
sg83
g4210
sg76
(lp4217
g69
(g70
g71
NtRp4218
(dp4219
g74
(dp4220
g82
I1
ssg83
g4214
sg76
(lp4221
S'/admin/default/design/grammateus3'
p4222
asbasbasbag69
(g85
g71
NtRp4223
(dp4224
g74
(dp4225
sg83
g4181
sg76
(lp4226
g69
(g90
g71
NtRp4227
(dp4228
g74
(dp4229
sg83
g4223
sg76
(lp4230
g69
(g70
g71
NtRp4231
(dp4232
g74
(dp4233
g82
I1
ssg83
g4227
sg76
(lp4234
(lp4235
(g3997
(S't\n\x00\x00\x00Controller'
tRp4236
I00
S'/admin/default/edit/grammateus3/controllers/docs.py'
tp4237
a(g3997
(S't\x04\x00\x00\x00View'
tRp4238
I00
S'/admin/default/edit/grammateus3/views/docs/text.html'
tp4239
a(g3997
(S't\x06\x00\x00\x00Layout'
tRp4240
I00
S'/admin/default/edit/grammateus3/views/layout.html'
tp4241
a(g3997
(S't\n\x00\x00\x00Stylesheet'
tRp4242
I00
S'/admin/default/edit/grammateus3/static/css/web2py.css'
tp4243
a(g3997
(S's\x08\x00\x00\x00DB Model'
tRp4244
I00
S'/admin/default/edit/grammateus3/models/db.py'
tp4245
a(g3997
(S's\n\x00\x00\x00Menu Model'
tRp4246
I00
S'/admin/default/edit/grammateus3/models/menu.py'
tp4247
a(g3997
(S't\x08\x00\x00\x00Database'
tRp4248
I00
S'/grammateus3/appadmin/index'
tp4249
a(g3997
(S't\x06\x00\x00\x00Errors'
tRp4250
I00
S'/admin/default/errors/grammateus3'
tp4251
a(g3997
(S't\x05\x00\x00\x00About'
tRp4252
I00
S'/admin/default/about/grammateus3'
tp4253
aasbasbasbasbasbasbasbag69
(g85
g71
NtRp4254
(dp4255
g74
(dp4256
sg83
g4111
sg76
(lp4257
g69
(g90
g71
NtRp4258
(dp4259
g74
(dp4260
sg83
g4254
sg76
(lp4261
g69
(g70
g71
NtRp4262
(dp4263
g74
(dp4264
g82
I2
ssg83
g4258
sg76
(lp4265
g69
(g78
g71
NtRp4266
(dp4267
g74
(dp4268
g82
I1
ssg83
Nsg76
(lp4269
g69
(g85
g71
NtRp4270
(dp4271
g74
(dp4272
sg83
g4266
sg76
(lp4273
g69
(g90
g71
NtRp4274
(dp4275
g74
(dp4276
sg83
g4270
sg76
(lp4277
g69
(g70
g71
NtRp4278
(dp4279
g74
(dp4280
g82
I1
ssg83
g4274
sg76
(lp4281
S'web2py.com'
p4282
asbasbasbag69
(g85
g71
NtRp4283
(dp4284
g74
(dp4285
sg83
g4266
sg76
(lp4286
g69
(g90
g71
NtRp4287
(dp4288
g74
(dp4289
sg83
g4283
sg76
(lp4290
g69
(g70
g71
NtRp4291
(dp4292
g74
(dp4293
g82
I1
ssg83
g4287
sg76
(lp4294
I00
asbasbasbag69
(g85
g71
NtRp4295
(dp4296
g74
(dp4297
sg83
g4266
sg76
(lp4298
g69
(g90
g71
NtRp4299
(dp4300
g74
(dp4301
sg83
g4295
sg76
(lp4302
g69
(g70
g71
NtRp4303
(dp4304
g74
(dp4305
g82
I1
ssg83
g4299
sg76
(lp4306
S'http://www.web2py.com'
p4307
asbasbasbag69
(g85
g71
NtRp4308
(dp4309
g74
(dp4310
sg83
g4266
sg76
(lp4311
g69
(g90
g71
NtRp4312
(dp4313
g74
(dp4314
sg83
g4308
sg76
(lp4315
g69
(g70
g71
NtRp4316
(dp4317
g74
(dp4318
g82
I1
ssg83
g4312
sg76
(lp4319
(lp4320
(g3997
(S't\x08\x00\x00\x00Download'
tRp4321
I00
S'http://www.web2py.com/examples/default/download'
p4322
tp4323
a(g3997
(S't\x07\x00\x00\x00Support'
tRp4324
I00
S'http://www.web2py.com/examples/default/support'
p4325
tp4326
a(g3997
(S't\x04\x00\x00\x00Demo'
tRp4327
I00
S'http://web2py.com/demo_admin'
p4328
tp4329
a(g3997
(S's\x0e\x00\x00\x00Quick Examples'
tRp4330
I00
S'http://web2py.com/examples/default/examples'
p4331
tp4332
a(g3997
(S't\x03\x00\x00\x00FAQ'
tRp4333
I00
S'http://web2py.com/AlterEgo'
p4334
tp4335
a(g3997
(S't\x06\x00\x00\x00Videos'
tRp4336
I00
S'http://www.web2py.com/examples/default/videos/'
p4337
tp4338
a(g3997
(S's\x11\x00\x00\x00Free Applications'
tRp4339
I00
S'http://web2py.com/appliances'
p4340
tp4341
a(g3997
(S't\x07\x00\x00\x00Plugins'
tRp4342
I00
S'http://web2py.com/plugins'
p4343
tp4344
a(g3997
(S't\x07\x00\x00\x00Layouts'
tRp4345
I00
S'http://web2py.com/layouts'
p4346
tp4347
a(g3997
(S't\x07\x00\x00\x00Recipes'
tRp4348
I00
S'http://web2pyslices.com/'
p4349
tp4350
a(g3997
(S't\x08\x00\x00\x00Semantic'
tRp4351
I00
S'http://web2py.com/semantic'
p4352
tp4353
aasbasbasbasbasbasbasbag69
(g85
g71
NtRp4354
(dp4355
g74
(dp4356
sg83
g4111
sg76
(lp4357
g69
(g90
g71
NtRp4358
(dp4359
g74
(dp4360
sg83
g4354
sg76
(lp4361
g69
(g70
g71
NtRp4362
(dp4363
g74
(dp4364
g82
I2
ssg83
g4358
sg76
(lp4365
g69
(g78
g71
NtRp4366
(dp4367
g74
(dp4368
g82
I1
ssg83
Nsg76
(lp4369
g69
(g85
g71
NtRp4370
(dp4371
g74
(dp4372
sg83
g4366
sg76
(lp4373
g69
(g90
g71
NtRp4374
(dp4375
g74
(dp4376
sg83
g4370
sg76
(lp4377
g69
(g70
g71
NtRp4378
(dp4379
g74
(dp4380
g82
I1
ssg83
g4374
sg76
(lp4381
g3997
(S't\r\x00\x00\x00Documentation'
tRp4382
asbasbasbag69
(g85
g71
NtRp4383
(dp4384
g74
(dp4385
sg83
g4366
sg76
(lp4386
g69
(g90
g71
NtRp4387
(dp4388
g74
(dp4389
sg83
g4383
sg76
(lp4390
g69
(g70
g71
NtRp4391
(dp4392
g74
(dp4393
g82
I1
ssg83
g4387
sg76
(lp4394
I00
asbasbasbag69
(g85
g71
NtRp4395
(dp4396
g74
(dp4397
sg83
g4366
sg76
(lp4398
g69
(g90
g71
NtRp4399
(dp4400
g74
(dp4401
sg83
g4395
sg76
(lp4402
g69
(g70
g71
NtRp4403
(dp4404
g74
(dp4405
g82
I1
ssg83
g4399
sg76
(lp4406
S'http://www.web2py.com/book'
p4407
asbasbasbag69
(g85
g71
NtRp4408
(dp4409
g74
(dp4410
sg83
g4366
sg76
(lp4411
g69
(g90
g71
NtRp4412
(dp4413
g74
(dp4414
sg83
g4408
sg76
(lp4415
g69
(g70
g71
NtRp4416
(dp4417
g74
(dp4418
g82
I1
ssg83
g4412
sg76
(lp4419
(lp4420
(g3997
(S't\x07\x00\x00\x00Preface'
tRp4421
I00
S'http://www.web2py.com/book/default/chapter/00'
p4422
tp4423
a(g3997
(S't\x0c\x00\x00\x00Introduction'
tRp4424
I00
S'http://www.web2py.com/book/default/chapter/01'
p4425
tp4426
a(g3997
(S't\x06\x00\x00\x00Python'
tRp4427
I00
S'http://www.web2py.com/book/default/chapter/02'
p4428
tp4429
a(g3997
(S't\x08\x00\x00\x00Overview'
tRp4430
I00
S'http://www.web2py.com/book/default/chapter/03'
p4431
tp4432
a(g3997
(S's\x08\x00\x00\x00The Core'
tRp4433
I00
S'http://www.web2py.com/book/default/chapter/04'
p4434
tp4435
a(g3997
(S's\t\x00\x00\x00The Views'
tRp4436
I00
S'http://www.web2py.com/book/default/chapter/05'
p4437
tp4438
a(g3997
(S't\x08\x00\x00\x00Database'
tRp4439
I00
S'http://www.web2py.com/book/default/chapter/06'
p4440
tp4441
a(g3997
(S's\x14\x00\x00\x00Forms and Validators'
tRp4442
I00
S'http://www.web2py.com/book/default/chapter/07'
p4443
tp4444
a(g3997
(S's\r\x00\x00\x00Email and SMS'
tRp4445
I00
S'http://www.web2py.com/book/default/chapter/08'
p4446
tp4447
a(g3997
(S's\x0e\x00\x00\x00Access Control'
tRp4448
I00
S'http://www.web2py.com/book/default/chapter/09'
p4449
tp4450
a(g3997
(S't\x08\x00\x00\x00Services'
tRp4451
I00
S'http://www.web2py.com/book/default/chapter/10'
p4452
tp4453
a(g3997
(S's\x0c\x00\x00\x00Ajax Recipes'
tRp4454
I00
S'http://www.web2py.com/book/default/chapter/11'
p4455
tp4456
a(g3997
(S's\x16\x00\x00\x00Components and Plugins'
tRp4457
I00
S'http://www.web2py.com/book/default/chapter/12'
p4458
tp4459
a(g3997
(S's\x12\x00\x00\x00Deployment Recipes'
tRp4460
I00
S'http://www.web2py.com/book/default/chapter/13'
p4461
tp4462
a(g3997
(S's\r\x00\x00\x00Other Recipes'
tRp4463
I00
S'http://www.web2py.com/book/default/chapter/14'
p4464
tp4465
a(g3997
(S's\r\x00\x00\x00Buy this book'
tRp4466
I00
S'http://stores.lulu.com/web2py'
p4467
tp4468
aasbasbasbasbasbasbasbag69
(g85
g71
NtRp4469
(dp4470
g74
(dp4471
sg83
g4111
sg76
(lp4472
g69
(g90
g71
NtRp4473
(dp4474
g74
(dp4475
sg83
g4469
sg76
(lp4476
g69
(g70
g71
NtRp4477
(dp4478
g74
(dp4479
g82
I2
ssg83
g4473
sg76
(lp4480
g69
(g78
g71
NtRp4481
(dp4482
g74
(dp4483
g82
I1
ssg83
Nsg76
(lp4484
g69
(g85
g71
NtRp4485
(dp4486
g74
(dp4487
sg83
g4481
sg76
(lp4488
g69
(g90
g71
NtRp4489
(dp4490
g74
(dp4491
sg83
g4485
sg76
(lp4492
g69
(g70
g71
NtRp4493
(dp4494
g74
(dp4495
g82
I1
ssg83
g4489
sg76
(lp4496
g3997
(S't\t\x00\x00\x00Community'
tRp4497
asbasbasbag69
(g85
g71
NtRp4498
(dp4499
g74
(dp4500
sg83
g4481
sg76
(lp4501
g69
(g90
g71
NtRp4502
(dp4503
g74
(dp4504
sg83
g4498
sg76
(lp4505
g69
(g70
g71
NtRp4506
(dp4507
g74
(dp4508
g82
I1
ssg83
g4502
sg76
(lp4509
I00
asbasbasbag69
(g85
g71
NtRp4510
(dp4511
g74
(dp4512
sg83
g4481
sg76
(lp4513
g69
(g90
g71
NtRp4514
(dp4515
g74
(dp4516
sg83
g4510
sg76
(lp4517
g69
(g70
g71
NtRp4518
(dp4519
g74
(dp4520
g82
I1
ssg83
g4514
sg76
(lp4521
Nasbasbasbag69
(g85
g71
NtRp4522
(dp4523
g74
(dp4524
sg83
g4481
sg76
(lp4525
g69
(g90
g71
NtRp4526
(dp4527
g74
(dp4528
sg83
g4522
sg76
(lp4529
g69
(g70
g71
NtRp4530
(dp4531
g74
(dp4532
g82
I1
ssg83
g4526
sg76
(lp4533
(lp4534
(g3997
(S't\x06\x00\x00\x00Groups'
tRp4535
I00
S'http://www.web2py.com/examples/default/usergroups'
p4536
tp4537
a(g3997
(S't\x07\x00\x00\x00Twitter'
tRp4538
I00
S'http://twitter.com/web2py'
p4539
tp4540
a(g3997
(S's\t\x00\x00\x00Live Chat'
tRp4541
I00
S'http://webchat.freenode.net/?channels=web2py'
p4542
tp4543
aasbasbasbasbasbasbasbag69
(g85
g71
NtRp4544
(dp4545
g74
(dp4546
sg83
g4111
sg76
(lp4547
g69
(g90
g71
NtRp4548
(dp4549
g74
(dp4550
sg83
g4544
sg76
(lp4551
g69
(g70
g71
NtRp4552
(dp4553
g74
(dp4554
g82
I2
ssg83
g4548
sg76
(lp4555
g69
(g78
g71
NtRp4556
(dp4557
g74
(dp4558
g82
I1
ssg83
Nsg76
(lp4559
g69
(g85
g71
NtRp4560
(dp4561
g74
(dp4562
sg83
g4556
sg76
(lp4563
g69
(g90
g71
NtRp4564
(dp4565
g74
(dp4566
sg83
g4560
sg76
(lp4567
g69
(g70
g71
NtRp4568
(dp4569
g74
(dp4570
g82
I1
ssg83
g4564
sg76
(lp4571
g3997
(S't\x07\x00\x00\x00Plugins'
tRp4572
asbasbasbag69
(g85
g71
NtRp4573
(dp4574
g74
(dp4575
sg83
g4556
sg76
(lp4576
g69
(g90
g71
NtRp4577
(dp4578
g74
(dp4579
sg83
g4573
sg76
(lp4580
g69
(g70
g71
NtRp4581
(dp4582
g74
(dp4583
g82
I1
ssg83
g4577
sg76
(lp4584
I00
asbasbasbag69
(g85
g71
NtRp4585
(dp4586
g74
(dp4587
sg83
g4556
sg76
(lp4588
g69
(g90
g71
NtRp4589
(dp4590
g74
(dp4591
sg83
g4585
sg76
(lp4592
g69
(g70
g71
NtRp4593
(dp4594
g74
(dp4595
g82
I1
ssg83
g4589
sg76
(lp4596
Nasbasbasbag69
(g85
g71
NtRp4597
(dp4598
g74
(dp4599
sg83
g4556
sg76
(lp4600
g69
(g90
g71
NtRp4601
(dp4602
g74
(dp4603
sg83
g4597
sg76
(lp4604
g69
(g70
g71
NtRp4605
(dp4606
g74
(dp4607
g82
I1
ssg83
g4601
sg76
(lp4608
(lp4609
(S'plugin_wiki'
p4610
I00
S'http://web2py.com/examples/default/download'
p4611
tp4612
a(g3997
(S's\r\x00\x00\x00Other Plugins'
tRp4613
I00
g4343
tp4614
a(g3997
(S's\x0e\x00\x00\x00Layout Plugins'
tRp4615
I00
g4346
tp4616
aasbasbasbasbasbasbasbasbasbasbasbasbasbasbasbasbasbasbasbag69
(g85
g71
NtRp4617
(dp4618
g74
(dp4619
sg83
g3492
sg76
(lp4620
g69
(g90
g71
NtRp4621
(dp4622
g74
(dp4623
g94
g95
ssg83
g4617
sg76
(lp4624
S'meta'
p4625
asbag69
(g90
g71
NtRp4626
(dp4627
g74
(dp4628
g101
g102
ssg83
g4617
sg76
(lp4629
S':'
asbag69
(g90
g71
NtRp4630
(dp4631
g74
(dp4632
sg83
g4617
sg76
(lp4633
g69
(g70
g71
NtRp4634
(dp4635
g74
(dp4636
g82
I5
ssg83
g4630
sg76
(lp4637
g69
(g78
g71
NtRp4638
(dp4639
g74
(dp4640
g82
I4
ssg83
Nsg76
(lp4641
g69
(g85
g71
NtRp4642
(dp4643
g74
(dp4644
sg83
g4638
sg76
(lp4645
g69
(g90
g71
NtRp4646
(dp4647
g74
(dp4648
g94
g95
ssg83
g4642
sg76
(lp4649
S'author'
p4650
asbag69
(g90
g71
NtRp4651
(dp4652
g74
(dp4653
g101
g102
ssg83
g4642
sg76
(lp4654
S':'
asbag69
(g90
g71
NtRp4655
(dp4656
g74
(dp4657
sg83
g4642
sg76
(lp4658
g69
(g70
g71
NtRp4659
(dp4660
g74
(dp4661
g82
I4
ssg83
g4655
sg76
(lp4662
S'Your Name <you@example.com>'
p4663
asbasbasbag69
(g85
g71
NtRp4664
(dp4665
g74
(dp4666
sg83
g4638
sg76
(lp4667
g69
(g90
g71
NtRp4668
(dp4669
g74
(dp4670
g94
g95
ssg83
g4664
sg76
(lp4671
S'copyright'
p4672
asbag69
(g90
g71
NtRp4673
(dp4674
g74
(dp4675
g101
g102
ssg83
g4664
sg76
(lp4676
S':'
asbag69
(g90
g71
NtRp4677
(dp4678
g74
(dp4679
sg83
g4664
sg76
(lp4680
g69
(g70
g71
NtRp4681
(dp4682
g74
(dp4683
g82
I4
ssg83
g4677
sg76
(lp4684
S'Copyright 2011'
p4685
asbasbasbag69
(g85
g71
NtRp4686
(dp4687
g74
(dp4688
sg83
g4638
sg76
(lp4689
g69
(g90
g71
NtRp4690
(dp4691
g74
(dp4692
g94
g95
ssg83
g4686
sg76
(lp4693
S'description'
p4694
asbag69
(g90
g71
NtRp4695
(dp4696
g74
(dp4697
g101
g102
ssg83
g4686
sg76
(lp4698
S':'
asbag69
(g90
g71
NtRp4699
(dp4700
g74
(dp4701
sg83
g4686
sg76
(lp4702
g69
(g70
g71
NtRp4703
(dp4704
g74
(dp4705
g82
I4
ssg83
g4699
sg76
(lp4706
S'a cool new app'
p4707
asbasbasbag69
(g85
g71
NtRp4708
(dp4709
g74
(dp4710
sg83
g4638
sg76
(lp4711
g69
(g90
g71
NtRp4712
(dp4713
g74
(dp4714
g94
g95
ssg83
g4708
sg76
(lp4715
S'generator'
p4716
asbag69
(g90
g71
NtRp4717
(dp4718
g74
(dp4719
g101
g102
ssg83
g4708
sg76
(lp4720
S':'
asbag69
(g90
g71
NtRp4721
(dp4722
g74
(dp4723
sg83
g4708
sg76
(lp4724
g69
(g70
g71
NtRp4725
(dp4726
g74
(dp4727
g82
I4
ssg83
g4721
sg76
(lp4728
S'Web2py Web Framework'
p4729
asbasbasbag69
(g85
g71
NtRp4730
(dp4731
g74
(dp4732
sg83
g4638
sg76
(lp4733
g69
(g90
g71
NtRp4734
(dp4735
g74
(dp4736
g94
g95
ssg83
g4730
sg76
(lp4737
S'keywords'
p4738
asbag69
(g90
g71
NtRp4739
(dp4740
g74
(dp4741
g101
g102
ssg83
g4730
sg76
(lp4742
S':'
asbag69
(g90
g71
NtRp4743
(dp4744
g74
(dp4745
sg83
g4730
sg76
(lp4746
g69
(g70
g71
NtRp4747
(dp4748
g74
(dp4749
g82
I4
ssg83
g4743
sg76
(lp4750
S'web2py, python, framework'
p4751
asbasbasbasbasbasbasbag69
(g85
g71
NtRp4752
(dp4753
g74
(dp4754
sg83
g3492
sg76
(lp4755
g69
(g90
g71
NtRp4756
(dp4757
g74
(dp4758
g94
g95
ssg83
g4752
sg76
(lp4759
S'postprocessing'
p4760
asbag69
(g90
g71
NtRp4761
(dp4762
g74
(dp4763
g101
g102
ssg83
g4752
sg76
(lp4764
S':'
asbag69
(g90
g71
NtRp4765
(dp4766
g74
(dp4767
sg83
g4752
sg76
(lp4768
g69
(g70
g71
NtRp4769
(dp4770
g74
(dp4771
g82
I5
ssg83
g4765
sg76
(lp4772
g69
(g78
g71
NtRp4773
(dp4774
g74
(dp4775
g82
I4
ssg83
Nsg76
(lp4776
sbasbasbasbag69
(g85
g71
NtRp4777
(dp4778
g74
(dp4779
sg83
g3492
sg76
(lp4780
g69
(g90
g71
NtRp4781
(dp4782
g74
(dp4783
g94
g95
ssg83
g4777
sg76
(lp4784
S'session_file'
p4785
asbag69
(g90
g71
NtRp4786
(dp4787
g74
(dp4788
g101
g102
ssg83
g4777
sg76
(lp4789
S':'
asbag69
(g90
g71
NtRp4790
(dp4791
g74
(dp4792
sg83
g4777
sg76
(lp4793
g69
(g70
g71
NtRp4794
(dp4795
g74
(dp4796
g82
I5
ssg83
g4790
sg76
(lp4797
S"<open file '/home/iscott/web/web2py/applications/grammateus3/sessions/127.0.0.1-03d15d8e-e891-4307-a6bf-5717208181cd', mode 'rb+' at 0xafff7b0>"
p4798
asbasbasbag69
(g85
g71
NtRp4799
(dp4800
g74
(dp4801
sg83
g3492
sg76
(lp4802
g69
(g90
g71
NtRp4803
(dp4804
g74
(dp4805
g94
g95
ssg83
g4799
sg76
(lp4806
S'session_filename'
p4807
asbag69
(g90
g71
NtRp4808
(dp4809
g74
(dp4810
g101
g102
ssg83
g4799
sg76
(lp4811
S':'
asbag69
(g90
g71
NtRp4812
(dp4813
g74
(dp4814
sg83
g4799
sg76
(lp4815
g69
(g70
g71
NtRp4816
(dp4817
g74
(dp4818
g82
I5
ssg83
g4812
sg76
(lp4819
S'/home/iscott/web/web2py/applications/grammateus3/sessions/127.0.0.1-03d15d8e-e891-4307-a6bf-5717208181cd'
p4820
asbasbasbag69
(g85
g71
NtRp4821
(dp4822
g74
(dp4823
sg83
g3492
sg76
(lp4824
g69
(g90
g71
NtRp4825
(dp4826
g74
(dp4827
g94
g95
ssg83
g4821
sg76
(lp4828
S'session_id'
p4829
asbag69
(g90
g71
NtRp4830
(dp4831
g74
(dp4832
g101
g102
ssg83
g4821
sg76
(lp4833
S':'
asbag69
(g90
g71
NtRp4834
(dp4835
g74
(dp4836
sg83
g4821
sg76
(lp4837
g69
(g70
g71
NtRp4838
(dp4839
g74
(dp4840
g82
I5
ssg83
g4834
sg76
(lp4841
S'127.0.0.1-03d15d8e-e891-4307-a6bf-5717208181cd'
p4842
asbasbasbag69
(g85
g71
NtRp4843
(dp4844
g74
(dp4845
sg83
g3492
sg76
(lp4846
g69
(g90
g71
NtRp4847
(dp4848
g74
(dp4849
g94
g95
ssg83
g4843
sg76
(lp4850
S'session_id_name'
p4851
asbag69
(g90
g71
NtRp4852
(dp4853
g74
(dp4854
g101
g102
ssg83
g4843
sg76
(lp4855
S':'
asbag69
(g90
g71
NtRp4856
(dp4857
g74
(dp4858
sg83
g4843
sg76
(lp4859
g69
(g70
g71
NtRp4860
(dp4861
g74
(dp4862
g82
I5
ssg83
g4856
sg76
(lp4863
g3549
asbasbasbag69
(g85
g71
NtRp4864
(dp4865
g74
(dp4866
sg83
g3492
sg76
(lp4867
g69
(g90
g71
NtRp4868
(dp4869
g74
(dp4870
g94
g95
ssg83
g4864
sg76
(lp4871
S'session_locked'
p4872
asbag69
(g90
g71
NtRp4873
(dp4874
g74
(dp4875
g101
g102
ssg83
g4864
sg76
(lp4876
S':'
asbag69
(g90
g71
NtRp4877
(dp4878
g74
(dp4879
sg83
g4864
sg76
(lp4880
g69
(g70
g71
NtRp4881
(dp4882
g74
(dp4883
g82
I5
ssg83
g4877
sg76
(lp4884
g2073
asbasbasbag69
(g85
g71
NtRp4885
(dp4886
g74
(dp4887
sg83
g3492
sg76
(lp4888
g69
(g90
g71
NtRp4889
(dp4890
g74
(dp4891
g94
g95
ssg83
g4885
sg76
(lp4892
S'session_new'
p4893
asbag69
(g90
g71
NtRp4894
(dp4895
g74
(dp4896
g101
g102
ssg83
g4885
sg76
(lp4897
S':'
asbag69
(g90
g71
NtRp4898
(dp4899
g74
(dp4900
sg83
g4885
sg76
(lp4901
g69
(g70
g71
NtRp4902
(dp4903
g74
(dp4904
g82
I5
ssg83
g4898
sg76
(lp4905
g112
asbasbasbag69
(g85
g71
NtRp4906
(dp4907
g74
(dp4908
sg83
g3492
sg76
(lp4909
g69
(g90
g71
NtRp4910
(dp4911
g74
(dp4912
g94
g95
ssg83
g4906
sg76
(lp4913
S'status'
p4914
asbag69
(g90
g71
NtRp4915
(dp4916
g74
(dp4917
g101
g102
ssg83
g4906
sg76
(lp4918
S':'
asbag69
(g90
g71
NtRp4919
(dp4920
g74
(dp4921
sg83
g4906
sg76
(lp4922
g69
(g70
g71
NtRp4923
(dp4924
g74
(dp4925
g82
I5
ssg83
g4919
sg76
(lp4926
S'200'
p4927
asbasbasbag69
(g85
g71
NtRp4928
(dp4929
g74
(dp4930
sg83
g3492
sg76
(lp4931
g69
(g90
g71
NtRp4932
(dp4933
g74
(dp4934
g94
g95
ssg83
g4928
sg76
(lp4935
S'subtitle'
p4936
asbag69
(g90
g71
NtRp4937
(dp4938
g74
(dp4939
g101
g102
ssg83
g4928
sg76
(lp4940
S':'
asbag69
(g90
g71
NtRp4941
(dp4942
g74
(dp4943
sg83
g4928
sg76
(lp4944
g69
(g70
g71
NtRp4945
(dp4946
g74
(dp4947
g82
I5
ssg83
g4941
sg76
(lp4948
g3997
(S's\r\x00\x00\x00customize me!'
tRp4949
asbasbasbag69
(g85
g71
NtRp4950
(dp4951
g74
(dp4952
sg83
g3492
sg76
(lp4953
g69
(g90
g71
NtRp4954
(dp4955
g74
(dp4956
g94
g95
ssg83
g4950
sg76
(lp4957
S'title'
p4958
asbag69
(g90
g71
NtRp4959
(dp4960
g74
(dp4961
g101
g102
ssg83
g4950
sg76
(lp4962
S':'
asbag69
(g90
g71
NtRp4963
(dp4964
g74
(dp4965
sg83
g4950
sg76
(lp4966
g69
(g70
g71
NtRp4967
(dp4968
g74
(dp4969
g82
I5
ssg83
g4963
sg76
(lp4970
S'Grammateus3'
p4971
asbasbasbag69
(g85
g71
NtRp4972
(dp4973
g74
(dp4974
sg83
g3492
sg76
(lp4975
g69
(g90
g71
NtRp4976
(dp4977
g74
(dp4978
g94
g95
ssg83
g4972
sg76
(lp4979
g2758
asbag69
(g90
g71
NtRp4980
(dp4981
g74
(dp4982
g101
g102
ssg83
g4972
sg76
(lp4983
S':'
asbag69
(g90
g71
NtRp4984
(dp4985
g74
(dp4986
sg83
g4972
sg76
(lp4987
g69
(g70
g71
NtRp4988
(dp4989
g74
(dp4990
g82
I5
ssg83
g4984
sg76
(lp4991
g2771
asbasbasbag69
(g85
g71
NtRp4992
(dp4993
g74
(dp4994
sg83
g3492
sg76
(lp4995
g69
(g90
g71
NtRp4996
(dp4997
g74
(dp4998
g94
g95
ssg83
g4992
sg76
(lp4999
S'view'
p5000
asbag69
(g90
g71
NtRp5001
(dp5002
g74
(dp5003
g101
g102
ssg83
g4992
sg76
(lp5004
S':'
asbag69
(g90
g71
NtRp5005
(dp5006
g74
(dp5007
sg83
g4992
sg76
(lp5008
g69
(g70
g71
NtRp5009
(dp5010
g74
(dp5011
g82
I5
ssg83
g5005
sg76
(lp5012
S'docs/text.html'
p5013
asbasbasbasbasbsS'locals'
p5014
(dp5015
g4
S"'/home/iscott/web/web2py/applications/grammateus3/controllers/docs.py'"
p5016
sg6
S"'# coding: utf8\\nfrom lxml import etree\\n\\nfrom pars...o = info)\\n\\nresponse._vars=response._caller(text)\\n'"
p5017
sssS'traceback'
p5018
S'Traceback (most recent call last):\n  File "/home/iscott/web/web2py/gluon/restricted.py", line 203, in restricted\n    ccode = compile2(code,layer)\n  File "/home/iscott/web/web2py/gluon/restricted.py", line 189, in compile2\n    return compile(code.rstrip().replace(\'\\r\\n\',\'\\n\')+\'\\n\', layer, \'exec\')\n  File "/home/iscott/web/web2py/applications/grammateus3/controllers/docs.py", line 36\n    varlist = str(k) + \':\' + str(v) for k, v in request.vars.items()\n                                      ^\nSyntaxError: invalid syntax\n'
p5019
s.