(dp1
S'output'
p2
S"<type 'exceptions.NameError'> global name 'book_file' is not defined"
p3
sS'layer'
p4
S'/home/iscott/web/web2py/applications/grammateus3/controllers/docs.py'
p5
sS'code'
p6
S'# coding: utf8\nfrom lxml import etree\n\nfrom parse import BookParser\n\n"""\nList of session objects used in text display:\nsession.filename\nsession.info -- dict; parsed results of BookParser class for current doc\nsession.title -- string; title of current doc\nsession.versions -- list; names of all versions in current doc\n"""\n\ndef index():\n    filename = request.args[0]\n    return dict(filename = filename)\n\ndef text():\n    filename = request.args[0]\n    #TODO: provide fallback and prompt if no filename is given in url\n    book_file = \'applications/grammateus3/static/docs/%s.xml\' % filename\n    #url to pass to web2py load helper in view to load doc section via ajax\n    load_url = URL(\'docs\', \'section.load\', args=filename)\n\n    return dict(load_url = load_url, filename = filename)\n\ndef section():\n    p = BookParser(book_file)\n    info = p.book_info()\n\n    title = info[\'title\']\n\n    versions = [version[\'title\'] for version in info[\'versions\']]     \n        \n\n    return dict(title = title, versions = versions, info = info)\n\n\ndef test():\n    filename = request.args[0]\n    book_file = \'applications/grammateus3/static/docs/%s.xml\' % filename\n    p = BookParser(book_file)\n    info = p.book_info()\n\n    title = info[\'title\']\n    for version in info[\'versions\']:\n        for key, value in version.items():\n            if key != \'text_structure\':\n                print \'Version\', key, \'-->\', value\n\n            else:\n                print \'Version textstructure\'\n                for ref, ref_val in value.items():\n                    for unit, unit_val in ref_val.items():\n                        for mss, mss_val in unit_val.items():\n                            print \'\\t\', ref, \'-->\', unit, \'-->\', mss, \'-->\', mss_val\n        print \'************\'\n    print\n    print\n\n    return dict(title = title, info = info)\n\nresponse._vars=response._caller(section)\n'
p7
sS'snapshot'
p8
(dp9
S'exception'
p10
(dp11
S'__hash__'
p12
S"<method-wrapper '__hash__' of exceptions.NameError object>"
p13
sS'__setattr__'
p14
S"<method-wrapper '__setattr__' of exceptions.NameError object>"
p15
sS'__reduce_ex__'
p16
S'<built-in method __reduce_ex__ of exceptions.NameError object>'
p17
sS'__getslice__'
p18
S"<method-wrapper '__getslice__' of exceptions.NameError object>"
p19
sS'__getitem__'
p20
S"<method-wrapper '__getitem__' of exceptions.NameError object>"
p21
sS'__setstate__'
p22
S'<built-in method __setstate__ of exceptions.NameError object>'
p23
sS'__reduce__'
p24
S'<built-in method __reduce__ of exceptions.NameError object>'
p25
sS'__str__'
p26
S"<method-wrapper '__str__' of exceptions.NameError object>"
p27
sS'__format__'
p28
S'<built-in method __format__ of exceptions.NameError object>'
p29
sS'__getattribute__'
p30
S"<method-wrapper '__getattribute__' of exceptions.NameError object>"
p31
sS'__class__'
p32
S"<type 'exceptions.NameError'>"
p33
sS'__unicode__'
p34
S'<built-in method __unicode__ of exceptions.NameError object>'
p35
sS'__delattr__'
p36
S"<method-wrapper '__delattr__' of exceptions.NameError object>"
p37
sS'__subclasshook__'
p38
S'<built-in method __subclasshook__ of type object>'
p39
sS'__repr__'
p40
S"<method-wrapper '__repr__' of exceptions.NameError object>"
p41
sS'args'
p42
S'("global name \'book_file\' is not defined",)'
p43
sS'__dict__'
p44
S'{}'
p45
sS'__sizeof__'
p46
S'<built-in method __sizeof__ of exceptions.NameError object>'
p47
sS'__doc__'
p48
S"'Name not found globally.'"
p49
sS'__init__'
p50
S"<method-wrapper '__init__' of exceptions.NameError object>"
p51
sS'__new__'
p52
S'<built-in method __new__ of type object>'
p53
ssS'evalue'
p54
S"global name 'book_file' is not defined"
p55
sS'request'
p56
ccopy_reg
_reconstructor
p57
(cgluon.html
BEAUTIFY
p58
c__builtin__
object
p59
NtRp60
(dp61
S'attributes'
p62
(dp63
sS'components'
p64
(lp65
g57
(cgluon.html
TABLE
p66
g59
NtRp67
(dp68
g62
(dp69
S'level'
p70
I5
ssS'parent'
p71
Nsg64
(lp72
g57
(cgluon.html
TR
p73
g59
NtRp74
(dp75
g62
(dp76
sg71
g67
sg64
(lp77
g57
(cgluon.html
TD
p78
g59
NtRp79
(dp80
g62
(dp81
S'_style'
p82
S'font-weight:bold;vertical-align:top'
p83
ssg71
g74
sg64
(lp84
S'ajax'
p85
asbag57
(g78
g59
NtRp86
(dp87
g62
(dp88
S'_valign'
p89
S'top'
p90
ssg71
g74
sg64
(lp91
S':'
asbag57
(g78
g59
NtRp92
(dp93
g62
(dp94
sg71
g74
sg64
(lp95
g57
(g58
g59
NtRp96
(dp97
g62
(dp98
g70
I5
ssg71
g92
sg64
(lp99
S'True'
p100
asbasbasbag57
(g73
g59
NtRp101
(dp102
g62
(dp103
sg71
g67
sg64
(lp104
g57
(g78
g59
NtRp105
(dp106
g62
(dp107
g82
g83
ssg71
g101
sg64
(lp108
S'application'
p109
asbag57
(g78
g59
NtRp110
(dp111
g62
(dp112
g89
g90
ssg71
g101
sg64
(lp113
S':'
asbag57
(g78
g59
NtRp114
(dp115
g62
(dp116
sg71
g101
sg64
(lp117
g57
(g58
g59
NtRp118
(dp119
g62
(dp120
g70
I5
ssg71
g114
sg64
(lp121
S'grammateus3'
p122
asbasbasbag57
(g73
g59
NtRp123
(dp124
g62
(dp125
sg71
g67
sg64
(lp126
g57
(g78
g59
NtRp127
(dp128
g62
(dp129
g82
g83
ssg71
g123
sg64
(lp130
g42
asbag57
(g78
g59
NtRp131
(dp132
g62
(dp133
g89
g90
ssg71
g123
sg64
(lp134
S':'
asbag57
(g78
g59
NtRp135
(dp136
g62
(dp137
sg71
g123
sg64
(lp138
g57
(g58
g59
NtRp139
(dp140
g62
(dp141
g70
I5
ssg71
g135
sg64
(lp142
g57
(g66
g59
NtRp143
(dp144
g62
(dp145
g70
I4
ssg71
Nsg64
(lp146
g57
(g73
g59
NtRp147
(dp148
g62
(dp149
sg71
g143
sg64
(lp150
g57
(g78
g59
NtRp151
(dp152
g62
(dp153
sg71
g147
sg64
(lp154
g57
(g58
g59
NtRp155
(dp156
g62
(dp157
g70
I4
ssg71
g151
sg64
(lp158
S'1En'
p159
asbasbasbasbasbasbasbag57
(g73
g59
NtRp160
(dp161
g62
(dp162
sg71
g67
sg64
(lp163
g57
(g78
g59
NtRp164
(dp165
g62
(dp166
g82
g83
ssg71
g160
sg64
(lp167
S'body'
p168
asbag57
(g78
g59
NtRp169
(dp170
g62
(dp171
g89
g90
ssg71
g160
sg64
(lp172
S':'
asbag57
(g78
g59
NtRp173
(dp174
g62
(dp175
sg71
g160
sg64
(lp176
g57
(g58
g59
NtRp177
(dp178
g62
(dp179
g70
I5
ssg71
g173
sg64
(lp180
S'<cStringIO.StringO object at 0xb5048140>'
p181
asbasbasbag57
(g73
g59
NtRp182
(dp183
g62
(dp184
sg71
g67
sg64
(lp185
g57
(g78
g59
NtRp186
(dp187
g62
(dp188
g82
g83
ssg71
g182
sg64
(lp189
S'cid'
p190
asbag57
(g78
g59
NtRp191
(dp192
g62
(dp193
g89
g90
ssg71
g182
sg64
(lp194
S':'
asbag57
(g78
g59
NtRp195
(dp196
g62
(dp197
sg71
g182
sg64
(lp198
g57
(g58
g59
NtRp199
(dp200
g62
(dp201
g70
I5
ssg71
g195
sg64
(lp202
S'c749080914434'
p203
asbasbasbag57
(g73
g59
NtRp204
(dp205
g62
(dp206
sg71
g67
sg64
(lp207
g57
(g78
g59
NtRp208
(dp209
g62
(dp210
g82
g83
ssg71
g204
sg64
(lp211
S'client'
p212
asbag57
(g78
g59
NtRp213
(dp214
g62
(dp215
g89
g90
ssg71
g204
sg64
(lp216
S':'
asbag57
(g78
g59
NtRp217
(dp218
g62
(dp219
sg71
g204
sg64
(lp220
g57
(g58
g59
NtRp221
(dp222
g62
(dp223
g70
I5
ssg71
g217
sg64
(lp224
S'127.0.0.1'
p225
asbasbasbag57
(g73
g59
NtRp226
(dp227
g62
(dp228
sg71
g67
sg64
(lp229
g57
(g78
g59
NtRp230
(dp231
g62
(dp232
g82
g83
ssg71
g226
sg64
(lp233
S'controller'
p234
asbag57
(g78
g59
NtRp235
(dp236
g62
(dp237
g89
g90
ssg71
g226
sg64
(lp238
S':'
asbag57
(g78
g59
NtRp239
(dp240
g62
(dp241
sg71
g226
sg64
(lp242
g57
(g58
g59
NtRp243
(dp244
g62
(dp245
g70
I5
ssg71
g239
sg64
(lp246
S'docs'
p247
asbasbasbag57
(g73
g59
NtRp248
(dp249
g62
(dp250
sg71
g67
sg64
(lp251
g57
(g78
g59
NtRp252
(dp253
g62
(dp254
g82
g83
ssg71
g248
sg64
(lp255
S'cookies'
p256
asbag57
(g78
g59
NtRp257
(dp258
g62
(dp259
g89
g90
ssg71
g248
sg64
(lp260
S':'
asbag57
(g78
g59
NtRp261
(dp262
g62
(dp263
sg71
g248
sg64
(lp264
g57
(g58
g59
NtRp265
(dp266
g62
(dp267
g70
I5
ssg71
g261
sg64
(lp268
g57
(g66
g59
NtRp269
(dp270
g62
(dp271
g70
I4
ssg71
Nsg64
(lp272
g57
(g73
g59
NtRp273
(dp274
g62
(dp275
sg71
g269
sg64
(lp276
g57
(g78
g59
NtRp277
(dp278
g62
(dp279
g82
g83
ssg71
g273
sg64
(lp280
S'session_id_admin'
p281
asbag57
(g78
g59
NtRp282
(dp283
g62
(dp284
g89
g90
ssg71
g273
sg64
(lp285
S':'
asbag57
(g78
g59
NtRp286
(dp287
g62
(dp288
sg71
g273
sg64
(lp289
g57
(g58
g59
NtRp290
(dp291
g62
(dp292
g70
I4
ssg71
g286
sg64
(lp293
g57
(g66
g59
NtRp294
(dp295
g62
(dp296
g70
I3
ssg71
Nsg64
(lp297
g57
(g73
g59
NtRp298
(dp299
g62
(dp300
sg71
g294
sg64
(lp301
g57
(g78
g59
NtRp302
(dp303
g62
(dp304
g82
g83
ssg71
g298
sg64
(lp305
S'comment'
p306
asbag57
(g78
g59
NtRp307
(dp308
g62
(dp309
g89
g90
ssg71
g298
sg64
(lp310
S':'
asbag57
(g78
g59
NtRp311
(dp312
g62
(dp313
sg71
g298
sg64
(lp314
g57
(g58
g59
NtRp315
(dp316
g62
(dp317
g70
I3
ssg71
g311
sg64
(lp318
S''
asbasbasbag57
(g73
g59
NtRp319
(dp320
g62
(dp321
sg71
g294
sg64
(lp322
g57
(g78
g59
NtRp323
(dp324
g62
(dp325
g82
g83
ssg71
g319
sg64
(lp326
S'domain'
p327
asbag57
(g78
g59
NtRp328
(dp329
g62
(dp330
g89
g90
ssg71
g319
sg64
(lp331
S':'
asbag57
(g78
g59
NtRp332
(dp333
g62
(dp334
sg71
g319
sg64
(lp335
g57
(g58
g59
NtRp336
(dp337
g62
(dp338
g70
I3
ssg71
g332
sg64
(lp339
S''
asbasbasbag57
(g73
g59
NtRp340
(dp341
g62
(dp342
sg71
g294
sg64
(lp343
g57
(g78
g59
NtRp344
(dp345
g62
(dp346
g82
g83
ssg71
g340
sg64
(lp347
S'expires'
p348
asbag57
(g78
g59
NtRp349
(dp350
g62
(dp351
g89
g90
ssg71
g340
sg64
(lp352
S':'
asbag57
(g78
g59
NtRp353
(dp354
g62
(dp355
sg71
g340
sg64
(lp356
g57
(g58
g59
NtRp357
(dp358
g62
(dp359
g70
I3
ssg71
g353
sg64
(lp360
S''
asbasbasbag57
(g73
g59
NtRp361
(dp362
g62
(dp363
sg71
g294
sg64
(lp364
g57
(g78
g59
NtRp365
(dp366
g62
(dp367
g82
g83
ssg71
g361
sg64
(lp368
S'httponly'
p369
asbag57
(g78
g59
NtRp370
(dp371
g62
(dp372
g89
g90
ssg71
g361
sg64
(lp373
S':'
asbag57
(g78
g59
NtRp374
(dp375
g62
(dp376
sg71
g361
sg64
(lp377
g57
(g58
g59
NtRp378
(dp379
g62
(dp380
g70
I3
ssg71
g374
sg64
(lp381
S''
asbasbasbag57
(g73
g59
NtRp382
(dp383
g62
(dp384
sg71
g294
sg64
(lp385
g57
(g78
g59
NtRp386
(dp387
g62
(dp388
g82
g83
ssg71
g382
sg64
(lp389
S'max-age'
p390
asbag57
(g78
g59
NtRp391
(dp392
g62
(dp393
g89
g90
ssg71
g382
sg64
(lp394
S':'
asbag57
(g78
g59
NtRp395
(dp396
g62
(dp397
sg71
g382
sg64
(lp398
g57
(g58
g59
NtRp399
(dp400
g62
(dp401
g70
I3
ssg71
g395
sg64
(lp402
S''
asbasbasbag57
(g73
g59
NtRp403
(dp404
g62
(dp405
sg71
g294
sg64
(lp406
g57
(g78
g59
NtRp407
(dp408
g62
(dp409
g82
g83
ssg71
g403
sg64
(lp410
S'path'
p411
asbag57
(g78
g59
NtRp412
(dp413
g62
(dp414
g89
g90
ssg71
g403
sg64
(lp415
S':'
asbag57
(g78
g59
NtRp416
(dp417
g62
(dp418
sg71
g403
sg64
(lp419
g57
(g58
g59
NtRp420
(dp421
g62
(dp422
g70
I3
ssg71
g416
sg64
(lp423
S''
asbasbasbag57
(g73
g59
NtRp424
(dp425
g62
(dp426
sg71
g294
sg64
(lp427
g57
(g78
g59
NtRp428
(dp429
g62
(dp430
g82
g83
ssg71
g424
sg64
(lp431
S'secure'
p432
asbag57
(g78
g59
NtRp433
(dp434
g62
(dp435
g89
g90
ssg71
g424
sg64
(lp436
S':'
asbag57
(g78
g59
NtRp437
(dp438
g62
(dp439
sg71
g424
sg64
(lp440
g57
(g58
g59
NtRp441
(dp442
g62
(dp443
g70
I3
ssg71
g437
sg64
(lp444
S''
asbasbasbag57
(g73
g59
NtRp445
(dp446
g62
(dp447
sg71
g294
sg64
(lp448
g57
(g78
g59
NtRp449
(dp450
g62
(dp451
g82
g83
ssg71
g445
sg64
(lp452
S'version'
p453
asbag57
(g78
g59
NtRp454
(dp455
g62
(dp456
g89
g90
ssg71
g445
sg64
(lp457
S':'
asbag57
(g78
g59
NtRp458
(dp459
g62
(dp460
sg71
g445
sg64
(lp461
g57
(g58
g59
NtRp462
(dp463
g62
(dp464
g70
I3
ssg71
g458
sg64
(lp465
S''
asbasbasbasbasbasbasbag57
(g73
g59
NtRp466
(dp467
g62
(dp468
sg71
g269
sg64
(lp469
g57
(g78
g59
NtRp470
(dp471
g62
(dp472
g82
g83
ssg71
g466
sg64
(lp473
S'session_id_bloglet'
p474
asbag57
(g78
g59
NtRp475
(dp476
g62
(dp477
g89
g90
ssg71
g466
sg64
(lp478
S':'
asbag57
(g78
g59
NtRp479
(dp480
g62
(dp481
sg71
g466
sg64
(lp482
g57
(g58
g59
NtRp483
(dp484
g62
(dp485
g70
I4
ssg71
g479
sg64
(lp486
g57
(g66
g59
NtRp487
(dp488
g62
(dp489
g70
I3
ssg71
Nsg64
(lp490
g57
(g73
g59
NtRp491
(dp492
g62
(dp493
sg71
g487
sg64
(lp494
g57
(g78
g59
NtRp495
(dp496
g62
(dp497
g82
g83
ssg71
g491
sg64
(lp498
g306
asbag57
(g78
g59
NtRp499
(dp500
g62
(dp501
g89
g90
ssg71
g491
sg64
(lp502
S':'
asbag57
(g78
g59
NtRp503
(dp504
g62
(dp505
sg71
g491
sg64
(lp506
g57
(g58
g59
NtRp507
(dp508
g62
(dp509
g70
I3
ssg71
g503
sg64
(lp510
S''
asbasbasbag57
(g73
g59
NtRp511
(dp512
g62
(dp513
sg71
g487
sg64
(lp514
g57
(g78
g59
NtRp515
(dp516
g62
(dp517
g82
g83
ssg71
g511
sg64
(lp518
g327
asbag57
(g78
g59
NtRp519
(dp520
g62
(dp521
g89
g90
ssg71
g511
sg64
(lp522
S':'
asbag57
(g78
g59
NtRp523
(dp524
g62
(dp525
sg71
g511
sg64
(lp526
g57
(g58
g59
NtRp527
(dp528
g62
(dp529
g70
I3
ssg71
g523
sg64
(lp530
S''
asbasbasbag57
(g73
g59
NtRp531
(dp532
g62
(dp533
sg71
g487
sg64
(lp534
g57
(g78
g59
NtRp535
(dp536
g62
(dp537
g82
g83
ssg71
g531
sg64
(lp538
g348
asbag57
(g78
g59
NtRp539
(dp540
g62
(dp541
g89
g90
ssg71
g531
sg64
(lp542
S':'
asbag57
(g78
g59
NtRp543
(dp544
g62
(dp545
sg71
g531
sg64
(lp546
g57
(g58
g59
NtRp547
(dp548
g62
(dp549
g70
I3
ssg71
g543
sg64
(lp550
S''
asbasbasbag57
(g73
g59
NtRp551
(dp552
g62
(dp553
sg71
g487
sg64
(lp554
g57
(g78
g59
NtRp555
(dp556
g62
(dp557
g82
g83
ssg71
g551
sg64
(lp558
g369
asbag57
(g78
g59
NtRp559
(dp560
g62
(dp561
g89
g90
ssg71
g551
sg64
(lp562
S':'
asbag57
(g78
g59
NtRp563
(dp564
g62
(dp565
sg71
g551
sg64
(lp566
g57
(g58
g59
NtRp567
(dp568
g62
(dp569
g70
I3
ssg71
g563
sg64
(lp570
S''
asbasbasbag57
(g73
g59
NtRp571
(dp572
g62
(dp573
sg71
g487
sg64
(lp574
g57
(g78
g59
NtRp575
(dp576
g62
(dp577
g82
g83
ssg71
g571
sg64
(lp578
g390
asbag57
(g78
g59
NtRp579
(dp580
g62
(dp581
g89
g90
ssg71
g571
sg64
(lp582
S':'
asbag57
(g78
g59
NtRp583
(dp584
g62
(dp585
sg71
g571
sg64
(lp586
g57
(g58
g59
NtRp587
(dp588
g62
(dp589
g70
I3
ssg71
g583
sg64
(lp590
S''
asbasbasbag57
(g73
g59
NtRp591
(dp592
g62
(dp593
sg71
g487
sg64
(lp594
g57
(g78
g59
NtRp595
(dp596
g62
(dp597
g82
g83
ssg71
g591
sg64
(lp598
g411
asbag57
(g78
g59
NtRp599
(dp600
g62
(dp601
g89
g90
ssg71
g591
sg64
(lp602
S':'
asbag57
(g78
g59
NtRp603
(dp604
g62
(dp605
sg71
g591
sg64
(lp606
g57
(g58
g59
NtRp607
(dp608
g62
(dp609
g70
I3
ssg71
g603
sg64
(lp610
S''
asbasbasbag57
(g73
g59
NtRp611
(dp612
g62
(dp613
sg71
g487
sg64
(lp614
g57
(g78
g59
NtRp615
(dp616
g62
(dp617
g82
g83
ssg71
g611
sg64
(lp618
g432
asbag57
(g78
g59
NtRp619
(dp620
g62
(dp621
g89
g90
ssg71
g611
sg64
(lp622
S':'
asbag57
(g78
g59
NtRp623
(dp624
g62
(dp625
sg71
g611
sg64
(lp626
g57
(g58
g59
NtRp627
(dp628
g62
(dp629
g70
I3
ssg71
g623
sg64
(lp630
S''
asbasbasbag57
(g73
g59
NtRp631
(dp632
g62
(dp633
sg71
g487
sg64
(lp634
g57
(g78
g59
NtRp635
(dp636
g62
(dp637
g82
g83
ssg71
g631
sg64
(lp638
g453
asbag57
(g78
g59
NtRp639
(dp640
g62
(dp641
g89
g90
ssg71
g631
sg64
(lp642
S':'
asbag57
(g78
g59
NtRp643
(dp644
g62
(dp645
sg71
g631
sg64
(lp646
g57
(g58
g59
NtRp647
(dp648
g62
(dp649
g70
I3
ssg71
g643
sg64
(lp650
S''
asbasbasbasbasbasbasbag57
(g73
g59
NtRp651
(dp652
g62
(dp653
sg71
g269
sg64
(lp654
g57
(g78
g59
NtRp655
(dp656
g62
(dp657
g82
g83
ssg71
g651
sg64
(lp658
S'session_id_grammateus3'
p659
asbag57
(g78
g59
NtRp660
(dp661
g62
(dp662
g89
g90
ssg71
g651
sg64
(lp663
S':'
asbag57
(g78
g59
NtRp664
(dp665
g62
(dp666
sg71
g651
sg64
(lp667
g57
(g58
g59
NtRp668
(dp669
g62
(dp670
g70
I4
ssg71
g664
sg64
(lp671
g57
(g66
g59
NtRp672
(dp673
g62
(dp674
g70
I3
ssg71
Nsg64
(lp675
g57
(g73
g59
NtRp676
(dp677
g62
(dp678
sg71
g672
sg64
(lp679
g57
(g78
g59
NtRp680
(dp681
g62
(dp682
g82
g83
ssg71
g676
sg64
(lp683
g306
asbag57
(g78
g59
NtRp684
(dp685
g62
(dp686
g89
g90
ssg71
g676
sg64
(lp687
S':'
asbag57
(g78
g59
NtRp688
(dp689
g62
(dp690
sg71
g676
sg64
(lp691
g57
(g58
g59
NtRp692
(dp693
g62
(dp694
g70
I3
ssg71
g688
sg64
(lp695
S''
asbasbasbag57
(g73
g59
NtRp696
(dp697
g62
(dp698
sg71
g672
sg64
(lp699
g57
(g78
g59
NtRp700
(dp701
g62
(dp702
g82
g83
ssg71
g696
sg64
(lp703
g327
asbag57
(g78
g59
NtRp704
(dp705
g62
(dp706
g89
g90
ssg71
g696
sg64
(lp707
S':'
asbag57
(g78
g59
NtRp708
(dp709
g62
(dp710
sg71
g696
sg64
(lp711
g57
(g58
g59
NtRp712
(dp713
g62
(dp714
g70
I3
ssg71
g708
sg64
(lp715
S''
asbasbasbag57
(g73
g59
NtRp716
(dp717
g62
(dp718
sg71
g672
sg64
(lp719
g57
(g78
g59
NtRp720
(dp721
g62
(dp722
g82
g83
ssg71
g716
sg64
(lp723
g348
asbag57
(g78
g59
NtRp724
(dp725
g62
(dp726
g89
g90
ssg71
g716
sg64
(lp727
S':'
asbag57
(g78
g59
NtRp728
(dp729
g62
(dp730
sg71
g716
sg64
(lp731
g57
(g58
g59
NtRp732
(dp733
g62
(dp734
g70
I3
ssg71
g728
sg64
(lp735
S''
asbasbasbag57
(g73
g59
NtRp736
(dp737
g62
(dp738
sg71
g672
sg64
(lp739
g57
(g78
g59
NtRp740
(dp741
g62
(dp742
g82
g83
ssg71
g736
sg64
(lp743
g369
asbag57
(g78
g59
NtRp744
(dp745
g62
(dp746
g89
g90
ssg71
g736
sg64
(lp747
S':'
asbag57
(g78
g59
NtRp748
(dp749
g62
(dp750
sg71
g736
sg64
(lp751
g57
(g58
g59
NtRp752
(dp753
g62
(dp754
g70
I3
ssg71
g748
sg64
(lp755
S''
asbasbasbag57
(g73
g59
NtRp756
(dp757
g62
(dp758
sg71
g672
sg64
(lp759
g57
(g78
g59
NtRp760
(dp761
g62
(dp762
g82
g83
ssg71
g756
sg64
(lp763
g390
asbag57
(g78
g59
NtRp764
(dp765
g62
(dp766
g89
g90
ssg71
g756
sg64
(lp767
S':'
asbag57
(g78
g59
NtRp768
(dp769
g62
(dp770
sg71
g756
sg64
(lp771
g57
(g58
g59
NtRp772
(dp773
g62
(dp774
g70
I3
ssg71
g768
sg64
(lp775
S''
asbasbasbag57
(g73
g59
NtRp776
(dp777
g62
(dp778
sg71
g672
sg64
(lp779
g57
(g78
g59
NtRp780
(dp781
g62
(dp782
g82
g83
ssg71
g776
sg64
(lp783
g411
asbag57
(g78
g59
NtRp784
(dp785
g62
(dp786
g89
g90
ssg71
g776
sg64
(lp787
S':'
asbag57
(g78
g59
NtRp788
(dp789
g62
(dp790
sg71
g776
sg64
(lp791
g57
(g58
g59
NtRp792
(dp793
g62
(dp794
g70
I3
ssg71
g788
sg64
(lp795
S''
asbasbasbag57
(g73
g59
NtRp796
(dp797
g62
(dp798
sg71
g672
sg64
(lp799
g57
(g78
g59
NtRp800
(dp801
g62
(dp802
g82
g83
ssg71
g796
sg64
(lp803
g432
asbag57
(g78
g59
NtRp804
(dp805
g62
(dp806
g89
g90
ssg71
g796
sg64
(lp807
S':'
asbag57
(g78
g59
NtRp808
(dp809
g62
(dp810
sg71
g796
sg64
(lp811
g57
(g58
g59
NtRp812
(dp813
g62
(dp814
g70
I3
ssg71
g808
sg64
(lp815
S''
asbasbasbag57
(g73
g59
NtRp816
(dp817
g62
(dp818
sg71
g672
sg64
(lp819
g57
(g78
g59
NtRp820
(dp821
g62
(dp822
g82
g83
ssg71
g816
sg64
(lp823
g453
asbag57
(g78
g59
NtRp824
(dp825
g62
(dp826
g89
g90
ssg71
g816
sg64
(lp827
S':'
asbag57
(g78
g59
NtRp828
(dp829
g62
(dp830
sg71
g816
sg64
(lp831
g57
(g58
g59
NtRp832
(dp833
g62
(dp834
g70
I3
ssg71
g828
sg64
(lp835
S''
asbasbasbasbasbasbasbag57
(g73
g59
NtRp836
(dp837
g62
(dp838
sg71
g269
sg64
(lp839
g57
(g78
g59
NtRp840
(dp841
g62
(dp842
g82
g83
ssg71
g836
sg64
(lp843
S'session_id_paideia'
p844
asbag57
(g78
g59
NtRp845
(dp846
g62
(dp847
g89
g90
ssg71
g836
sg64
(lp848
S':'
asbag57
(g78
g59
NtRp849
(dp850
g62
(dp851
sg71
g836
sg64
(lp852
g57
(g58
g59
NtRp853
(dp854
g62
(dp855
g70
I4
ssg71
g849
sg64
(lp856
g57
(g66
g59
NtRp857
(dp858
g62
(dp859
g70
I3
ssg71
Nsg64
(lp860
g57
(g73
g59
NtRp861
(dp862
g62
(dp863
sg71
g857
sg64
(lp864
g57
(g78
g59
NtRp865
(dp866
g62
(dp867
g82
g83
ssg71
g861
sg64
(lp868
g306
asbag57
(g78
g59
NtRp869
(dp870
g62
(dp871
g89
g90
ssg71
g861
sg64
(lp872
S':'
asbag57
(g78
g59
NtRp873
(dp874
g62
(dp875
sg71
g861
sg64
(lp876
g57
(g58
g59
NtRp877
(dp878
g62
(dp879
g70
I3
ssg71
g873
sg64
(lp880
S''
asbasbasbag57
(g73
g59
NtRp881
(dp882
g62
(dp883
sg71
g857
sg64
(lp884
g57
(g78
g59
NtRp885
(dp886
g62
(dp887
g82
g83
ssg71
g881
sg64
(lp888
g327
asbag57
(g78
g59
NtRp889
(dp890
g62
(dp891
g89
g90
ssg71
g881
sg64
(lp892
S':'
asbag57
(g78
g59
NtRp893
(dp894
g62
(dp895
sg71
g881
sg64
(lp896
g57
(g58
g59
NtRp897
(dp898
g62
(dp899
g70
I3
ssg71
g893
sg64
(lp900
S''
asbasbasbag57
(g73
g59
NtRp901
(dp902
g62
(dp903
sg71
g857
sg64
(lp904
g57
(g78
g59
NtRp905
(dp906
g62
(dp907
g82
g83
ssg71
g901
sg64
(lp908
g348
asbag57
(g78
g59
NtRp909
(dp910
g62
(dp911
g89
g90
ssg71
g901
sg64
(lp912
S':'
asbag57
(g78
g59
NtRp913
(dp914
g62
(dp915
sg71
g901
sg64
(lp916
g57
(g58
g59
NtRp917
(dp918
g62
(dp919
g70
I3
ssg71
g913
sg64
(lp920
S''
asbasbasbag57
(g73
g59
NtRp921
(dp922
g62
(dp923
sg71
g857
sg64
(lp924
g57
(g78
g59
NtRp925
(dp926
g62
(dp927
g82
g83
ssg71
g921
sg64
(lp928
g369
asbag57
(g78
g59
NtRp929
(dp930
g62
(dp931
g89
g90
ssg71
g921
sg64
(lp932
S':'
asbag57
(g78
g59
NtRp933
(dp934
g62
(dp935
sg71
g921
sg64
(lp936
g57
(g58
g59
NtRp937
(dp938
g62
(dp939
g70
I3
ssg71
g933
sg64
(lp940
S''
asbasbasbag57
(g73
g59
NtRp941
(dp942
g62
(dp943
sg71
g857
sg64
(lp944
g57
(g78
g59
NtRp945
(dp946
g62
(dp947
g82
g83
ssg71
g941
sg64
(lp948
g390
asbag57
(g78
g59
NtRp949
(dp950
g62
(dp951
g89
g90
ssg71
g941
sg64
(lp952
S':'
asbag57
(g78
g59
NtRp953
(dp954
g62
(dp955
sg71
g941
sg64
(lp956
g57
(g58
g59
NtRp957
(dp958
g62
(dp959
g70
I3
ssg71
g953
sg64
(lp960
S''
asbasbasbag57
(g73
g59
NtRp961
(dp962
g62
(dp963
sg71
g857
sg64
(lp964
g57
(g78
g59
NtRp965
(dp966
g62
(dp967
g82
g83
ssg71
g961
sg64
(lp968
g411
asbag57
(g78
g59
NtRp969
(dp970
g62
(dp971
g89
g90
ssg71
g961
sg64
(lp972
S':'
asbag57
(g78
g59
NtRp973
(dp974
g62
(dp975
sg71
g961
sg64
(lp976
g57
(g58
g59
NtRp977
(dp978
g62
(dp979
g70
I3
ssg71
g973
sg64
(lp980
S''
asbasbasbag57
(g73
g59
NtRp981
(dp982
g62
(dp983
sg71
g857
sg64
(lp984
g57
(g78
g59
NtRp985
(dp986
g62
(dp987
g82
g83
ssg71
g981
sg64
(lp988
g432
asbag57
(g78
g59
NtRp989
(dp990
g62
(dp991
g89
g90
ssg71
g981
sg64
(lp992
S':'
asbag57
(g78
g59
NtRp993
(dp994
g62
(dp995
sg71
g981
sg64
(lp996
g57
(g58
g59
NtRp997
(dp998
g62
(dp999
g70
I3
ssg71
g993
sg64
(lp1000
S''
asbasbasbag57
(g73
g59
NtRp1001
(dp1002
g62
(dp1003
sg71
g857
sg64
(lp1004
g57
(g78
g59
NtRp1005
(dp1006
g62
(dp1007
g82
g83
ssg71
g1001
sg64
(lp1008
g453
asbag57
(g78
g59
NtRp1009
(dp1010
g62
(dp1011
g89
g90
ssg71
g1001
sg64
(lp1012
S':'
asbag57
(g78
g59
NtRp1013
(dp1014
g62
(dp1015
sg71
g1001
sg64
(lp1016
g57
(g58
g59
NtRp1017
(dp1018
g62
(dp1019
g70
I3
ssg71
g1013
sg64
(lp1020
S''
asbasbasbasbasbasbasbag57
(g73
g59
NtRp1021
(dp1022
g62
(dp1023
sg71
g269
sg64
(lp1024
g57
(g78
g59
NtRp1025
(dp1026
g62
(dp1027
g82
g83
ssg71
g1021
sg64
(lp1028
S'session_id_welcome'
p1029
asbag57
(g78
g59
NtRp1030
(dp1031
g62
(dp1032
g89
g90
ssg71
g1021
sg64
(lp1033
S':'
asbag57
(g78
g59
NtRp1034
(dp1035
g62
(dp1036
sg71
g1021
sg64
(lp1037
g57
(g58
g59
NtRp1038
(dp1039
g62
(dp1040
g70
I4
ssg71
g1034
sg64
(lp1041
g57
(g66
g59
NtRp1042
(dp1043
g62
(dp1044
g70
I3
ssg71
Nsg64
(lp1045
g57
(g73
g59
NtRp1046
(dp1047
g62
(dp1048
sg71
g1042
sg64
(lp1049
g57
(g78
g59
NtRp1050
(dp1051
g62
(dp1052
g82
g83
ssg71
g1046
sg64
(lp1053
g306
asbag57
(g78
g59
NtRp1054
(dp1055
g62
(dp1056
g89
g90
ssg71
g1046
sg64
(lp1057
S':'
asbag57
(g78
g59
NtRp1058
(dp1059
g62
(dp1060
sg71
g1046
sg64
(lp1061
g57
(g58
g59
NtRp1062
(dp1063
g62
(dp1064
g70
I3
ssg71
g1058
sg64
(lp1065
S''
asbasbasbag57
(g73
g59
NtRp1066
(dp1067
g62
(dp1068
sg71
g1042
sg64
(lp1069
g57
(g78
g59
NtRp1070
(dp1071
g62
(dp1072
g82
g83
ssg71
g1066
sg64
(lp1073
g327
asbag57
(g78
g59
NtRp1074
(dp1075
g62
(dp1076
g89
g90
ssg71
g1066
sg64
(lp1077
S':'
asbag57
(g78
g59
NtRp1078
(dp1079
g62
(dp1080
sg71
g1066
sg64
(lp1081
g57
(g58
g59
NtRp1082
(dp1083
g62
(dp1084
g70
I3
ssg71
g1078
sg64
(lp1085
S''
asbasbasbag57
(g73
g59
NtRp1086
(dp1087
g62
(dp1088
sg71
g1042
sg64
(lp1089
g57
(g78
g59
NtRp1090
(dp1091
g62
(dp1092
g82
g83
ssg71
g1086
sg64
(lp1093
g348
asbag57
(g78
g59
NtRp1094
(dp1095
g62
(dp1096
g89
g90
ssg71
g1086
sg64
(lp1097
S':'
asbag57
(g78
g59
NtRp1098
(dp1099
g62
(dp1100
sg71
g1086
sg64
(lp1101
g57
(g58
g59
NtRp1102
(dp1103
g62
(dp1104
g70
I3
ssg71
g1098
sg64
(lp1105
S''
asbasbasbag57
(g73
g59
NtRp1106
(dp1107
g62
(dp1108
sg71
g1042
sg64
(lp1109
g57
(g78
g59
NtRp1110
(dp1111
g62
(dp1112
g82
g83
ssg71
g1106
sg64
(lp1113
g369
asbag57
(g78
g59
NtRp1114
(dp1115
g62
(dp1116
g89
g90
ssg71
g1106
sg64
(lp1117
S':'
asbag57
(g78
g59
NtRp1118
(dp1119
g62
(dp1120
sg71
g1106
sg64
(lp1121
g57
(g58
g59
NtRp1122
(dp1123
g62
(dp1124
g70
I3
ssg71
g1118
sg64
(lp1125
S''
asbasbasbag57
(g73
g59
NtRp1126
(dp1127
g62
(dp1128
sg71
g1042
sg64
(lp1129
g57
(g78
g59
NtRp1130
(dp1131
g62
(dp1132
g82
g83
ssg71
g1126
sg64
(lp1133
g390
asbag57
(g78
g59
NtRp1134
(dp1135
g62
(dp1136
g89
g90
ssg71
g1126
sg64
(lp1137
S':'
asbag57
(g78
g59
NtRp1138
(dp1139
g62
(dp1140
sg71
g1126
sg64
(lp1141
g57
(g58
g59
NtRp1142
(dp1143
g62
(dp1144
g70
I3
ssg71
g1138
sg64
(lp1145
S''
asbasbasbag57
(g73
g59
NtRp1146
(dp1147
g62
(dp1148
sg71
g1042
sg64
(lp1149
g57
(g78
g59
NtRp1150
(dp1151
g62
(dp1152
g82
g83
ssg71
g1146
sg64
(lp1153
g411
asbag57
(g78
g59
NtRp1154
(dp1155
g62
(dp1156
g89
g90
ssg71
g1146
sg64
(lp1157
S':'
asbag57
(g78
g59
NtRp1158
(dp1159
g62
(dp1160
sg71
g1146
sg64
(lp1161
g57
(g58
g59
NtRp1162
(dp1163
g62
(dp1164
g70
I3
ssg71
g1158
sg64
(lp1165
S''
asbasbasbag57
(g73
g59
NtRp1166
(dp1167
g62
(dp1168
sg71
g1042
sg64
(lp1169
g57
(g78
g59
NtRp1170
(dp1171
g62
(dp1172
g82
g83
ssg71
g1166
sg64
(lp1173
g432
asbag57
(g78
g59
NtRp1174
(dp1175
g62
(dp1176
g89
g90
ssg71
g1166
sg64
(lp1177
S':'
asbag57
(g78
g59
NtRp1178
(dp1179
g62
(dp1180
sg71
g1166
sg64
(lp1181
g57
(g58
g59
NtRp1182
(dp1183
g62
(dp1184
g70
I3
ssg71
g1178
sg64
(lp1185
S''
asbasbasbag57
(g73
g59
NtRp1186
(dp1187
g62
(dp1188
sg71
g1042
sg64
(lp1189
g57
(g78
g59
NtRp1190
(dp1191
g62
(dp1192
g82
g83
ssg71
g1186
sg64
(lp1193
g453
asbag57
(g78
g59
NtRp1194
(dp1195
g62
(dp1196
g89
g90
ssg71
g1186
sg64
(lp1197
S':'
asbag57
(g78
g59
NtRp1198
(dp1199
g62
(dp1200
sg71
g1186
sg64
(lp1201
g57
(g58
g59
NtRp1202
(dp1203
g62
(dp1204
g70
I3
ssg71
g1198
sg64
(lp1205
S''
asbasbasbasbasbasbasbasbasbasbasbag57
(g73
g59
NtRp1206
(dp1207
g62
(dp1208
sg71
g67
sg64
(lp1209
g57
(g78
g59
NtRp1210
(dp1211
g62
(dp1212
g82
g83
ssg71
g1206
sg64
(lp1213
S'env'
p1214
asbag57
(g78
g59
NtRp1215
(dp1216
g62
(dp1217
g89
g90
ssg71
g1206
sg64
(lp1218
S':'
asbag57
(g78
g59
NtRp1219
(dp1220
g62
(dp1221
sg71
g1206
sg64
(lp1222
g57
(g58
g59
NtRp1223
(dp1224
g62
(dp1225
g70
I5
ssg71
g1219
sg64
(lp1226
g57
(g66
g59
NtRp1227
(dp1228
g62
(dp1229
g70
I4
ssg71
Nsg64
(lp1230
g57
(g73
g59
NtRp1231
(dp1232
g62
(dp1233
sg71
g1227
sg64
(lp1234
g57
(g78
g59
NtRp1235
(dp1236
g62
(dp1237
g82
g83
ssg71
g1231
sg64
(lp1238
S'app_folders'
p1239
asbag57
(g78
g59
NtRp1240
(dp1241
g62
(dp1242
g89
g90
ssg71
g1231
sg64
(lp1243
S':'
asbag57
(g78
g59
NtRp1244
(dp1245
g62
(dp1246
sg71
g1231
sg64
(lp1247
g57
(g58
g59
NtRp1248
(dp1249
g62
(dp1250
g70
I4
ssg71
g1244
sg64
(lp1251
S"set(['/home/iscott/web/web2py/applications/grammateus3/', '/home/iscott/web/web2py/applications/admin/', '/home/iscott/web/web2py/applications/welcome/'])"
p1252
asbasbasbag57
(g73
g59
NtRp1253
(dp1254
g62
(dp1255
sg71
g1227
sg64
(lp1256
g57
(g78
g59
NtRp1257
(dp1258
g62
(dp1259
g82
g83
ssg71
g1253
sg64
(lp1260
S'applications_parent'
p1261
asbag57
(g78
g59
NtRp1262
(dp1263
g62
(dp1264
g89
g90
ssg71
g1253
sg64
(lp1265
S':'
asbag57
(g78
g59
NtRp1266
(dp1267
g62
(dp1268
sg71
g1253
sg64
(lp1269
g57
(g58
g59
NtRp1270
(dp1271
g62
(dp1272
g70
I4
ssg71
g1266
sg64
(lp1273
S'/home/iscott/web/web2py'
p1274
asbasbasbag57
(g73
g59
NtRp1275
(dp1276
g62
(dp1277
sg71
g1227
sg64
(lp1278
g57
(g78
g59
NtRp1279
(dp1280
g62
(dp1281
g82
g83
ssg71
g1275
sg64
(lp1282
S'cmd_args'
p1283
asbag57
(g78
g59
NtRp1284
(dp1285
g62
(dp1286
g89
g90
ssg71
g1275
sg64
(lp1287
S':'
asbag57
(g78
g59
NtRp1288
(dp1289
g62
(dp1290
sg71
g1275
sg64
(lp1291
g57
(g58
g59
NtRp1292
(dp1293
g62
(dp1294
g70
I4
ssg71
g1288
sg64
(lp1295
g57
(g66
g59
NtRp1296
(dp1297
g62
(dp1298
g70
I3
ssg71
Nsg64
(lp1299
sbasbasbasbag57
(g73
g59
NtRp1300
(dp1301
g62
(dp1302
sg71
g1227
sg64
(lp1303
g57
(g78
g59
NtRp1304
(dp1305
g62
(dp1306
g82
g83
ssg71
g1300
sg64
(lp1307
S'cmd_options'
p1308
asbag57
(g78
g59
NtRp1309
(dp1310
g62
(dp1311
g89
g90
ssg71
g1300
sg64
(lp1312
S':'
asbag57
(g78
g59
NtRp1313
(dp1314
g62
(dp1315
sg71
g1300
sg64
(lp1316
g57
(g58
g59
NtRp1317
(dp1318
g62
(dp1319
g70
I4
ssg71
g1313
sg64
(lp1320
S"<Values at 0xa5e5b8c: {'verbose': False, 'ip': '127.0.0.1', 'shutdown_timeout': 5, 'taskbar': False, 'nocron': False, 'pid_filename': 'httpserver.pid', 'maxthreads': None, 'softcron': False, 'server_name': 'ubuntu', 'bpython': False, 'nogui': False, 'port': 8000, 'extcron': False, 'debuglevel': 30, 'test': None, 'folder': '/home/iscott/web/web2py', 'config': '', 'import_models': False, 'winservice': '', 'shell': None, 'run': '', 'log_filename': 'httpserver.log', 'args': [''], 'socket_timeout': 1, 'ssl_ca_certificate': None, 'scheduler': None, 'profiler_filename': None, 'ssl_private_key': '', 'password': '<ask>', 'request_queue_size': 5, 'ssl_certificate': '', 'cronjob': False, 'numthreads': None, 'quiet': False, 'interfaces': None, 'minthreads': None, 'timeout': 10, 'plain': False, 'nobanner': False}>"
p1321
asbasbasbag57
(g73
g59
NtRp1322
(dp1323
g62
(dp1324
sg71
g1227
sg64
(lp1325
g57
(g78
g59
NtRp1326
(dp1327
g62
(dp1328
g82
g83
ssg71
g1322
sg64
(lp1329
S'db_sessions'
p1330
asbag57
(g78
g59
NtRp1331
(dp1332
g62
(dp1333
g89
g90
ssg71
g1322
sg64
(lp1334
S':'
asbag57
(g78
g59
NtRp1335
(dp1336
g62
(dp1337
sg71
g1322
sg64
(lp1338
g57
(g58
g59
NtRp1339
(dp1340
g62
(dp1341
g70
I4
ssg71
g1335
sg64
(lp1342
S'set([])'
p1343
asbasbasbag57
(g73
g59
NtRp1344
(dp1345
g62
(dp1346
sg71
g1227
sg64
(lp1347
g57
(g78
g59
NtRp1348
(dp1349
g62
(dp1350
g82
g83
ssg71
g1344
sg64
(lp1351
S'debugging'
p1352
asbag57
(g78
g59
NtRp1353
(dp1354
g62
(dp1355
g89
g90
ssg71
g1344
sg64
(lp1356
S':'
asbag57
(g78
g59
NtRp1357
(dp1358
g62
(dp1359
sg71
g1344
sg64
(lp1360
g57
(g58
g59
NtRp1361
(dp1362
g62
(dp1363
g70
I4
ssg71
g1357
sg64
(lp1364
S'False'
p1365
asbasbasbag57
(g73
g59
NtRp1366
(dp1367
g62
(dp1368
sg71
g1227
sg64
(lp1369
g57
(g78
g59
NtRp1370
(dp1371
g62
(dp1372
g82
g83
ssg71
g1366
sg64
(lp1373
S'gluon_parent'
p1374
asbag57
(g78
g59
NtRp1375
(dp1376
g62
(dp1377
g89
g90
ssg71
g1366
sg64
(lp1378
S':'
asbag57
(g78
g59
NtRp1379
(dp1380
g62
(dp1381
sg71
g1366
sg64
(lp1382
g57
(g58
g59
NtRp1383
(dp1384
g62
(dp1385
g70
I4
ssg71
g1379
sg64
(lp1386
S'/home/iscott/web/web2py'
p1387
asbasbasbag57
(g73
g59
NtRp1388
(dp1389
g62
(dp1390
sg71
g1227
sg64
(lp1391
g57
(g78
g59
NtRp1392
(dp1393
g62
(dp1394
g82
g83
ssg71
g1388
sg64
(lp1395
S'http_accept'
p1396
asbag57
(g78
g59
NtRp1397
(dp1398
g62
(dp1399
g89
g90
ssg71
g1388
sg64
(lp1400
S':'
asbag57
(g78
g59
NtRp1401
(dp1402
g62
(dp1403
sg71
g1388
sg64
(lp1404
g57
(g58
g59
NtRp1405
(dp1406
g62
(dp1407
g70
I4
ssg71
g1401
sg64
(lp1408
S'*/*'
p1409
asbasbasbag57
(g73
g59
NtRp1410
(dp1411
g62
(dp1412
sg71
g1227
sg64
(lp1413
g57
(g78
g59
NtRp1414
(dp1415
g62
(dp1416
g82
g83
ssg71
g1410
sg64
(lp1417
S'http_accept_encoding'
p1418
asbag57
(g78
g59
NtRp1419
(dp1420
g62
(dp1421
g89
g90
ssg71
g1410
sg64
(lp1422
S':'
asbag57
(g78
g59
NtRp1423
(dp1424
g62
(dp1425
sg71
g1410
sg64
(lp1426
g57
(g58
g59
NtRp1427
(dp1428
g62
(dp1429
g70
I4
ssg71
g1423
sg64
(lp1430
S'gzip, deflate'
p1431
asbasbasbag57
(g73
g59
NtRp1432
(dp1433
g62
(dp1434
sg71
g1227
sg64
(lp1435
g57
(g78
g59
NtRp1436
(dp1437
g62
(dp1438
g82
g83
ssg71
g1432
sg64
(lp1439
S'http_accept_language'
p1440
asbag57
(g78
g59
NtRp1441
(dp1442
g62
(dp1443
g89
g90
ssg71
g1432
sg64
(lp1444
S':'
asbag57
(g78
g59
NtRp1445
(dp1446
g62
(dp1447
sg71
g1432
sg64
(lp1448
g57
(g58
g59
NtRp1449
(dp1450
g62
(dp1451
g70
I4
ssg71
g1445
sg64
(lp1452
S'en-us,en;q=0.5'
p1453
asbasbasbag57
(g73
g59
NtRp1454
(dp1455
g62
(dp1456
sg71
g1227
sg64
(lp1457
g57
(g78
g59
NtRp1458
(dp1459
g62
(dp1460
g82
g83
ssg71
g1454
sg64
(lp1461
S'http_connection'
p1462
asbag57
(g78
g59
NtRp1463
(dp1464
g62
(dp1465
g89
g90
ssg71
g1454
sg64
(lp1466
S':'
asbag57
(g78
g59
NtRp1467
(dp1468
g62
(dp1469
sg71
g1454
sg64
(lp1470
g57
(g58
g59
NtRp1471
(dp1472
g62
(dp1473
g70
I4
ssg71
g1467
sg64
(lp1474
S'keep-alive'
p1475
asbasbasbag57
(g73
g59
NtRp1476
(dp1477
g62
(dp1478
sg71
g1227
sg64
(lp1479
g57
(g78
g59
NtRp1480
(dp1481
g62
(dp1482
g82
g83
ssg71
g1476
sg64
(lp1483
S'http_cookie'
p1484
asbag57
(g78
g59
NtRp1485
(dp1486
g62
(dp1487
g89
g90
ssg71
g1476
sg64
(lp1488
S':'
asbag57
(g78
g59
NtRp1489
(dp1490
g62
(dp1491
sg71
g1476
sg64
(lp1492
g57
(g58
g59
NtRp1493
(dp1494
g62
(dp1495
g70
I4
ssg71
g1489
sg64
(lp1496
S'session_id_paideia=127.0.0.1-2edda130-d654-4b0f-a819-06652e443aa6; session_id_bloglet=127.0.0.1-e84b0934-9abc-4375-99c8-24980b610007; session_id_welcome=127.0.0.1-875183c3-33d3-41d0-8035-815b0ac6dec9; session_id_admin=127.0.0.1-ba0d1e5a-4433-48b1-9d72-e06601a8648a; session_id_grammateus3=127.0.0.1-03d15d8e-e891-4307-a6bf-5717208181cd'
p1497
asbasbasbag57
(g73
g59
NtRp1498
(dp1499
g62
(dp1500
sg71
g1227
sg64
(lp1501
g57
(g78
g59
NtRp1502
(dp1503
g62
(dp1504
g82
g83
ssg71
g1498
sg64
(lp1505
S'http_host'
p1506
asbag57
(g78
g59
NtRp1507
(dp1508
g62
(dp1509
g89
g90
ssg71
g1498
sg64
(lp1510
S':'
asbag57
(g78
g59
NtRp1511
(dp1512
g62
(dp1513
sg71
g1498
sg64
(lp1514
g57
(g58
g59
NtRp1515
(dp1516
g62
(dp1517
g70
I4
ssg71
g1511
sg64
(lp1518
S'127.0.0.1:8000'
p1519
asbasbasbag57
(g73
g59
NtRp1520
(dp1521
g62
(dp1522
sg71
g1227
sg64
(lp1523
g57
(g78
g59
NtRp1524
(dp1525
g62
(dp1526
g82
g83
ssg71
g1520
sg64
(lp1527
S'http_referer'
p1528
asbag57
(g78
g59
NtRp1529
(dp1530
g62
(dp1531
g89
g90
ssg71
g1520
sg64
(lp1532
S':'
asbag57
(g78
g59
NtRp1533
(dp1534
g62
(dp1535
sg71
g1520
sg64
(lp1536
g57
(g58
g59
NtRp1537
(dp1538
g62
(dp1539
g70
I4
ssg71
g1533
sg64
(lp1540
S'http://127.0.0.1:8000/grammateus3/docs/text/1En'
p1541
asbasbasbag57
(g73
g59
NtRp1542
(dp1543
g62
(dp1544
sg71
g1227
sg64
(lp1545
g57
(g78
g59
NtRp1546
(dp1547
g62
(dp1548
g82
g83
ssg71
g1542
sg64
(lp1549
S'http_user_agent'
p1550
asbag57
(g78
g59
NtRp1551
(dp1552
g62
(dp1553
g89
g90
ssg71
g1542
sg64
(lp1554
S':'
asbag57
(g78
g59
NtRp1555
(dp1556
g62
(dp1557
sg71
g1542
sg64
(lp1558
g57
(g58
g59
NtRp1559
(dp1560
g62
(dp1561
g70
I4
ssg71
g1555
sg64
(lp1562
S'Mozilla/5.0 (X11; Ubuntu; Linux i686; rv:10.0.2) Gecko/20100101 Firefox/10.0.2'
p1563
asbasbasbag57
(g73
g59
NtRp1564
(dp1565
g62
(dp1566
sg71
g1227
sg64
(lp1567
g57
(g78
g59
NtRp1568
(dp1569
g62
(dp1570
g82
g83
ssg71
g1564
sg64
(lp1571
S'http_web2py_component_element'
p1572
asbag57
(g78
g59
NtRp1573
(dp1574
g62
(dp1575
g89
g90
ssg71
g1564
sg64
(lp1576
S':'
asbag57
(g78
g59
NtRp1577
(dp1578
g62
(dp1579
sg71
g1564
sg64
(lp1580
g57
(g58
g59
NtRp1581
(dp1582
g62
(dp1583
g70
I4
ssg71
g1577
sg64
(lp1584
g203
asbasbasbag57
(g73
g59
NtRp1585
(dp1586
g62
(dp1587
sg71
g1227
sg64
(lp1588
g57
(g78
g59
NtRp1589
(dp1590
g62
(dp1591
g82
g83
ssg71
g1585
sg64
(lp1592
S'http_web2py_component_location'
p1593
asbag57
(g78
g59
NtRp1594
(dp1595
g62
(dp1596
g89
g90
ssg71
g1585
sg64
(lp1597
S':'
asbag57
(g78
g59
NtRp1598
(dp1599
g62
(dp1600
sg71
g1585
sg64
(lp1601
g57
(g58
g59
NtRp1602
(dp1603
g62
(dp1604
g70
I4
ssg71
g1598
sg64
(lp1605
S'http://127.0.0.1:8000/grammateus3/docs/text/1En'
p1606
asbasbasbag57
(g73
g59
NtRp1607
(dp1608
g62
(dp1609
sg71
g1227
sg64
(lp1610
g57
(g78
g59
NtRp1611
(dp1612
g62
(dp1613
g82
g83
ssg71
g1607
sg64
(lp1614
S'http_x_requested_with'
p1615
asbag57
(g78
g59
NtRp1616
(dp1617
g62
(dp1618
g89
g90
ssg71
g1607
sg64
(lp1619
S':'
asbag57
(g78
g59
NtRp1620
(dp1621
g62
(dp1622
sg71
g1607
sg64
(lp1623
g57
(g58
g59
NtRp1624
(dp1625
g62
(dp1626
g70
I4
ssg71
g1620
sg64
(lp1627
S'XMLHttpRequest'
p1628
asbasbasbag57
(g73
g59
NtRp1629
(dp1630
g62
(dp1631
sg71
g1227
sg64
(lp1632
g57
(g78
g59
NtRp1633
(dp1634
g62
(dp1635
g82
g83
ssg71
g1629
sg64
(lp1636
S'is_jython'
p1637
asbag57
(g78
g59
NtRp1638
(dp1639
g62
(dp1640
g89
g90
ssg71
g1629
sg64
(lp1641
S':'
asbag57
(g78
g59
NtRp1642
(dp1643
g62
(dp1644
sg71
g1629
sg64
(lp1645
g57
(g58
g59
NtRp1646
(dp1647
g62
(dp1648
g70
I4
ssg71
g1642
sg64
(lp1649
g1365
asbasbasbag57
(g73
g59
NtRp1650
(dp1651
g62
(dp1652
sg71
g1227
sg64
(lp1653
g57
(g78
g59
NtRp1654
(dp1655
g62
(dp1656
g82
g83
ssg71
g1650
sg64
(lp1657
S'is_pypy'
p1658
asbag57
(g78
g59
NtRp1659
(dp1660
g62
(dp1661
g89
g90
ssg71
g1650
sg64
(lp1662
S':'
asbag57
(g78
g59
NtRp1663
(dp1664
g62
(dp1665
sg71
g1650
sg64
(lp1666
g57
(g58
g59
NtRp1667
(dp1668
g62
(dp1669
g70
I4
ssg71
g1663
sg64
(lp1670
g1365
asbasbasbag57
(g73
g59
NtRp1671
(dp1672
g62
(dp1673
sg71
g1227
sg64
(lp1674
g57
(g78
g59
NtRp1675
(dp1676
g62
(dp1677
g82
g83
ssg71
g1671
sg64
(lp1678
S'path_info'
p1679
asbag57
(g78
g59
NtRp1680
(dp1681
g62
(dp1682
g89
g90
ssg71
g1671
sg64
(lp1683
S':'
asbag57
(g78
g59
NtRp1684
(dp1685
g62
(dp1686
sg71
g1671
sg64
(lp1687
g57
(g58
g59
NtRp1688
(dp1689
g62
(dp1690
g70
I4
ssg71
g1684
sg64
(lp1691
S'/grammateus3/docs/section.load/1En'
p1692
asbasbasbag57
(g73
g59
NtRp1693
(dp1694
g62
(dp1695
sg71
g1227
sg64
(lp1696
g57
(g78
g59
NtRp1697
(dp1698
g62
(dp1699
g82
g83
ssg71
g1693
sg64
(lp1700
S'query_string'
p1701
asbag57
(g78
g59
NtRp1702
(dp1703
g62
(dp1704
g89
g90
ssg71
g1693
sg64
(lp1705
S':'
asbag57
(g78
g59
NtRp1706
(dp1707
g62
(dp1708
sg71
g1693
sg64
(lp1709
g57
(g58
g59
NtRp1710
(dp1711
g62
(dp1712
g70
I4
ssg71
g1706
sg64
(lp1713
S''
asbasbasbag57
(g73
g59
NtRp1714
(dp1715
g62
(dp1716
sg71
g1227
sg64
(lp1717
g57
(g78
g59
NtRp1718
(dp1719
g62
(dp1720
g82
g83
ssg71
g1714
sg64
(lp1721
S'remote_addr'
p1722
asbag57
(g78
g59
NtRp1723
(dp1724
g62
(dp1725
g89
g90
ssg71
g1714
sg64
(lp1726
S':'
asbag57
(g78
g59
NtRp1727
(dp1728
g62
(dp1729
sg71
g1714
sg64
(lp1730
g57
(g58
g59
NtRp1731
(dp1732
g62
(dp1733
g70
I4
ssg71
g1727
sg64
(lp1734
g225
asbasbasbag57
(g73
g59
NtRp1735
(dp1736
g62
(dp1737
sg71
g1227
sg64
(lp1738
g57
(g78
g59
NtRp1739
(dp1740
g62
(dp1741
g82
g83
ssg71
g1735
sg64
(lp1742
S'remote_port'
p1743
asbag57
(g78
g59
NtRp1744
(dp1745
g62
(dp1746
g89
g90
ssg71
g1735
sg64
(lp1747
S':'
asbag57
(g78
g59
NtRp1748
(dp1749
g62
(dp1750
sg71
g1735
sg64
(lp1751
g57
(g58
g59
NtRp1752
(dp1753
g62
(dp1754
g70
I4
ssg71
g1748
sg64
(lp1755
S'41034'
p1756
asbasbasbag57
(g73
g59
NtRp1757
(dp1758
g62
(dp1759
sg71
g1227
sg64
(lp1760
g57
(g78
g59
NtRp1761
(dp1762
g62
(dp1763
g82
g83
ssg71
g1757
sg64
(lp1764
S'request_method'
p1765
asbag57
(g78
g59
NtRp1766
(dp1767
g62
(dp1768
g89
g90
ssg71
g1757
sg64
(lp1769
S':'
asbag57
(g78
g59
NtRp1770
(dp1771
g62
(dp1772
sg71
g1757
sg64
(lp1773
g57
(g58
g59
NtRp1774
(dp1775
g62
(dp1776
g70
I4
ssg71
g1770
sg64
(lp1777
S'GET'
p1778
asbasbasbag57
(g73
g59
NtRp1779
(dp1780
g62
(dp1781
sg71
g1227
sg64
(lp1782
g57
(g78
g59
NtRp1783
(dp1784
g62
(dp1785
g82
g83
ssg71
g1779
sg64
(lp1786
S'script_name'
p1787
asbag57
(g78
g59
NtRp1788
(dp1789
g62
(dp1790
g89
g90
ssg71
g1779
sg64
(lp1791
S':'
asbag57
(g78
g59
NtRp1792
(dp1793
g62
(dp1794
sg71
g1779
sg64
(lp1795
g57
(g58
g59
NtRp1796
(dp1797
g62
(dp1798
g70
I4
ssg71
g1792
sg64
(lp1799
S''
asbasbasbag57
(g73
g59
NtRp1800
(dp1801
g62
(dp1802
sg71
g1227
sg64
(lp1803
g57
(g78
g59
NtRp1804
(dp1805
g62
(dp1806
g82
g83
ssg71
g1800
sg64
(lp1807
S'server_name'
p1808
asbag57
(g78
g59
NtRp1809
(dp1810
g62
(dp1811
g89
g90
ssg71
g1800
sg64
(lp1812
S':'
asbag57
(g78
g59
NtRp1813
(dp1814
g62
(dp1815
sg71
g1800
sg64
(lp1816
g57
(g58
g59
NtRp1817
(dp1818
g62
(dp1819
g70
I4
ssg71
g1813
sg64
(lp1820
S'ubuntu'
p1821
asbasbasbag57
(g73
g59
NtRp1822
(dp1823
g62
(dp1824
sg71
g1227
sg64
(lp1825
g57
(g78
g59
NtRp1826
(dp1827
g62
(dp1828
g82
g83
ssg71
g1822
sg64
(lp1829
S'server_port'
p1830
asbag57
(g78
g59
NtRp1831
(dp1832
g62
(dp1833
g89
g90
ssg71
g1822
sg64
(lp1834
S':'
asbag57
(g78
g59
NtRp1835
(dp1836
g62
(dp1837
sg71
g1822
sg64
(lp1838
g57
(g58
g59
NtRp1839
(dp1840
g62
(dp1841
g70
I4
ssg71
g1835
sg64
(lp1842
S'8000'
p1843
asbasbasbag57
(g73
g59
NtRp1844
(dp1845
g62
(dp1846
sg71
g1227
sg64
(lp1847
g57
(g78
g59
NtRp1848
(dp1849
g62
(dp1850
g82
g83
ssg71
g1844
sg64
(lp1851
S'server_protocol'
p1852
asbag57
(g78
g59
NtRp1853
(dp1854
g62
(dp1855
g89
g90
ssg71
g1844
sg64
(lp1856
S':'
asbag57
(g78
g59
NtRp1857
(dp1858
g62
(dp1859
sg71
g1844
sg64
(lp1860
g57
(g58
g59
NtRp1861
(dp1862
g62
(dp1863
g70
I4
ssg71
g1857
sg64
(lp1864
S'HTTP/1.1'
p1865
asbasbasbag57
(g73
g59
NtRp1866
(dp1867
g62
(dp1868
sg71
g1227
sg64
(lp1869
g57
(g78
g59
NtRp1870
(dp1871
g62
(dp1872
g82
g83
ssg71
g1866
sg64
(lp1873
S'server_software'
p1874
asbag57
(g78
g59
NtRp1875
(dp1876
g62
(dp1877
g89
g90
ssg71
g1866
sg64
(lp1878
S':'
asbag57
(g78
g59
NtRp1879
(dp1880
g62
(dp1881
sg71
g1866
sg64
(lp1882
g57
(g58
g59
NtRp1883
(dp1884
g62
(dp1885
g70
I4
ssg71
g1879
sg64
(lp1886
S'Rocket 1.2.4'
p1887
asbasbasbag57
(g73
g59
NtRp1888
(dp1889
g62
(dp1890
sg71
g1227
sg64
(lp1891
g57
(g78
g59
NtRp1892
(dp1893
g62
(dp1894
g82
g83
ssg71
g1888
sg64
(lp1895
S'web2py_crontype'
p1896
asbag57
(g78
g59
NtRp1897
(dp1898
g62
(dp1899
g89
g90
ssg71
g1888
sg64
(lp1900
S':'
asbag57
(g78
g59
NtRp1901
(dp1902
g62
(dp1903
sg71
g1888
sg64
(lp1904
g57
(g58
g59
NtRp1905
(dp1906
g62
(dp1907
g70
I4
ssg71
g1901
sg64
(lp1908
S'hard'
p1909
asbasbasbag57
(g73
g59
NtRp1910
(dp1911
g62
(dp1912
sg71
g1227
sg64
(lp1913
g57
(g78
g59
NtRp1914
(dp1915
g62
(dp1916
g82
g83
ssg71
g1910
sg64
(lp1917
S'web2py_path'
p1918
asbag57
(g78
g59
NtRp1919
(dp1920
g62
(dp1921
g89
g90
ssg71
g1910
sg64
(lp1922
S':'
asbag57
(g78
g59
NtRp1923
(dp1924
g62
(dp1925
sg71
g1910
sg64
(lp1926
g57
(g58
g59
NtRp1927
(dp1928
g62
(dp1929
g70
I4
ssg71
g1923
sg64
(lp1930
g1274
asbasbasbag57
(g73
g59
NtRp1931
(dp1932
g62
(dp1933
sg71
g1227
sg64
(lp1934
g57
(g78
g59
NtRp1935
(dp1936
g62
(dp1937
g82
g83
ssg71
g1931
sg64
(lp1938
S'web2py_version'
p1939
asbag57
(g78
g59
NtRp1940
(dp1941
g62
(dp1942
g89
g90
ssg71
g1931
sg64
(lp1943
S':'
asbag57
(g78
g59
NtRp1944
(dp1945
g62
(dp1946
sg71
g1931
sg64
(lp1947
g57
(g58
g59
NtRp1948
(dp1949
g62
(dp1950
g70
I4
ssg71
g1944
sg64
(lp1951
g57
(g66
g59
NtRp1952
(dp1953
g62
(dp1954
g70
I3
ssg71
Nsg64
(lp1955
g57
(g73
g59
NtRp1956
(dp1957
g62
(dp1958
sg71
g1952
sg64
(lp1959
g57
(g78
g59
NtRp1960
(dp1961
g62
(dp1962
sg71
g1956
sg64
(lp1963
g57
(g58
g59
NtRp1964
(dp1965
g62
(dp1966
g70
I3
ssg71
g1960
sg64
(lp1967
S'1'
asbasbasbag57
(g73
g59
NtRp1968
(dp1969
g62
(dp1970
sg71
g1952
sg64
(lp1971
g57
(g78
g59
NtRp1972
(dp1973
g62
(dp1974
sg71
g1968
sg64
(lp1975
g57
(g58
g59
NtRp1976
(dp1977
g62
(dp1978
g70
I3
ssg71
g1972
sg64
(lp1979
S'99'
p1980
asbasbasbag57
(g73
g59
NtRp1981
(dp1982
g62
(dp1983
sg71
g1952
sg64
(lp1984
g57
(g78
g59
NtRp1985
(dp1986
g62
(dp1987
sg71
g1981
sg64
(lp1988
g57
(g58
g59
NtRp1989
(dp1990
g62
(dp1991
g70
I3
ssg71
g1985
sg64
(lp1992
S'4'
asbasbasbag57
(g73
g59
NtRp1993
(dp1994
g62
(dp1995
sg71
g1952
sg64
(lp1996
g57
(g78
g59
NtRp1997
(dp1998
g62
(dp1999
sg71
g1993
sg64
(lp2000
g57
(g58
g59
NtRp2001
(dp2002
g62
(dp2003
g70
I3
ssg71
g1997
sg64
(lp2004
S'datetime.datetime(2011, 12, 14, 14, 46, 14)'
p2005
asbasbasbag57
(g73
g59
NtRp2006
(dp2007
g62
(dp2008
sg71
g1952
sg64
(lp2009
g57
(g78
g59
NtRp2010
(dp2011
g62
(dp2012
sg71
g2006
sg64
(lp2013
g57
(g58
g59
NtRp2014
(dp2015
g62
(dp2016
g70
I3
ssg71
g2010
sg64
(lp2017
S'stable'
p2018
asbasbasbasbasbasbasbag57
(g73
g59
NtRp2019
(dp2020
g62
(dp2021
sg71
g1227
sg64
(lp2022
g57
(g78
g59
NtRp2023
(dp2024
g62
(dp2025
g82
g83
ssg71
g2019
sg64
(lp2026
S'wsgi_errors'
p2027
asbag57
(g78
g59
NtRp2028
(dp2029
g62
(dp2030
g89
g90
ssg71
g2019
sg64
(lp2031
S':'
asbag57
(g78
g59
NtRp2032
(dp2033
g62
(dp2034
sg71
g2019
sg64
(lp2035
g57
(g58
g59
NtRp2036
(dp2037
g62
(dp2038
g70
I4
ssg71
g2032
sg64
(lp2039
S"<open file '<stderr>', mode 'w' at 0xb777d0d0>"
p2040
asbasbasbag57
(g73
g59
NtRp2041
(dp2042
g62
(dp2043
sg71
g1227
sg64
(lp2044
g57
(g78
g59
NtRp2045
(dp2046
g62
(dp2047
g82
g83
ssg71
g2041
sg64
(lp2048
S'wsgi_file_wrapper'
p2049
asbag57
(g78
g59
NtRp2050
(dp2051
g62
(dp2052
g89
g90
ssg71
g2041
sg64
(lp2053
S':'
asbag57
(g78
g59
NtRp2054
(dp2055
g62
(dp2056
sg71
g2041
sg64
(lp2057
g57
(g58
g59
NtRp2058
(dp2059
g62
(dp2060
g70
I4
ssg71
g2054
sg64
(lp2061
S'<class wsgiref.util.FileWrapper at 0xa52e20c>'
p2062
asbasbasbag57
(g73
g59
NtRp2063
(dp2064
g62
(dp2065
sg71
g1227
sg64
(lp2066
g57
(g78
g59
NtRp2067
(dp2068
g62
(dp2069
g82
g83
ssg71
g2063
sg64
(lp2070
S'wsgi_input'
p2071
asbag57
(g78
g59
NtRp2072
(dp2073
g62
(dp2074
g89
g90
ssg71
g2063
sg64
(lp2075
S':'
asbag57
(g78
g59
NtRp2076
(dp2077
g62
(dp2078
sg71
g2063
sg64
(lp2079
g57
(g58
g59
NtRp2080
(dp2081
g62
(dp2082
g70
I4
ssg71
g2076
sg64
(lp2083
S'<socket._fileobject object at 0xae24dec>'
p2084
asbasbasbag57
(g73
g59
NtRp2085
(dp2086
g62
(dp2087
sg71
g1227
sg64
(lp2088
g57
(g78
g59
NtRp2089
(dp2090
g62
(dp2091
g82
g83
ssg71
g2085
sg64
(lp2092
S'wsgi_multiprocess'
p2093
asbag57
(g78
g59
NtRp2094
(dp2095
g62
(dp2096
g89
g90
ssg71
g2085
sg64
(lp2097
S':'
asbag57
(g78
g59
NtRp2098
(dp2099
g62
(dp2100
sg71
g2085
sg64
(lp2101
g57
(g58
g59
NtRp2102
(dp2103
g62
(dp2104
g70
I4
ssg71
g2098
sg64
(lp2105
g1365
asbasbasbag57
(g73
g59
NtRp2106
(dp2107
g62
(dp2108
sg71
g1227
sg64
(lp2109
g57
(g78
g59
NtRp2110
(dp2111
g62
(dp2112
g82
g83
ssg71
g2106
sg64
(lp2113
S'wsgi_multithread'
p2114
asbag57
(g78
g59
NtRp2115
(dp2116
g62
(dp2117
g89
g90
ssg71
g2106
sg64
(lp2118
S':'
asbag57
(g78
g59
NtRp2119
(dp2120
g62
(dp2121
sg71
g2106
sg64
(lp2122
g57
(g58
g59
NtRp2123
(dp2124
g62
(dp2125
g70
I4
ssg71
g2119
sg64
(lp2126
g100
asbasbasbag57
(g73
g59
NtRp2127
(dp2128
g62
(dp2129
sg71
g1227
sg64
(lp2130
g57
(g78
g59
NtRp2131
(dp2132
g62
(dp2133
g82
g83
ssg71
g2127
sg64
(lp2134
S'wsgi_run_once'
p2135
asbag57
(g78
g59
NtRp2136
(dp2137
g62
(dp2138
g89
g90
ssg71
g2127
sg64
(lp2139
S':'
asbag57
(g78
g59
NtRp2140
(dp2141
g62
(dp2142
sg71
g2127
sg64
(lp2143
g57
(g58
g59
NtRp2144
(dp2145
g62
(dp2146
g70
I4
ssg71
g2140
sg64
(lp2147
g1365
asbasbasbag57
(g73
g59
NtRp2148
(dp2149
g62
(dp2150
sg71
g1227
sg64
(lp2151
g57
(g78
g59
NtRp2152
(dp2153
g62
(dp2154
g82
g83
ssg71
g2148
sg64
(lp2155
S'wsgi_url_scheme'
p2156
asbag57
(g78
g59
NtRp2157
(dp2158
g62
(dp2159
g89
g90
ssg71
g2148
sg64
(lp2160
S':'
asbag57
(g78
g59
NtRp2161
(dp2162
g62
(dp2163
sg71
g2148
sg64
(lp2164
g57
(g58
g59
NtRp2165
(dp2166
g62
(dp2167
g70
I4
ssg71
g2161
sg64
(lp2168
S'http'
p2169
asbasbasbag57
(g73
g59
NtRp2170
(dp2171
g62
(dp2172
sg71
g1227
sg64
(lp2173
g57
(g78
g59
NtRp2174
(dp2175
g62
(dp2176
g82
g83
ssg71
g2170
sg64
(lp2177
S'wsgi_version'
p2178
asbag57
(g78
g59
NtRp2179
(dp2180
g62
(dp2181
g89
g90
ssg71
g2170
sg64
(lp2182
S':'
asbag57
(g78
g59
NtRp2183
(dp2184
g62
(dp2185
sg71
g2170
sg64
(lp2186
g57
(g58
g59
NtRp2187
(dp2188
g62
(dp2189
g70
I4
ssg71
g2183
sg64
(lp2190
g57
(g66
g59
NtRp2191
(dp2192
g62
(dp2193
g70
I3
ssg71
Nsg64
(lp2194
g57
(g73
g59
NtRp2195
(dp2196
g62
(dp2197
sg71
g2191
sg64
(lp2198
g57
(g78
g59
NtRp2199
(dp2200
g62
(dp2201
sg71
g2195
sg64
(lp2202
g57
(g58
g59
NtRp2203
(dp2204
g62
(dp2205
g70
I3
ssg71
g2199
sg64
(lp2206
S'1'
asbasbasbag57
(g73
g59
NtRp2207
(dp2208
g62
(dp2209
sg71
g2191
sg64
(lp2210
g57
(g78
g59
NtRp2211
(dp2212
g62
(dp2213
sg71
g2207
sg64
(lp2214
g57
(g58
g59
NtRp2215
(dp2216
g62
(dp2217
g70
I3
ssg71
g2211
sg64
(lp2218
S'0'
asbasbasbasbasbasbasbasbasbasbasbag57
(g73
g59
NtRp2219
(dp2220
g62
(dp2221
sg71
g67
sg64
(lp2222
g57
(g78
g59
NtRp2223
(dp2224
g62
(dp2225
g82
g83
ssg71
g2219
sg64
(lp2226
S'extension'
p2227
asbag57
(g78
g59
NtRp2228
(dp2229
g62
(dp2230
g89
g90
ssg71
g2219
sg64
(lp2231
S':'
asbag57
(g78
g59
NtRp2232
(dp2233
g62
(dp2234
sg71
g2219
sg64
(lp2235
g57
(g58
g59
NtRp2236
(dp2237
g62
(dp2238
g70
I5
ssg71
g2232
sg64
(lp2239
S'load'
p2240
asbasbasbag57
(g73
g59
NtRp2241
(dp2242
g62
(dp2243
sg71
g67
sg64
(lp2244
g57
(g78
g59
NtRp2245
(dp2246
g62
(dp2247
g82
g83
ssg71
g2241
sg64
(lp2248
S'folder'
p2249
asbag57
(g78
g59
NtRp2250
(dp2251
g62
(dp2252
g89
g90
ssg71
g2241
sg64
(lp2253
S':'
asbag57
(g78
g59
NtRp2254
(dp2255
g62
(dp2256
sg71
g2241
sg64
(lp2257
g57
(g58
g59
NtRp2258
(dp2259
g62
(dp2260
g70
I5
ssg71
g2254
sg64
(lp2261
S'/home/iscott/web/web2py/applications/grammateus3/'
p2262
asbasbasbag57
(g73
g59
NtRp2263
(dp2264
g62
(dp2265
sg71
g67
sg64
(lp2266
g57
(g78
g59
NtRp2267
(dp2268
g62
(dp2269
g82
g83
ssg71
g2263
sg64
(lp2270
S'function'
p2271
asbag57
(g78
g59
NtRp2272
(dp2273
g62
(dp2274
g89
g90
ssg71
g2263
sg64
(lp2275
S':'
asbag57
(g78
g59
NtRp2276
(dp2277
g62
(dp2278
sg71
g2263
sg64
(lp2279
g57
(g58
g59
NtRp2280
(dp2281
g62
(dp2282
g70
I5
ssg71
g2276
sg64
(lp2283
S'section'
p2284
asbasbasbag57
(g73
g59
NtRp2285
(dp2286
g62
(dp2287
sg71
g67
sg64
(lp2288
g57
(g78
g59
NtRp2289
(dp2290
g62
(dp2291
g82
g83
ssg71
g2285
sg64
(lp2292
S'get_vars'
p2293
asbag57
(g78
g59
NtRp2294
(dp2295
g62
(dp2296
g89
g90
ssg71
g2285
sg64
(lp2297
S':'
asbag57
(g78
g59
NtRp2298
(dp2299
g62
(dp2300
sg71
g2285
sg64
(lp2301
g57
(g58
g59
NtRp2302
(dp2303
g62
(dp2304
g70
I5
ssg71
g2298
sg64
(lp2305
g57
(g66
g59
NtRp2306
(dp2307
g62
(dp2308
g70
I4
ssg71
Nsg64
(lp2309
sbasbasbasbag57
(g73
g59
NtRp2310
(dp2311
g62
(dp2312
sg71
g67
sg64
(lp2313
g57
(g78
g59
NtRp2314
(dp2315
g62
(dp2316
g82
g83
ssg71
g2310
sg64
(lp2317
S'global_settings'
p2318
asbag57
(g78
g59
NtRp2319
(dp2320
g62
(dp2321
g89
g90
ssg71
g2310
sg64
(lp2322
S':'
asbag57
(g78
g59
NtRp2323
(dp2324
g62
(dp2325
sg71
g2310
sg64
(lp2326
g57
(g58
g59
NtRp2327
(dp2328
g62
(dp2329
g70
I5
ssg71
g2323
sg64
(lp2330
g57
(g66
g59
NtRp2331
(dp2332
g62
(dp2333
g70
I4
ssg71
Nsg64
(lp2334
g57
(g73
g59
NtRp2335
(dp2336
g62
(dp2337
sg71
g2331
sg64
(lp2338
g57
(g78
g59
NtRp2339
(dp2340
g62
(dp2341
g82
g83
ssg71
g2335
sg64
(lp2342
g1239
asbag57
(g78
g59
NtRp2343
(dp2344
g62
(dp2345
g89
g90
ssg71
g2335
sg64
(lp2346
S':'
asbag57
(g78
g59
NtRp2347
(dp2348
g62
(dp2349
sg71
g2335
sg64
(lp2350
g57
(g58
g59
NtRp2351
(dp2352
g62
(dp2353
g70
I4
ssg71
g2347
sg64
(lp2354
S"set(['/home/iscott/web/web2py/applications/grammateus3/', '/home/iscott/web/web2py/applications/admin/', '/home/iscott/web/web2py/applications/welcome/'])"
p2355
asbasbasbag57
(g73
g59
NtRp2356
(dp2357
g62
(dp2358
sg71
g2331
sg64
(lp2359
g57
(g78
g59
NtRp2360
(dp2361
g62
(dp2362
g82
g83
ssg71
g2356
sg64
(lp2363
g1261
asbag57
(g78
g59
NtRp2364
(dp2365
g62
(dp2366
g89
g90
ssg71
g2356
sg64
(lp2367
S':'
asbag57
(g78
g59
NtRp2368
(dp2369
g62
(dp2370
sg71
g2356
sg64
(lp2371
g57
(g58
g59
NtRp2372
(dp2373
g62
(dp2374
g70
I4
ssg71
g2368
sg64
(lp2375
g1274
asbasbasbag57
(g73
g59
NtRp2376
(dp2377
g62
(dp2378
sg71
g2331
sg64
(lp2379
g57
(g78
g59
NtRp2380
(dp2381
g62
(dp2382
g82
g83
ssg71
g2376
sg64
(lp2383
g1283
asbag57
(g78
g59
NtRp2384
(dp2385
g62
(dp2386
g89
g90
ssg71
g2376
sg64
(lp2387
S':'
asbag57
(g78
g59
NtRp2388
(dp2389
g62
(dp2390
sg71
g2376
sg64
(lp2391
g57
(g58
g59
NtRp2392
(dp2393
g62
(dp2394
g70
I4
ssg71
g2388
sg64
(lp2395
g57
(g66
g59
NtRp2396
(dp2397
g62
(dp2398
g70
I3
ssg71
Nsg64
(lp2399
sbasbasbasbag57
(g73
g59
NtRp2400
(dp2401
g62
(dp2402
sg71
g2331
sg64
(lp2403
g57
(g78
g59
NtRp2404
(dp2405
g62
(dp2406
g82
g83
ssg71
g2400
sg64
(lp2407
g1308
asbag57
(g78
g59
NtRp2408
(dp2409
g62
(dp2410
g89
g90
ssg71
g2400
sg64
(lp2411
S':'
asbag57
(g78
g59
NtRp2412
(dp2413
g62
(dp2414
sg71
g2400
sg64
(lp2415
g57
(g58
g59
NtRp2416
(dp2417
g62
(dp2418
g70
I4
ssg71
g2412
sg64
(lp2419
S"<Values at 0xa5e5b8c: {'verbose': False, 'ip': '127.0.0.1', 'shutdown_timeout': 5, 'taskbar': False, 'nocron': False, 'pid_filename': 'httpserver.pid', 'maxthreads': None, 'softcron': False, 'server_name': 'ubuntu', 'bpython': False, 'nogui': False, 'port': 8000, 'extcron': False, 'debuglevel': 30, 'test': None, 'folder': '/home/iscott/web/web2py', 'config': '', 'import_models': False, 'winservice': '', 'shell': None, 'run': '', 'log_filename': 'httpserver.log', 'args': [''], 'socket_timeout': 1, 'ssl_ca_certificate': None, 'scheduler': None, 'profiler_filename': None, 'ssl_private_key': '', 'password': '<ask>', 'request_queue_size': 5, 'ssl_certificate': '', 'cronjob': False, 'numthreads': None, 'quiet': False, 'interfaces': None, 'minthreads': None, 'timeout': 10, 'plain': False, 'nobanner': False}>"
p2420
asbasbasbag57
(g73
g59
NtRp2421
(dp2422
g62
(dp2423
sg71
g2331
sg64
(lp2424
g57
(g78
g59
NtRp2425
(dp2426
g62
(dp2427
g82
g83
ssg71
g2421
sg64
(lp2428
g1330
asbag57
(g78
g59
NtRp2429
(dp2430
g62
(dp2431
g89
g90
ssg71
g2421
sg64
(lp2432
S':'
asbag57
(g78
g59
NtRp2433
(dp2434
g62
(dp2435
sg71
g2421
sg64
(lp2436
g57
(g58
g59
NtRp2437
(dp2438
g62
(dp2439
g70
I4
ssg71
g2433
sg64
(lp2440
S'set([])'
p2441
asbasbasbag57
(g73
g59
NtRp2442
(dp2443
g62
(dp2444
sg71
g2331
sg64
(lp2445
g57
(g78
g59
NtRp2446
(dp2447
g62
(dp2448
g82
g83
ssg71
g2442
sg64
(lp2449
g1352
asbag57
(g78
g59
NtRp2450
(dp2451
g62
(dp2452
g89
g90
ssg71
g2442
sg64
(lp2453
S':'
asbag57
(g78
g59
NtRp2454
(dp2455
g62
(dp2456
sg71
g2442
sg64
(lp2457
g57
(g58
g59
NtRp2458
(dp2459
g62
(dp2460
g70
I4
ssg71
g2454
sg64
(lp2461
g1365
asbasbasbag57
(g73
g59
NtRp2462
(dp2463
g62
(dp2464
sg71
g2331
sg64
(lp2465
g57
(g78
g59
NtRp2466
(dp2467
g62
(dp2468
g82
g83
ssg71
g2462
sg64
(lp2469
g1374
asbag57
(g78
g59
NtRp2470
(dp2471
g62
(dp2472
g89
g90
ssg71
g2462
sg64
(lp2473
S':'
asbag57
(g78
g59
NtRp2474
(dp2475
g62
(dp2476
sg71
g2462
sg64
(lp2477
g57
(g58
g59
NtRp2478
(dp2479
g62
(dp2480
g70
I4
ssg71
g2474
sg64
(lp2481
g1387
asbasbasbag57
(g73
g59
NtRp2482
(dp2483
g62
(dp2484
sg71
g2331
sg64
(lp2485
g57
(g78
g59
NtRp2486
(dp2487
g62
(dp2488
g82
g83
ssg71
g2482
sg64
(lp2489
g1637
asbag57
(g78
g59
NtRp2490
(dp2491
g62
(dp2492
g89
g90
ssg71
g2482
sg64
(lp2493
S':'
asbag57
(g78
g59
NtRp2494
(dp2495
g62
(dp2496
sg71
g2482
sg64
(lp2497
g57
(g58
g59
NtRp2498
(dp2499
g62
(dp2500
g70
I4
ssg71
g2494
sg64
(lp2501
g1365
asbasbasbag57
(g73
g59
NtRp2502
(dp2503
g62
(dp2504
sg71
g2331
sg64
(lp2505
g57
(g78
g59
NtRp2506
(dp2507
g62
(dp2508
g82
g83
ssg71
g2502
sg64
(lp2509
g1658
asbag57
(g78
g59
NtRp2510
(dp2511
g62
(dp2512
g89
g90
ssg71
g2502
sg64
(lp2513
S':'
asbag57
(g78
g59
NtRp2514
(dp2515
g62
(dp2516
sg71
g2502
sg64
(lp2517
g57
(g58
g59
NtRp2518
(dp2519
g62
(dp2520
g70
I4
ssg71
g2514
sg64
(lp2521
g1365
asbasbasbag57
(g73
g59
NtRp2522
(dp2523
g62
(dp2524
sg71
g2331
sg64
(lp2525
g57
(g78
g59
NtRp2526
(dp2527
g62
(dp2528
g82
g83
ssg71
g2522
sg64
(lp2529
g1896
asbag57
(g78
g59
NtRp2530
(dp2531
g62
(dp2532
g89
g90
ssg71
g2522
sg64
(lp2533
S':'
asbag57
(g78
g59
NtRp2534
(dp2535
g62
(dp2536
sg71
g2522
sg64
(lp2537
g57
(g58
g59
NtRp2538
(dp2539
g62
(dp2540
g70
I4
ssg71
g2534
sg64
(lp2541
g1909
asbasbasbag57
(g73
g59
NtRp2542
(dp2543
g62
(dp2544
sg71
g2331
sg64
(lp2545
g57
(g78
g59
NtRp2546
(dp2547
g62
(dp2548
g82
g83
ssg71
g2542
sg64
(lp2549
g1939
asbag57
(g78
g59
NtRp2550
(dp2551
g62
(dp2552
g89
g90
ssg71
g2542
sg64
(lp2553
S':'
asbag57
(g78
g59
NtRp2554
(dp2555
g62
(dp2556
sg71
g2542
sg64
(lp2557
g57
(g58
g59
NtRp2558
(dp2559
g62
(dp2560
g70
I4
ssg71
g2554
sg64
(lp2561
g57
(g66
g59
NtRp2562
(dp2563
g62
(dp2564
g70
I3
ssg71
Nsg64
(lp2565
g57
(g73
g59
NtRp2566
(dp2567
g62
(dp2568
sg71
g2562
sg64
(lp2569
g57
(g78
g59
NtRp2570
(dp2571
g62
(dp2572
sg71
g2566
sg64
(lp2573
g57
(g58
g59
NtRp2574
(dp2575
g62
(dp2576
g70
I3
ssg71
g2570
sg64
(lp2577
S'1'
asbasbasbag57
(g73
g59
NtRp2578
(dp2579
g62
(dp2580
sg71
g2562
sg64
(lp2581
g57
(g78
g59
NtRp2582
(dp2583
g62
(dp2584
sg71
g2578
sg64
(lp2585
g57
(g58
g59
NtRp2586
(dp2587
g62
(dp2588
g70
I3
ssg71
g2582
sg64
(lp2589
S'99'
p2590
asbasbasbag57
(g73
g59
NtRp2591
(dp2592
g62
(dp2593
sg71
g2562
sg64
(lp2594
g57
(g78
g59
NtRp2595
(dp2596
g62
(dp2597
sg71
g2591
sg64
(lp2598
g57
(g58
g59
NtRp2599
(dp2600
g62
(dp2601
g70
I3
ssg71
g2595
sg64
(lp2602
S'4'
asbasbasbag57
(g73
g59
NtRp2603
(dp2604
g62
(dp2605
sg71
g2562
sg64
(lp2606
g57
(g78
g59
NtRp2607
(dp2608
g62
(dp2609
sg71
g2603
sg64
(lp2610
g57
(g58
g59
NtRp2611
(dp2612
g62
(dp2613
g70
I3
ssg71
g2607
sg64
(lp2614
S'datetime.datetime(2011, 12, 14, 14, 46, 14)'
p2615
asbasbasbag57
(g73
g59
NtRp2616
(dp2617
g62
(dp2618
sg71
g2562
sg64
(lp2619
g57
(g78
g59
NtRp2620
(dp2621
g62
(dp2622
sg71
g2616
sg64
(lp2623
g57
(g58
g59
NtRp2624
(dp2625
g62
(dp2626
g70
I3
ssg71
g2620
sg64
(lp2627
g2018
asbasbasbasbasbasbasbasbasbasbasbag57
(g73
g59
NtRp2628
(dp2629
g62
(dp2630
sg71
g67
sg64
(lp2631
g57
(g78
g59
NtRp2632
(dp2633
g62
(dp2634
g82
g83
ssg71
g2628
sg64
(lp2635
S'is_https'
p2636
asbag57
(g78
g59
NtRp2637
(dp2638
g62
(dp2639
g89
g90
ssg71
g2628
sg64
(lp2640
S':'
asbag57
(g78
g59
NtRp2641
(dp2642
g62
(dp2643
sg71
g2628
sg64
(lp2644
g57
(g58
g59
NtRp2645
(dp2646
g62
(dp2647
g70
I5
ssg71
g2641
sg64
(lp2648
g1365
asbasbasbag57
(g73
g59
NtRp2649
(dp2650
g62
(dp2651
sg71
g67
sg64
(lp2652
g57
(g78
g59
NtRp2653
(dp2654
g62
(dp2655
g82
g83
ssg71
g2649
sg64
(lp2656
S'is_local'
p2657
asbag57
(g78
g59
NtRp2658
(dp2659
g62
(dp2660
g89
g90
ssg71
g2649
sg64
(lp2661
S':'
asbag57
(g78
g59
NtRp2662
(dp2663
g62
(dp2664
sg71
g2649
sg64
(lp2665
g57
(g58
g59
NtRp2666
(dp2667
g62
(dp2668
g70
I5
ssg71
g2662
sg64
(lp2669
g100
asbasbasbag57
(g73
g59
NtRp2670
(dp2671
g62
(dp2672
sg71
g67
sg64
(lp2673
g57
(g78
g59
NtRp2674
(dp2675
g62
(dp2676
g82
g83
ssg71
g2670
sg64
(lp2677
S'is_restful'
p2678
asbag57
(g78
g59
NtRp2679
(dp2680
g62
(dp2681
g89
g90
ssg71
g2670
sg64
(lp2682
S':'
asbag57
(g78
g59
NtRp2683
(dp2684
g62
(dp2685
sg71
g2670
sg64
(lp2686
g57
(g58
g59
NtRp2687
(dp2688
g62
(dp2689
g70
I5
ssg71
g2683
sg64
(lp2690
g1365
asbasbasbag57
(g73
g59
NtRp2691
(dp2692
g62
(dp2693
sg71
g67
sg64
(lp2694
g57
(g78
g59
NtRp2695
(dp2696
g62
(dp2697
g82
g83
ssg71
g2691
sg64
(lp2698
S'now'
p2699
asbag57
(g78
g59
NtRp2700
(dp2701
g62
(dp2702
g89
g90
ssg71
g2691
sg64
(lp2703
S':'
asbag57
(g78
g59
NtRp2704
(dp2705
g62
(dp2706
sg71
g2691
sg64
(lp2707
g57
(g58
g59
NtRp2708
(dp2709
g62
(dp2710
g70
I5
ssg71
g2704
sg64
(lp2711
S'datetime.datetime(2012, 3, 6, 13, 14, 55, 957240)'
p2712
asbasbasbag57
(g73
g59
NtRp2713
(dp2714
g62
(dp2715
sg71
g67
sg64
(lp2716
g57
(g78
g59
NtRp2717
(dp2718
g62
(dp2719
g82
g83
ssg71
g2713
sg64
(lp2720
S'post_vars'
p2721
asbag57
(g78
g59
NtRp2722
(dp2723
g62
(dp2724
g89
g90
ssg71
g2713
sg64
(lp2725
S':'
asbag57
(g78
g59
NtRp2726
(dp2727
g62
(dp2728
sg71
g2713
sg64
(lp2729
g57
(g58
g59
NtRp2730
(dp2731
g62
(dp2732
g70
I5
ssg71
g2726
sg64
(lp2733
g57
(g66
g59
NtRp2734
(dp2735
g62
(dp2736
g70
I4
ssg71
Nsg64
(lp2737
sbasbasbasbag57
(g73
g59
NtRp2738
(dp2739
g62
(dp2740
sg71
g67
sg64
(lp2741
g57
(g78
g59
NtRp2742
(dp2743
g62
(dp2744
g82
g83
ssg71
g2738
sg64
(lp2745
S'raw_args'
p2746
asbag57
(g78
g59
NtRp2747
(dp2748
g62
(dp2749
g89
g90
ssg71
g2738
sg64
(lp2750
S':'
asbag57
(g78
g59
NtRp2751
(dp2752
g62
(dp2753
sg71
g2738
sg64
(lp2754
g57
(g58
g59
NtRp2755
(dp2756
g62
(dp2757
g70
I5
ssg71
g2751
sg64
(lp2758
g159
asbasbasbag57
(g73
g59
NtRp2759
(dp2760
g62
(dp2761
sg71
g67
sg64
(lp2762
g57
(g78
g59
NtRp2763
(dp2764
g62
(dp2765
g82
g83
ssg71
g2759
sg64
(lp2766
S'raw_extension'
p2767
asbag57
(g78
g59
NtRp2768
(dp2769
g62
(dp2770
g89
g90
ssg71
g2759
sg64
(lp2771
S':'
asbag57
(g78
g59
NtRp2772
(dp2773
g62
(dp2774
sg71
g2759
sg64
(lp2775
g57
(g58
g59
NtRp2776
(dp2777
g62
(dp2778
g70
I5
ssg71
g2772
sg64
(lp2779
g2240
asbasbasbag57
(g73
g59
NtRp2780
(dp2781
g62
(dp2782
sg71
g67
sg64
(lp2783
g57
(g78
g59
NtRp2784
(dp2785
g62
(dp2786
g82
g83
ssg71
g2780
sg64
(lp2787
S'url'
p2788
asbag57
(g78
g59
NtRp2789
(dp2790
g62
(dp2791
g89
g90
ssg71
g2780
sg64
(lp2792
S':'
asbag57
(g78
g59
NtRp2793
(dp2794
g62
(dp2795
sg71
g2780
sg64
(lp2796
g57
(g58
g59
NtRp2797
(dp2798
g62
(dp2799
g70
I5
ssg71
g2793
sg64
(lp2800
S'/grammateus3/docs/section.load/1En'
p2801
asbasbasbag57
(g73
g59
NtRp2802
(dp2803
g62
(dp2804
sg71
g67
sg64
(lp2805
g57
(g78
g59
NtRp2806
(dp2807
g62
(dp2808
g82
g83
ssg71
g2802
sg64
(lp2809
S'utcnow'
p2810
asbag57
(g78
g59
NtRp2811
(dp2812
g62
(dp2813
g89
g90
ssg71
g2802
sg64
(lp2814
S':'
asbag57
(g78
g59
NtRp2815
(dp2816
g62
(dp2817
sg71
g2802
sg64
(lp2818
g57
(g58
g59
NtRp2819
(dp2820
g62
(dp2821
g70
I5
ssg71
g2815
sg64
(lp2822
S'datetime.datetime(2012, 3, 6, 18, 14, 55, 957261)'
p2823
asbasbasbag57
(g73
g59
NtRp2824
(dp2825
g62
(dp2826
sg71
g67
sg64
(lp2827
g57
(g78
g59
NtRp2828
(dp2829
g62
(dp2830
g82
g83
ssg71
g2824
sg64
(lp2831
S'uuid'
p2832
asbag57
(g78
g59
NtRp2833
(dp2834
g62
(dp2835
g89
g90
ssg71
g2824
sg64
(lp2836
S':'
asbag57
(g78
g59
NtRp2837
(dp2838
g62
(dp2839
sg71
g2824
sg64
(lp2840
g57
(g58
g59
NtRp2841
(dp2842
g62
(dp2843
g70
I5
ssg71
g2837
sg64
(lp2844
S'grammateus3/127.0.0.1.2012-03-06.13-14-55.5aeb1855-95aa-44cd-b093-27cab3ad406e'
p2845
asbasbasbag57
(g73
g59
NtRp2846
(dp2847
g62
(dp2848
sg71
g67
sg64
(lp2849
g57
(g78
g59
NtRp2850
(dp2851
g62
(dp2852
g82
g83
ssg71
g2846
sg64
(lp2853
S'vars'
p2854
asbag57
(g78
g59
NtRp2855
(dp2856
g62
(dp2857
g89
g90
ssg71
g2846
sg64
(lp2858
S':'
asbag57
(g78
g59
NtRp2859
(dp2860
g62
(dp2861
sg71
g2846
sg64
(lp2862
g57
(g58
g59
NtRp2863
(dp2864
g62
(dp2865
g70
I5
ssg71
g2859
sg64
(lp2866
g57
(g66
g59
NtRp2867
(dp2868
g62
(dp2869
g70
I4
ssg71
Nsg64
(lp2870
sbasbasbasbag57
(g73
g59
NtRp2871
(dp2872
g62
(dp2873
sg71
g67
sg64
(lp2874
g57
(g78
g59
NtRp2875
(dp2876
g62
(dp2877
g82
g83
ssg71
g2871
sg64
(lp2878
S'wsgi'
p2879
asbag57
(g78
g59
NtRp2880
(dp2881
g62
(dp2882
g89
g90
ssg71
g2871
sg64
(lp2883
S':'
asbag57
(g78
g59
NtRp2884
(dp2885
g62
(dp2886
sg71
g2871
sg64
(lp2887
g57
(g58
g59
NtRp2888
(dp2889
g62
(dp2890
g70
I5
ssg71
g2884
sg64
(lp2891
g57
(g66
g59
NtRp2892
(dp2893
g62
(dp2894
g70
I4
ssg71
Nsg64
(lp2895
g57
(g73
g59
NtRp2896
(dp2897
g62
(dp2898
sg71
g2892
sg64
(lp2899
g57
(g78
g59
NtRp2900
(dp2901
g62
(dp2902
g82
g83
ssg71
g2896
sg64
(lp2903
S'environ'
p2904
asbag57
(g78
g59
NtRp2905
(dp2906
g62
(dp2907
g89
g90
ssg71
g2896
sg64
(lp2908
S':'
asbag57
(g78
g59
NtRp2909
(dp2910
g62
(dp2911
sg71
g2896
sg64
(lp2912
g57
(g58
g59
NtRp2913
(dp2914
g62
(dp2915
g70
I4
ssg71
g2909
sg64
(lp2916
g57
(g66
g59
NtRp2917
(dp2918
g62
(dp2919
g70
I3
ssg71
Nsg64
(lp2920
g57
(g73
g59
NtRp2921
(dp2922
g62
(dp2923
sg71
g2917
sg64
(lp2924
g57
(g78
g59
NtRp2925
(dp2926
g62
(dp2927
g82
g83
ssg71
g2921
sg64
(lp2928
S'HTTP_ACCEPT'
p2929
asbag57
(g78
g59
NtRp2930
(dp2931
g62
(dp2932
g89
g90
ssg71
g2921
sg64
(lp2933
S':'
asbag57
(g78
g59
NtRp2934
(dp2935
g62
(dp2936
sg71
g2921
sg64
(lp2937
g57
(g58
g59
NtRp2938
(dp2939
g62
(dp2940
g70
I3
ssg71
g2934
sg64
(lp2941
g1409
asbasbasbag57
(g73
g59
NtRp2942
(dp2943
g62
(dp2944
sg71
g2917
sg64
(lp2945
g57
(g78
g59
NtRp2946
(dp2947
g62
(dp2948
g82
g83
ssg71
g2942
sg64
(lp2949
S'HTTP_ACCEPT_ENCODING'
p2950
asbag57
(g78
g59
NtRp2951
(dp2952
g62
(dp2953
g89
g90
ssg71
g2942
sg64
(lp2954
S':'
asbag57
(g78
g59
NtRp2955
(dp2956
g62
(dp2957
sg71
g2942
sg64
(lp2958
g57
(g58
g59
NtRp2959
(dp2960
g62
(dp2961
g70
I3
ssg71
g2955
sg64
(lp2962
g1431
asbasbasbag57
(g73
g59
NtRp2963
(dp2964
g62
(dp2965
sg71
g2917
sg64
(lp2966
g57
(g78
g59
NtRp2967
(dp2968
g62
(dp2969
g82
g83
ssg71
g2963
sg64
(lp2970
S'HTTP_ACCEPT_LANGUAGE'
p2971
asbag57
(g78
g59
NtRp2972
(dp2973
g62
(dp2974
g89
g90
ssg71
g2963
sg64
(lp2975
S':'
asbag57
(g78
g59
NtRp2976
(dp2977
g62
(dp2978
sg71
g2963
sg64
(lp2979
g57
(g58
g59
NtRp2980
(dp2981
g62
(dp2982
g70
I3
ssg71
g2976
sg64
(lp2983
g1453
asbasbasbag57
(g73
g59
NtRp2984
(dp2985
g62
(dp2986
sg71
g2917
sg64
(lp2987
g57
(g78
g59
NtRp2988
(dp2989
g62
(dp2990
g82
g83
ssg71
g2984
sg64
(lp2991
S'HTTP_CONNECTION'
p2992
asbag57
(g78
g59
NtRp2993
(dp2994
g62
(dp2995
g89
g90
ssg71
g2984
sg64
(lp2996
S':'
asbag57
(g78
g59
NtRp2997
(dp2998
g62
(dp2999
sg71
g2984
sg64
(lp3000
g57
(g58
g59
NtRp3001
(dp3002
g62
(dp3003
g70
I3
ssg71
g2997
sg64
(lp3004
g1475
asbasbasbag57
(g73
g59
NtRp3005
(dp3006
g62
(dp3007
sg71
g2917
sg64
(lp3008
g57
(g78
g59
NtRp3009
(dp3010
g62
(dp3011
g82
g83
ssg71
g3005
sg64
(lp3012
S'HTTP_COOKIE'
p3013
asbag57
(g78
g59
NtRp3014
(dp3015
g62
(dp3016
g89
g90
ssg71
g3005
sg64
(lp3017
S':'
asbag57
(g78
g59
NtRp3018
(dp3019
g62
(dp3020
sg71
g3005
sg64
(lp3021
g57
(g58
g59
NtRp3022
(dp3023
g62
(dp3024
g70
I3
ssg71
g3018
sg64
(lp3025
g1497
asbasbasbag57
(g73
g59
NtRp3026
(dp3027
g62
(dp3028
sg71
g2917
sg64
(lp3029
g57
(g78
g59
NtRp3030
(dp3031
g62
(dp3032
g82
g83
ssg71
g3026
sg64
(lp3033
S'HTTP_HOST'
p3034
asbag57
(g78
g59
NtRp3035
(dp3036
g62
(dp3037
g89
g90
ssg71
g3026
sg64
(lp3038
S':'
asbag57
(g78
g59
NtRp3039
(dp3040
g62
(dp3041
sg71
g3026
sg64
(lp3042
g57
(g58
g59
NtRp3043
(dp3044
g62
(dp3045
g70
I3
ssg71
g3039
sg64
(lp3046
g1519
asbasbasbag57
(g73
g59
NtRp3047
(dp3048
g62
(dp3049
sg71
g2917
sg64
(lp3050
g57
(g78
g59
NtRp3051
(dp3052
g62
(dp3053
g82
g83
ssg71
g3047
sg64
(lp3054
S'HTTP_REFERER'
p3055
asbag57
(g78
g59
NtRp3056
(dp3057
g62
(dp3058
g89
g90
ssg71
g3047
sg64
(lp3059
S':'
asbag57
(g78
g59
NtRp3060
(dp3061
g62
(dp3062
sg71
g3047
sg64
(lp3063
g57
(g58
g59
NtRp3064
(dp3065
g62
(dp3066
g70
I3
ssg71
g3060
sg64
(lp3067
g1541
asbasbasbag57
(g73
g59
NtRp3068
(dp3069
g62
(dp3070
sg71
g2917
sg64
(lp3071
g57
(g78
g59
NtRp3072
(dp3073
g62
(dp3074
g82
g83
ssg71
g3068
sg64
(lp3075
S'HTTP_USER_AGENT'
p3076
asbag57
(g78
g59
NtRp3077
(dp3078
g62
(dp3079
g89
g90
ssg71
g3068
sg64
(lp3080
S':'
asbag57
(g78
g59
NtRp3081
(dp3082
g62
(dp3083
sg71
g3068
sg64
(lp3084
g57
(g58
g59
NtRp3085
(dp3086
g62
(dp3087
g70
I3
ssg71
g3081
sg64
(lp3088
g1563
asbasbasbag57
(g73
g59
NtRp3089
(dp3090
g62
(dp3091
sg71
g2917
sg64
(lp3092
g57
(g78
g59
NtRp3093
(dp3094
g62
(dp3095
g82
g83
ssg71
g3089
sg64
(lp3096
S'HTTP_WEB2PY_COMPONENT_ELEMENT'
p3097
asbag57
(g78
g59
NtRp3098
(dp3099
g62
(dp3100
g89
g90
ssg71
g3089
sg64
(lp3101
S':'
asbag57
(g78
g59
NtRp3102
(dp3103
g62
(dp3104
sg71
g3089
sg64
(lp3105
g57
(g58
g59
NtRp3106
(dp3107
g62
(dp3108
g70
I3
ssg71
g3102
sg64
(lp3109
g203
asbasbasbag57
(g73
g59
NtRp3110
(dp3111
g62
(dp3112
sg71
g2917
sg64
(lp3113
g57
(g78
g59
NtRp3114
(dp3115
g62
(dp3116
g82
g83
ssg71
g3110
sg64
(lp3117
S'HTTP_WEB2PY_COMPONENT_LOCATION'
p3118
asbag57
(g78
g59
NtRp3119
(dp3120
g62
(dp3121
g89
g90
ssg71
g3110
sg64
(lp3122
S':'
asbag57
(g78
g59
NtRp3123
(dp3124
g62
(dp3125
sg71
g3110
sg64
(lp3126
g57
(g58
g59
NtRp3127
(dp3128
g62
(dp3129
g70
I3
ssg71
g3123
sg64
(lp3130
g1606
asbasbasbag57
(g73
g59
NtRp3131
(dp3132
g62
(dp3133
sg71
g2917
sg64
(lp3134
g57
(g78
g59
NtRp3135
(dp3136
g62
(dp3137
g82
g83
ssg71
g3131
sg64
(lp3138
S'HTTP_X_REQUESTED_WITH'
p3139
asbag57
(g78
g59
NtRp3140
(dp3141
g62
(dp3142
g89
g90
ssg71
g3131
sg64
(lp3143
S':'
asbag57
(g78
g59
NtRp3144
(dp3145
g62
(dp3146
sg71
g3131
sg64
(lp3147
g57
(g58
g59
NtRp3148
(dp3149
g62
(dp3150
g70
I3
ssg71
g3144
sg64
(lp3151
g1628
asbasbasbag57
(g73
g59
NtRp3152
(dp3153
g62
(dp3154
sg71
g2917
sg64
(lp3155
g57
(g78
g59
NtRp3156
(dp3157
g62
(dp3158
g82
g83
ssg71
g3152
sg64
(lp3159
S'PATH_INFO'
p3160
asbag57
(g78
g59
NtRp3161
(dp3162
g62
(dp3163
g89
g90
ssg71
g3152
sg64
(lp3164
S':'
asbag57
(g78
g59
NtRp3165
(dp3166
g62
(dp3167
sg71
g3152
sg64
(lp3168
g57
(g58
g59
NtRp3169
(dp3170
g62
(dp3171
g70
I3
ssg71
g3165
sg64
(lp3172
g1692
asbasbasbag57
(g73
g59
NtRp3173
(dp3174
g62
(dp3175
sg71
g2917
sg64
(lp3176
g57
(g78
g59
NtRp3177
(dp3178
g62
(dp3179
g82
g83
ssg71
g3173
sg64
(lp3180
S'QUERY_STRING'
p3181
asbag57
(g78
g59
NtRp3182
(dp3183
g62
(dp3184
g89
g90
ssg71
g3173
sg64
(lp3185
S':'
asbag57
(g78
g59
NtRp3186
(dp3187
g62
(dp3188
sg71
g3173
sg64
(lp3189
g57
(g58
g59
NtRp3190
(dp3191
g62
(dp3192
g70
I3
ssg71
g3186
sg64
(lp3193
S''
asbasbasbag57
(g73
g59
NtRp3194
(dp3195
g62
(dp3196
sg71
g2917
sg64
(lp3197
g57
(g78
g59
NtRp3198
(dp3199
g62
(dp3200
g82
g83
ssg71
g3194
sg64
(lp3201
S'REMOTE_ADDR'
p3202
asbag57
(g78
g59
NtRp3203
(dp3204
g62
(dp3205
g89
g90
ssg71
g3194
sg64
(lp3206
S':'
asbag57
(g78
g59
NtRp3207
(dp3208
g62
(dp3209
sg71
g3194
sg64
(lp3210
g57
(g58
g59
NtRp3211
(dp3212
g62
(dp3213
g70
I3
ssg71
g3207
sg64
(lp3214
g225
asbasbasbag57
(g73
g59
NtRp3215
(dp3216
g62
(dp3217
sg71
g2917
sg64
(lp3218
g57
(g78
g59
NtRp3219
(dp3220
g62
(dp3221
g82
g83
ssg71
g3215
sg64
(lp3222
S'REMOTE_PORT'
p3223
asbag57
(g78
g59
NtRp3224
(dp3225
g62
(dp3226
g89
g90
ssg71
g3215
sg64
(lp3227
S':'
asbag57
(g78
g59
NtRp3228
(dp3229
g62
(dp3230
sg71
g3215
sg64
(lp3231
g57
(g58
g59
NtRp3232
(dp3233
g62
(dp3234
g70
I3
ssg71
g3228
sg64
(lp3235
g1756
asbasbasbag57
(g73
g59
NtRp3236
(dp3237
g62
(dp3238
sg71
g2917
sg64
(lp3239
g57
(g78
g59
NtRp3240
(dp3241
g62
(dp3242
g82
g83
ssg71
g3236
sg64
(lp3243
S'REQUEST_METHOD'
p3244
asbag57
(g78
g59
NtRp3245
(dp3246
g62
(dp3247
g89
g90
ssg71
g3236
sg64
(lp3248
S':'
asbag57
(g78
g59
NtRp3249
(dp3250
g62
(dp3251
sg71
g3236
sg64
(lp3252
g57
(g58
g59
NtRp3253
(dp3254
g62
(dp3255
g70
I3
ssg71
g3249
sg64
(lp3256
g1778
asbasbasbag57
(g73
g59
NtRp3257
(dp3258
g62
(dp3259
sg71
g2917
sg64
(lp3260
g57
(g78
g59
NtRp3261
(dp3262
g62
(dp3263
g82
g83
ssg71
g3257
sg64
(lp3264
S'SCRIPT_NAME'
p3265
asbag57
(g78
g59
NtRp3266
(dp3267
g62
(dp3268
g89
g90
ssg71
g3257
sg64
(lp3269
S':'
asbag57
(g78
g59
NtRp3270
(dp3271
g62
(dp3272
sg71
g3257
sg64
(lp3273
g57
(g58
g59
NtRp3274
(dp3275
g62
(dp3276
g70
I3
ssg71
g3270
sg64
(lp3277
S''
asbasbasbag57
(g73
g59
NtRp3278
(dp3279
g62
(dp3280
sg71
g2917
sg64
(lp3281
g57
(g78
g59
NtRp3282
(dp3283
g62
(dp3284
g82
g83
ssg71
g3278
sg64
(lp3285
S'SERVER_NAME'
p3286
asbag57
(g78
g59
NtRp3287
(dp3288
g62
(dp3289
g89
g90
ssg71
g3278
sg64
(lp3290
S':'
asbag57
(g78
g59
NtRp3291
(dp3292
g62
(dp3293
sg71
g3278
sg64
(lp3294
g57
(g58
g59
NtRp3295
(dp3296
g62
(dp3297
g70
I3
ssg71
g3291
sg64
(lp3298
g1821
asbasbasbag57
(g73
g59
NtRp3299
(dp3300
g62
(dp3301
sg71
g2917
sg64
(lp3302
g57
(g78
g59
NtRp3303
(dp3304
g62
(dp3305
g82
g83
ssg71
g3299
sg64
(lp3306
S'SERVER_PORT'
p3307
asbag57
(g78
g59
NtRp3308
(dp3309
g62
(dp3310
g89
g90
ssg71
g3299
sg64
(lp3311
S':'
asbag57
(g78
g59
NtRp3312
(dp3313
g62
(dp3314
sg71
g3299
sg64
(lp3315
g57
(g58
g59
NtRp3316
(dp3317
g62
(dp3318
g70
I3
ssg71
g3312
sg64
(lp3319
g1843
asbasbasbag57
(g73
g59
NtRp3320
(dp3321
g62
(dp3322
sg71
g2917
sg64
(lp3323
g57
(g78
g59
NtRp3324
(dp3325
g62
(dp3326
g82
g83
ssg71
g3320
sg64
(lp3327
S'SERVER_PROTOCOL'
p3328
asbag57
(g78
g59
NtRp3329
(dp3330
g62
(dp3331
g89
g90
ssg71
g3320
sg64
(lp3332
S':'
asbag57
(g78
g59
NtRp3333
(dp3334
g62
(dp3335
sg71
g3320
sg64
(lp3336
g57
(g58
g59
NtRp3337
(dp3338
g62
(dp3339
g70
I3
ssg71
g3333
sg64
(lp3340
g1865
asbasbasbag57
(g73
g59
NtRp3341
(dp3342
g62
(dp3343
sg71
g2917
sg64
(lp3344
g57
(g78
g59
NtRp3345
(dp3346
g62
(dp3347
g82
g83
ssg71
g3341
sg64
(lp3348
S'SERVER_SOFTWARE'
p3349
asbag57
(g78
g59
NtRp3350
(dp3351
g62
(dp3352
g89
g90
ssg71
g3341
sg64
(lp3353
S':'
asbag57
(g78
g59
NtRp3354
(dp3355
g62
(dp3356
sg71
g3341
sg64
(lp3357
g57
(g58
g59
NtRp3358
(dp3359
g62
(dp3360
g70
I3
ssg71
g3354
sg64
(lp3361
g1887
asbasbasbag57
(g73
g59
NtRp3362
(dp3363
g62
(dp3364
sg71
g2917
sg64
(lp3365
g57
(g78
g59
NtRp3366
(dp3367
g62
(dp3368
g82
g83
ssg71
g3362
sg64
(lp3369
S'wsgi.errors'
p3370
asbag57
(g78
g59
NtRp3371
(dp3372
g62
(dp3373
g89
g90
ssg71
g3362
sg64
(lp3374
S':'
asbag57
(g78
g59
NtRp3375
(dp3376
g62
(dp3377
sg71
g3362
sg64
(lp3378
g57
(g58
g59
NtRp3379
(dp3380
g62
(dp3381
g70
I3
ssg71
g3375
sg64
(lp3382
S"<open file '<stderr>', mode 'w' at 0xb777d0d0>"
p3383
asbasbasbag57
(g73
g59
NtRp3384
(dp3385
g62
(dp3386
sg71
g2917
sg64
(lp3387
g57
(g78
g59
NtRp3388
(dp3389
g62
(dp3390
g82
g83
ssg71
g3384
sg64
(lp3391
S'wsgi.file_wrapper'
p3392
asbag57
(g78
g59
NtRp3393
(dp3394
g62
(dp3395
g89
g90
ssg71
g3384
sg64
(lp3396
S':'
asbag57
(g78
g59
NtRp3397
(dp3398
g62
(dp3399
sg71
g3384
sg64
(lp3400
g57
(g58
g59
NtRp3401
(dp3402
g62
(dp3403
g70
I3
ssg71
g3397
sg64
(lp3404
S'<class wsgiref.util.FileWrapper at 0xa52e20c>'
p3405
asbasbasbag57
(g73
g59
NtRp3406
(dp3407
g62
(dp3408
sg71
g2917
sg64
(lp3409
g57
(g78
g59
NtRp3410
(dp3411
g62
(dp3412
g82
g83
ssg71
g3406
sg64
(lp3413
S'wsgi.input'
p3414
asbag57
(g78
g59
NtRp3415
(dp3416
g62
(dp3417
g89
g90
ssg71
g3406
sg64
(lp3418
S':'
asbag57
(g78
g59
NtRp3419
(dp3420
g62
(dp3421
sg71
g3406
sg64
(lp3422
g57
(g58
g59
NtRp3423
(dp3424
g62
(dp3425
g70
I3
ssg71
g3419
sg64
(lp3426
S'<cStringIO.StringO object at 0xb5048140>'
p3427
asbasbasbag57
(g73
g59
NtRp3428
(dp3429
g62
(dp3430
sg71
g2917
sg64
(lp3431
g57
(g78
g59
NtRp3432
(dp3433
g62
(dp3434
g82
g83
ssg71
g3428
sg64
(lp3435
S'wsgi.multiprocess'
p3436
asbag57
(g78
g59
NtRp3437
(dp3438
g62
(dp3439
g89
g90
ssg71
g3428
sg64
(lp3440
S':'
asbag57
(g78
g59
NtRp3441
(dp3442
g62
(dp3443
sg71
g3428
sg64
(lp3444
g57
(g58
g59
NtRp3445
(dp3446
g62
(dp3447
g70
I3
ssg71
g3441
sg64
(lp3448
g1365
asbasbasbag57
(g73
g59
NtRp3449
(dp3450
g62
(dp3451
sg71
g2917
sg64
(lp3452
g57
(g78
g59
NtRp3453
(dp3454
g62
(dp3455
g82
g83
ssg71
g3449
sg64
(lp3456
S'wsgi.multithread'
p3457
asbag57
(g78
g59
NtRp3458
(dp3459
g62
(dp3460
g89
g90
ssg71
g3449
sg64
(lp3461
S':'
asbag57
(g78
g59
NtRp3462
(dp3463
g62
(dp3464
sg71
g3449
sg64
(lp3465
g57
(g58
g59
NtRp3466
(dp3467
g62
(dp3468
g70
I3
ssg71
g3462
sg64
(lp3469
g100
asbasbasbag57
(g73
g59
NtRp3470
(dp3471
g62
(dp3472
sg71
g2917
sg64
(lp3473
g57
(g78
g59
NtRp3474
(dp3475
g62
(dp3476
g82
g83
ssg71
g3470
sg64
(lp3477
S'wsgi.run_once'
p3478
asbag57
(g78
g59
NtRp3479
(dp3480
g62
(dp3481
g89
g90
ssg71
g3470
sg64
(lp3482
S':'
asbag57
(g78
g59
NtRp3483
(dp3484
g62
(dp3485
sg71
g3470
sg64
(lp3486
g57
(g58
g59
NtRp3487
(dp3488
g62
(dp3489
g70
I3
ssg71
g3483
sg64
(lp3490
g1365
asbasbasbag57
(g73
g59
NtRp3491
(dp3492
g62
(dp3493
sg71
g2917
sg64
(lp3494
g57
(g78
g59
NtRp3495
(dp3496
g62
(dp3497
g82
g83
ssg71
g3491
sg64
(lp3498
S'wsgi.url_scheme'
p3499
asbag57
(g78
g59
NtRp3500
(dp3501
g62
(dp3502
g89
g90
ssg71
g3491
sg64
(lp3503
S':'
asbag57
(g78
g59
NtRp3504
(dp3505
g62
(dp3506
sg71
g3491
sg64
(lp3507
g57
(g58
g59
NtRp3508
(dp3509
g62
(dp3510
g70
I3
ssg71
g3504
sg64
(lp3511
g2169
asbasbasbag57
(g73
g59
NtRp3512
(dp3513
g62
(dp3514
sg71
g2917
sg64
(lp3515
g57
(g78
g59
NtRp3516
(dp3517
g62
(dp3518
g82
g83
ssg71
g3512
sg64
(lp3519
S'wsgi.version'
p3520
asbag57
(g78
g59
NtRp3521
(dp3522
g62
(dp3523
g89
g90
ssg71
g3512
sg64
(lp3524
S':'
asbag57
(g78
g59
NtRp3525
(dp3526
g62
(dp3527
sg71
g3512
sg64
(lp3528
g57
(g58
g59
NtRp3529
(dp3530
g62
(dp3531
g70
I3
ssg71
g3525
sg64
(lp3532
S'1'
asbasbasbasbasbasbasbasbasbasbasbasbasbsS'frames'
p3533
(lp3534
(dp3535
S'file'
p3536
S'/home/iscott/web/web2py/gluon/restricted.py'
p3537
sS'dump'
p3538
(dp3539
S'environment'
p3540
S"{'A': <class 'gluon.html.A'>, 'Auth': <class 'gluon.tools.Auth'>, 'B': <class 'gluon.html.B'>, 'BEAUTIFY': <class 'gluon.html.BEAUTIFY'>, 'BODY': <class 'gluon.html.BODY'>, 'BR': <class 'gluon.html.BR'>, 'BUTTON': <class 'gluon.html.BUTTON'>, 'BookParser': <class 'applications.grammateus3.modules.parse.BookParser'>, 'CAT': <class 'gluon.html.CAT'>, 'CENTER': <class 'gluon.html.CENTER'>, ...}"
p3541
sS'ccode'
p3542
S'<code object <module> at 0xb60cc38, file "/home/...cations/grammateus3/controllers/docs.py", line 2>'
p3543
ssS'lnum'
p3544
I204
sS'lines'
p3545
(dp3546
I199
S'    try:'
p3547
sI200
S'        if type(code) == types.CodeType:'
p3548
sI201
S'            ccode = code'
p3549
sI202
S'        else:'
p3550
sI203
S'            ccode = compile2(code,layer)'
p3551
sI204
S'        exec ccode in environment'
p3552
sI205
S'    except HTTP:'
p3553
sI206
S'        raise'
p3554
sI207
S'    except RestrictedError:'
p3555
sI208
S'        # do not encapsulate (obfuscate) the original RestrictedError'
p3556
ssS'call'
p3557
S"(code='# coding: utf8\\nfrom lxml import etree\\n\\nfrom pars... info)\\n\\nresponse._vars=response._caller(section)\\n', environment={'A': <class 'gluon.html.A'>, 'Auth': <class 'gluon.tools.Auth'>, 'B': <class 'gluon.html.B'>, 'BEAUTIFY': <class 'gluon.html.BEAUTIFY'>, 'BODY': <class 'gluon.html.BODY'>, 'BR': <class 'gluon.html.BR'>, 'BUTTON': <class 'gluon.html.BUTTON'>, 'BookParser': <class 'applications.grammateus3.modules.parse.BookParser'>, 'CAT': <class 'gluon.html.CAT'>, 'CENTER': <class 'gluon.html.CENTER'>, ...}, layer='/home/iscott/web/web2py/applications/grammateus3/controllers/docs.py')"
p3558
sS'func'
p3559
S'restricted'
p3560
sa(dp3561
g3536
S'/home/iscott/web/web2py/applications/grammateus3/controllers/docs.py'
p3562
sg3538
(dp3563
sg3544
I63
sg3545
(dp3564
I52
S"                print 'Version textstructure'"
p3565
sI53
S'                for ref, ref_val in value.items():'
p3566
sI54
S'                    for unit, unit_val in ref_val.items():'
p3567
sI55
S'                        for mss, mss_val in unit_val.items():'
p3568
sI56
S"                            print '\\t', ref, '-->', unit, '-->', mss, '-->', mss_val"
p3569
sI57
S"        print '************'"
p3570
sI58
S'    print'
p3571
sI59
S'    print'
p3572
sI60
S''
sI61
S'    return dict(title = title, info = info)'
p3573
ssg3557
S'()'
p3574
sg3559
S'<module>'
p3575
sa(dp3576
g3536
S'/home/iscott/web/web2py/gluon/globals.py'
p3577
sg3538
(dp3578
S'self'
p3579
S'undefined'
p3580
sS'f'
S'<function section>'
p3581
ssg3544
I172
sg3545
(dp3582
I167
S'        self.meta = Storage()      # used by web2py_ajax.html'
p3583
sI168
S'        self.menu = []             # used by the default view layout'
p3584
sI169
S'        self.files = []            # used by web2py_ajax.html'
p3585
sI170
S'        self.generic_patterns = [] # patterns to allow generic views'
p3586
sI171
S'        self._vars = None'
p3587
sI172
S'        self._caller = lambda f: f()'
p3588
sI173
S'        self._view_environment = None'
p3589
sI174
S'        self._custom_commit = None'
p3590
sI175
S'        self._custom_rollback = None'
p3591
sI176
S''
ssg3557
S'(f=<function section>)'
p3592
sg3559
S'<lambda>'
p3593
sa(dp3594
g3536
S'/home/iscott/web/web2py/applications/grammateus3/controllers/docs.py'
p3595
sg3538
(dp3596
S'p'
g3580
sS'global BookParser'
p3597
S"<class 'applications.grammateus3.modules.parse.BookParser'>"
p3598
sS'book_file'
p3599
g3580
ssg3544
I28
sg3545
(dp3600
I32
S''
sI23
S"    load_url = URL('docs', 'section.load', args=filename)"
p3601
sI24
S''
sI25
S'    return dict(load_url = load_url, filename = filename)'
p3602
sI26
S''
sI27
S'def section():'
p3603
sI28
S'    p = BookParser(book_file)'
p3604
sI29
S'    info = p.book_info()'
p3605
sI30
S''
sI31
S"    title = info['title']"
p3606
ssg3557
S'()'
p3607
sg3559
S'section'
p3608
sasS'pyver'
p3609
S'Python 2.7.2+: /usr/bin/python2.7'
p3610
sS'session'
p3611
g57
(g58
g59
NtRp3612
(dp3613
g62
(dp3614
sg64
(lp3615
g57
(g66
g59
NtRp3616
(dp3617
g62
(dp3618
g70
I5
ssg71
Nsg64
(lp3619
sbasbsS'etype'
p3620
S"<type 'exceptions.NameError'>"
p3621
sS'date'
p3622
S'Tue Mar  6 13:14:55 2012'
p3623
sS'response'
p3624
g57
(g58
g59
NtRp3625
(dp3626
g62
(dp3627
sg64
(lp3628
g57
(g66
g59
NtRp3629
(dp3630
g62
(dp3631
g70
I5
ssg71
Nsg64
(lp3632
g57
(g73
g59
NtRp3633
(dp3634
g62
(dp3635
sg71
g3629
sg64
(lp3636
g57
(g78
g59
NtRp3637
(dp3638
g62
(dp3639
g82
g83
ssg71
g3633
sg64
(lp3640
g168
asbag57
(g78
g59
NtRp3641
(dp3642
g62
(dp3643
g89
g90
ssg71
g3633
sg64
(lp3644
S':'
asbag57
(g78
g59
NtRp3645
(dp3646
g62
(dp3647
sg71
g3633
sg64
(lp3648
g57
(g58
g59
NtRp3649
(dp3650
g62
(dp3651
g70
I5
ssg71
g3645
sg64
(lp3652
S'<cStringIO.StringO object at 0xb50501e0>'
p3653
asbasbasbag57
(g73
g59
NtRp3654
(dp3655
g62
(dp3656
sg71
g3629
sg64
(lp3657
g57
(g78
g59
NtRp3658
(dp3659
g62
(dp3660
g82
g83
ssg71
g3654
sg64
(lp3661
g256
asbag57
(g78
g59
NtRp3662
(dp3663
g62
(dp3664
g89
g90
ssg71
g3654
sg64
(lp3665
S':'
asbag57
(g78
g59
NtRp3666
(dp3667
g62
(dp3668
sg71
g3654
sg64
(lp3669
g57
(g58
g59
NtRp3670
(dp3671
g62
(dp3672
g70
I5
ssg71
g3666
sg64
(lp3673
g57
(g66
g59
NtRp3674
(dp3675
g62
(dp3676
g70
I4
ssg71
Nsg64
(lp3677
g57
(g73
g59
NtRp3678
(dp3679
g62
(dp3680
sg71
g3674
sg64
(lp3681
g57
(g78
g59
NtRp3682
(dp3683
g62
(dp3684
g82
g83
ssg71
g3678
sg64
(lp3685
S'session_id_grammateus3'
p3686
asbag57
(g78
g59
NtRp3687
(dp3688
g62
(dp3689
g89
g90
ssg71
g3678
sg64
(lp3690
S':'
asbag57
(g78
g59
NtRp3691
(dp3692
g62
(dp3693
sg71
g3678
sg64
(lp3694
g57
(g58
g59
NtRp3695
(dp3696
g62
(dp3697
g70
I4
ssg71
g3691
sg64
(lp3698
g57
(g66
g59
NtRp3699
(dp3700
g62
(dp3701
g70
I3
ssg71
Nsg64
(lp3702
g57
(g73
g59
NtRp3703
(dp3704
g62
(dp3705
sg71
g3699
sg64
(lp3706
g57
(g78
g59
NtRp3707
(dp3708
g62
(dp3709
g82
g83
ssg71
g3703
sg64
(lp3710
g306
asbag57
(g78
g59
NtRp3711
(dp3712
g62
(dp3713
g89
g90
ssg71
g3703
sg64
(lp3714
S':'
asbag57
(g78
g59
NtRp3715
(dp3716
g62
(dp3717
sg71
g3703
sg64
(lp3718
g57
(g58
g59
NtRp3719
(dp3720
g62
(dp3721
g70
I3
ssg71
g3715
sg64
(lp3722
S''
asbasbasbag57
(g73
g59
NtRp3723
(dp3724
g62
(dp3725
sg71
g3699
sg64
(lp3726
g57
(g78
g59
NtRp3727
(dp3728
g62
(dp3729
g82
g83
ssg71
g3723
sg64
(lp3730
g327
asbag57
(g78
g59
NtRp3731
(dp3732
g62
(dp3733
g89
g90
ssg71
g3723
sg64
(lp3734
S':'
asbag57
(g78
g59
NtRp3735
(dp3736
g62
(dp3737
sg71
g3723
sg64
(lp3738
g57
(g58
g59
NtRp3739
(dp3740
g62
(dp3741
g70
I3
ssg71
g3735
sg64
(lp3742
S''
asbasbasbag57
(g73
g59
NtRp3743
(dp3744
g62
(dp3745
sg71
g3699
sg64
(lp3746
g57
(g78
g59
NtRp3747
(dp3748
g62
(dp3749
g82
g83
ssg71
g3743
sg64
(lp3750
g348
asbag57
(g78
g59
NtRp3751
(dp3752
g62
(dp3753
g89
g90
ssg71
g3743
sg64
(lp3754
S':'
asbag57
(g78
g59
NtRp3755
(dp3756
g62
(dp3757
sg71
g3743
sg64
(lp3758
g57
(g58
g59
NtRp3759
(dp3760
g62
(dp3761
g70
I3
ssg71
g3755
sg64
(lp3762
S''
asbasbasbag57
(g73
g59
NtRp3763
(dp3764
g62
(dp3765
sg71
g3699
sg64
(lp3766
g57
(g78
g59
NtRp3767
(dp3768
g62
(dp3769
g82
g83
ssg71
g3763
sg64
(lp3770
g369
asbag57
(g78
g59
NtRp3771
(dp3772
g62
(dp3773
g89
g90
ssg71
g3763
sg64
(lp3774
S':'
asbag57
(g78
g59
NtRp3775
(dp3776
g62
(dp3777
sg71
g3763
sg64
(lp3778
g57
(g58
g59
NtRp3779
(dp3780
g62
(dp3781
g70
I3
ssg71
g3775
sg64
(lp3782
S''
asbasbasbag57
(g73
g59
NtRp3783
(dp3784
g62
(dp3785
sg71
g3699
sg64
(lp3786
g57
(g78
g59
NtRp3787
(dp3788
g62
(dp3789
g82
g83
ssg71
g3783
sg64
(lp3790
g390
asbag57
(g78
g59
NtRp3791
(dp3792
g62
(dp3793
g89
g90
ssg71
g3783
sg64
(lp3794
S':'
asbag57
(g78
g59
NtRp3795
(dp3796
g62
(dp3797
sg71
g3783
sg64
(lp3798
g57
(g58
g59
NtRp3799
(dp3800
g62
(dp3801
g70
I3
ssg71
g3795
sg64
(lp3802
S''
asbasbasbag57
(g73
g59
NtRp3803
(dp3804
g62
(dp3805
sg71
g3699
sg64
(lp3806
g57
(g78
g59
NtRp3807
(dp3808
g62
(dp3809
g82
g83
ssg71
g3803
sg64
(lp3810
g411
asbag57
(g78
g59
NtRp3811
(dp3812
g62
(dp3813
g89
g90
ssg71
g3803
sg64
(lp3814
S':'
asbag57
(g78
g59
NtRp3815
(dp3816
g62
(dp3817
sg71
g3803
sg64
(lp3818
g57
(g58
g59
NtRp3819
(dp3820
g62
(dp3821
g70
I3
ssg71
g3815
sg64
(lp3822
S'/'
asbasbasbag57
(g73
g59
NtRp3823
(dp3824
g62
(dp3825
sg71
g3699
sg64
(lp3826
g57
(g78
g59
NtRp3827
(dp3828
g62
(dp3829
g82
g83
ssg71
g3823
sg64
(lp3830
g432
asbag57
(g78
g59
NtRp3831
(dp3832
g62
(dp3833
g89
g90
ssg71
g3823
sg64
(lp3834
S':'
asbag57
(g78
g59
NtRp3835
(dp3836
g62
(dp3837
sg71
g3823
sg64
(lp3838
g57
(g58
g59
NtRp3839
(dp3840
g62
(dp3841
g70
I3
ssg71
g3835
sg64
(lp3842
S''
asbasbasbag57
(g73
g59
NtRp3843
(dp3844
g62
(dp3845
sg71
g3699
sg64
(lp3846
g57
(g78
g59
NtRp3847
(dp3848
g62
(dp3849
g82
g83
ssg71
g3843
sg64
(lp3850
g453
asbag57
(g78
g59
NtRp3851
(dp3852
g62
(dp3853
g89
g90
ssg71
g3843
sg64
(lp3854
S':'
asbag57
(g78
g59
NtRp3855
(dp3856
g62
(dp3857
sg71
g3843
sg64
(lp3858
g57
(g58
g59
NtRp3859
(dp3860
g62
(dp3861
g70
I3
ssg71
g3855
sg64
(lp3862
S''
asbasbasbasbasbasbasbasbasbasbasbag57
(g73
g59
NtRp3863
(dp3864
g62
(dp3865
sg71
g3629
sg64
(lp3866
g57
(g78
g59
NtRp3867
(dp3868
g62
(dp3869
g82
g83
ssg71
g3863
sg64
(lp3870
S'files'
p3871
asbag57
(g78
g59
NtRp3872
(dp3873
g62
(dp3874
g89
g90
ssg71
g3863
sg64
(lp3875
S':'
asbag57
(g78
g59
NtRp3876
(dp3877
g62
(dp3878
sg71
g3863
sg64
(lp3879
g57
(g58
g59
NtRp3880
(dp3881
g62
(dp3882
g70
I5
ssg71
g3876
sg64
(lp3883
g57
(g66
g59
NtRp3884
(dp3885
g62
(dp3886
g70
I4
ssg71
Nsg64
(lp3887
sbasbasbasbag57
(g73
g59
NtRp3888
(dp3889
g62
(dp3890
sg71
g3629
sg64
(lp3891
g57
(g78
g59
NtRp3892
(dp3893
g62
(dp3894
g82
g83
ssg71
g3888
sg64
(lp3895
S'flash'
p3896
asbag57
(g78
g59
NtRp3897
(dp3898
g62
(dp3899
g89
g90
ssg71
g3888
sg64
(lp3900
S':'
asbag57
(g78
g59
NtRp3901
(dp3902
g62
(dp3903
sg71
g3888
sg64
(lp3904
g57
(g58
g59
NtRp3905
(dp3906
g62
(dp3907
g70
I5
ssg71
g3901
sg64
(lp3908
S''
asbasbasbag57
(g73
g59
NtRp3909
(dp3910
g62
(dp3911
sg71
g3629
sg64
(lp3912
g57
(g78
g59
NtRp3913
(dp3914
g62
(dp3915
g82
g83
ssg71
g3909
sg64
(lp3916
S'generic_patterns'
p3917
asbag57
(g78
g59
NtRp3918
(dp3919
g62
(dp3920
g89
g90
ssg71
g3909
sg64
(lp3921
S':'
asbag57
(g78
g59
NtRp3922
(dp3923
g62
(dp3924
sg71
g3909
sg64
(lp3925
g57
(g58
g59
NtRp3926
(dp3927
g62
(dp3928
g70
I5
ssg71
g3922
sg64
(lp3929
g57
(g66
g59
NtRp3930
(dp3931
g62
(dp3932
g70
I4
ssg71
Nsg64
(lp3933
g57
(g73
g59
NtRp3934
(dp3935
g62
(dp3936
sg71
g3930
sg64
(lp3937
g57
(g78
g59
NtRp3938
(dp3939
g62
(dp3940
sg71
g3934
sg64
(lp3941
g57
(g58
g59
NtRp3942
(dp3943
g62
(dp3944
g70
I4
ssg71
g3938
sg64
(lp3945
S'*'
asbasbasbasbasbasbasbag57
(g73
g59
NtRp3946
(dp3947
g62
(dp3948
sg71
g3629
sg64
(lp3949
g57
(g78
g59
NtRp3950
(dp3951
g62
(dp3952
g82
g83
ssg71
g3946
sg64
(lp3953
S'headers'
p3954
asbag57
(g78
g59
NtRp3955
(dp3956
g62
(dp3957
g89
g90
ssg71
g3946
sg64
(lp3958
S':'
asbag57
(g78
g59
NtRp3959
(dp3960
g62
(dp3961
sg71
g3946
sg64
(lp3962
g57
(g58
g59
NtRp3963
(dp3964
g62
(dp3965
g70
I5
ssg71
g3959
sg64
(lp3966
g57
(g66
g59
NtRp3967
(dp3968
g62
(dp3969
g70
I4
ssg71
Nsg64
(lp3970
g57
(g73
g59
NtRp3971
(dp3972
g62
(dp3973
sg71
g3967
sg64
(lp3974
g57
(g78
g59
NtRp3975
(dp3976
g62
(dp3977
g82
g83
ssg71
g3971
sg64
(lp3978
S'Cache-Control'
p3979
asbag57
(g78
g59
NtRp3980
(dp3981
g62
(dp3982
g89
g90
ssg71
g3971
sg64
(lp3983
S':'
asbag57
(g78
g59
NtRp3984
(dp3985
g62
(dp3986
sg71
g3971
sg64
(lp3987
g57
(g58
g59
NtRp3988
(dp3989
g62
(dp3990
g70
I4
ssg71
g3984
sg64
(lp3991
S'no-store, no-cache, must-revalidate, post-check=0, pre-check=0'
p3992
asbasbasbag57
(g73
g59
NtRp3993
(dp3994
g62
(dp3995
sg71
g3967
sg64
(lp3996
g57
(g78
g59
NtRp3997
(dp3998
g62
(dp3999
g82
g83
ssg71
g3993
sg64
(lp4000
S'Content-Type'
p4001
asbag57
(g78
g59
NtRp4002
(dp4003
g62
(dp4004
g89
g90
ssg71
g3993
sg64
(lp4005
S':'
asbag57
(g78
g59
NtRp4006
(dp4007
g62
(dp4008
sg71
g3993
sg64
(lp4009
g57
(g58
g59
NtRp4010
(dp4011
g62
(dp4012
g70
I4
ssg71
g4006
sg64
(lp4013
S'text/html; charset=utf-8'
p4014
asbasbasbag57
(g73
g59
NtRp4015
(dp4016
g62
(dp4017
sg71
g3967
sg64
(lp4018
g57
(g78
g59
NtRp4019
(dp4020
g62
(dp4021
g82
g83
ssg71
g4015
sg64
(lp4022
S'Expires'
p4023
asbag57
(g78
g59
NtRp4024
(dp4025
g62
(dp4026
g89
g90
ssg71
g4015
sg64
(lp4027
S':'
asbag57
(g78
g59
NtRp4028
(dp4029
g62
(dp4030
sg71
g4015
sg64
(lp4031
g57
(g58
g59
NtRp4032
(dp4033
g62
(dp4034
g70
I4
ssg71
g4028
sg64
(lp4035
S'Tue, 06 Mar 2012 18:14:55 GMT'
p4036
asbasbasbag57
(g73
g59
NtRp4037
(dp4038
g62
(dp4039
sg71
g3967
sg64
(lp4040
g57
(g78
g59
NtRp4041
(dp4042
g62
(dp4043
g82
g83
ssg71
g4037
sg64
(lp4044
S'Pragma'
p4045
asbag57
(g78
g59
NtRp4046
(dp4047
g62
(dp4048
g89
g90
ssg71
g4037
sg64
(lp4049
S':'
asbag57
(g78
g59
NtRp4050
(dp4051
g62
(dp4052
sg71
g4037
sg64
(lp4053
g57
(g58
g59
NtRp4054
(dp4055
g62
(dp4056
g70
I4
ssg71
g4050
sg64
(lp4057
S'no-cache'
p4058
asbasbasbag57
(g73
g59
NtRp4059
(dp4060
g62
(dp4061
sg71
g3967
sg64
(lp4062
g57
(g78
g59
NtRp4063
(dp4064
g62
(dp4065
g82
g83
ssg71
g4059
sg64
(lp4066
S'X-Powered-By'
p4067
asbag57
(g78
g59
NtRp4068
(dp4069
g62
(dp4070
g89
g90
ssg71
g4059
sg64
(lp4071
S':'
asbag57
(g78
g59
NtRp4072
(dp4073
g62
(dp4074
sg71
g4059
sg64
(lp4075
g57
(g58
g59
NtRp4076
(dp4077
g62
(dp4078
g70
I4
ssg71
g4072
sg64
(lp4079
S'web2py'
p4080
asbasbasbasbasbasbasbag57
(g73
g59
NtRp4081
(dp4082
g62
(dp4083
sg71
g3629
sg64
(lp4084
g57
(g78
g59
NtRp4085
(dp4086
g62
(dp4087
g82
g83
ssg71
g4081
sg64
(lp4088
S'menu'
p4089
asbag57
(g78
g59
NtRp4090
(dp4091
g62
(dp4092
g89
g90
ssg71
g4081
sg64
(lp4093
S':'
asbag57
(g78
g59
NtRp4094
(dp4095
g62
(dp4096
sg71
g4081
sg64
(lp4097
g57
(g58
g59
NtRp4098
(dp4099
g62
(dp4100
g70
I5
ssg71
g4094
sg64
(lp4101
g57
(g66
g59
NtRp4102
(dp4103
g62
(dp4104
g70
I4
ssg71
Nsg64
(lp4105
g57
(g73
g59
NtRp4106
(dp4107
g62
(dp4108
sg71
g4102
sg64
(lp4109
g57
(g78
g59
NtRp4110
(dp4111
g62
(dp4112
sg71
g4106
sg64
(lp4113
g57
(g58
g59
NtRp4114
(dp4115
g62
(dp4116
g70
I4
ssg71
g4110
sg64
(lp4117
g57
(g66
g59
NtRp4118
(dp4119
g62
(dp4120
g70
I3
ssg71
Nsg64
(lp4121
g57
(g73
g59
NtRp4122
(dp4123
g62
(dp4124
sg71
g4118
sg64
(lp4125
g57
(g78
g59
NtRp4126
(dp4127
g62
(dp4128
sg71
g4122
sg64
(lp4129
g57
(g58
g59
NtRp4130
(dp4131
g62
(dp4132
g70
I3
ssg71
g4126
sg64
(lp4133
cgluon.languages
lazyT_unpickle
p4134
(S't\x04\x00\x00\x00Home'
tRp4135
asbasbasbag57
(g73
g59
NtRp4136
(dp4137
g62
(dp4138
sg71
g4118
sg64
(lp4139
g57
(g78
g59
NtRp4140
(dp4141
g62
(dp4142
sg71
g4136
sg64
(lp4143
g57
(g58
g59
NtRp4144
(dp4145
g62
(dp4146
g70
I3
ssg71
g4140
sg64
(lp4147
g1365
asbasbasbag57
(g73
g59
NtRp4148
(dp4149
g62
(dp4150
sg71
g4118
sg64
(lp4151
g57
(g78
g59
NtRp4152
(dp4153
g62
(dp4154
sg71
g4148
sg64
(lp4155
g57
(g58
g59
NtRp4156
(dp4157
g62
(dp4158
g70
I3
ssg71
g4152
sg64
(lp4159
S'/grammateus3/default/index.load'
p4160
asbasbasbag57
(g73
g59
NtRp4161
(dp4162
g62
(dp4163
sg71
g4118
sg64
(lp4164
g57
(g78
g59
NtRp4165
(dp4166
g62
(dp4167
sg71
g4161
sg64
(lp4168
g57
(g58
g59
NtRp4169
(dp4170
g62
(dp4171
g70
I3
ssg71
g4165
sg64
(lp4172
g57
(g66
g59
NtRp4173
(dp4174
g62
(dp4175
g70
I2
ssg71
Nsg64
(lp4176
sbasbasbasbasbasbasbasbag57
(g73
g59
NtRp4177
(dp4178
g62
(dp4179
sg71
g4102
sg64
(lp4180
g57
(g78
g59
NtRp4181
(dp4182
g62
(dp4183
sg71
g4177
sg64
(lp4184
g57
(g58
g59
NtRp4185
(dp4186
g62
(dp4187
g70
I4
ssg71
g4181
sg64
(lp4188
g57
(g66
g59
NtRp4189
(dp4190
g62
(dp4191
g70
I3
ssg71
Nsg64
(lp4192
g57
(g73
g59
NtRp4193
(dp4194
g62
(dp4195
sg71
g4189
sg64
(lp4196
g57
(g78
g59
NtRp4197
(dp4198
g62
(dp4199
sg71
g4193
sg64
(lp4200
g57
(g58
g59
NtRp4201
(dp4202
g62
(dp4203
g70
I3
ssg71
g4197
sg64
(lp4204
g57
(cgluon.html
SPAN
p4205
g59
NtRp4206
(dp4207
g62
(dp4208
g82
S'color:yellow'
p4209
ssg71
Nsg64
(lp4210
g4080
asbasbasbasbag57
(g73
g59
NtRp4211
(dp4212
g62
(dp4213
sg71
g4189
sg64
(lp4214
g57
(g78
g59
NtRp4215
(dp4216
g62
(dp4217
sg71
g4211
sg64
(lp4218
g57
(g58
g59
NtRp4219
(dp4220
g62
(dp4221
g70
I3
ssg71
g4215
sg64
(lp4222
g1365
asbasbasbag57
(g73
g59
NtRp4223
(dp4224
g62
(dp4225
sg71
g4189
sg64
(lp4226
g57
(g78
g59
NtRp4227
(dp4228
g62
(dp4229
sg71
g4223
sg64
(lp4230
g57
(g58
g59
NtRp4231
(dp4232
g62
(dp4233
g70
I3
ssg71
g4227
sg64
(lp4234
S'None'
p4235
asbasbasbag57
(g73
g59
NtRp4236
(dp4237
g62
(dp4238
sg71
g4189
sg64
(lp4239
g57
(g78
g59
NtRp4240
(dp4241
g62
(dp4242
sg71
g4236
sg64
(lp4243
g57
(g58
g59
NtRp4244
(dp4245
g62
(dp4246
g70
I3
ssg71
g4240
sg64
(lp4247
g57
(g66
g59
NtRp4248
(dp4249
g62
(dp4250
g70
I2
ssg71
Nsg64
(lp4251
g57
(g73
g59
NtRp4252
(dp4253
g62
(dp4254
sg71
g4248
sg64
(lp4255
g57
(g78
g59
NtRp4256
(dp4257
g62
(dp4258
sg71
g4252
sg64
(lp4259
g57
(g58
g59
NtRp4260
(dp4261
g62
(dp4262
g70
I2
ssg71
g4256
sg64
(lp4263
g57
(g66
g59
NtRp4264
(dp4265
g62
(dp4266
g70
I1
ssg71
Nsg64
(lp4267
g57
(g73
g59
NtRp4268
(dp4269
g62
(dp4270
sg71
g4264
sg64
(lp4271
g57
(g78
g59
NtRp4272
(dp4273
g62
(dp4274
sg71
g4268
sg64
(lp4275
g57
(g58
g59
NtRp4276
(dp4277
g62
(dp4278
g70
I1
ssg71
g4272
sg64
(lp4279
g4134
(S's\x08\x00\x00\x00My Sites'
tRp4280
asbasbasbag57
(g73
g59
NtRp4281
(dp4282
g62
(dp4283
sg71
g4264
sg64
(lp4284
g57
(g78
g59
NtRp4285
(dp4286
g62
(dp4287
sg71
g4281
sg64
(lp4288
g57
(g58
g59
NtRp4289
(dp4290
g62
(dp4291
g70
I1
ssg71
g4285
sg64
(lp4292
I00
asbasbasbag57
(g73
g59
NtRp4293
(dp4294
g62
(dp4295
sg71
g4264
sg64
(lp4296
g57
(g78
g59
NtRp4297
(dp4298
g62
(dp4299
sg71
g4293
sg64
(lp4300
g57
(g58
g59
NtRp4301
(dp4302
g62
(dp4303
g70
I1
ssg71
g4297
sg64
(lp4304
S'/admin/default/site.load'
p4305
asbasbasbasbasbasbasbag57
(g73
g59
NtRp4306
(dp4307
g62
(dp4308
sg71
g4248
sg64
(lp4309
g57
(g78
g59
NtRp4310
(dp4311
g62
(dp4312
sg71
g4306
sg64
(lp4313
g57
(g58
g59
NtRp4314
(dp4315
g62
(dp4316
g70
I2
ssg71
g4310
sg64
(lp4317
g57
(g66
g59
NtRp4318
(dp4319
g62
(dp4320
g70
I1
ssg71
Nsg64
(lp4321
g57
(g73
g59
NtRp4322
(dp4323
g62
(dp4324
sg71
g4318
sg64
(lp4325
g57
(g78
g59
NtRp4326
(dp4327
g62
(dp4328
sg71
g4322
sg64
(lp4329
g57
(g58
g59
NtRp4330
(dp4331
g62
(dp4332
g70
I1
ssg71
g4326
sg64
(lp4333
g4134
(S's\x08\x00\x00\x00This App'
tRp4334
asbasbasbag57
(g73
g59
NtRp4335
(dp4336
g62
(dp4337
sg71
g4318
sg64
(lp4338
g57
(g78
g59
NtRp4339
(dp4340
g62
(dp4341
sg71
g4335
sg64
(lp4342
g57
(g58
g59
NtRp4343
(dp4344
g62
(dp4345
g70
I1
ssg71
g4339
sg64
(lp4346
I00
asbasbasbag57
(g73
g59
NtRp4347
(dp4348
g62
(dp4349
sg71
g4318
sg64
(lp4350
g57
(g78
g59
NtRp4351
(dp4352
g62
(dp4353
sg71
g4347
sg64
(lp4354
g57
(g58
g59
NtRp4355
(dp4356
g62
(dp4357
g70
I1
ssg71
g4351
sg64
(lp4358
S'/admin/default/design/grammateus3.load'
p4359
asbasbasbag57
(g73
g59
NtRp4360
(dp4361
g62
(dp4362
sg71
g4318
sg64
(lp4363
g57
(g78
g59
NtRp4364
(dp4365
g62
(dp4366
sg71
g4360
sg64
(lp4367
g57
(g58
g59
NtRp4368
(dp4369
g62
(dp4370
g70
I1
ssg71
g4364
sg64
(lp4371
(lp4372
(g4134
(S't\n\x00\x00\x00Controller'
tRp4373
I00
S'/admin/default/edit/grammateus3/controllers/docs.py'
tp4374
a(g4134
(S't\x04\x00\x00\x00View'
tRp4375
I00
S'/admin/default/edit/grammateus3/views/docs/section.load'
tp4376
a(g4134
(S't\x06\x00\x00\x00Layout'
tRp4377
I00
S'/admin/default/edit/grammateus3/views/layout.html'
tp4378
a(g4134
(S't\n\x00\x00\x00Stylesheet'
tRp4379
I00
S'/admin/default/edit/grammateus3/static/css/web2py.css'
tp4380
a(g4134
(S's\x08\x00\x00\x00DB Model'
tRp4381
I00
S'/admin/default/edit/grammateus3/models/db.py'
tp4382
a(g4134
(S's\n\x00\x00\x00Menu Model'
tRp4383
I00
S'/admin/default/edit/grammateus3/models/menu.py'
tp4384
a(g4134
(S't\x08\x00\x00\x00Database'
tRp4385
I00
S'/grammateus3/appadmin/index.load'
tp4386
a(g4134
(S't\x06\x00\x00\x00Errors'
tRp4387
I00
S'/admin/default/errors/grammateus3.load'
tp4388
a(g4134
(S't\x05\x00\x00\x00About'
tRp4389
I00
S'/admin/default/about/grammateus3.load'
tp4390
aasbasbasbasbasbasbasbag57
(g73
g59
NtRp4391
(dp4392
g62
(dp4393
sg71
g4248
sg64
(lp4394
g57
(g78
g59
NtRp4395
(dp4396
g62
(dp4397
sg71
g4391
sg64
(lp4398
g57
(g58
g59
NtRp4399
(dp4400
g62
(dp4401
g70
I2
ssg71
g4395
sg64
(lp4402
g57
(g66
g59
NtRp4403
(dp4404
g62
(dp4405
g70
I1
ssg71
Nsg64
(lp4406
g57
(g73
g59
NtRp4407
(dp4408
g62
(dp4409
sg71
g4403
sg64
(lp4410
g57
(g78
g59
NtRp4411
(dp4412
g62
(dp4413
sg71
g4407
sg64
(lp4414
g57
(g58
g59
NtRp4415
(dp4416
g62
(dp4417
g70
I1
ssg71
g4411
sg64
(lp4418
S'web2py.com'
p4419
asbasbasbag57
(g73
g59
NtRp4420
(dp4421
g62
(dp4422
sg71
g4403
sg64
(lp4423
g57
(g78
g59
NtRp4424
(dp4425
g62
(dp4426
sg71
g4420
sg64
(lp4427
g57
(g58
g59
NtRp4428
(dp4429
g62
(dp4430
g70
I1
ssg71
g4424
sg64
(lp4431
I00
asbasbasbag57
(g73
g59
NtRp4432
(dp4433
g62
(dp4434
sg71
g4403
sg64
(lp4435
g57
(g78
g59
NtRp4436
(dp4437
g62
(dp4438
sg71
g4432
sg64
(lp4439
g57
(g58
g59
NtRp4440
(dp4441
g62
(dp4442
g70
I1
ssg71
g4436
sg64
(lp4443
S'http://www.web2py.com'
p4444
asbasbasbag57
(g73
g59
NtRp4445
(dp4446
g62
(dp4447
sg71
g4403
sg64
(lp4448
g57
(g78
g59
NtRp4449
(dp4450
g62
(dp4451
sg71
g4445
sg64
(lp4452
g57
(g58
g59
NtRp4453
(dp4454
g62
(dp4455
g70
I1
ssg71
g4449
sg64
(lp4456
(lp4457
(g4134
(S't\x08\x00\x00\x00Download'
tRp4458
I00
S'http://www.web2py.com/examples/default/download'
p4459
tp4460
a(g4134
(S't\x07\x00\x00\x00Support'
tRp4461
I00
S'http://www.web2py.com/examples/default/support'
p4462
tp4463
a(g4134
(S't\x04\x00\x00\x00Demo'
tRp4464
I00
S'http://web2py.com/demo_admin'
p4465
tp4466
a(g4134
(S's\x0e\x00\x00\x00Quick Examples'
tRp4467
I00
S'http://web2py.com/examples/default/examples'
p4468
tp4469
a(g4134
(S't\x03\x00\x00\x00FAQ'
tRp4470
I00
S'http://web2py.com/AlterEgo'
p4471
tp4472
a(g4134
(S't\x06\x00\x00\x00Videos'
tRp4473
I00
S'http://www.web2py.com/examples/default/videos/'
p4474
tp4475
a(g4134
(S's\x11\x00\x00\x00Free Applications'
tRp4476
I00
S'http://web2py.com/appliances'
p4477
tp4478
a(g4134
(S't\x07\x00\x00\x00Plugins'
tRp4479
I00
S'http://web2py.com/plugins'
p4480
tp4481
a(g4134
(S't\x07\x00\x00\x00Layouts'
tRp4482
I00
S'http://web2py.com/layouts'
p4483
tp4484
a(g4134
(S't\x07\x00\x00\x00Recipes'
tRp4485
I00
S'http://web2pyslices.com/'
p4486
tp4487
a(g4134
(S't\x08\x00\x00\x00Semantic'
tRp4488
I00
S'http://web2py.com/semantic'
p4489
tp4490
aasbasbasbasbasbasbasbag57
(g73
g59
NtRp4491
(dp4492
g62
(dp4493
sg71
g4248
sg64
(lp4494
g57
(g78
g59
NtRp4495
(dp4496
g62
(dp4497
sg71
g4491
sg64
(lp4498
g57
(g58
g59
NtRp4499
(dp4500
g62
(dp4501
g70
I2
ssg71
g4495
sg64
(lp4502
g57
(g66
g59
NtRp4503
(dp4504
g62
(dp4505
g70
I1
ssg71
Nsg64
(lp4506
g57
(g73
g59
NtRp4507
(dp4508
g62
(dp4509
sg71
g4503
sg64
(lp4510
g57
(g78
g59
NtRp4511
(dp4512
g62
(dp4513
sg71
g4507
sg64
(lp4514
g57
(g58
g59
NtRp4515
(dp4516
g62
(dp4517
g70
I1
ssg71
g4511
sg64
(lp4518
g4134
(S't\r\x00\x00\x00Documentation'
tRp4519
asbasbasbag57
(g73
g59
NtRp4520
(dp4521
g62
(dp4522
sg71
g4503
sg64
(lp4523
g57
(g78
g59
NtRp4524
(dp4525
g62
(dp4526
sg71
g4520
sg64
(lp4527
g57
(g58
g59
NtRp4528
(dp4529
g62
(dp4530
g70
I1
ssg71
g4524
sg64
(lp4531
I00
asbasbasbag57
(g73
g59
NtRp4532
(dp4533
g62
(dp4534
sg71
g4503
sg64
(lp4535
g57
(g78
g59
NtRp4536
(dp4537
g62
(dp4538
sg71
g4532
sg64
(lp4539
g57
(g58
g59
NtRp4540
(dp4541
g62
(dp4542
g70
I1
ssg71
g4536
sg64
(lp4543
S'http://www.web2py.com/book'
p4544
asbasbasbag57
(g73
g59
NtRp4545
(dp4546
g62
(dp4547
sg71
g4503
sg64
(lp4548
g57
(g78
g59
NtRp4549
(dp4550
g62
(dp4551
sg71
g4545
sg64
(lp4552
g57
(g58
g59
NtRp4553
(dp4554
g62
(dp4555
g70
I1
ssg71
g4549
sg64
(lp4556
(lp4557
(g4134
(S't\x07\x00\x00\x00Preface'
tRp4558
I00
S'http://www.web2py.com/book/default/chapter/00'
p4559
tp4560
a(g4134
(S't\x0c\x00\x00\x00Introduction'
tRp4561
I00
S'http://www.web2py.com/book/default/chapter/01'
p4562
tp4563
a(g4134
(S't\x06\x00\x00\x00Python'
tRp4564
I00
S'http://www.web2py.com/book/default/chapter/02'
p4565
tp4566
a(g4134
(S't\x08\x00\x00\x00Overview'
tRp4567
I00
S'http://www.web2py.com/book/default/chapter/03'
p4568
tp4569
a(g4134
(S's\x08\x00\x00\x00The Core'
tRp4570
I00
S'http://www.web2py.com/book/default/chapter/04'
p4571
tp4572
a(g4134
(S's\t\x00\x00\x00The Views'
tRp4573
I00
S'http://www.web2py.com/book/default/chapter/05'
p4574
tp4575
a(g4134
(S't\x08\x00\x00\x00Database'
tRp4576
I00
S'http://www.web2py.com/book/default/chapter/06'
p4577
tp4578
a(g4134
(S's\x14\x00\x00\x00Forms and Validators'
tRp4579
I00
S'http://www.web2py.com/book/default/chapter/07'
p4580
tp4581
a(g4134
(S's\r\x00\x00\x00Email and SMS'
tRp4582
I00
S'http://www.web2py.com/book/default/chapter/08'
p4583
tp4584
a(g4134
(S's\x0e\x00\x00\x00Access Control'
tRp4585
I00
S'http://www.web2py.com/book/default/chapter/09'
p4586
tp4587
a(g4134
(S't\x08\x00\x00\x00Services'
tRp4588
I00
S'http://www.web2py.com/book/default/chapter/10'
p4589
tp4590
a(g4134
(S's\x0c\x00\x00\x00Ajax Recipes'
tRp4591
I00
S'http://www.web2py.com/book/default/chapter/11'
p4592
tp4593
a(g4134
(S's\x16\x00\x00\x00Components and Plugins'
tRp4594
I00
S'http://www.web2py.com/book/default/chapter/12'
p4595
tp4596
a(g4134
(S's\x12\x00\x00\x00Deployment Recipes'
tRp4597
I00
S'http://www.web2py.com/book/default/chapter/13'
p4598
tp4599
a(g4134
(S's\r\x00\x00\x00Other Recipes'
tRp4600
I00
S'http://www.web2py.com/book/default/chapter/14'
p4601
tp4602
a(g4134
(S's\r\x00\x00\x00Buy this book'
tRp4603
I00
S'http://stores.lulu.com/web2py'
p4604
tp4605
aasbasbasbasbasbasbasbag57
(g73
g59
NtRp4606
(dp4607
g62
(dp4608
sg71
g4248
sg64
(lp4609
g57
(g78
g59
NtRp4610
(dp4611
g62
(dp4612
sg71
g4606
sg64
(lp4613
g57
(g58
g59
NtRp4614
(dp4615
g62
(dp4616
g70
I2
ssg71
g4610
sg64
(lp4617
g57
(g66
g59
NtRp4618
(dp4619
g62
(dp4620
g70
I1
ssg71
Nsg64
(lp4621
g57
(g73
g59
NtRp4622
(dp4623
g62
(dp4624
sg71
g4618
sg64
(lp4625
g57
(g78
g59
NtRp4626
(dp4627
g62
(dp4628
sg71
g4622
sg64
(lp4629
g57
(g58
g59
NtRp4630
(dp4631
g62
(dp4632
g70
I1
ssg71
g4626
sg64
(lp4633
g4134
(S't\t\x00\x00\x00Community'
tRp4634
asbasbasbag57
(g73
g59
NtRp4635
(dp4636
g62
(dp4637
sg71
g4618
sg64
(lp4638
g57
(g78
g59
NtRp4639
(dp4640
g62
(dp4641
sg71
g4635
sg64
(lp4642
g57
(g58
g59
NtRp4643
(dp4644
g62
(dp4645
g70
I1
ssg71
g4639
sg64
(lp4646
I00
asbasbasbag57
(g73
g59
NtRp4647
(dp4648
g62
(dp4649
sg71
g4618
sg64
(lp4650
g57
(g78
g59
NtRp4651
(dp4652
g62
(dp4653
sg71
g4647
sg64
(lp4654
g57
(g58
g59
NtRp4655
(dp4656
g62
(dp4657
g70
I1
ssg71
g4651
sg64
(lp4658
Nasbasbasbag57
(g73
g59
NtRp4659
(dp4660
g62
(dp4661
sg71
g4618
sg64
(lp4662
g57
(g78
g59
NtRp4663
(dp4664
g62
(dp4665
sg71
g4659
sg64
(lp4666
g57
(g58
g59
NtRp4667
(dp4668
g62
(dp4669
g70
I1
ssg71
g4663
sg64
(lp4670
(lp4671
(g4134
(S't\x06\x00\x00\x00Groups'
tRp4672
I00
S'http://www.web2py.com/examples/default/usergroups'
p4673
tp4674
a(g4134
(S't\x07\x00\x00\x00Twitter'
tRp4675
I00
S'http://twitter.com/web2py'
p4676
tp4677
a(g4134
(S's\t\x00\x00\x00Live Chat'
tRp4678
I00
S'http://webchat.freenode.net/?channels=web2py'
p4679
tp4680
aasbasbasbasbasbasbasbag57
(g73
g59
NtRp4681
(dp4682
g62
(dp4683
sg71
g4248
sg64
(lp4684
g57
(g78
g59
NtRp4685
(dp4686
g62
(dp4687
sg71
g4681
sg64
(lp4688
g57
(g58
g59
NtRp4689
(dp4690
g62
(dp4691
g70
I2
ssg71
g4685
sg64
(lp4692
g57
(g66
g59
NtRp4693
(dp4694
g62
(dp4695
g70
I1
ssg71
Nsg64
(lp4696
g57
(g73
g59
NtRp4697
(dp4698
g62
(dp4699
sg71
g4693
sg64
(lp4700
g57
(g78
g59
NtRp4701
(dp4702
g62
(dp4703
sg71
g4697
sg64
(lp4704
g57
(g58
g59
NtRp4705
(dp4706
g62
(dp4707
g70
I1
ssg71
g4701
sg64
(lp4708
g4134
(S't\x07\x00\x00\x00Plugins'
tRp4709
asbasbasbag57
(g73
g59
NtRp4710
(dp4711
g62
(dp4712
sg71
g4693
sg64
(lp4713
g57
(g78
g59
NtRp4714
(dp4715
g62
(dp4716
sg71
g4710
sg64
(lp4717
g57
(g58
g59
NtRp4718
(dp4719
g62
(dp4720
g70
I1
ssg71
g4714
sg64
(lp4721
I00
asbasbasbag57
(g73
g59
NtRp4722
(dp4723
g62
(dp4724
sg71
g4693
sg64
(lp4725
g57
(g78
g59
NtRp4726
(dp4727
g62
(dp4728
sg71
g4722
sg64
(lp4729
g57
(g58
g59
NtRp4730
(dp4731
g62
(dp4732
g70
I1
ssg71
g4726
sg64
(lp4733
Nasbasbasbag57
(g73
g59
NtRp4734
(dp4735
g62
(dp4736
sg71
g4693
sg64
(lp4737
g57
(g78
g59
NtRp4738
(dp4739
g62
(dp4740
sg71
g4734
sg64
(lp4741
g57
(g58
g59
NtRp4742
(dp4743
g62
(dp4744
g70
I1
ssg71
g4738
sg64
(lp4745
(lp4746
(S'plugin_wiki'
p4747
I00
S'http://web2py.com/examples/default/download'
p4748
tp4749
a(g4134
(S's\r\x00\x00\x00Other Plugins'
tRp4750
I00
g4480
tp4751
a(g4134
(S's\x0e\x00\x00\x00Layout Plugins'
tRp4752
I00
g4483
tp4753
aasbasbasbasbasbasbasbasbasbasbasbasbasbasbasbasbasbasbasbag57
(g73
g59
NtRp4754
(dp4755
g62
(dp4756
sg71
g3629
sg64
(lp4757
g57
(g78
g59
NtRp4758
(dp4759
g62
(dp4760
g82
g83
ssg71
g4754
sg64
(lp4761
S'meta'
p4762
asbag57
(g78
g59
NtRp4763
(dp4764
g62
(dp4765
g89
g90
ssg71
g4754
sg64
(lp4766
S':'
asbag57
(g78
g59
NtRp4767
(dp4768
g62
(dp4769
sg71
g4754
sg64
(lp4770
g57
(g58
g59
NtRp4771
(dp4772
g62
(dp4773
g70
I5
ssg71
g4767
sg64
(lp4774
g57
(g66
g59
NtRp4775
(dp4776
g62
(dp4777
g70
I4
ssg71
Nsg64
(lp4778
g57
(g73
g59
NtRp4779
(dp4780
g62
(dp4781
sg71
g4775
sg64
(lp4782
g57
(g78
g59
NtRp4783
(dp4784
g62
(dp4785
g82
g83
ssg71
g4779
sg64
(lp4786
S'author'
p4787
asbag57
(g78
g59
NtRp4788
(dp4789
g62
(dp4790
g89
g90
ssg71
g4779
sg64
(lp4791
S':'
asbag57
(g78
g59
NtRp4792
(dp4793
g62
(dp4794
sg71
g4779
sg64
(lp4795
g57
(g58
g59
NtRp4796
(dp4797
g62
(dp4798
g70
I4
ssg71
g4792
sg64
(lp4799
S'Your Name <you@example.com>'
p4800
asbasbasbag57
(g73
g59
NtRp4801
(dp4802
g62
(dp4803
sg71
g4775
sg64
(lp4804
g57
(g78
g59
NtRp4805
(dp4806
g62
(dp4807
g82
g83
ssg71
g4801
sg64
(lp4808
S'copyright'
p4809
asbag57
(g78
g59
NtRp4810
(dp4811
g62
(dp4812
g89
g90
ssg71
g4801
sg64
(lp4813
S':'
asbag57
(g78
g59
NtRp4814
(dp4815
g62
(dp4816
sg71
g4801
sg64
(lp4817
g57
(g58
g59
NtRp4818
(dp4819
g62
(dp4820
g70
I4
ssg71
g4814
sg64
(lp4821
S'Copyright 2011'
p4822
asbasbasbag57
(g73
g59
NtRp4823
(dp4824
g62
(dp4825
sg71
g4775
sg64
(lp4826
g57
(g78
g59
NtRp4827
(dp4828
g62
(dp4829
g82
g83
ssg71
g4823
sg64
(lp4830
S'description'
p4831
asbag57
(g78
g59
NtRp4832
(dp4833
g62
(dp4834
g89
g90
ssg71
g4823
sg64
(lp4835
S':'
asbag57
(g78
g59
NtRp4836
(dp4837
g62
(dp4838
sg71
g4823
sg64
(lp4839
g57
(g58
g59
NtRp4840
(dp4841
g62
(dp4842
g70
I4
ssg71
g4836
sg64
(lp4843
S'a cool new app'
p4844
asbasbasbag57
(g73
g59
NtRp4845
(dp4846
g62
(dp4847
sg71
g4775
sg64
(lp4848
g57
(g78
g59
NtRp4849
(dp4850
g62
(dp4851
g82
g83
ssg71
g4845
sg64
(lp4852
S'generator'
p4853
asbag57
(g78
g59
NtRp4854
(dp4855
g62
(dp4856
g89
g90
ssg71
g4845
sg64
(lp4857
S':'
asbag57
(g78
g59
NtRp4858
(dp4859
g62
(dp4860
sg71
g4845
sg64
(lp4861
g57
(g58
g59
NtRp4862
(dp4863
g62
(dp4864
g70
I4
ssg71
g4858
sg64
(lp4865
S'Web2py Web Framework'
p4866
asbasbasbag57
(g73
g59
NtRp4867
(dp4868
g62
(dp4869
sg71
g4775
sg64
(lp4870
g57
(g78
g59
NtRp4871
(dp4872
g62
(dp4873
g82
g83
ssg71
g4867
sg64
(lp4874
S'keywords'
p4875
asbag57
(g78
g59
NtRp4876
(dp4877
g62
(dp4878
g89
g90
ssg71
g4867
sg64
(lp4879
S':'
asbag57
(g78
g59
NtRp4880
(dp4881
g62
(dp4882
sg71
g4867
sg64
(lp4883
g57
(g58
g59
NtRp4884
(dp4885
g62
(dp4886
g70
I4
ssg71
g4880
sg64
(lp4887
S'web2py, python, framework'
p4888
asbasbasbasbasbasbasbag57
(g73
g59
NtRp4889
(dp4890
g62
(dp4891
sg71
g3629
sg64
(lp4892
g57
(g78
g59
NtRp4893
(dp4894
g62
(dp4895
g82
g83
ssg71
g4889
sg64
(lp4896
S'postprocessing'
p4897
asbag57
(g78
g59
NtRp4898
(dp4899
g62
(dp4900
g89
g90
ssg71
g4889
sg64
(lp4901
S':'
asbag57
(g78
g59
NtRp4902
(dp4903
g62
(dp4904
sg71
g4889
sg64
(lp4905
g57
(g58
g59
NtRp4906
(dp4907
g62
(dp4908
g70
I5
ssg71
g4902
sg64
(lp4909
g57
(g66
g59
NtRp4910
(dp4911
g62
(dp4912
g70
I4
ssg71
Nsg64
(lp4913
sbasbasbasbag57
(g73
g59
NtRp4914
(dp4915
g62
(dp4916
sg71
g3629
sg64
(lp4917
g57
(g78
g59
NtRp4918
(dp4919
g62
(dp4920
g82
g83
ssg71
g4914
sg64
(lp4921
S'session_file'
p4922
asbag57
(g78
g59
NtRp4923
(dp4924
g62
(dp4925
g89
g90
ssg71
g4914
sg64
(lp4926
S':'
asbag57
(g78
g59
NtRp4927
(dp4928
g62
(dp4929
sg71
g4914
sg64
(lp4930
g57
(g58
g59
NtRp4931
(dp4932
g62
(dp4933
g70
I5
ssg71
g4927
sg64
(lp4934
S"<open file '/home/iscott/web/web2py/applications/grammateus3/sessions/127.0.0.1-03d15d8e-e891-4307-a6bf-5717208181cd', mode 'rb+' at 0xb604700>"
p4935
asbasbasbag57
(g73
g59
NtRp4936
(dp4937
g62
(dp4938
sg71
g3629
sg64
(lp4939
g57
(g78
g59
NtRp4940
(dp4941
g62
(dp4942
g82
g83
ssg71
g4936
sg64
(lp4943
S'session_filename'
p4944
asbag57
(g78
g59
NtRp4945
(dp4946
g62
(dp4947
g89
g90
ssg71
g4936
sg64
(lp4948
S':'
asbag57
(g78
g59
NtRp4949
(dp4950
g62
(dp4951
sg71
g4936
sg64
(lp4952
g57
(g58
g59
NtRp4953
(dp4954
g62
(dp4955
g70
I5
ssg71
g4949
sg64
(lp4956
S'/home/iscott/web/web2py/applications/grammateus3/sessions/127.0.0.1-03d15d8e-e891-4307-a6bf-5717208181cd'
p4957
asbasbasbag57
(g73
g59
NtRp4958
(dp4959
g62
(dp4960
sg71
g3629
sg64
(lp4961
g57
(g78
g59
NtRp4962
(dp4963
g62
(dp4964
g82
g83
ssg71
g4958
sg64
(lp4965
S'session_id'
p4966
asbag57
(g78
g59
NtRp4967
(dp4968
g62
(dp4969
g89
g90
ssg71
g4958
sg64
(lp4970
S':'
asbag57
(g78
g59
NtRp4971
(dp4972
g62
(dp4973
sg71
g4958
sg64
(lp4974
g57
(g58
g59
NtRp4975
(dp4976
g62
(dp4977
g70
I5
ssg71
g4971
sg64
(lp4978
S'127.0.0.1-03d15d8e-e891-4307-a6bf-5717208181cd'
p4979
asbasbasbag57
(g73
g59
NtRp4980
(dp4981
g62
(dp4982
sg71
g3629
sg64
(lp4983
g57
(g78
g59
NtRp4984
(dp4985
g62
(dp4986
g82
g83
ssg71
g4980
sg64
(lp4987
S'session_id_name'
p4988
asbag57
(g78
g59
NtRp4989
(dp4990
g62
(dp4991
g89
g90
ssg71
g4980
sg64
(lp4992
S':'
asbag57
(g78
g59
NtRp4993
(dp4994
g62
(dp4995
sg71
g4980
sg64
(lp4996
g57
(g58
g59
NtRp4997
(dp4998
g62
(dp4999
g70
I5
ssg71
g4993
sg64
(lp5000
g3686
asbasbasbag57
(g73
g59
NtRp5001
(dp5002
g62
(dp5003
sg71
g3629
sg64
(lp5004
g57
(g78
g59
NtRp5005
(dp5006
g62
(dp5007
g82
g83
ssg71
g5001
sg64
(lp5008
S'session_locked'
p5009
asbag57
(g78
g59
NtRp5010
(dp5011
g62
(dp5012
g89
g90
ssg71
g5001
sg64
(lp5013
S':'
asbag57
(g78
g59
NtRp5014
(dp5015
g62
(dp5016
sg71
g5001
sg64
(lp5017
g57
(g58
g59
NtRp5018
(dp5019
g62
(dp5020
g70
I5
ssg71
g5014
sg64
(lp5021
g100
asbasbasbag57
(g73
g59
NtRp5022
(dp5023
g62
(dp5024
sg71
g3629
sg64
(lp5025
g57
(g78
g59
NtRp5026
(dp5027
g62
(dp5028
g82
g83
ssg71
g5022
sg64
(lp5029
S'session_new'
p5030
asbag57
(g78
g59
NtRp5031
(dp5032
g62
(dp5033
g89
g90
ssg71
g5022
sg64
(lp5034
S':'
asbag57
(g78
g59
NtRp5035
(dp5036
g62
(dp5037
sg71
g5022
sg64
(lp5038
g57
(g58
g59
NtRp5039
(dp5040
g62
(dp5041
g70
I5
ssg71
g5035
sg64
(lp5042
g1365
asbasbasbag57
(g73
g59
NtRp5043
(dp5044
g62
(dp5045
sg71
g3629
sg64
(lp5046
g57
(g78
g59
NtRp5047
(dp5048
g62
(dp5049
g82
g83
ssg71
g5043
sg64
(lp5050
S'status'
p5051
asbag57
(g78
g59
NtRp5052
(dp5053
g62
(dp5054
g89
g90
ssg71
g5043
sg64
(lp5055
S':'
asbag57
(g78
g59
NtRp5056
(dp5057
g62
(dp5058
sg71
g5043
sg64
(lp5059
g57
(g58
g59
NtRp5060
(dp5061
g62
(dp5062
g70
I5
ssg71
g5056
sg64
(lp5063
S'200'
p5064
asbasbasbag57
(g73
g59
NtRp5065
(dp5066
g62
(dp5067
sg71
g3629
sg64
(lp5068
g57
(g78
g59
NtRp5069
(dp5070
g62
(dp5071
g82
g83
ssg71
g5065
sg64
(lp5072
S'subtitle'
p5073
asbag57
(g78
g59
NtRp5074
(dp5075
g62
(dp5076
g89
g90
ssg71
g5065
sg64
(lp5077
S':'
asbag57
(g78
g59
NtRp5078
(dp5079
g62
(dp5080
sg71
g5065
sg64
(lp5081
g57
(g58
g59
NtRp5082
(dp5083
g62
(dp5084
g70
I5
ssg71
g5078
sg64
(lp5085
g4134
(S's\r\x00\x00\x00customize me!'
tRp5086
asbasbasbag57
(g73
g59
NtRp5087
(dp5088
g62
(dp5089
sg71
g3629
sg64
(lp5090
g57
(g78
g59
NtRp5091
(dp5092
g62
(dp5093
g82
g83
ssg71
g5087
sg64
(lp5094
S'title'
p5095
asbag57
(g78
g59
NtRp5096
(dp5097
g62
(dp5098
g89
g90
ssg71
g5087
sg64
(lp5099
S':'
asbag57
(g78
g59
NtRp5100
(dp5101
g62
(dp5102
sg71
g5087
sg64
(lp5103
g57
(g58
g59
NtRp5104
(dp5105
g62
(dp5106
g70
I5
ssg71
g5100
sg64
(lp5107
S'Grammateus3'
p5108
asbasbasbag57
(g73
g59
NtRp5109
(dp5110
g62
(dp5111
sg71
g3629
sg64
(lp5112
g57
(g78
g59
NtRp5113
(dp5114
g62
(dp5115
g82
g83
ssg71
g5109
sg64
(lp5116
g2832
asbag57
(g78
g59
NtRp5117
(dp5118
g62
(dp5119
g89
g90
ssg71
g5109
sg64
(lp5120
S':'
asbag57
(g78
g59
NtRp5121
(dp5122
g62
(dp5123
sg71
g5109
sg64
(lp5124
g57
(g58
g59
NtRp5125
(dp5126
g62
(dp5127
g70
I5
ssg71
g5121
sg64
(lp5128
g2845
asbasbasbag57
(g73
g59
NtRp5129
(dp5130
g62
(dp5131
sg71
g3629
sg64
(lp5132
g57
(g78
g59
NtRp5133
(dp5134
g62
(dp5135
g82
g83
ssg71
g5129
sg64
(lp5136
S'view'
p5137
asbag57
(g78
g59
NtRp5138
(dp5139
g62
(dp5140
g89
g90
ssg71
g5129
sg64
(lp5141
S':'
asbag57
(g78
g59
NtRp5142
(dp5143
g62
(dp5144
sg71
g5129
sg64
(lp5145
g57
(g58
g59
NtRp5146
(dp5147
g62
(dp5148
g70
I5
ssg71
g5142
sg64
(lp5149
S'docs/section.load'
p5150
asbasbasbasbasbsS'locals'
p5151
(dp5152
ssS'traceback'
p5153
S'Traceback (most recent call last):\n  File "/home/iscott/web/web2py/gluon/restricted.py", line 204, in restricted\n    exec ccode in environment\n  File "/home/iscott/web/web2py/applications/grammateus3/controllers/docs.py", line 63, in <module>\n  File "/home/iscott/web/web2py/gluon/globals.py", line 172, in <lambda>\n    self._caller = lambda f: f()\n  File "/home/iscott/web/web2py/applications/grammateus3/controllers/docs.py", line 28, in section\n    p = BookParser(book_file)\nNameError: global name \'book_file\' is not defined\n'
p5154
s.