(dp1
S'output'
p2
S"<type 'exceptions.IndexError'> list index out of range"
p3
sS'layer'
p4
S'/home/ian/web/web2py/applications/grammateus3/controllers/docs.py'
p5
sS'code'
p6
S'# coding: utf8\nfrom lxml import etree\n\nfrom parse import BookParser\n\nimport pprint\n\n"""\nList of session objects used in text display:\nsession.filename\nsession.info -- dict; parsed results of BookParser class for current doc\nsession.title -- string; title of current doc\nsession.versions -- list; names of all versions in current doc\n"""\n\ndef index():\n    filename = request.args[0]\n    return dict(filename = filename)\n\ndef text():\n    filename = request.args[0]\n    #TODO: provide fallback and prompt if no filename is given in url\n    \n    #url to pass to web2py load helper in view to load doc section via ajax\n    load_url = URL(\'docs\', \'section.load\', args=filename)\n\n    return dict(load_url = load_url, filename = filename)\n\ndef section():\n    """\n    populates a single text pane via the section.load view (refreshable via ajax)\n    """\n    #get filename from end of url and parse the file with BookParser class\n    filename = request.args[0]\n    print filename\n    book_file = \'applications/grammateus3/static/docs/%s.xml\' % filename\n    p = BookParser(book_file)\n    info = p.book_info()\n    #get title of document\n    title = info[\'title\']\n\n    #get names of all versions of current doc and select the version to display\n    versions = [version[\'title\'] for version in info[\'versions\']]     \n    if \'version\' in request.vars:\n        current_version = request.vars[\'version\'].replace(\'_\', \' \')\n        #move selected version to top of list for selectbox\n        i = versions.index(current_version)\n        versions.insert(0, versions.pop(i))\n    else:\n        current_version = versions[0]\n\n    #find selected version in parsed text\n    for version in info[\'versions\']:\n        for k, v in version.items():\n            if k == \'title\' and v == current_version:\n                curv = version\n            else:\n                pass\n\n    #get list of mss\n    mslist = [k.strip() for k, v in curv[\'manuscript\'].items()]\n    print \'mslist\', mslist\n    #use the third url argument as manuscript name if present, otherwise default to first version\n    #check for \'newval\' value, indicating the version has changed\n    if \'type\' in request.vars and request.vars[\'type\'] != \'newval\':\n        current_ms = request.vars[\'type\'].replace(\'_\', \' \')\n        current_ms = current_ms.strip()\n        print \'current_ms\', current_ms\n        #move selected version to top of list for selectbox\n        i = mslist.index(current_ms)\n        mslist.insert(0, mslist.pop(i))        \n    else:\n        current_ms = mslist[0]\n\n    ref = {1:1, 2:2}\n        \n    print versions, current_version\n\n    #pprint.pprint(info)\n\n    return dict(title = title, versions = versions, current_version = current_version, \n                info = info, filename = filename, mslist = mslist)\n\n\ndef test():\n    filename = request.args[0]\n    book_file = \'applications/grammateus3/static/docs/%s.xml\' % filename\n    p = BookParser(book_file)\n    info = p.book_info()\n\n    title = info[\'title\']\n    for version in info[\'versions\']:\n        for key, value in version.items():\n            if key != \'text_structure\':\n                print \'Version\', key, \'-->\', value\n\n            else:\n                print \'Version textstructure\'\n                for ref, ref_val in value.items():\n                    for unit, unit_val in ref_val.items():\n                        for mss, mss_val in unit_val.items():\n                            print \'\\t\', ref, \'-->\', unit, \'-->\', mss, \'-->\', mss_val\n        print \'************\'\n    print\n    print\n\n    return dict(title = title, info = info)\n\nresponse._vars=response._caller(index)\n'
p7
sS'snapshot'
p8
(dp9
S'exception'
p10
(dp11
S'__hash__'
p12
S"<method-wrapper '__hash__' of exceptions.IndexError object>"
p13
sS'__setattr__'
p14
S"<method-wrapper '__setattr__' of exceptions.IndexError object>"
p15
sS'__reduce_ex__'
p16
S'<built-in method __reduce_ex__ of exceptions.IndexError object>'
p17
sS'__getslice__'
p18
S"<method-wrapper '__getslice__' of exceptions.IndexError object>"
p19
sS'__getitem__'
p20
S"<method-wrapper '__getitem__' of exceptions.IndexError object>"
p21
sS'__setstate__'
p22
S'<built-in method __setstate__ of exceptions.IndexError object>'
p23
sS'args'
p24
S"('list index out of range',)"
p25
sS'__reduce__'
p26
S'<built-in method __reduce__ of exceptions.IndexError object>'
p27
sS'__str__'
p28
S"<method-wrapper '__str__' of exceptions.IndexError object>"
p29
sS'__format__'
p30
S'<built-in method __format__ of exceptions.IndexError object>'
p31
sS'__getattribute__'
p32
S"<method-wrapper '__getattribute__' of exceptions.IndexError object>"
p33
sS'__class__'
p34
S"<type 'exceptions.IndexError'>"
p35
sS'__unicode__'
p36
S'<built-in method __unicode__ of exceptions.IndexError object>'
p37
sS'__delattr__'
p38
S"<method-wrapper '__delattr__' of exceptions.IndexError object>"
p39
sS'__subclasshook__'
p40
S'<built-in method __subclasshook__ of type object>'
p41
sS'__repr__'
p42
S"<method-wrapper '__repr__' of exceptions.IndexError object>"
p43
sS'__dict__'
p44
S'{}'
p45
sS'__sizeof__'
p46
S'<built-in method __sizeof__ of exceptions.IndexError object>'
p47
sS'__doc__'
p48
S"'Sequence index out of range.'"
p49
sS'__init__'
p50
S"<method-wrapper '__init__' of exceptions.IndexError object>"
p51
sS'__new__'
p52
S'<built-in method __new__ of type object>'
p53
ssS'evalue'
p54
S'list index out of range'
p55
sS'request'
p56
ccopy_reg
_reconstructor
p57
(cgluon.html
BEAUTIFY
p58
c__builtin__
object
p59
NtRp60
(dp61
S'attributes'
p62
(dp63
sS'components'
p64
(lp65
g57
(cgluon.html
TABLE
p66
g59
NtRp67
(dp68
g62
(dp69
S'level'
p70
I5
ssS'parent'
p71
Nsg64
(lp72
g57
(cgluon.html
TR
p73
g59
NtRp74
(dp75
g62
(dp76
sg71
g67
sg64
(lp77
g57
(cgluon.html
TD
p78
g59
NtRp79
(dp80
g62
(dp81
S'_style'
p82
S'font-weight:bold;vertical-align:top'
p83
ssg71
g74
sg64
(lp84
S'ajax'
p85
asbag57
(g78
g59
NtRp86
(dp87
g62
(dp88
S'_valign'
p89
S'top'
p90
ssg71
g74
sg64
(lp91
S':'
asbag57
(g78
g59
NtRp92
(dp93
g62
(dp94
sg71
g74
sg64
(lp95
g57
(g58
g59
NtRp96
(dp97
g62
(dp98
g70
I5
ssg71
g92
sg64
(lp99
S'False'
p100
asbasbasbag57
(g73
g59
NtRp101
(dp102
g62
(dp103
sg71
g67
sg64
(lp104
g57
(g78
g59
NtRp105
(dp106
g62
(dp107
g82
g83
ssg71
g101
sg64
(lp108
S'application'
p109
asbag57
(g78
g59
NtRp110
(dp111
g62
(dp112
g89
g90
ssg71
g101
sg64
(lp113
S':'
asbag57
(g78
g59
NtRp114
(dp115
g62
(dp116
sg71
g101
sg64
(lp117
g57
(g58
g59
NtRp118
(dp119
g62
(dp120
g70
I5
ssg71
g114
sg64
(lp121
S'grammateus3'
p122
asbasbasbag57
(g73
g59
NtRp123
(dp124
g62
(dp125
sg71
g67
sg64
(lp126
g57
(g78
g59
NtRp127
(dp128
g62
(dp129
g82
g83
ssg71
g123
sg64
(lp130
g24
asbag57
(g78
g59
NtRp131
(dp132
g62
(dp133
g89
g90
ssg71
g123
sg64
(lp134
S':'
asbag57
(g78
g59
NtRp135
(dp136
g62
(dp137
sg71
g123
sg64
(lp138
g57
(g58
g59
NtRp139
(dp140
g62
(dp141
g70
I5
ssg71
g135
sg64
(lp142
g57
(g66
g59
NtRp143
(dp144
g62
(dp145
g70
I4
ssg71
Nsg64
(lp146
sbasbasbasbag57
(g73
g59
NtRp147
(dp148
g62
(dp149
sg71
g67
sg64
(lp150
g57
(g78
g59
NtRp151
(dp152
g62
(dp153
g82
g83
ssg71
g147
sg64
(lp154
S'body'
p155
asbag57
(g78
g59
NtRp156
(dp157
g62
(dp158
g89
g90
ssg71
g147
sg64
(lp159
S':'
asbag57
(g78
g59
NtRp160
(dp161
g62
(dp162
sg71
g147
sg64
(lp163
g57
(g58
g59
NtRp164
(dp165
g62
(dp166
g70
I5
ssg71
g160
sg64
(lp167
S'<cStringIO.StringO object at 0x7fdca02f1030>'
p168
asbasbasbag57
(g73
g59
NtRp169
(dp170
g62
(dp171
sg71
g67
sg64
(lp172
g57
(g78
g59
NtRp173
(dp174
g62
(dp175
g82
g83
ssg71
g169
sg64
(lp176
S'client'
p177
asbag57
(g78
g59
NtRp178
(dp179
g62
(dp180
g89
g90
ssg71
g169
sg64
(lp181
S':'
asbag57
(g78
g59
NtRp182
(dp183
g62
(dp184
sg71
g169
sg64
(lp185
g57
(g58
g59
NtRp186
(dp187
g62
(dp188
g70
I5
ssg71
g182
sg64
(lp189
S'127.0.0.1'
p190
asbasbasbag57
(g73
g59
NtRp191
(dp192
g62
(dp193
sg71
g67
sg64
(lp194
g57
(g78
g59
NtRp195
(dp196
g62
(dp197
g82
g83
ssg71
g191
sg64
(lp198
S'controller'
p199
asbag57
(g78
g59
NtRp200
(dp201
g62
(dp202
g89
g90
ssg71
g191
sg64
(lp203
S':'
asbag57
(g78
g59
NtRp204
(dp205
g62
(dp206
sg71
g191
sg64
(lp207
g57
(g58
g59
NtRp208
(dp209
g62
(dp210
g70
I5
ssg71
g204
sg64
(lp211
S'docs'
p212
asbasbasbag57
(g73
g59
NtRp213
(dp214
g62
(dp215
sg71
g67
sg64
(lp216
g57
(g78
g59
NtRp217
(dp218
g62
(dp219
g82
g83
ssg71
g213
sg64
(lp220
S'cookies'
p221
asbag57
(g78
g59
NtRp222
(dp223
g62
(dp224
g89
g90
ssg71
g213
sg64
(lp225
S':'
asbag57
(g78
g59
NtRp226
(dp227
g62
(dp228
sg71
g213
sg64
(lp229
g57
(g58
g59
NtRp230
(dp231
g62
(dp232
g70
I5
ssg71
g226
sg64
(lp233
g57
(g66
g59
NtRp234
(dp235
g62
(dp236
g70
I4
ssg71
Nsg64
(lp237
g57
(g73
g59
NtRp238
(dp239
g62
(dp240
sg71
g234
sg64
(lp241
g57
(g78
g59
NtRp242
(dp243
g62
(dp244
g82
g83
ssg71
g238
sg64
(lp245
S'session_id_grammateus3'
p246
asbag57
(g78
g59
NtRp247
(dp248
g62
(dp249
g89
g90
ssg71
g238
sg64
(lp250
S':'
asbag57
(g78
g59
NtRp251
(dp252
g62
(dp253
sg71
g238
sg64
(lp254
g57
(g58
g59
NtRp255
(dp256
g62
(dp257
g70
I4
ssg71
g251
sg64
(lp258
g57
(g66
g59
NtRp259
(dp260
g62
(dp261
g70
I3
ssg71
Nsg64
(lp262
g57
(g73
g59
NtRp263
(dp264
g62
(dp265
sg71
g259
sg64
(lp266
g57
(g78
g59
NtRp267
(dp268
g62
(dp269
g82
g83
ssg71
g263
sg64
(lp270
S'comment'
p271
asbag57
(g78
g59
NtRp272
(dp273
g62
(dp274
g89
g90
ssg71
g263
sg64
(lp275
S':'
asbag57
(g78
g59
NtRp276
(dp277
g62
(dp278
sg71
g263
sg64
(lp279
g57
(g58
g59
NtRp280
(dp281
g62
(dp282
g70
I3
ssg71
g276
sg64
(lp283
S''
asbasbasbag57
(g73
g59
NtRp284
(dp285
g62
(dp286
sg71
g259
sg64
(lp287
g57
(g78
g59
NtRp288
(dp289
g62
(dp290
g82
g83
ssg71
g284
sg64
(lp291
S'domain'
p292
asbag57
(g78
g59
NtRp293
(dp294
g62
(dp295
g89
g90
ssg71
g284
sg64
(lp296
S':'
asbag57
(g78
g59
NtRp297
(dp298
g62
(dp299
sg71
g284
sg64
(lp300
g57
(g58
g59
NtRp301
(dp302
g62
(dp303
g70
I3
ssg71
g297
sg64
(lp304
S''
asbasbasbag57
(g73
g59
NtRp305
(dp306
g62
(dp307
sg71
g259
sg64
(lp308
g57
(g78
g59
NtRp309
(dp310
g62
(dp311
g82
g83
ssg71
g305
sg64
(lp312
S'expires'
p313
asbag57
(g78
g59
NtRp314
(dp315
g62
(dp316
g89
g90
ssg71
g305
sg64
(lp317
S':'
asbag57
(g78
g59
NtRp318
(dp319
g62
(dp320
sg71
g305
sg64
(lp321
g57
(g58
g59
NtRp322
(dp323
g62
(dp324
g70
I3
ssg71
g318
sg64
(lp325
S''
asbasbasbag57
(g73
g59
NtRp326
(dp327
g62
(dp328
sg71
g259
sg64
(lp329
g57
(g78
g59
NtRp330
(dp331
g62
(dp332
g82
g83
ssg71
g326
sg64
(lp333
S'httponly'
p334
asbag57
(g78
g59
NtRp335
(dp336
g62
(dp337
g89
g90
ssg71
g326
sg64
(lp338
S':'
asbag57
(g78
g59
NtRp339
(dp340
g62
(dp341
sg71
g326
sg64
(lp342
g57
(g58
g59
NtRp343
(dp344
g62
(dp345
g70
I3
ssg71
g339
sg64
(lp346
S''
asbasbasbag57
(g73
g59
NtRp347
(dp348
g62
(dp349
sg71
g259
sg64
(lp350
g57
(g78
g59
NtRp351
(dp352
g62
(dp353
g82
g83
ssg71
g347
sg64
(lp354
S'max-age'
p355
asbag57
(g78
g59
NtRp356
(dp357
g62
(dp358
g89
g90
ssg71
g347
sg64
(lp359
S':'
asbag57
(g78
g59
NtRp360
(dp361
g62
(dp362
sg71
g347
sg64
(lp363
g57
(g58
g59
NtRp364
(dp365
g62
(dp366
g70
I3
ssg71
g360
sg64
(lp367
S''
asbasbasbag57
(g73
g59
NtRp368
(dp369
g62
(dp370
sg71
g259
sg64
(lp371
g57
(g78
g59
NtRp372
(dp373
g62
(dp374
g82
g83
ssg71
g368
sg64
(lp375
S'path'
p376
asbag57
(g78
g59
NtRp377
(dp378
g62
(dp379
g89
g90
ssg71
g368
sg64
(lp380
S':'
asbag57
(g78
g59
NtRp381
(dp382
g62
(dp383
sg71
g368
sg64
(lp384
g57
(g58
g59
NtRp385
(dp386
g62
(dp387
g70
I3
ssg71
g381
sg64
(lp388
S''
asbasbasbag57
(g73
g59
NtRp389
(dp390
g62
(dp391
sg71
g259
sg64
(lp392
g57
(g78
g59
NtRp393
(dp394
g62
(dp395
g82
g83
ssg71
g389
sg64
(lp396
S'secure'
p397
asbag57
(g78
g59
NtRp398
(dp399
g62
(dp400
g89
g90
ssg71
g389
sg64
(lp401
S':'
asbag57
(g78
g59
NtRp402
(dp403
g62
(dp404
sg71
g389
sg64
(lp405
g57
(g58
g59
NtRp406
(dp407
g62
(dp408
g70
I3
ssg71
g402
sg64
(lp409
S''
asbasbasbag57
(g73
g59
NtRp410
(dp411
g62
(dp412
sg71
g259
sg64
(lp413
g57
(g78
g59
NtRp414
(dp415
g62
(dp416
g82
g83
ssg71
g410
sg64
(lp417
S'version'
p418
asbag57
(g78
g59
NtRp419
(dp420
g62
(dp421
g89
g90
ssg71
g410
sg64
(lp422
S':'
asbag57
(g78
g59
NtRp423
(dp424
g62
(dp425
sg71
g410
sg64
(lp426
g57
(g58
g59
NtRp427
(dp428
g62
(dp429
g70
I3
ssg71
g423
sg64
(lp430
S''
asbasbasbasbasbasbasbag57
(g73
g59
NtRp431
(dp432
g62
(dp433
sg71
g234
sg64
(lp434
g57
(g78
g59
NtRp435
(dp436
g62
(dp437
g82
g83
ssg71
g431
sg64
(lp438
S'session_id_paideia'
p439
asbag57
(g78
g59
NtRp440
(dp441
g62
(dp442
g89
g90
ssg71
g431
sg64
(lp443
S':'
asbag57
(g78
g59
NtRp444
(dp445
g62
(dp446
sg71
g431
sg64
(lp447
g57
(g58
g59
NtRp448
(dp449
g62
(dp450
g70
I4
ssg71
g444
sg64
(lp451
g57
(g66
g59
NtRp452
(dp453
g62
(dp454
g70
I3
ssg71
Nsg64
(lp455
g57
(g73
g59
NtRp456
(dp457
g62
(dp458
sg71
g452
sg64
(lp459
g57
(g78
g59
NtRp460
(dp461
g62
(dp462
g82
g83
ssg71
g456
sg64
(lp463
g271
asbag57
(g78
g59
NtRp464
(dp465
g62
(dp466
g89
g90
ssg71
g456
sg64
(lp467
S':'
asbag57
(g78
g59
NtRp468
(dp469
g62
(dp470
sg71
g456
sg64
(lp471
g57
(g58
g59
NtRp472
(dp473
g62
(dp474
g70
I3
ssg71
g468
sg64
(lp475
S''
asbasbasbag57
(g73
g59
NtRp476
(dp477
g62
(dp478
sg71
g452
sg64
(lp479
g57
(g78
g59
NtRp480
(dp481
g62
(dp482
g82
g83
ssg71
g476
sg64
(lp483
g292
asbag57
(g78
g59
NtRp484
(dp485
g62
(dp486
g89
g90
ssg71
g476
sg64
(lp487
S':'
asbag57
(g78
g59
NtRp488
(dp489
g62
(dp490
sg71
g476
sg64
(lp491
g57
(g58
g59
NtRp492
(dp493
g62
(dp494
g70
I3
ssg71
g488
sg64
(lp495
S''
asbasbasbag57
(g73
g59
NtRp496
(dp497
g62
(dp498
sg71
g452
sg64
(lp499
g57
(g78
g59
NtRp500
(dp501
g62
(dp502
g82
g83
ssg71
g496
sg64
(lp503
g313
asbag57
(g78
g59
NtRp504
(dp505
g62
(dp506
g89
g90
ssg71
g496
sg64
(lp507
S':'
asbag57
(g78
g59
NtRp508
(dp509
g62
(dp510
sg71
g496
sg64
(lp511
g57
(g58
g59
NtRp512
(dp513
g62
(dp514
g70
I3
ssg71
g508
sg64
(lp515
S''
asbasbasbag57
(g73
g59
NtRp516
(dp517
g62
(dp518
sg71
g452
sg64
(lp519
g57
(g78
g59
NtRp520
(dp521
g62
(dp522
g82
g83
ssg71
g516
sg64
(lp523
g334
asbag57
(g78
g59
NtRp524
(dp525
g62
(dp526
g89
g90
ssg71
g516
sg64
(lp527
S':'
asbag57
(g78
g59
NtRp528
(dp529
g62
(dp530
sg71
g516
sg64
(lp531
g57
(g58
g59
NtRp532
(dp533
g62
(dp534
g70
I3
ssg71
g528
sg64
(lp535
S''
asbasbasbag57
(g73
g59
NtRp536
(dp537
g62
(dp538
sg71
g452
sg64
(lp539
g57
(g78
g59
NtRp540
(dp541
g62
(dp542
g82
g83
ssg71
g536
sg64
(lp543
g355
asbag57
(g78
g59
NtRp544
(dp545
g62
(dp546
g89
g90
ssg71
g536
sg64
(lp547
S':'
asbag57
(g78
g59
NtRp548
(dp549
g62
(dp550
sg71
g536
sg64
(lp551
g57
(g58
g59
NtRp552
(dp553
g62
(dp554
g70
I3
ssg71
g548
sg64
(lp555
S''
asbasbasbag57
(g73
g59
NtRp556
(dp557
g62
(dp558
sg71
g452
sg64
(lp559
g57
(g78
g59
NtRp560
(dp561
g62
(dp562
g82
g83
ssg71
g556
sg64
(lp563
g376
asbag57
(g78
g59
NtRp564
(dp565
g62
(dp566
g89
g90
ssg71
g556
sg64
(lp567
S':'
asbag57
(g78
g59
NtRp568
(dp569
g62
(dp570
sg71
g556
sg64
(lp571
g57
(g58
g59
NtRp572
(dp573
g62
(dp574
g70
I3
ssg71
g568
sg64
(lp575
S''
asbasbasbag57
(g73
g59
NtRp576
(dp577
g62
(dp578
sg71
g452
sg64
(lp579
g57
(g78
g59
NtRp580
(dp581
g62
(dp582
g82
g83
ssg71
g576
sg64
(lp583
g397
asbag57
(g78
g59
NtRp584
(dp585
g62
(dp586
g89
g90
ssg71
g576
sg64
(lp587
S':'
asbag57
(g78
g59
NtRp588
(dp589
g62
(dp590
sg71
g576
sg64
(lp591
g57
(g58
g59
NtRp592
(dp593
g62
(dp594
g70
I3
ssg71
g588
sg64
(lp595
S''
asbasbasbag57
(g73
g59
NtRp596
(dp597
g62
(dp598
sg71
g452
sg64
(lp599
g57
(g78
g59
NtRp600
(dp601
g62
(dp602
g82
g83
ssg71
g596
sg64
(lp603
g418
asbag57
(g78
g59
NtRp604
(dp605
g62
(dp606
g89
g90
ssg71
g596
sg64
(lp607
S':'
asbag57
(g78
g59
NtRp608
(dp609
g62
(dp610
sg71
g596
sg64
(lp611
g57
(g58
g59
NtRp612
(dp613
g62
(dp614
g70
I3
ssg71
g608
sg64
(lp615
S''
asbasbasbasbasbasbasbag57
(g73
g59
NtRp616
(dp617
g62
(dp618
sg71
g234
sg64
(lp619
g57
(g78
g59
NtRp620
(dp621
g62
(dp622
g82
g83
ssg71
g616
sg64
(lp623
S'session_id_topoi'
p624
asbag57
(g78
g59
NtRp625
(dp626
g62
(dp627
g89
g90
ssg71
g616
sg64
(lp628
S':'
asbag57
(g78
g59
NtRp629
(dp630
g62
(dp631
sg71
g616
sg64
(lp632
g57
(g58
g59
NtRp633
(dp634
g62
(dp635
g70
I4
ssg71
g629
sg64
(lp636
g57
(g66
g59
NtRp637
(dp638
g62
(dp639
g70
I3
ssg71
Nsg64
(lp640
g57
(g73
g59
NtRp641
(dp642
g62
(dp643
sg71
g637
sg64
(lp644
g57
(g78
g59
NtRp645
(dp646
g62
(dp647
g82
g83
ssg71
g641
sg64
(lp648
g271
asbag57
(g78
g59
NtRp649
(dp650
g62
(dp651
g89
g90
ssg71
g641
sg64
(lp652
S':'
asbag57
(g78
g59
NtRp653
(dp654
g62
(dp655
sg71
g641
sg64
(lp656
g57
(g58
g59
NtRp657
(dp658
g62
(dp659
g70
I3
ssg71
g653
sg64
(lp660
S''
asbasbasbag57
(g73
g59
NtRp661
(dp662
g62
(dp663
sg71
g637
sg64
(lp664
g57
(g78
g59
NtRp665
(dp666
g62
(dp667
g82
g83
ssg71
g661
sg64
(lp668
g292
asbag57
(g78
g59
NtRp669
(dp670
g62
(dp671
g89
g90
ssg71
g661
sg64
(lp672
S':'
asbag57
(g78
g59
NtRp673
(dp674
g62
(dp675
sg71
g661
sg64
(lp676
g57
(g58
g59
NtRp677
(dp678
g62
(dp679
g70
I3
ssg71
g673
sg64
(lp680
S''
asbasbasbag57
(g73
g59
NtRp681
(dp682
g62
(dp683
sg71
g637
sg64
(lp684
g57
(g78
g59
NtRp685
(dp686
g62
(dp687
g82
g83
ssg71
g681
sg64
(lp688
g313
asbag57
(g78
g59
NtRp689
(dp690
g62
(dp691
g89
g90
ssg71
g681
sg64
(lp692
S':'
asbag57
(g78
g59
NtRp693
(dp694
g62
(dp695
sg71
g681
sg64
(lp696
g57
(g58
g59
NtRp697
(dp698
g62
(dp699
g70
I3
ssg71
g693
sg64
(lp700
S''
asbasbasbag57
(g73
g59
NtRp701
(dp702
g62
(dp703
sg71
g637
sg64
(lp704
g57
(g78
g59
NtRp705
(dp706
g62
(dp707
g82
g83
ssg71
g701
sg64
(lp708
g334
asbag57
(g78
g59
NtRp709
(dp710
g62
(dp711
g89
g90
ssg71
g701
sg64
(lp712
S':'
asbag57
(g78
g59
NtRp713
(dp714
g62
(dp715
sg71
g701
sg64
(lp716
g57
(g58
g59
NtRp717
(dp718
g62
(dp719
g70
I3
ssg71
g713
sg64
(lp720
S''
asbasbasbag57
(g73
g59
NtRp721
(dp722
g62
(dp723
sg71
g637
sg64
(lp724
g57
(g78
g59
NtRp725
(dp726
g62
(dp727
g82
g83
ssg71
g721
sg64
(lp728
g355
asbag57
(g78
g59
NtRp729
(dp730
g62
(dp731
g89
g90
ssg71
g721
sg64
(lp732
S':'
asbag57
(g78
g59
NtRp733
(dp734
g62
(dp735
sg71
g721
sg64
(lp736
g57
(g58
g59
NtRp737
(dp738
g62
(dp739
g70
I3
ssg71
g733
sg64
(lp740
S''
asbasbasbag57
(g73
g59
NtRp741
(dp742
g62
(dp743
sg71
g637
sg64
(lp744
g57
(g78
g59
NtRp745
(dp746
g62
(dp747
g82
g83
ssg71
g741
sg64
(lp748
g376
asbag57
(g78
g59
NtRp749
(dp750
g62
(dp751
g89
g90
ssg71
g741
sg64
(lp752
S':'
asbag57
(g78
g59
NtRp753
(dp754
g62
(dp755
sg71
g741
sg64
(lp756
g57
(g58
g59
NtRp757
(dp758
g62
(dp759
g70
I3
ssg71
g753
sg64
(lp760
S''
asbasbasbag57
(g73
g59
NtRp761
(dp762
g62
(dp763
sg71
g637
sg64
(lp764
g57
(g78
g59
NtRp765
(dp766
g62
(dp767
g82
g83
ssg71
g761
sg64
(lp768
g397
asbag57
(g78
g59
NtRp769
(dp770
g62
(dp771
g89
g90
ssg71
g761
sg64
(lp772
S':'
asbag57
(g78
g59
NtRp773
(dp774
g62
(dp775
sg71
g761
sg64
(lp776
g57
(g58
g59
NtRp777
(dp778
g62
(dp779
g70
I3
ssg71
g773
sg64
(lp780
S''
asbasbasbag57
(g73
g59
NtRp781
(dp782
g62
(dp783
sg71
g637
sg64
(lp784
g57
(g78
g59
NtRp785
(dp786
g62
(dp787
g82
g83
ssg71
g781
sg64
(lp788
g418
asbag57
(g78
g59
NtRp789
(dp790
g62
(dp791
g89
g90
ssg71
g781
sg64
(lp792
S':'
asbag57
(g78
g59
NtRp793
(dp794
g62
(dp795
sg71
g781
sg64
(lp796
g57
(g58
g59
NtRp797
(dp798
g62
(dp799
g70
I3
ssg71
g793
sg64
(lp800
S''
asbasbasbasbasbasbasbag57
(g73
g59
NtRp801
(dp802
g62
(dp803
sg71
g234
sg64
(lp804
g57
(g78
g59
NtRp805
(dp806
g62
(dp807
g82
g83
ssg71
g801
sg64
(lp808
S'session_id_welcome'
p809
asbag57
(g78
g59
NtRp810
(dp811
g62
(dp812
g89
g90
ssg71
g801
sg64
(lp813
S':'
asbag57
(g78
g59
NtRp814
(dp815
g62
(dp816
sg71
g801
sg64
(lp817
g57
(g58
g59
NtRp818
(dp819
g62
(dp820
g70
I4
ssg71
g814
sg64
(lp821
g57
(g66
g59
NtRp822
(dp823
g62
(dp824
g70
I3
ssg71
Nsg64
(lp825
g57
(g73
g59
NtRp826
(dp827
g62
(dp828
sg71
g822
sg64
(lp829
g57
(g78
g59
NtRp830
(dp831
g62
(dp832
g82
g83
ssg71
g826
sg64
(lp833
g271
asbag57
(g78
g59
NtRp834
(dp835
g62
(dp836
g89
g90
ssg71
g826
sg64
(lp837
S':'
asbag57
(g78
g59
NtRp838
(dp839
g62
(dp840
sg71
g826
sg64
(lp841
g57
(g58
g59
NtRp842
(dp843
g62
(dp844
g70
I3
ssg71
g838
sg64
(lp845
S''
asbasbasbag57
(g73
g59
NtRp846
(dp847
g62
(dp848
sg71
g822
sg64
(lp849
g57
(g78
g59
NtRp850
(dp851
g62
(dp852
g82
g83
ssg71
g846
sg64
(lp853
g292
asbag57
(g78
g59
NtRp854
(dp855
g62
(dp856
g89
g90
ssg71
g846
sg64
(lp857
S':'
asbag57
(g78
g59
NtRp858
(dp859
g62
(dp860
sg71
g846
sg64
(lp861
g57
(g58
g59
NtRp862
(dp863
g62
(dp864
g70
I3
ssg71
g858
sg64
(lp865
S''
asbasbasbag57
(g73
g59
NtRp866
(dp867
g62
(dp868
sg71
g822
sg64
(lp869
g57
(g78
g59
NtRp870
(dp871
g62
(dp872
g82
g83
ssg71
g866
sg64
(lp873
g313
asbag57
(g78
g59
NtRp874
(dp875
g62
(dp876
g89
g90
ssg71
g866
sg64
(lp877
S':'
asbag57
(g78
g59
NtRp878
(dp879
g62
(dp880
sg71
g866
sg64
(lp881
g57
(g58
g59
NtRp882
(dp883
g62
(dp884
g70
I3
ssg71
g878
sg64
(lp885
S''
asbasbasbag57
(g73
g59
NtRp886
(dp887
g62
(dp888
sg71
g822
sg64
(lp889
g57
(g78
g59
NtRp890
(dp891
g62
(dp892
g82
g83
ssg71
g886
sg64
(lp893
g334
asbag57
(g78
g59
NtRp894
(dp895
g62
(dp896
g89
g90
ssg71
g886
sg64
(lp897
S':'
asbag57
(g78
g59
NtRp898
(dp899
g62
(dp900
sg71
g886
sg64
(lp901
g57
(g58
g59
NtRp902
(dp903
g62
(dp904
g70
I3
ssg71
g898
sg64
(lp905
S''
asbasbasbag57
(g73
g59
NtRp906
(dp907
g62
(dp908
sg71
g822
sg64
(lp909
g57
(g78
g59
NtRp910
(dp911
g62
(dp912
g82
g83
ssg71
g906
sg64
(lp913
g355
asbag57
(g78
g59
NtRp914
(dp915
g62
(dp916
g89
g90
ssg71
g906
sg64
(lp917
S':'
asbag57
(g78
g59
NtRp918
(dp919
g62
(dp920
sg71
g906
sg64
(lp921
g57
(g58
g59
NtRp922
(dp923
g62
(dp924
g70
I3
ssg71
g918
sg64
(lp925
S''
asbasbasbag57
(g73
g59
NtRp926
(dp927
g62
(dp928
sg71
g822
sg64
(lp929
g57
(g78
g59
NtRp930
(dp931
g62
(dp932
g82
g83
ssg71
g926
sg64
(lp933
g376
asbag57
(g78
g59
NtRp934
(dp935
g62
(dp936
g89
g90
ssg71
g926
sg64
(lp937
S':'
asbag57
(g78
g59
NtRp938
(dp939
g62
(dp940
sg71
g926
sg64
(lp941
g57
(g58
g59
NtRp942
(dp943
g62
(dp944
g70
I3
ssg71
g938
sg64
(lp945
S''
asbasbasbag57
(g73
g59
NtRp946
(dp947
g62
(dp948
sg71
g822
sg64
(lp949
g57
(g78
g59
NtRp950
(dp951
g62
(dp952
g82
g83
ssg71
g946
sg64
(lp953
g397
asbag57
(g78
g59
NtRp954
(dp955
g62
(dp956
g89
g90
ssg71
g946
sg64
(lp957
S':'
asbag57
(g78
g59
NtRp958
(dp959
g62
(dp960
sg71
g946
sg64
(lp961
g57
(g58
g59
NtRp962
(dp963
g62
(dp964
g70
I3
ssg71
g958
sg64
(lp965
S''
asbasbasbag57
(g73
g59
NtRp966
(dp967
g62
(dp968
sg71
g822
sg64
(lp969
g57
(g78
g59
NtRp970
(dp971
g62
(dp972
g82
g83
ssg71
g966
sg64
(lp973
g418
asbag57
(g78
g59
NtRp974
(dp975
g62
(dp976
g89
g90
ssg71
g966
sg64
(lp977
S':'
asbag57
(g78
g59
NtRp978
(dp979
g62
(dp980
sg71
g966
sg64
(lp981
g57
(g58
g59
NtRp982
(dp983
g62
(dp984
g70
I3
ssg71
g978
sg64
(lp985
S''
asbasbasbasbasbasbasbasbasbasbasbag57
(g73
g59
NtRp986
(dp987
g62
(dp988
sg71
g67
sg64
(lp989
g57
(g78
g59
NtRp990
(dp991
g62
(dp992
g82
g83
ssg71
g986
sg64
(lp993
S'env'
p994
asbag57
(g78
g59
NtRp995
(dp996
g62
(dp997
g89
g90
ssg71
g986
sg64
(lp998
S':'
asbag57
(g78
g59
NtRp999
(dp1000
g62
(dp1001
sg71
g986
sg64
(lp1002
g57
(g58
g59
NtRp1003
(dp1004
g62
(dp1005
g70
I5
ssg71
g999
sg64
(lp1006
g57
(g66
g59
NtRp1007
(dp1008
g62
(dp1009
g70
I4
ssg71
Nsg64
(lp1010
g57
(g73
g59
NtRp1011
(dp1012
g62
(dp1013
sg71
g1007
sg64
(lp1014
g57
(g78
g59
NtRp1015
(dp1016
g62
(dp1017
g82
g83
ssg71
g1011
sg64
(lp1018
S'app_folders'
p1019
asbag57
(g78
g59
NtRp1020
(dp1021
g62
(dp1022
g89
g90
ssg71
g1011
sg64
(lp1023
S':'
asbag57
(g78
g59
NtRp1024
(dp1025
g62
(dp1026
sg71
g1011
sg64
(lp1027
g57
(g58
g59
NtRp1028
(dp1029
g62
(dp1030
g70
I4
ssg71
g1024
sg64
(lp1031
S"set(['/home/ian/web/web2py/applications/welcome/', '/home/ian/web/web2py/applications/grammateus3/'])"
p1032
asbasbasbag57
(g73
g59
NtRp1033
(dp1034
g62
(dp1035
sg71
g1007
sg64
(lp1036
g57
(g78
g59
NtRp1037
(dp1038
g62
(dp1039
g82
g83
ssg71
g1033
sg64
(lp1040
S'applications_parent'
p1041
asbag57
(g78
g59
NtRp1042
(dp1043
g62
(dp1044
g89
g90
ssg71
g1033
sg64
(lp1045
S':'
asbag57
(g78
g59
NtRp1046
(dp1047
g62
(dp1048
sg71
g1033
sg64
(lp1049
g57
(g58
g59
NtRp1050
(dp1051
g62
(dp1052
g70
I4
ssg71
g1046
sg64
(lp1053
S'/home/ian/web/web2py'
p1054
asbasbasbag57
(g73
g59
NtRp1055
(dp1056
g62
(dp1057
sg71
g1007
sg64
(lp1058
g57
(g78
g59
NtRp1059
(dp1060
g62
(dp1061
g82
g83
ssg71
g1055
sg64
(lp1062
S'cmd_args'
p1063
asbag57
(g78
g59
NtRp1064
(dp1065
g62
(dp1066
g89
g90
ssg71
g1055
sg64
(lp1067
S':'
asbag57
(g78
g59
NtRp1068
(dp1069
g62
(dp1070
sg71
g1055
sg64
(lp1071
g57
(g58
g59
NtRp1072
(dp1073
g62
(dp1074
g70
I4
ssg71
g1068
sg64
(lp1075
g57
(g66
g59
NtRp1076
(dp1077
g62
(dp1078
g70
I3
ssg71
Nsg64
(lp1079
sbasbasbasbag57
(g73
g59
NtRp1080
(dp1081
g62
(dp1082
sg71
g1007
sg64
(lp1083
g57
(g78
g59
NtRp1084
(dp1085
g62
(dp1086
g82
g83
ssg71
g1080
sg64
(lp1087
S'cmd_options'
p1088
asbag57
(g78
g59
NtRp1089
(dp1090
g62
(dp1091
g89
g90
ssg71
g1080
sg64
(lp1092
S':'
asbag57
(g78
g59
NtRp1093
(dp1094
g62
(dp1095
sg71
g1080
sg64
(lp1096
g57
(g58
g59
NtRp1097
(dp1098
g62
(dp1099
g70
I4
ssg71
g1093
sg64
(lp1100
S"<Values at 0x14dd710: {'verbose': False, 'ip': '127.0.0.1', 'shutdown_timeout': 5, 'taskbar': False, 'nocron': False, 'pid_filename': 'httpserver.pid', 'maxthreads': None, 'softcron': False, 'server_name': 'Ariel-ubuntu', 'bpython': False, 'nogui': False, 'port': 8000, 'extcron': False, 'debuglevel': 30, 'test': None, 'folder': '/home/ian/web/web2py', 'config': '', 'import_models': False, 'winservice': '', 'shell': None, 'run': '', 'log_filename': 'httpserver.log', 'args': [''], 'socket_timeout': 1, 'ssl_ca_certificate': None, 'scheduler': None, 'profiler_filename': None, 'ssl_private_key': '', 'password': '<ask>', 'request_queue_size': 5, 'ssl_certificate': '', 'cronjob': False, 'numthreads': None, 'quiet': False, 'interfaces': None, 'minthreads': None, 'timeout': 10, 'plain': False, 'nobanner': False}>"
p1101
asbasbasbag57
(g73
g59
NtRp1102
(dp1103
g62
(dp1104
sg71
g1007
sg64
(lp1105
g57
(g78
g59
NtRp1106
(dp1107
g62
(dp1108
g82
g83
ssg71
g1102
sg64
(lp1109
S'db_sessions'
p1110
asbag57
(g78
g59
NtRp1111
(dp1112
g62
(dp1113
g89
g90
ssg71
g1102
sg64
(lp1114
S':'
asbag57
(g78
g59
NtRp1115
(dp1116
g62
(dp1117
sg71
g1102
sg64
(lp1118
g57
(g58
g59
NtRp1119
(dp1120
g62
(dp1121
g70
I4
ssg71
g1115
sg64
(lp1122
S'set([])'
p1123
asbasbasbag57
(g73
g59
NtRp1124
(dp1125
g62
(dp1126
sg71
g1007
sg64
(lp1127
g57
(g78
g59
NtRp1128
(dp1129
g62
(dp1130
g82
g83
ssg71
g1124
sg64
(lp1131
S'debugging'
p1132
asbag57
(g78
g59
NtRp1133
(dp1134
g62
(dp1135
g89
g90
ssg71
g1124
sg64
(lp1136
S':'
asbag57
(g78
g59
NtRp1137
(dp1138
g62
(dp1139
sg71
g1124
sg64
(lp1140
g57
(g58
g59
NtRp1141
(dp1142
g62
(dp1143
g70
I4
ssg71
g1137
sg64
(lp1144
g100
asbasbasbag57
(g73
g59
NtRp1145
(dp1146
g62
(dp1147
sg71
g1007
sg64
(lp1148
g57
(g78
g59
NtRp1149
(dp1150
g62
(dp1151
g82
g83
ssg71
g1145
sg64
(lp1152
S'gluon_parent'
p1153
asbag57
(g78
g59
NtRp1154
(dp1155
g62
(dp1156
g89
g90
ssg71
g1145
sg64
(lp1157
S':'
asbag57
(g78
g59
NtRp1158
(dp1159
g62
(dp1160
sg71
g1145
sg64
(lp1161
g57
(g58
g59
NtRp1162
(dp1163
g62
(dp1164
g70
I4
ssg71
g1158
sg64
(lp1165
S'/home/ian/web/web2py'
p1166
asbasbasbag57
(g73
g59
NtRp1167
(dp1168
g62
(dp1169
sg71
g1007
sg64
(lp1170
g57
(g78
g59
NtRp1171
(dp1172
g62
(dp1173
g82
g83
ssg71
g1167
sg64
(lp1174
S'http_accept'
p1175
asbag57
(g78
g59
NtRp1176
(dp1177
g62
(dp1178
g89
g90
ssg71
g1167
sg64
(lp1179
S':'
asbag57
(g78
g59
NtRp1180
(dp1181
g62
(dp1182
sg71
g1167
sg64
(lp1183
g57
(g58
g59
NtRp1184
(dp1185
g62
(dp1186
g70
I4
ssg71
g1180
sg64
(lp1187
S'text/html,application/xhtml+xml,application/xml;q=0.9,*/*;q=0.8'
p1188
asbasbasbag57
(g73
g59
NtRp1189
(dp1190
g62
(dp1191
sg71
g1007
sg64
(lp1192
g57
(g78
g59
NtRp1193
(dp1194
g62
(dp1195
g82
g83
ssg71
g1189
sg64
(lp1196
S'http_accept_encoding'
p1197
asbag57
(g78
g59
NtRp1198
(dp1199
g62
(dp1200
g89
g90
ssg71
g1189
sg64
(lp1201
S':'
asbag57
(g78
g59
NtRp1202
(dp1203
g62
(dp1204
sg71
g1189
sg64
(lp1205
g57
(g58
g59
NtRp1206
(dp1207
g62
(dp1208
g70
I4
ssg71
g1202
sg64
(lp1209
S'gzip, deflate'
p1210
asbasbasbag57
(g73
g59
NtRp1211
(dp1212
g62
(dp1213
sg71
g1007
sg64
(lp1214
g57
(g78
g59
NtRp1215
(dp1216
g62
(dp1217
g82
g83
ssg71
g1211
sg64
(lp1218
S'http_accept_language'
p1219
asbag57
(g78
g59
NtRp1220
(dp1221
g62
(dp1222
g89
g90
ssg71
g1211
sg64
(lp1223
S':'
asbag57
(g78
g59
NtRp1224
(dp1225
g62
(dp1226
sg71
g1211
sg64
(lp1227
g57
(g58
g59
NtRp1228
(dp1229
g62
(dp1230
g70
I4
ssg71
g1224
sg64
(lp1231
S'en-us,en;q=0.5'
p1232
asbasbasbag57
(g73
g59
NtRp1233
(dp1234
g62
(dp1235
sg71
g1007
sg64
(lp1236
g57
(g78
g59
NtRp1237
(dp1238
g62
(dp1239
g82
g83
ssg71
g1233
sg64
(lp1240
S'http_connection'
p1241
asbag57
(g78
g59
NtRp1242
(dp1243
g62
(dp1244
g89
g90
ssg71
g1233
sg64
(lp1245
S':'
asbag57
(g78
g59
NtRp1246
(dp1247
g62
(dp1248
sg71
g1233
sg64
(lp1249
g57
(g58
g59
NtRp1250
(dp1251
g62
(dp1252
g70
I4
ssg71
g1246
sg64
(lp1253
S'keep-alive'
p1254
asbasbasbag57
(g73
g59
NtRp1255
(dp1256
g62
(dp1257
sg71
g1007
sg64
(lp1258
g57
(g78
g59
NtRp1259
(dp1260
g62
(dp1261
g82
g83
ssg71
g1255
sg64
(lp1262
S'http_cookie'
p1263
asbag57
(g78
g59
NtRp1264
(dp1265
g62
(dp1266
g89
g90
ssg71
g1255
sg64
(lp1267
S':'
asbag57
(g78
g59
NtRp1268
(dp1269
g62
(dp1270
sg71
g1255
sg64
(lp1271
g57
(g58
g59
NtRp1272
(dp1273
g62
(dp1274
g70
I4
ssg71
g1268
sg64
(lp1275
S'__utma_a2a=9789918665.1351576430.1320019504.1320019504.1320019504.1; session_id_topoi=127.0.0.1-36a47132-9f63-403c-93e8-4b961484278b; session_id_paideia=127.0.0.1-6908630b-309c-42d8-85d6-9ab15b9b0f57; session_id_welcome=127.0.0.1-528121bb-90a1-4f95-9508-780f1f230621; session_id_grammateus3=127.0.0.1-1092fa64-b648-4e5a-93f6-6b6d72d1f372'
p1276
asbasbasbag57
(g73
g59
NtRp1277
(dp1278
g62
(dp1279
sg71
g1007
sg64
(lp1280
g57
(g78
g59
NtRp1281
(dp1282
g62
(dp1283
g82
g83
ssg71
g1277
sg64
(lp1284
S'http_host'
p1285
asbag57
(g78
g59
NtRp1286
(dp1287
g62
(dp1288
g89
g90
ssg71
g1277
sg64
(lp1289
S':'
asbag57
(g78
g59
NtRp1290
(dp1291
g62
(dp1292
sg71
g1277
sg64
(lp1293
g57
(g58
g59
NtRp1294
(dp1295
g62
(dp1296
g70
I4
ssg71
g1290
sg64
(lp1297
S'127.0.0.1:8000'
p1298
asbasbasbag57
(g73
g59
NtRp1299
(dp1300
g62
(dp1301
sg71
g1007
sg64
(lp1302
g57
(g78
g59
NtRp1303
(dp1304
g62
(dp1305
g82
g83
ssg71
g1299
sg64
(lp1306
S'http_user_agent'
p1307
asbag57
(g78
g59
NtRp1308
(dp1309
g62
(dp1310
g89
g90
ssg71
g1299
sg64
(lp1311
S':'
asbag57
(g78
g59
NtRp1312
(dp1313
g62
(dp1314
sg71
g1299
sg64
(lp1315
g57
(g58
g59
NtRp1316
(dp1317
g62
(dp1318
g70
I4
ssg71
g1312
sg64
(lp1319
S'Mozilla/5.0 (X11; Ubuntu; Linux x86_64; rv:11.0) Gecko/20100101 Firefox/11.0'
p1320
asbasbasbag57
(g73
g59
NtRp1321
(dp1322
g62
(dp1323
sg71
g1007
sg64
(lp1324
g57
(g78
g59
NtRp1325
(dp1326
g62
(dp1327
g82
g83
ssg71
g1321
sg64
(lp1328
S'is_jython'
p1329
asbag57
(g78
g59
NtRp1330
(dp1331
g62
(dp1332
g89
g90
ssg71
g1321
sg64
(lp1333
S':'
asbag57
(g78
g59
NtRp1334
(dp1335
g62
(dp1336
sg71
g1321
sg64
(lp1337
g57
(g58
g59
NtRp1338
(dp1339
g62
(dp1340
g70
I4
ssg71
g1334
sg64
(lp1341
g100
asbasbasbag57
(g73
g59
NtRp1342
(dp1343
g62
(dp1344
sg71
g1007
sg64
(lp1345
g57
(g78
g59
NtRp1346
(dp1347
g62
(dp1348
g82
g83
ssg71
g1342
sg64
(lp1349
S'is_pypy'
p1350
asbag57
(g78
g59
NtRp1351
(dp1352
g62
(dp1353
g89
g90
ssg71
g1342
sg64
(lp1354
S':'
asbag57
(g78
g59
NtRp1355
(dp1356
g62
(dp1357
sg71
g1342
sg64
(lp1358
g57
(g58
g59
NtRp1359
(dp1360
g62
(dp1361
g70
I4
ssg71
g1355
sg64
(lp1362
g100
asbasbasbag57
(g73
g59
NtRp1363
(dp1364
g62
(dp1365
sg71
g1007
sg64
(lp1366
g57
(g78
g59
NtRp1367
(dp1368
g62
(dp1369
g82
g83
ssg71
g1363
sg64
(lp1370
S'path_info'
p1371
asbag57
(g78
g59
NtRp1372
(dp1373
g62
(dp1374
g89
g90
ssg71
g1363
sg64
(lp1375
S':'
asbag57
(g78
g59
NtRp1376
(dp1377
g62
(dp1378
sg71
g1363
sg64
(lp1379
g57
(g58
g59
NtRp1380
(dp1381
g62
(dp1382
g70
I4
ssg71
g1376
sg64
(lp1383
S'/grammateus3/docs'
p1384
asbasbasbag57
(g73
g59
NtRp1385
(dp1386
g62
(dp1387
sg71
g1007
sg64
(lp1388
g57
(g78
g59
NtRp1389
(dp1390
g62
(dp1391
g82
g83
ssg71
g1385
sg64
(lp1392
S'query_string'
p1393
asbag57
(g78
g59
NtRp1394
(dp1395
g62
(dp1396
g89
g90
ssg71
g1385
sg64
(lp1397
S':'
asbag57
(g78
g59
NtRp1398
(dp1399
g62
(dp1400
sg71
g1385
sg64
(lp1401
g57
(g58
g59
NtRp1402
(dp1403
g62
(dp1404
g70
I4
ssg71
g1398
sg64
(lp1405
S''
asbasbasbag57
(g73
g59
NtRp1406
(dp1407
g62
(dp1408
sg71
g1007
sg64
(lp1409
g57
(g78
g59
NtRp1410
(dp1411
g62
(dp1412
g82
g83
ssg71
g1406
sg64
(lp1413
S'remote_addr'
p1414
asbag57
(g78
g59
NtRp1415
(dp1416
g62
(dp1417
g89
g90
ssg71
g1406
sg64
(lp1418
S':'
asbag57
(g78
g59
NtRp1419
(dp1420
g62
(dp1421
sg71
g1406
sg64
(lp1422
g57
(g58
g59
NtRp1423
(dp1424
g62
(dp1425
g70
I4
ssg71
g1419
sg64
(lp1426
g190
asbasbasbag57
(g73
g59
NtRp1427
(dp1428
g62
(dp1429
sg71
g1007
sg64
(lp1430
g57
(g78
g59
NtRp1431
(dp1432
g62
(dp1433
g82
g83
ssg71
g1427
sg64
(lp1434
S'remote_port'
p1435
asbag57
(g78
g59
NtRp1436
(dp1437
g62
(dp1438
g89
g90
ssg71
g1427
sg64
(lp1439
S':'
asbag57
(g78
g59
NtRp1440
(dp1441
g62
(dp1442
sg71
g1427
sg64
(lp1443
g57
(g58
g59
NtRp1444
(dp1445
g62
(dp1446
g70
I4
ssg71
g1440
sg64
(lp1447
S'41203'
p1448
asbasbasbag57
(g73
g59
NtRp1449
(dp1450
g62
(dp1451
sg71
g1007
sg64
(lp1452
g57
(g78
g59
NtRp1453
(dp1454
g62
(dp1455
g82
g83
ssg71
g1449
sg64
(lp1456
S'request_method'
p1457
asbag57
(g78
g59
NtRp1458
(dp1459
g62
(dp1460
g89
g90
ssg71
g1449
sg64
(lp1461
S':'
asbag57
(g78
g59
NtRp1462
(dp1463
g62
(dp1464
sg71
g1449
sg64
(lp1465
g57
(g58
g59
NtRp1466
(dp1467
g62
(dp1468
g70
I4
ssg71
g1462
sg64
(lp1469
S'GET'
p1470
asbasbasbag57
(g73
g59
NtRp1471
(dp1472
g62
(dp1473
sg71
g1007
sg64
(lp1474
g57
(g78
g59
NtRp1475
(dp1476
g62
(dp1477
g82
g83
ssg71
g1471
sg64
(lp1478
S'script_name'
p1479
asbag57
(g78
g59
NtRp1480
(dp1481
g62
(dp1482
g89
g90
ssg71
g1471
sg64
(lp1483
S':'
asbag57
(g78
g59
NtRp1484
(dp1485
g62
(dp1486
sg71
g1471
sg64
(lp1487
g57
(g58
g59
NtRp1488
(dp1489
g62
(dp1490
g70
I4
ssg71
g1484
sg64
(lp1491
S''
asbasbasbag57
(g73
g59
NtRp1492
(dp1493
g62
(dp1494
sg71
g1007
sg64
(lp1495
g57
(g78
g59
NtRp1496
(dp1497
g62
(dp1498
g82
g83
ssg71
g1492
sg64
(lp1499
S'server_name'
p1500
asbag57
(g78
g59
NtRp1501
(dp1502
g62
(dp1503
g89
g90
ssg71
g1492
sg64
(lp1504
S':'
asbag57
(g78
g59
NtRp1505
(dp1506
g62
(dp1507
sg71
g1492
sg64
(lp1508
g57
(g58
g59
NtRp1509
(dp1510
g62
(dp1511
g70
I4
ssg71
g1505
sg64
(lp1512
S'Ariel-ubuntu'
p1513
asbasbasbag57
(g73
g59
NtRp1514
(dp1515
g62
(dp1516
sg71
g1007
sg64
(lp1517
g57
(g78
g59
NtRp1518
(dp1519
g62
(dp1520
g82
g83
ssg71
g1514
sg64
(lp1521
S'server_port'
p1522
asbag57
(g78
g59
NtRp1523
(dp1524
g62
(dp1525
g89
g90
ssg71
g1514
sg64
(lp1526
S':'
asbag57
(g78
g59
NtRp1527
(dp1528
g62
(dp1529
sg71
g1514
sg64
(lp1530
g57
(g58
g59
NtRp1531
(dp1532
g62
(dp1533
g70
I4
ssg71
g1527
sg64
(lp1534
S'8000'
p1535
asbasbasbag57
(g73
g59
NtRp1536
(dp1537
g62
(dp1538
sg71
g1007
sg64
(lp1539
g57
(g78
g59
NtRp1540
(dp1541
g62
(dp1542
g82
g83
ssg71
g1536
sg64
(lp1543
S'server_protocol'
p1544
asbag57
(g78
g59
NtRp1545
(dp1546
g62
(dp1547
g89
g90
ssg71
g1536
sg64
(lp1548
S':'
asbag57
(g78
g59
NtRp1549
(dp1550
g62
(dp1551
sg71
g1536
sg64
(lp1552
g57
(g58
g59
NtRp1553
(dp1554
g62
(dp1555
g70
I4
ssg71
g1549
sg64
(lp1556
S'HTTP/1.1'
p1557
asbasbasbag57
(g73
g59
NtRp1558
(dp1559
g62
(dp1560
sg71
g1007
sg64
(lp1561
g57
(g78
g59
NtRp1562
(dp1563
g62
(dp1564
g82
g83
ssg71
g1558
sg64
(lp1565
S'server_software'
p1566
asbag57
(g78
g59
NtRp1567
(dp1568
g62
(dp1569
g89
g90
ssg71
g1558
sg64
(lp1570
S':'
asbag57
(g78
g59
NtRp1571
(dp1572
g62
(dp1573
sg71
g1558
sg64
(lp1574
g57
(g58
g59
NtRp1575
(dp1576
g62
(dp1577
g70
I4
ssg71
g1571
sg64
(lp1578
S'Rocket 1.2.4'
p1579
asbasbasbag57
(g73
g59
NtRp1580
(dp1581
g62
(dp1582
sg71
g1007
sg64
(lp1583
g57
(g78
g59
NtRp1584
(dp1585
g62
(dp1586
g82
g83
ssg71
g1580
sg64
(lp1587
S'web2py_crontype'
p1588
asbag57
(g78
g59
NtRp1589
(dp1590
g62
(dp1591
g89
g90
ssg71
g1580
sg64
(lp1592
S':'
asbag57
(g78
g59
NtRp1593
(dp1594
g62
(dp1595
sg71
g1580
sg64
(lp1596
g57
(g58
g59
NtRp1597
(dp1598
g62
(dp1599
g70
I4
ssg71
g1593
sg64
(lp1600
S'hard'
p1601
asbasbasbag57
(g73
g59
NtRp1602
(dp1603
g62
(dp1604
sg71
g1007
sg64
(lp1605
g57
(g78
g59
NtRp1606
(dp1607
g62
(dp1608
g82
g83
ssg71
g1602
sg64
(lp1609
S'web2py_path'
p1610
asbag57
(g78
g59
NtRp1611
(dp1612
g62
(dp1613
g89
g90
ssg71
g1602
sg64
(lp1614
S':'
asbag57
(g78
g59
NtRp1615
(dp1616
g62
(dp1617
sg71
g1602
sg64
(lp1618
g57
(g58
g59
NtRp1619
(dp1620
g62
(dp1621
g70
I4
ssg71
g1615
sg64
(lp1622
g1054
asbasbasbag57
(g73
g59
NtRp1623
(dp1624
g62
(dp1625
sg71
g1007
sg64
(lp1626
g57
(g78
g59
NtRp1627
(dp1628
g62
(dp1629
g82
g83
ssg71
g1623
sg64
(lp1630
S'web2py_version'
p1631
asbag57
(g78
g59
NtRp1632
(dp1633
g62
(dp1634
g89
g90
ssg71
g1623
sg64
(lp1635
S':'
asbag57
(g78
g59
NtRp1636
(dp1637
g62
(dp1638
sg71
g1623
sg64
(lp1639
g57
(g58
g59
NtRp1640
(dp1641
g62
(dp1642
g70
I4
ssg71
g1636
sg64
(lp1643
g57
(g66
g59
NtRp1644
(dp1645
g62
(dp1646
g70
I3
ssg71
Nsg64
(lp1647
g57
(g73
g59
NtRp1648
(dp1649
g62
(dp1650
sg71
g1644
sg64
(lp1651
g57
(g78
g59
NtRp1652
(dp1653
g62
(dp1654
sg71
g1648
sg64
(lp1655
g57
(g58
g59
NtRp1656
(dp1657
g62
(dp1658
g70
I3
ssg71
g1652
sg64
(lp1659
S'1'
asbasbasbag57
(g73
g59
NtRp1660
(dp1661
g62
(dp1662
sg71
g1644
sg64
(lp1663
g57
(g78
g59
NtRp1664
(dp1665
g62
(dp1666
sg71
g1660
sg64
(lp1667
g57
(g58
g59
NtRp1668
(dp1669
g62
(dp1670
g70
I3
ssg71
g1664
sg64
(lp1671
S'99'
p1672
asbasbasbag57
(g73
g59
NtRp1673
(dp1674
g62
(dp1675
sg71
g1644
sg64
(lp1676
g57
(g78
g59
NtRp1677
(dp1678
g62
(dp1679
sg71
g1673
sg64
(lp1680
g57
(g58
g59
NtRp1681
(dp1682
g62
(dp1683
g70
I3
ssg71
g1677
sg64
(lp1684
S'4'
asbasbasbag57
(g73
g59
NtRp1685
(dp1686
g62
(dp1687
sg71
g1644
sg64
(lp1688
g57
(g78
g59
NtRp1689
(dp1690
g62
(dp1691
sg71
g1685
sg64
(lp1692
g57
(g58
g59
NtRp1693
(dp1694
g62
(dp1695
g70
I3
ssg71
g1689
sg64
(lp1696
S'datetime.datetime(2011, 12, 14, 14, 46, 14)'
p1697
asbasbasbag57
(g73
g59
NtRp1698
(dp1699
g62
(dp1700
sg71
g1644
sg64
(lp1701
g57
(g78
g59
NtRp1702
(dp1703
g62
(dp1704
sg71
g1698
sg64
(lp1705
g57
(g58
g59
NtRp1706
(dp1707
g62
(dp1708
g70
I3
ssg71
g1702
sg64
(lp1709
S'stable'
p1710
asbasbasbasbasbasbasbag57
(g73
g59
NtRp1711
(dp1712
g62
(dp1713
sg71
g1007
sg64
(lp1714
g57
(g78
g59
NtRp1715
(dp1716
g62
(dp1717
g82
g83
ssg71
g1711
sg64
(lp1718
S'wsgi_errors'
p1719
asbag57
(g78
g59
NtRp1720
(dp1721
g62
(dp1722
g89
g90
ssg71
g1711
sg64
(lp1723
S':'
asbag57
(g78
g59
NtRp1724
(dp1725
g62
(dp1726
sg71
g1711
sg64
(lp1727
g57
(g58
g59
NtRp1728
(dp1729
g62
(dp1730
g70
I4
ssg71
g1724
sg64
(lp1731
S"<open file '<stderr>', mode 'w' at 0x7fdcbd2a5270>"
p1732
asbasbasbag57
(g73
g59
NtRp1733
(dp1734
g62
(dp1735
sg71
g1007
sg64
(lp1736
g57
(g78
g59
NtRp1737
(dp1738
g62
(dp1739
g82
g83
ssg71
g1733
sg64
(lp1740
S'wsgi_file_wrapper'
p1741
asbag57
(g78
g59
NtRp1742
(dp1743
g62
(dp1744
g89
g90
ssg71
g1733
sg64
(lp1745
S':'
asbag57
(g78
g59
NtRp1746
(dp1747
g62
(dp1748
sg71
g1733
sg64
(lp1749
g57
(g58
g59
NtRp1750
(dp1751
g62
(dp1752
g70
I4
ssg71
g1746
sg64
(lp1753
S'<class wsgiref.util.FileWrapper at 0x13a8ce8>'
p1754
asbasbasbag57
(g73
g59
NtRp1755
(dp1756
g62
(dp1757
sg71
g1007
sg64
(lp1758
g57
(g78
g59
NtRp1759
(dp1760
g62
(dp1761
g82
g83
ssg71
g1755
sg64
(lp1762
S'wsgi_input'
p1763
asbag57
(g78
g59
NtRp1764
(dp1765
g62
(dp1766
g89
g90
ssg71
g1755
sg64
(lp1767
S':'
asbag57
(g78
g59
NtRp1768
(dp1769
g62
(dp1770
sg71
g1755
sg64
(lp1771
g57
(g58
g59
NtRp1772
(dp1773
g62
(dp1774
g70
I4
ssg71
g1768
sg64
(lp1775
S'<socket._fileobject object at 0x7fdca01be650>'
p1776
asbasbasbag57
(g73
g59
NtRp1777
(dp1778
g62
(dp1779
sg71
g1007
sg64
(lp1780
g57
(g78
g59
NtRp1781
(dp1782
g62
(dp1783
g82
g83
ssg71
g1777
sg64
(lp1784
S'wsgi_multiprocess'
p1785
asbag57
(g78
g59
NtRp1786
(dp1787
g62
(dp1788
g89
g90
ssg71
g1777
sg64
(lp1789
S':'
asbag57
(g78
g59
NtRp1790
(dp1791
g62
(dp1792
sg71
g1777
sg64
(lp1793
g57
(g58
g59
NtRp1794
(dp1795
g62
(dp1796
g70
I4
ssg71
g1790
sg64
(lp1797
g100
asbasbasbag57
(g73
g59
NtRp1798
(dp1799
g62
(dp1800
sg71
g1007
sg64
(lp1801
g57
(g78
g59
NtRp1802
(dp1803
g62
(dp1804
g82
g83
ssg71
g1798
sg64
(lp1805
S'wsgi_multithread'
p1806
asbag57
(g78
g59
NtRp1807
(dp1808
g62
(dp1809
g89
g90
ssg71
g1798
sg64
(lp1810
S':'
asbag57
(g78
g59
NtRp1811
(dp1812
g62
(dp1813
sg71
g1798
sg64
(lp1814
g57
(g58
g59
NtRp1815
(dp1816
g62
(dp1817
g70
I4
ssg71
g1811
sg64
(lp1818
S'True'
p1819
asbasbasbag57
(g73
g59
NtRp1820
(dp1821
g62
(dp1822
sg71
g1007
sg64
(lp1823
g57
(g78
g59
NtRp1824
(dp1825
g62
(dp1826
g82
g83
ssg71
g1820
sg64
(lp1827
S'wsgi_run_once'
p1828
asbag57
(g78
g59
NtRp1829
(dp1830
g62
(dp1831
g89
g90
ssg71
g1820
sg64
(lp1832
S':'
asbag57
(g78
g59
NtRp1833
(dp1834
g62
(dp1835
sg71
g1820
sg64
(lp1836
g57
(g58
g59
NtRp1837
(dp1838
g62
(dp1839
g70
I4
ssg71
g1833
sg64
(lp1840
g100
asbasbasbag57
(g73
g59
NtRp1841
(dp1842
g62
(dp1843
sg71
g1007
sg64
(lp1844
g57
(g78
g59
NtRp1845
(dp1846
g62
(dp1847
g82
g83
ssg71
g1841
sg64
(lp1848
S'wsgi_url_scheme'
p1849
asbag57
(g78
g59
NtRp1850
(dp1851
g62
(dp1852
g89
g90
ssg71
g1841
sg64
(lp1853
S':'
asbag57
(g78
g59
NtRp1854
(dp1855
g62
(dp1856
sg71
g1841
sg64
(lp1857
g57
(g58
g59
NtRp1858
(dp1859
g62
(dp1860
g70
I4
ssg71
g1854
sg64
(lp1861
S'http'
p1862
asbasbasbag57
(g73
g59
NtRp1863
(dp1864
g62
(dp1865
sg71
g1007
sg64
(lp1866
g57
(g78
g59
NtRp1867
(dp1868
g62
(dp1869
g82
g83
ssg71
g1863
sg64
(lp1870
S'wsgi_version'
p1871
asbag57
(g78
g59
NtRp1872
(dp1873
g62
(dp1874
g89
g90
ssg71
g1863
sg64
(lp1875
S':'
asbag57
(g78
g59
NtRp1876
(dp1877
g62
(dp1878
sg71
g1863
sg64
(lp1879
g57
(g58
g59
NtRp1880
(dp1881
g62
(dp1882
g70
I4
ssg71
g1876
sg64
(lp1883
g57
(g66
g59
NtRp1884
(dp1885
g62
(dp1886
g70
I3
ssg71
Nsg64
(lp1887
g57
(g73
g59
NtRp1888
(dp1889
g62
(dp1890
sg71
g1884
sg64
(lp1891
g57
(g78
g59
NtRp1892
(dp1893
g62
(dp1894
sg71
g1888
sg64
(lp1895
g57
(g58
g59
NtRp1896
(dp1897
g62
(dp1898
g70
I3
ssg71
g1892
sg64
(lp1899
S'1'
asbasbasbag57
(g73
g59
NtRp1900
(dp1901
g62
(dp1902
sg71
g1884
sg64
(lp1903
g57
(g78
g59
NtRp1904
(dp1905
g62
(dp1906
sg71
g1900
sg64
(lp1907
g57
(g58
g59
NtRp1908
(dp1909
g62
(dp1910
g70
I3
ssg71
g1904
sg64
(lp1911
S'0'
asbasbasbasbasbasbasbasbasbasbasbag57
(g73
g59
NtRp1912
(dp1913
g62
(dp1914
sg71
g67
sg64
(lp1915
g57
(g78
g59
NtRp1916
(dp1917
g62
(dp1918
g82
g83
ssg71
g1912
sg64
(lp1919
S'extension'
p1920
asbag57
(g78
g59
NtRp1921
(dp1922
g62
(dp1923
g89
g90
ssg71
g1912
sg64
(lp1924
S':'
asbag57
(g78
g59
NtRp1925
(dp1926
g62
(dp1927
sg71
g1912
sg64
(lp1928
g57
(g58
g59
NtRp1929
(dp1930
g62
(dp1931
g70
I5
ssg71
g1925
sg64
(lp1932
S'html'
p1933
asbasbasbag57
(g73
g59
NtRp1934
(dp1935
g62
(dp1936
sg71
g67
sg64
(lp1937
g57
(g78
g59
NtRp1938
(dp1939
g62
(dp1940
g82
g83
ssg71
g1934
sg64
(lp1941
S'folder'
p1942
asbag57
(g78
g59
NtRp1943
(dp1944
g62
(dp1945
g89
g90
ssg71
g1934
sg64
(lp1946
S':'
asbag57
(g78
g59
NtRp1947
(dp1948
g62
(dp1949
sg71
g1934
sg64
(lp1950
g57
(g58
g59
NtRp1951
(dp1952
g62
(dp1953
g70
I5
ssg71
g1947
sg64
(lp1954
S'/home/ian/web/web2py/applications/grammateus3/'
p1955
asbasbasbag57
(g73
g59
NtRp1956
(dp1957
g62
(dp1958
sg71
g67
sg64
(lp1959
g57
(g78
g59
NtRp1960
(dp1961
g62
(dp1962
g82
g83
ssg71
g1956
sg64
(lp1963
S'function'
p1964
asbag57
(g78
g59
NtRp1965
(dp1966
g62
(dp1967
g89
g90
ssg71
g1956
sg64
(lp1968
S':'
asbag57
(g78
g59
NtRp1969
(dp1970
g62
(dp1971
sg71
g1956
sg64
(lp1972
g57
(g58
g59
NtRp1973
(dp1974
g62
(dp1975
g70
I5
ssg71
g1969
sg64
(lp1976
S'index'
p1977
asbasbasbag57
(g73
g59
NtRp1978
(dp1979
g62
(dp1980
sg71
g67
sg64
(lp1981
g57
(g78
g59
NtRp1982
(dp1983
g62
(dp1984
g82
g83
ssg71
g1978
sg64
(lp1985
S'get_vars'
p1986
asbag57
(g78
g59
NtRp1987
(dp1988
g62
(dp1989
g89
g90
ssg71
g1978
sg64
(lp1990
S':'
asbag57
(g78
g59
NtRp1991
(dp1992
g62
(dp1993
sg71
g1978
sg64
(lp1994
g57
(g58
g59
NtRp1995
(dp1996
g62
(dp1997
g70
I5
ssg71
g1991
sg64
(lp1998
g57
(g66
g59
NtRp1999
(dp2000
g62
(dp2001
g70
I4
ssg71
Nsg64
(lp2002
sbasbasbasbag57
(g73
g59
NtRp2003
(dp2004
g62
(dp2005
sg71
g67
sg64
(lp2006
g57
(g78
g59
NtRp2007
(dp2008
g62
(dp2009
g82
g83
ssg71
g2003
sg64
(lp2010
S'global_settings'
p2011
asbag57
(g78
g59
NtRp2012
(dp2013
g62
(dp2014
g89
g90
ssg71
g2003
sg64
(lp2015
S':'
asbag57
(g78
g59
NtRp2016
(dp2017
g62
(dp2018
sg71
g2003
sg64
(lp2019
g57
(g58
g59
NtRp2020
(dp2021
g62
(dp2022
g70
I5
ssg71
g2016
sg64
(lp2023
g57
(g66
g59
NtRp2024
(dp2025
g62
(dp2026
g70
I4
ssg71
Nsg64
(lp2027
g57
(g73
g59
NtRp2028
(dp2029
g62
(dp2030
sg71
g2024
sg64
(lp2031
g57
(g78
g59
NtRp2032
(dp2033
g62
(dp2034
g82
g83
ssg71
g2028
sg64
(lp2035
g1019
asbag57
(g78
g59
NtRp2036
(dp2037
g62
(dp2038
g89
g90
ssg71
g2028
sg64
(lp2039
S':'
asbag57
(g78
g59
NtRp2040
(dp2041
g62
(dp2042
sg71
g2028
sg64
(lp2043
g57
(g58
g59
NtRp2044
(dp2045
g62
(dp2046
g70
I4
ssg71
g2040
sg64
(lp2047
S"set(['/home/ian/web/web2py/applications/welcome/', '/home/ian/web/web2py/applications/grammateus3/'])"
p2048
asbasbasbag57
(g73
g59
NtRp2049
(dp2050
g62
(dp2051
sg71
g2024
sg64
(lp2052
g57
(g78
g59
NtRp2053
(dp2054
g62
(dp2055
g82
g83
ssg71
g2049
sg64
(lp2056
g1041
asbag57
(g78
g59
NtRp2057
(dp2058
g62
(dp2059
g89
g90
ssg71
g2049
sg64
(lp2060
S':'
asbag57
(g78
g59
NtRp2061
(dp2062
g62
(dp2063
sg71
g2049
sg64
(lp2064
g57
(g58
g59
NtRp2065
(dp2066
g62
(dp2067
g70
I4
ssg71
g2061
sg64
(lp2068
g1054
asbasbasbag57
(g73
g59
NtRp2069
(dp2070
g62
(dp2071
sg71
g2024
sg64
(lp2072
g57
(g78
g59
NtRp2073
(dp2074
g62
(dp2075
g82
g83
ssg71
g2069
sg64
(lp2076
g1063
asbag57
(g78
g59
NtRp2077
(dp2078
g62
(dp2079
g89
g90
ssg71
g2069
sg64
(lp2080
S':'
asbag57
(g78
g59
NtRp2081
(dp2082
g62
(dp2083
sg71
g2069
sg64
(lp2084
g57
(g58
g59
NtRp2085
(dp2086
g62
(dp2087
g70
I4
ssg71
g2081
sg64
(lp2088
g57
(g66
g59
NtRp2089
(dp2090
g62
(dp2091
g70
I3
ssg71
Nsg64
(lp2092
sbasbasbasbag57
(g73
g59
NtRp2093
(dp2094
g62
(dp2095
sg71
g2024
sg64
(lp2096
g57
(g78
g59
NtRp2097
(dp2098
g62
(dp2099
g82
g83
ssg71
g2093
sg64
(lp2100
g1088
asbag57
(g78
g59
NtRp2101
(dp2102
g62
(dp2103
g89
g90
ssg71
g2093
sg64
(lp2104
S':'
asbag57
(g78
g59
NtRp2105
(dp2106
g62
(dp2107
sg71
g2093
sg64
(lp2108
g57
(g58
g59
NtRp2109
(dp2110
g62
(dp2111
g70
I4
ssg71
g2105
sg64
(lp2112
S"<Values at 0x14dd710: {'verbose': False, 'ip': '127.0.0.1', 'shutdown_timeout': 5, 'taskbar': False, 'nocron': False, 'pid_filename': 'httpserver.pid', 'maxthreads': None, 'softcron': False, 'server_name': 'Ariel-ubuntu', 'bpython': False, 'nogui': False, 'port': 8000, 'extcron': False, 'debuglevel': 30, 'test': None, 'folder': '/home/ian/web/web2py', 'config': '', 'import_models': False, 'winservice': '', 'shell': None, 'run': '', 'log_filename': 'httpserver.log', 'args': [''], 'socket_timeout': 1, 'ssl_ca_certificate': None, 'scheduler': None, 'profiler_filename': None, 'ssl_private_key': '', 'password': '<ask>', 'request_queue_size': 5, 'ssl_certificate': '', 'cronjob': False, 'numthreads': None, 'quiet': False, 'interfaces': None, 'minthreads': None, 'timeout': 10, 'plain': False, 'nobanner': False}>"
p2113
asbasbasbag57
(g73
g59
NtRp2114
(dp2115
g62
(dp2116
sg71
g2024
sg64
(lp2117
g57
(g78
g59
NtRp2118
(dp2119
g62
(dp2120
g82
g83
ssg71
g2114
sg64
(lp2121
g1110
asbag57
(g78
g59
NtRp2122
(dp2123
g62
(dp2124
g89
g90
ssg71
g2114
sg64
(lp2125
S':'
asbag57
(g78
g59
NtRp2126
(dp2127
g62
(dp2128
sg71
g2114
sg64
(lp2129
g57
(g58
g59
NtRp2130
(dp2131
g62
(dp2132
g70
I4
ssg71
g2126
sg64
(lp2133
S'set([])'
p2134
asbasbasbag57
(g73
g59
NtRp2135
(dp2136
g62
(dp2137
sg71
g2024
sg64
(lp2138
g57
(g78
g59
NtRp2139
(dp2140
g62
(dp2141
g82
g83
ssg71
g2135
sg64
(lp2142
g1132
asbag57
(g78
g59
NtRp2143
(dp2144
g62
(dp2145
g89
g90
ssg71
g2135
sg64
(lp2146
S':'
asbag57
(g78
g59
NtRp2147
(dp2148
g62
(dp2149
sg71
g2135
sg64
(lp2150
g57
(g58
g59
NtRp2151
(dp2152
g62
(dp2153
g70
I4
ssg71
g2147
sg64
(lp2154
g100
asbasbasbag57
(g73
g59
NtRp2155
(dp2156
g62
(dp2157
sg71
g2024
sg64
(lp2158
g57
(g78
g59
NtRp2159
(dp2160
g62
(dp2161
g82
g83
ssg71
g2155
sg64
(lp2162
g1153
asbag57
(g78
g59
NtRp2163
(dp2164
g62
(dp2165
g89
g90
ssg71
g2155
sg64
(lp2166
S':'
asbag57
(g78
g59
NtRp2167
(dp2168
g62
(dp2169
sg71
g2155
sg64
(lp2170
g57
(g58
g59
NtRp2171
(dp2172
g62
(dp2173
g70
I4
ssg71
g2167
sg64
(lp2174
g1166
asbasbasbag57
(g73
g59
NtRp2175
(dp2176
g62
(dp2177
sg71
g2024
sg64
(lp2178
g57
(g78
g59
NtRp2179
(dp2180
g62
(dp2181
g82
g83
ssg71
g2175
sg64
(lp2182
g1329
asbag57
(g78
g59
NtRp2183
(dp2184
g62
(dp2185
g89
g90
ssg71
g2175
sg64
(lp2186
S':'
asbag57
(g78
g59
NtRp2187
(dp2188
g62
(dp2189
sg71
g2175
sg64
(lp2190
g57
(g58
g59
NtRp2191
(dp2192
g62
(dp2193
g70
I4
ssg71
g2187
sg64
(lp2194
g100
asbasbasbag57
(g73
g59
NtRp2195
(dp2196
g62
(dp2197
sg71
g2024
sg64
(lp2198
g57
(g78
g59
NtRp2199
(dp2200
g62
(dp2201
g82
g83
ssg71
g2195
sg64
(lp2202
g1350
asbag57
(g78
g59
NtRp2203
(dp2204
g62
(dp2205
g89
g90
ssg71
g2195
sg64
(lp2206
S':'
asbag57
(g78
g59
NtRp2207
(dp2208
g62
(dp2209
sg71
g2195
sg64
(lp2210
g57
(g58
g59
NtRp2211
(dp2212
g62
(dp2213
g70
I4
ssg71
g2207
sg64
(lp2214
g100
asbasbasbag57
(g73
g59
NtRp2215
(dp2216
g62
(dp2217
sg71
g2024
sg64
(lp2218
g57
(g78
g59
NtRp2219
(dp2220
g62
(dp2221
g82
g83
ssg71
g2215
sg64
(lp2222
g1588
asbag57
(g78
g59
NtRp2223
(dp2224
g62
(dp2225
g89
g90
ssg71
g2215
sg64
(lp2226
S':'
asbag57
(g78
g59
NtRp2227
(dp2228
g62
(dp2229
sg71
g2215
sg64
(lp2230
g57
(g58
g59
NtRp2231
(dp2232
g62
(dp2233
g70
I4
ssg71
g2227
sg64
(lp2234
g1601
asbasbasbag57
(g73
g59
NtRp2235
(dp2236
g62
(dp2237
sg71
g2024
sg64
(lp2238
g57
(g78
g59
NtRp2239
(dp2240
g62
(dp2241
g82
g83
ssg71
g2235
sg64
(lp2242
g1631
asbag57
(g78
g59
NtRp2243
(dp2244
g62
(dp2245
g89
g90
ssg71
g2235
sg64
(lp2246
S':'
asbag57
(g78
g59
NtRp2247
(dp2248
g62
(dp2249
sg71
g2235
sg64
(lp2250
g57
(g58
g59
NtRp2251
(dp2252
g62
(dp2253
g70
I4
ssg71
g2247
sg64
(lp2254
g57
(g66
g59
NtRp2255
(dp2256
g62
(dp2257
g70
I3
ssg71
Nsg64
(lp2258
g57
(g73
g59
NtRp2259
(dp2260
g62
(dp2261
sg71
g2255
sg64
(lp2262
g57
(g78
g59
NtRp2263
(dp2264
g62
(dp2265
sg71
g2259
sg64
(lp2266
g57
(g58
g59
NtRp2267
(dp2268
g62
(dp2269
g70
I3
ssg71
g2263
sg64
(lp2270
S'1'
asbasbasbag57
(g73
g59
NtRp2271
(dp2272
g62
(dp2273
sg71
g2255
sg64
(lp2274
g57
(g78
g59
NtRp2275
(dp2276
g62
(dp2277
sg71
g2271
sg64
(lp2278
g57
(g58
g59
NtRp2279
(dp2280
g62
(dp2281
g70
I3
ssg71
g2275
sg64
(lp2282
S'99'
p2283
asbasbasbag57
(g73
g59
NtRp2284
(dp2285
g62
(dp2286
sg71
g2255
sg64
(lp2287
g57
(g78
g59
NtRp2288
(dp2289
g62
(dp2290
sg71
g2284
sg64
(lp2291
g57
(g58
g59
NtRp2292
(dp2293
g62
(dp2294
g70
I3
ssg71
g2288
sg64
(lp2295
S'4'
asbasbasbag57
(g73
g59
NtRp2296
(dp2297
g62
(dp2298
sg71
g2255
sg64
(lp2299
g57
(g78
g59
NtRp2300
(dp2301
g62
(dp2302
sg71
g2296
sg64
(lp2303
g57
(g58
g59
NtRp2304
(dp2305
g62
(dp2306
g70
I3
ssg71
g2300
sg64
(lp2307
S'datetime.datetime(2011, 12, 14, 14, 46, 14)'
p2308
asbasbasbag57
(g73
g59
NtRp2309
(dp2310
g62
(dp2311
sg71
g2255
sg64
(lp2312
g57
(g78
g59
NtRp2313
(dp2314
g62
(dp2315
sg71
g2309
sg64
(lp2316
g57
(g58
g59
NtRp2317
(dp2318
g62
(dp2319
g70
I3
ssg71
g2313
sg64
(lp2320
g1710
asbasbasbasbasbasbasbasbasbasbasbag57
(g73
g59
NtRp2321
(dp2322
g62
(dp2323
sg71
g67
sg64
(lp2324
g57
(g78
g59
NtRp2325
(dp2326
g62
(dp2327
g82
g83
ssg71
g2321
sg64
(lp2328
S'is_https'
p2329
asbag57
(g78
g59
NtRp2330
(dp2331
g62
(dp2332
g89
g90
ssg71
g2321
sg64
(lp2333
S':'
asbag57
(g78
g59
NtRp2334
(dp2335
g62
(dp2336
sg71
g2321
sg64
(lp2337
g57
(g58
g59
NtRp2338
(dp2339
g62
(dp2340
g70
I5
ssg71
g2334
sg64
(lp2341
g100
asbasbasbag57
(g73
g59
NtRp2342
(dp2343
g62
(dp2344
sg71
g67
sg64
(lp2345
g57
(g78
g59
NtRp2346
(dp2347
g62
(dp2348
g82
g83
ssg71
g2342
sg64
(lp2349
S'is_local'
p2350
asbag57
(g78
g59
NtRp2351
(dp2352
g62
(dp2353
g89
g90
ssg71
g2342
sg64
(lp2354
S':'
asbag57
(g78
g59
NtRp2355
(dp2356
g62
(dp2357
sg71
g2342
sg64
(lp2358
g57
(g58
g59
NtRp2359
(dp2360
g62
(dp2361
g70
I5
ssg71
g2355
sg64
(lp2362
g1819
asbasbasbag57
(g73
g59
NtRp2363
(dp2364
g62
(dp2365
sg71
g67
sg64
(lp2366
g57
(g78
g59
NtRp2367
(dp2368
g62
(dp2369
g82
g83
ssg71
g2363
sg64
(lp2370
S'is_restful'
p2371
asbag57
(g78
g59
NtRp2372
(dp2373
g62
(dp2374
g89
g90
ssg71
g2363
sg64
(lp2375
S':'
asbag57
(g78
g59
NtRp2376
(dp2377
g62
(dp2378
sg71
g2363
sg64
(lp2379
g57
(g58
g59
NtRp2380
(dp2381
g62
(dp2382
g70
I5
ssg71
g2376
sg64
(lp2383
g100
asbasbasbag57
(g73
g59
NtRp2384
(dp2385
g62
(dp2386
sg71
g67
sg64
(lp2387
g57
(g78
g59
NtRp2388
(dp2389
g62
(dp2390
g82
g83
ssg71
g2384
sg64
(lp2391
S'now'
p2392
asbag57
(g78
g59
NtRp2393
(dp2394
g62
(dp2395
g89
g90
ssg71
g2384
sg64
(lp2396
S':'
asbag57
(g78
g59
NtRp2397
(dp2398
g62
(dp2399
sg71
g2384
sg64
(lp2400
g57
(g58
g59
NtRp2401
(dp2402
g62
(dp2403
g70
I5
ssg71
g2397
sg64
(lp2404
S'datetime.datetime(2012, 3, 7, 9, 33, 59, 481260)'
p2405
asbasbasbag57
(g73
g59
NtRp2406
(dp2407
g62
(dp2408
sg71
g67
sg64
(lp2409
g57
(g78
g59
NtRp2410
(dp2411
g62
(dp2412
g82
g83
ssg71
g2406
sg64
(lp2413
S'post_vars'
p2414
asbag57
(g78
g59
NtRp2415
(dp2416
g62
(dp2417
g89
g90
ssg71
g2406
sg64
(lp2418
S':'
asbag57
(g78
g59
NtRp2419
(dp2420
g62
(dp2421
sg71
g2406
sg64
(lp2422
g57
(g58
g59
NtRp2423
(dp2424
g62
(dp2425
g70
I5
ssg71
g2419
sg64
(lp2426
g57
(g66
g59
NtRp2427
(dp2428
g62
(dp2429
g70
I4
ssg71
Nsg64
(lp2430
sbasbasbasbag57
(g73
g59
NtRp2431
(dp2432
g62
(dp2433
sg71
g67
sg64
(lp2434
g57
(g78
g59
NtRp2435
(dp2436
g62
(dp2437
g82
g83
ssg71
g2431
sg64
(lp2438
S'url'
p2439
asbag57
(g78
g59
NtRp2440
(dp2441
g62
(dp2442
g89
g90
ssg71
g2431
sg64
(lp2443
S':'
asbag57
(g78
g59
NtRp2444
(dp2445
g62
(dp2446
sg71
g2431
sg64
(lp2447
g57
(g58
g59
NtRp2448
(dp2449
g62
(dp2450
g70
I5
ssg71
g2444
sg64
(lp2451
S'/grammateus3/docs/index'
p2452
asbasbasbag57
(g73
g59
NtRp2453
(dp2454
g62
(dp2455
sg71
g67
sg64
(lp2456
g57
(g78
g59
NtRp2457
(dp2458
g62
(dp2459
g82
g83
ssg71
g2453
sg64
(lp2460
S'utcnow'
p2461
asbag57
(g78
g59
NtRp2462
(dp2463
g62
(dp2464
g89
g90
ssg71
g2453
sg64
(lp2465
S':'
asbag57
(g78
g59
NtRp2466
(dp2467
g62
(dp2468
sg71
g2453
sg64
(lp2469
g57
(g58
g59
NtRp2470
(dp2471
g62
(dp2472
g70
I5
ssg71
g2466
sg64
(lp2473
S'datetime.datetime(2012, 3, 7, 14, 33, 59, 481304)'
p2474
asbasbasbag57
(g73
g59
NtRp2475
(dp2476
g62
(dp2477
sg71
g67
sg64
(lp2478
g57
(g78
g59
NtRp2479
(dp2480
g62
(dp2481
g82
g83
ssg71
g2475
sg64
(lp2482
S'uuid'
p2483
asbag57
(g78
g59
NtRp2484
(dp2485
g62
(dp2486
g89
g90
ssg71
g2475
sg64
(lp2487
S':'
asbag57
(g78
g59
NtRp2488
(dp2489
g62
(dp2490
sg71
g2475
sg64
(lp2491
g57
(g58
g59
NtRp2492
(dp2493
g62
(dp2494
g70
I5
ssg71
g2488
sg64
(lp2495
S'grammateus3/127.0.0.1.2012-03-07.09-33-59.9723b2a8-cb0d-4e64-ab45-01304bc70435'
p2496
asbasbasbag57
(g73
g59
NtRp2497
(dp2498
g62
(dp2499
sg71
g67
sg64
(lp2500
g57
(g78
g59
NtRp2501
(dp2502
g62
(dp2503
g82
g83
ssg71
g2497
sg64
(lp2504
S'vars'
p2505
asbag57
(g78
g59
NtRp2506
(dp2507
g62
(dp2508
g89
g90
ssg71
g2497
sg64
(lp2509
S':'
asbag57
(g78
g59
NtRp2510
(dp2511
g62
(dp2512
sg71
g2497
sg64
(lp2513
g57
(g58
g59
NtRp2514
(dp2515
g62
(dp2516
g70
I5
ssg71
g2510
sg64
(lp2517
g57
(g66
g59
NtRp2518
(dp2519
g62
(dp2520
g70
I4
ssg71
Nsg64
(lp2521
sbasbasbasbag57
(g73
g59
NtRp2522
(dp2523
g62
(dp2524
sg71
g67
sg64
(lp2525
g57
(g78
g59
NtRp2526
(dp2527
g62
(dp2528
g82
g83
ssg71
g2522
sg64
(lp2529
S'wsgi'
p2530
asbag57
(g78
g59
NtRp2531
(dp2532
g62
(dp2533
g89
g90
ssg71
g2522
sg64
(lp2534
S':'
asbag57
(g78
g59
NtRp2535
(dp2536
g62
(dp2537
sg71
g2522
sg64
(lp2538
g57
(g58
g59
NtRp2539
(dp2540
g62
(dp2541
g70
I5
ssg71
g2535
sg64
(lp2542
g57
(g66
g59
NtRp2543
(dp2544
g62
(dp2545
g70
I4
ssg71
Nsg64
(lp2546
g57
(g73
g59
NtRp2547
(dp2548
g62
(dp2549
sg71
g2543
sg64
(lp2550
g57
(g78
g59
NtRp2551
(dp2552
g62
(dp2553
g82
g83
ssg71
g2547
sg64
(lp2554
S'environ'
p2555
asbag57
(g78
g59
NtRp2556
(dp2557
g62
(dp2558
g89
g90
ssg71
g2547
sg64
(lp2559
S':'
asbag57
(g78
g59
NtRp2560
(dp2561
g62
(dp2562
sg71
g2547
sg64
(lp2563
g57
(g58
g59
NtRp2564
(dp2565
g62
(dp2566
g70
I4
ssg71
g2560
sg64
(lp2567
g57
(g66
g59
NtRp2568
(dp2569
g62
(dp2570
g70
I3
ssg71
Nsg64
(lp2571
g57
(g73
g59
NtRp2572
(dp2573
g62
(dp2574
sg71
g2568
sg64
(lp2575
g57
(g78
g59
NtRp2576
(dp2577
g62
(dp2578
g82
g83
ssg71
g2572
sg64
(lp2579
S'HTTP_ACCEPT'
p2580
asbag57
(g78
g59
NtRp2581
(dp2582
g62
(dp2583
g89
g90
ssg71
g2572
sg64
(lp2584
S':'
asbag57
(g78
g59
NtRp2585
(dp2586
g62
(dp2587
sg71
g2572
sg64
(lp2588
g57
(g58
g59
NtRp2589
(dp2590
g62
(dp2591
g70
I3
ssg71
g2585
sg64
(lp2592
g1188
asbasbasbag57
(g73
g59
NtRp2593
(dp2594
g62
(dp2595
sg71
g2568
sg64
(lp2596
g57
(g78
g59
NtRp2597
(dp2598
g62
(dp2599
g82
g83
ssg71
g2593
sg64
(lp2600
S'HTTP_ACCEPT_ENCODING'
p2601
asbag57
(g78
g59
NtRp2602
(dp2603
g62
(dp2604
g89
g90
ssg71
g2593
sg64
(lp2605
S':'
asbag57
(g78
g59
NtRp2606
(dp2607
g62
(dp2608
sg71
g2593
sg64
(lp2609
g57
(g58
g59
NtRp2610
(dp2611
g62
(dp2612
g70
I3
ssg71
g2606
sg64
(lp2613
g1210
asbasbasbag57
(g73
g59
NtRp2614
(dp2615
g62
(dp2616
sg71
g2568
sg64
(lp2617
g57
(g78
g59
NtRp2618
(dp2619
g62
(dp2620
g82
g83
ssg71
g2614
sg64
(lp2621
S'HTTP_ACCEPT_LANGUAGE'
p2622
asbag57
(g78
g59
NtRp2623
(dp2624
g62
(dp2625
g89
g90
ssg71
g2614
sg64
(lp2626
S':'
asbag57
(g78
g59
NtRp2627
(dp2628
g62
(dp2629
sg71
g2614
sg64
(lp2630
g57
(g58
g59
NtRp2631
(dp2632
g62
(dp2633
g70
I3
ssg71
g2627
sg64
(lp2634
g1232
asbasbasbag57
(g73
g59
NtRp2635
(dp2636
g62
(dp2637
sg71
g2568
sg64
(lp2638
g57
(g78
g59
NtRp2639
(dp2640
g62
(dp2641
g82
g83
ssg71
g2635
sg64
(lp2642
S'HTTP_CONNECTION'
p2643
asbag57
(g78
g59
NtRp2644
(dp2645
g62
(dp2646
g89
g90
ssg71
g2635
sg64
(lp2647
S':'
asbag57
(g78
g59
NtRp2648
(dp2649
g62
(dp2650
sg71
g2635
sg64
(lp2651
g57
(g58
g59
NtRp2652
(dp2653
g62
(dp2654
g70
I3
ssg71
g2648
sg64
(lp2655
g1254
asbasbasbag57
(g73
g59
NtRp2656
(dp2657
g62
(dp2658
sg71
g2568
sg64
(lp2659
g57
(g78
g59
NtRp2660
(dp2661
g62
(dp2662
g82
g83
ssg71
g2656
sg64
(lp2663
S'HTTP_COOKIE'
p2664
asbag57
(g78
g59
NtRp2665
(dp2666
g62
(dp2667
g89
g90
ssg71
g2656
sg64
(lp2668
S':'
asbag57
(g78
g59
NtRp2669
(dp2670
g62
(dp2671
sg71
g2656
sg64
(lp2672
g57
(g58
g59
NtRp2673
(dp2674
g62
(dp2675
g70
I3
ssg71
g2669
sg64
(lp2676
g1276
asbasbasbag57
(g73
g59
NtRp2677
(dp2678
g62
(dp2679
sg71
g2568
sg64
(lp2680
g57
(g78
g59
NtRp2681
(dp2682
g62
(dp2683
g82
g83
ssg71
g2677
sg64
(lp2684
S'HTTP_HOST'
p2685
asbag57
(g78
g59
NtRp2686
(dp2687
g62
(dp2688
g89
g90
ssg71
g2677
sg64
(lp2689
S':'
asbag57
(g78
g59
NtRp2690
(dp2691
g62
(dp2692
sg71
g2677
sg64
(lp2693
g57
(g58
g59
NtRp2694
(dp2695
g62
(dp2696
g70
I3
ssg71
g2690
sg64
(lp2697
g1298
asbasbasbag57
(g73
g59
NtRp2698
(dp2699
g62
(dp2700
sg71
g2568
sg64
(lp2701
g57
(g78
g59
NtRp2702
(dp2703
g62
(dp2704
g82
g83
ssg71
g2698
sg64
(lp2705
S'HTTP_USER_AGENT'
p2706
asbag57
(g78
g59
NtRp2707
(dp2708
g62
(dp2709
g89
g90
ssg71
g2698
sg64
(lp2710
S':'
asbag57
(g78
g59
NtRp2711
(dp2712
g62
(dp2713
sg71
g2698
sg64
(lp2714
g57
(g58
g59
NtRp2715
(dp2716
g62
(dp2717
g70
I3
ssg71
g2711
sg64
(lp2718
g1320
asbasbasbag57
(g73
g59
NtRp2719
(dp2720
g62
(dp2721
sg71
g2568
sg64
(lp2722
g57
(g78
g59
NtRp2723
(dp2724
g62
(dp2725
g82
g83
ssg71
g2719
sg64
(lp2726
S'PATH_INFO'
p2727
asbag57
(g78
g59
NtRp2728
(dp2729
g62
(dp2730
g89
g90
ssg71
g2719
sg64
(lp2731
S':'
asbag57
(g78
g59
NtRp2732
(dp2733
g62
(dp2734
sg71
g2719
sg64
(lp2735
g57
(g58
g59
NtRp2736
(dp2737
g62
(dp2738
g70
I3
ssg71
g2732
sg64
(lp2739
g1384
asbasbasbag57
(g73
g59
NtRp2740
(dp2741
g62
(dp2742
sg71
g2568
sg64
(lp2743
g57
(g78
g59
NtRp2744
(dp2745
g62
(dp2746
g82
g83
ssg71
g2740
sg64
(lp2747
S'QUERY_STRING'
p2748
asbag57
(g78
g59
NtRp2749
(dp2750
g62
(dp2751
g89
g90
ssg71
g2740
sg64
(lp2752
S':'
asbag57
(g78
g59
NtRp2753
(dp2754
g62
(dp2755
sg71
g2740
sg64
(lp2756
g57
(g58
g59
NtRp2757
(dp2758
g62
(dp2759
g70
I3
ssg71
g2753
sg64
(lp2760
S''
asbasbasbag57
(g73
g59
NtRp2761
(dp2762
g62
(dp2763
sg71
g2568
sg64
(lp2764
g57
(g78
g59
NtRp2765
(dp2766
g62
(dp2767
g82
g83
ssg71
g2761
sg64
(lp2768
S'REMOTE_ADDR'
p2769
asbag57
(g78
g59
NtRp2770
(dp2771
g62
(dp2772
g89
g90
ssg71
g2761
sg64
(lp2773
S':'
asbag57
(g78
g59
NtRp2774
(dp2775
g62
(dp2776
sg71
g2761
sg64
(lp2777
g57
(g58
g59
NtRp2778
(dp2779
g62
(dp2780
g70
I3
ssg71
g2774
sg64
(lp2781
g190
asbasbasbag57
(g73
g59
NtRp2782
(dp2783
g62
(dp2784
sg71
g2568
sg64
(lp2785
g57
(g78
g59
NtRp2786
(dp2787
g62
(dp2788
g82
g83
ssg71
g2782
sg64
(lp2789
S'REMOTE_PORT'
p2790
asbag57
(g78
g59
NtRp2791
(dp2792
g62
(dp2793
g89
g90
ssg71
g2782
sg64
(lp2794
S':'
asbag57
(g78
g59
NtRp2795
(dp2796
g62
(dp2797
sg71
g2782
sg64
(lp2798
g57
(g58
g59
NtRp2799
(dp2800
g62
(dp2801
g70
I3
ssg71
g2795
sg64
(lp2802
g1448
asbasbasbag57
(g73
g59
NtRp2803
(dp2804
g62
(dp2805
sg71
g2568
sg64
(lp2806
g57
(g78
g59
NtRp2807
(dp2808
g62
(dp2809
g82
g83
ssg71
g2803
sg64
(lp2810
S'REQUEST_METHOD'
p2811
asbag57
(g78
g59
NtRp2812
(dp2813
g62
(dp2814
g89
g90
ssg71
g2803
sg64
(lp2815
S':'
asbag57
(g78
g59
NtRp2816
(dp2817
g62
(dp2818
sg71
g2803
sg64
(lp2819
g57
(g58
g59
NtRp2820
(dp2821
g62
(dp2822
g70
I3
ssg71
g2816
sg64
(lp2823
g1470
asbasbasbag57
(g73
g59
NtRp2824
(dp2825
g62
(dp2826
sg71
g2568
sg64
(lp2827
g57
(g78
g59
NtRp2828
(dp2829
g62
(dp2830
g82
g83
ssg71
g2824
sg64
(lp2831
S'SCRIPT_NAME'
p2832
asbag57
(g78
g59
NtRp2833
(dp2834
g62
(dp2835
g89
g90
ssg71
g2824
sg64
(lp2836
S':'
asbag57
(g78
g59
NtRp2837
(dp2838
g62
(dp2839
sg71
g2824
sg64
(lp2840
g57
(g58
g59
NtRp2841
(dp2842
g62
(dp2843
g70
I3
ssg71
g2837
sg64
(lp2844
S''
asbasbasbag57
(g73
g59
NtRp2845
(dp2846
g62
(dp2847
sg71
g2568
sg64
(lp2848
g57
(g78
g59
NtRp2849
(dp2850
g62
(dp2851
g82
g83
ssg71
g2845
sg64
(lp2852
S'SERVER_NAME'
p2853
asbag57
(g78
g59
NtRp2854
(dp2855
g62
(dp2856
g89
g90
ssg71
g2845
sg64
(lp2857
S':'
asbag57
(g78
g59
NtRp2858
(dp2859
g62
(dp2860
sg71
g2845
sg64
(lp2861
g57
(g58
g59
NtRp2862
(dp2863
g62
(dp2864
g70
I3
ssg71
g2858
sg64
(lp2865
g1513
asbasbasbag57
(g73
g59
NtRp2866
(dp2867
g62
(dp2868
sg71
g2568
sg64
(lp2869
g57
(g78
g59
NtRp2870
(dp2871
g62
(dp2872
g82
g83
ssg71
g2866
sg64
(lp2873
S'SERVER_PORT'
p2874
asbag57
(g78
g59
NtRp2875
(dp2876
g62
(dp2877
g89
g90
ssg71
g2866
sg64
(lp2878
S':'
asbag57
(g78
g59
NtRp2879
(dp2880
g62
(dp2881
sg71
g2866
sg64
(lp2882
g57
(g58
g59
NtRp2883
(dp2884
g62
(dp2885
g70
I3
ssg71
g2879
sg64
(lp2886
g1535
asbasbasbag57
(g73
g59
NtRp2887
(dp2888
g62
(dp2889
sg71
g2568
sg64
(lp2890
g57
(g78
g59
NtRp2891
(dp2892
g62
(dp2893
g82
g83
ssg71
g2887
sg64
(lp2894
S'SERVER_PROTOCOL'
p2895
asbag57
(g78
g59
NtRp2896
(dp2897
g62
(dp2898
g89
g90
ssg71
g2887
sg64
(lp2899
S':'
asbag57
(g78
g59
NtRp2900
(dp2901
g62
(dp2902
sg71
g2887
sg64
(lp2903
g57
(g58
g59
NtRp2904
(dp2905
g62
(dp2906
g70
I3
ssg71
g2900
sg64
(lp2907
g1557
asbasbasbag57
(g73
g59
NtRp2908
(dp2909
g62
(dp2910
sg71
g2568
sg64
(lp2911
g57
(g78
g59
NtRp2912
(dp2913
g62
(dp2914
g82
g83
ssg71
g2908
sg64
(lp2915
S'SERVER_SOFTWARE'
p2916
asbag57
(g78
g59
NtRp2917
(dp2918
g62
(dp2919
g89
g90
ssg71
g2908
sg64
(lp2920
S':'
asbag57
(g78
g59
NtRp2921
(dp2922
g62
(dp2923
sg71
g2908
sg64
(lp2924
g57
(g58
g59
NtRp2925
(dp2926
g62
(dp2927
g70
I3
ssg71
g2921
sg64
(lp2928
g1579
asbasbasbag57
(g73
g59
NtRp2929
(dp2930
g62
(dp2931
sg71
g2568
sg64
(lp2932
g57
(g78
g59
NtRp2933
(dp2934
g62
(dp2935
g82
g83
ssg71
g2929
sg64
(lp2936
S'wsgi.errors'
p2937
asbag57
(g78
g59
NtRp2938
(dp2939
g62
(dp2940
g89
g90
ssg71
g2929
sg64
(lp2941
S':'
asbag57
(g78
g59
NtRp2942
(dp2943
g62
(dp2944
sg71
g2929
sg64
(lp2945
g57
(g58
g59
NtRp2946
(dp2947
g62
(dp2948
g70
I3
ssg71
g2942
sg64
(lp2949
S"<open file '<stderr>', mode 'w' at 0x7fdcbd2a5270>"
p2950
asbasbasbag57
(g73
g59
NtRp2951
(dp2952
g62
(dp2953
sg71
g2568
sg64
(lp2954
g57
(g78
g59
NtRp2955
(dp2956
g62
(dp2957
g82
g83
ssg71
g2951
sg64
(lp2958
S'wsgi.file_wrapper'
p2959
asbag57
(g78
g59
NtRp2960
(dp2961
g62
(dp2962
g89
g90
ssg71
g2951
sg64
(lp2963
S':'
asbag57
(g78
g59
NtRp2964
(dp2965
g62
(dp2966
sg71
g2951
sg64
(lp2967
g57
(g58
g59
NtRp2968
(dp2969
g62
(dp2970
g70
I3
ssg71
g2964
sg64
(lp2971
S'<class wsgiref.util.FileWrapper at 0x13a8ce8>'
p2972
asbasbasbag57
(g73
g59
NtRp2973
(dp2974
g62
(dp2975
sg71
g2568
sg64
(lp2976
g57
(g78
g59
NtRp2977
(dp2978
g62
(dp2979
g82
g83
ssg71
g2973
sg64
(lp2980
S'wsgi.input'
p2981
asbag57
(g78
g59
NtRp2982
(dp2983
g62
(dp2984
g89
g90
ssg71
g2973
sg64
(lp2985
S':'
asbag57
(g78
g59
NtRp2986
(dp2987
g62
(dp2988
sg71
g2973
sg64
(lp2989
g57
(g58
g59
NtRp2990
(dp2991
g62
(dp2992
g70
I3
ssg71
g2986
sg64
(lp2993
S'<cStringIO.StringO object at 0x7fdca02f1030>'
p2994
asbasbasbag57
(g73
g59
NtRp2995
(dp2996
g62
(dp2997
sg71
g2568
sg64
(lp2998
g57
(g78
g59
NtRp2999
(dp3000
g62
(dp3001
g82
g83
ssg71
g2995
sg64
(lp3002
S'wsgi.multiprocess'
p3003
asbag57
(g78
g59
NtRp3004
(dp3005
g62
(dp3006
g89
g90
ssg71
g2995
sg64
(lp3007
S':'
asbag57
(g78
g59
NtRp3008
(dp3009
g62
(dp3010
sg71
g2995
sg64
(lp3011
g57
(g58
g59
NtRp3012
(dp3013
g62
(dp3014
g70
I3
ssg71
g3008
sg64
(lp3015
g100
asbasbasbag57
(g73
g59
NtRp3016
(dp3017
g62
(dp3018
sg71
g2568
sg64
(lp3019
g57
(g78
g59
NtRp3020
(dp3021
g62
(dp3022
g82
g83
ssg71
g3016
sg64
(lp3023
S'wsgi.multithread'
p3024
asbag57
(g78
g59
NtRp3025
(dp3026
g62
(dp3027
g89
g90
ssg71
g3016
sg64
(lp3028
S':'
asbag57
(g78
g59
NtRp3029
(dp3030
g62
(dp3031
sg71
g3016
sg64
(lp3032
g57
(g58
g59
NtRp3033
(dp3034
g62
(dp3035
g70
I3
ssg71
g3029
sg64
(lp3036
g1819
asbasbasbag57
(g73
g59
NtRp3037
(dp3038
g62
(dp3039
sg71
g2568
sg64
(lp3040
g57
(g78
g59
NtRp3041
(dp3042
g62
(dp3043
g82
g83
ssg71
g3037
sg64
(lp3044
S'wsgi.run_once'
p3045
asbag57
(g78
g59
NtRp3046
(dp3047
g62
(dp3048
g89
g90
ssg71
g3037
sg64
(lp3049
S':'
asbag57
(g78
g59
NtRp3050
(dp3051
g62
(dp3052
sg71
g3037
sg64
(lp3053
g57
(g58
g59
NtRp3054
(dp3055
g62
(dp3056
g70
I3
ssg71
g3050
sg64
(lp3057
g100
asbasbasbag57
(g73
g59
NtRp3058
(dp3059
g62
(dp3060
sg71
g2568
sg64
(lp3061
g57
(g78
g59
NtRp3062
(dp3063
g62
(dp3064
g82
g83
ssg71
g3058
sg64
(lp3065
S'wsgi.url_scheme'
p3066
asbag57
(g78
g59
NtRp3067
(dp3068
g62
(dp3069
g89
g90
ssg71
g3058
sg64
(lp3070
S':'
asbag57
(g78
g59
NtRp3071
(dp3072
g62
(dp3073
sg71
g3058
sg64
(lp3074
g57
(g58
g59
NtRp3075
(dp3076
g62
(dp3077
g70
I3
ssg71
g3071
sg64
(lp3078
g1862
asbasbasbag57
(g73
g59
NtRp3079
(dp3080
g62
(dp3081
sg71
g2568
sg64
(lp3082
g57
(g78
g59
NtRp3083
(dp3084
g62
(dp3085
g82
g83
ssg71
g3079
sg64
(lp3086
S'wsgi.version'
p3087
asbag57
(g78
g59
NtRp3088
(dp3089
g62
(dp3090
g89
g90
ssg71
g3079
sg64
(lp3091
S':'
asbag57
(g78
g59
NtRp3092
(dp3093
g62
(dp3094
sg71
g3079
sg64
(lp3095
g57
(g58
g59
NtRp3096
(dp3097
g62
(dp3098
g70
I3
ssg71
g3092
sg64
(lp3099
S'1'
asbasbasbasbasbasbasbasbasbasbasbasbasbsS'frames'
p3100
(lp3101
(dp3102
S'file'
p3103
S'/home/ian/web/web2py/gluon/restricted.py'
p3104
sS'dump'
p3105
(dp3106
S'environment'
p3107
S"{'A': <class 'gluon.html.A'>, 'Auth': <class 'gluon.tools.Auth'>, 'B': <class 'gluon.html.B'>, 'BEAUTIFY': <class 'gluon.html.BEAUTIFY'>, 'BODY': <class 'gluon.html.BODY'>, 'BR': <class 'gluon.html.BR'>, 'BUTTON': <class 'gluon.html.BUTTON'>, 'BookParser': <class 'applications.grammateus3.modules.parse.BookParser'>, 'CAT': <class 'gluon.html.CAT'>, 'CENTER': <class 'gluon.html.CENTER'>, ...}"
p3108
sS'ccode'
p3109
S'<code object <module> at 0x7fdca01bb7b0, file "/...cations/grammateus3/controllers/docs.py", line 2>'
p3110
ssS'lnum'
p3111
I204
sS'lines'
p3112
(dp3113
I199
S'    try:'
p3114
sI200
S'        if type(code) == types.CodeType:'
p3115
sI201
S'            ccode = code'
p3116
sI202
S'        else:'
p3117
sI203
S'            ccode = compile2(code,layer)'
p3118
sI204
S'        exec ccode in environment'
p3119
sI205
S'    except HTTP:'
p3120
sI206
S'        raise'
p3121
sI207
S'    except RestrictedError:'
p3122
sI208
S'        # do not encapsulate (obfuscate) the original RestrictedError'
p3123
ssS'call'
p3124
S"(code='# coding: utf8\\nfrom lxml import etree\\n\\nfrom pars... = info)\\n\\nresponse._vars=response._caller(index)\\n', environment={'A': <class 'gluon.html.A'>, 'Auth': <class 'gluon.tools.Auth'>, 'B': <class 'gluon.html.B'>, 'BEAUTIFY': <class 'gluon.html.BEAUTIFY'>, 'BODY': <class 'gluon.html.BODY'>, 'BR': <class 'gluon.html.BR'>, 'BUTTON': <class 'gluon.html.BUTTON'>, 'BookParser': <class 'applications.grammateus3.modules.parse.BookParser'>, 'CAT': <class 'gluon.html.CAT'>, 'CENTER': <class 'gluon.html.CENTER'>, ...}, layer='/home/ian/web/web2py/applications/grammateus3/controllers/docs.py')"
p3125
sS'func'
p3126
S'restricted'
p3127
sa(dp3128
g3103
S'/home/ian/web/web2py/applications/grammateus3/controllers/docs.py'
p3129
sg3105
(dp3130
sg3111
I109
sg3112
(dp3131
I98
S"                print 'Version textstructure'"
p3132
sI99
S'                for ref, ref_val in value.items():'
p3133
sI100
S'                    for unit, unit_val in ref_val.items():'
p3134
sI101
S'                        for mss, mss_val in unit_val.items():'
p3135
sI102
S"                            print '\\t', ref, '-->', unit, '-->', mss, '-->', mss_val"
p3136
sI103
S"        print '************'"
p3137
sI104
S'    print'
p3138
sI105
S'    print'
p3139
sI106
S''
sI107
S'    return dict(title = title, info = info)'
p3140
ssg3124
S'()'
p3141
sg3126
S'<module>'
p3142
sa(dp3143
g3103
S'/home/ian/web/web2py/gluon/globals.py'
p3144
sg3105
(dp3145
S'self'
p3146
S'undefined'
p3147
sS'f'
S'<function index>'
p3148
ssg3111
I172
sg3112
(dp3149
I167
S'        self.meta = Storage()      # used by web2py_ajax.html'
p3150
sI168
S'        self.menu = []             # used by the default view layout'
p3151
sI169
S'        self.files = []            # used by web2py_ajax.html'
p3152
sI170
S'        self.generic_patterns = [] # patterns to allow generic views'
p3153
sI171
S'        self._vars = None'
p3154
sI172
S'        self._caller = lambda f: f()'
p3155
sI173
S'        self._view_environment = None'
p3156
sI174
S'        self._custom_commit = None'
p3157
sI175
S'        self._custom_rollback = None'
p3158
sI176
S''
ssg3124
S'(f=<function index>)'
p3159
sg3126
S'<lambda>'
p3160
sa(dp3161
g3103
S'/home/ian/web/web2py/applications/grammateus3/controllers/docs.py'
p3162
sg3105
(dp3163
S'global request'
p3164
S"<Storage {'body': <cStringIO.StringO object at 0..._vars': <Storage {}>, 'post_vars': <Storage {}>}>"
p3165
sS'request.args'
p3166
S'[]'
p3167
sS'filename'
p3168
g3147
ssg3111
I17
sg3112
(dp3169
I12
S'session.title -- string; title of current doc'
p3170
sI13
S'session.versions -- list; names of all versions in current doc'
p3171
sI14
S'"""'
p3172
sI15
S''
sI16
S'def index():'
p3173
sI17
S'    filename = request.args[0]'
p3174
sI18
S'    return dict(filename = filename)'
p3175
sI19
S''
sI20
S'def text():'
p3176
sI21
S'    filename = request.args[0]'
p3177
ssg3124
S'()'
p3178
sg3126
g1977
sasS'pyver'
p3179
S'Python 2.7.2+: /usr/bin/python2.7'
p3180
sS'session'
p3181
g57
(g58
g59
NtRp3182
(dp3183
g62
(dp3184
sg64
(lp3185
g57
(g66
g59
NtRp3186
(dp3187
g62
(dp3188
g70
I5
ssg71
Nsg64
(lp3189
sbasbsS'etype'
p3190
S"<type 'exceptions.IndexError'>"
p3191
sS'date'
p3192
S'Wed Mar  7 09:34:00 2012'
p3193
sS'response'
p3194
g57
(g58
g59
NtRp3195
(dp3196
g62
(dp3197
sg64
(lp3198
g57
(g66
g59
NtRp3199
(dp3200
g62
(dp3201
g70
I5
ssg71
Nsg64
(lp3202
g57
(g73
g59
NtRp3203
(dp3204
g62
(dp3205
sg71
g3199
sg64
(lp3206
g57
(g78
g59
NtRp3207
(dp3208
g62
(dp3209
g82
g83
ssg71
g3203
sg64
(lp3210
g155
asbag57
(g78
g59
NtRp3211
(dp3212
g62
(dp3213
g89
g90
ssg71
g3203
sg64
(lp3214
S':'
asbag57
(g78
g59
NtRp3215
(dp3216
g62
(dp3217
sg71
g3203
sg64
(lp3218
g57
(g58
g59
NtRp3219
(dp3220
g62
(dp3221
g70
I5
ssg71
g3215
sg64
(lp3222
S'<cStringIO.StringO object at 0x7fdca01c3688>'
p3223
asbasbasbag57
(g73
g59
NtRp3224
(dp3225
g62
(dp3226
sg71
g3199
sg64
(lp3227
g57
(g78
g59
NtRp3228
(dp3229
g62
(dp3230
g82
g83
ssg71
g3224
sg64
(lp3231
g221
asbag57
(g78
g59
NtRp3232
(dp3233
g62
(dp3234
g89
g90
ssg71
g3224
sg64
(lp3235
S':'
asbag57
(g78
g59
NtRp3236
(dp3237
g62
(dp3238
sg71
g3224
sg64
(lp3239
g57
(g58
g59
NtRp3240
(dp3241
g62
(dp3242
g70
I5
ssg71
g3236
sg64
(lp3243
g57
(g66
g59
NtRp3244
(dp3245
g62
(dp3246
g70
I4
ssg71
Nsg64
(lp3247
g57
(g73
g59
NtRp3248
(dp3249
g62
(dp3250
sg71
g3244
sg64
(lp3251
g57
(g78
g59
NtRp3252
(dp3253
g62
(dp3254
g82
g83
ssg71
g3248
sg64
(lp3255
S'session_id_grammateus3'
p3256
asbag57
(g78
g59
NtRp3257
(dp3258
g62
(dp3259
g89
g90
ssg71
g3248
sg64
(lp3260
S':'
asbag57
(g78
g59
NtRp3261
(dp3262
g62
(dp3263
sg71
g3248
sg64
(lp3264
g57
(g58
g59
NtRp3265
(dp3266
g62
(dp3267
g70
I4
ssg71
g3261
sg64
(lp3268
g57
(g66
g59
NtRp3269
(dp3270
g62
(dp3271
g70
I3
ssg71
Nsg64
(lp3272
g57
(g73
g59
NtRp3273
(dp3274
g62
(dp3275
sg71
g3269
sg64
(lp3276
g57
(g78
g59
NtRp3277
(dp3278
g62
(dp3279
g82
g83
ssg71
g3273
sg64
(lp3280
g271
asbag57
(g78
g59
NtRp3281
(dp3282
g62
(dp3283
g89
g90
ssg71
g3273
sg64
(lp3284
S':'
asbag57
(g78
g59
NtRp3285
(dp3286
g62
(dp3287
sg71
g3273
sg64
(lp3288
g57
(g58
g59
NtRp3289
(dp3290
g62
(dp3291
g70
I3
ssg71
g3285
sg64
(lp3292
S''
asbasbasbag57
(g73
g59
NtRp3293
(dp3294
g62
(dp3295
sg71
g3269
sg64
(lp3296
g57
(g78
g59
NtRp3297
(dp3298
g62
(dp3299
g82
g83
ssg71
g3293
sg64
(lp3300
g292
asbag57
(g78
g59
NtRp3301
(dp3302
g62
(dp3303
g89
g90
ssg71
g3293
sg64
(lp3304
S':'
asbag57
(g78
g59
NtRp3305
(dp3306
g62
(dp3307
sg71
g3293
sg64
(lp3308
g57
(g58
g59
NtRp3309
(dp3310
g62
(dp3311
g70
I3
ssg71
g3305
sg64
(lp3312
S''
asbasbasbag57
(g73
g59
NtRp3313
(dp3314
g62
(dp3315
sg71
g3269
sg64
(lp3316
g57
(g78
g59
NtRp3317
(dp3318
g62
(dp3319
g82
g83
ssg71
g3313
sg64
(lp3320
g313
asbag57
(g78
g59
NtRp3321
(dp3322
g62
(dp3323
g89
g90
ssg71
g3313
sg64
(lp3324
S':'
asbag57
(g78
g59
NtRp3325
(dp3326
g62
(dp3327
sg71
g3313
sg64
(lp3328
g57
(g58
g59
NtRp3329
(dp3330
g62
(dp3331
g70
I3
ssg71
g3325
sg64
(lp3332
S''
asbasbasbag57
(g73
g59
NtRp3333
(dp3334
g62
(dp3335
sg71
g3269
sg64
(lp3336
g57
(g78
g59
NtRp3337
(dp3338
g62
(dp3339
g82
g83
ssg71
g3333
sg64
(lp3340
g334
asbag57
(g78
g59
NtRp3341
(dp3342
g62
(dp3343
g89
g90
ssg71
g3333
sg64
(lp3344
S':'
asbag57
(g78
g59
NtRp3345
(dp3346
g62
(dp3347
sg71
g3333
sg64
(lp3348
g57
(g58
g59
NtRp3349
(dp3350
g62
(dp3351
g70
I3
ssg71
g3345
sg64
(lp3352
S''
asbasbasbag57
(g73
g59
NtRp3353
(dp3354
g62
(dp3355
sg71
g3269
sg64
(lp3356
g57
(g78
g59
NtRp3357
(dp3358
g62
(dp3359
g82
g83
ssg71
g3353
sg64
(lp3360
g355
asbag57
(g78
g59
NtRp3361
(dp3362
g62
(dp3363
g89
g90
ssg71
g3353
sg64
(lp3364
S':'
asbag57
(g78
g59
NtRp3365
(dp3366
g62
(dp3367
sg71
g3353
sg64
(lp3368
g57
(g58
g59
NtRp3369
(dp3370
g62
(dp3371
g70
I3
ssg71
g3365
sg64
(lp3372
S''
asbasbasbag57
(g73
g59
NtRp3373
(dp3374
g62
(dp3375
sg71
g3269
sg64
(lp3376
g57
(g78
g59
NtRp3377
(dp3378
g62
(dp3379
g82
g83
ssg71
g3373
sg64
(lp3380
g376
asbag57
(g78
g59
NtRp3381
(dp3382
g62
(dp3383
g89
g90
ssg71
g3373
sg64
(lp3384
S':'
asbag57
(g78
g59
NtRp3385
(dp3386
g62
(dp3387
sg71
g3373
sg64
(lp3388
g57
(g58
g59
NtRp3389
(dp3390
g62
(dp3391
g70
I3
ssg71
g3385
sg64
(lp3392
S'/'
asbasbasbag57
(g73
g59
NtRp3393
(dp3394
g62
(dp3395
sg71
g3269
sg64
(lp3396
g57
(g78
g59
NtRp3397
(dp3398
g62
(dp3399
g82
g83
ssg71
g3393
sg64
(lp3400
g397
asbag57
(g78
g59
NtRp3401
(dp3402
g62
(dp3403
g89
g90
ssg71
g3393
sg64
(lp3404
S':'
asbag57
(g78
g59
NtRp3405
(dp3406
g62
(dp3407
sg71
g3393
sg64
(lp3408
g57
(g58
g59
NtRp3409
(dp3410
g62
(dp3411
g70
I3
ssg71
g3405
sg64
(lp3412
S''
asbasbasbag57
(g73
g59
NtRp3413
(dp3414
g62
(dp3415
sg71
g3269
sg64
(lp3416
g57
(g78
g59
NtRp3417
(dp3418
g62
(dp3419
g82
g83
ssg71
g3413
sg64
(lp3420
g418
asbag57
(g78
g59
NtRp3421
(dp3422
g62
(dp3423
g89
g90
ssg71
g3413
sg64
(lp3424
S':'
asbag57
(g78
g59
NtRp3425
(dp3426
g62
(dp3427
sg71
g3413
sg64
(lp3428
g57
(g58
g59
NtRp3429
(dp3430
g62
(dp3431
g70
I3
ssg71
g3425
sg64
(lp3432
S''
asbasbasbasbasbasbasbasbasbasbasbag57
(g73
g59
NtRp3433
(dp3434
g62
(dp3435
sg71
g3199
sg64
(lp3436
g57
(g78
g59
NtRp3437
(dp3438
g62
(dp3439
g82
g83
ssg71
g3433
sg64
(lp3440
S'files'
p3441
asbag57
(g78
g59
NtRp3442
(dp3443
g62
(dp3444
g89
g90
ssg71
g3433
sg64
(lp3445
S':'
asbag57
(g78
g59
NtRp3446
(dp3447
g62
(dp3448
sg71
g3433
sg64
(lp3449
g57
(g58
g59
NtRp3450
(dp3451
g62
(dp3452
g70
I5
ssg71
g3446
sg64
(lp3453
g57
(g66
g59
NtRp3454
(dp3455
g62
(dp3456
g70
I4
ssg71
Nsg64
(lp3457
sbasbasbasbag57
(g73
g59
NtRp3458
(dp3459
g62
(dp3460
sg71
g3199
sg64
(lp3461
g57
(g78
g59
NtRp3462
(dp3463
g62
(dp3464
g82
g83
ssg71
g3458
sg64
(lp3465
S'flash'
p3466
asbag57
(g78
g59
NtRp3467
(dp3468
g62
(dp3469
g89
g90
ssg71
g3458
sg64
(lp3470
S':'
asbag57
(g78
g59
NtRp3471
(dp3472
g62
(dp3473
sg71
g3458
sg64
(lp3474
g57
(g58
g59
NtRp3475
(dp3476
g62
(dp3477
g70
I5
ssg71
g3471
sg64
(lp3478
S''
asbasbasbag57
(g73
g59
NtRp3479
(dp3480
g62
(dp3481
sg71
g3199
sg64
(lp3482
g57
(g78
g59
NtRp3483
(dp3484
g62
(dp3485
g82
g83
ssg71
g3479
sg64
(lp3486
S'generic_patterns'
p3487
asbag57
(g78
g59
NtRp3488
(dp3489
g62
(dp3490
g89
g90
ssg71
g3479
sg64
(lp3491
S':'
asbag57
(g78
g59
NtRp3492
(dp3493
g62
(dp3494
sg71
g3479
sg64
(lp3495
g57
(g58
g59
NtRp3496
(dp3497
g62
(dp3498
g70
I5
ssg71
g3492
sg64
(lp3499
g57
(g66
g59
NtRp3500
(dp3501
g62
(dp3502
g70
I4
ssg71
Nsg64
(lp3503
g57
(g73
g59
NtRp3504
(dp3505
g62
(dp3506
sg71
g3500
sg64
(lp3507
g57
(g78
g59
NtRp3508
(dp3509
g62
(dp3510
sg71
g3504
sg64
(lp3511
g57
(g58
g59
NtRp3512
(dp3513
g62
(dp3514
g70
I4
ssg71
g3508
sg64
(lp3515
S'*'
asbasbasbasbasbasbasbag57
(g73
g59
NtRp3516
(dp3517
g62
(dp3518
sg71
g3199
sg64
(lp3519
g57
(g78
g59
NtRp3520
(dp3521
g62
(dp3522
g82
g83
ssg71
g3516
sg64
(lp3523
S'headers'
p3524
asbag57
(g78
g59
NtRp3525
(dp3526
g62
(dp3527
g89
g90
ssg71
g3516
sg64
(lp3528
S':'
asbag57
(g78
g59
NtRp3529
(dp3530
g62
(dp3531
sg71
g3516
sg64
(lp3532
g57
(g58
g59
NtRp3533
(dp3534
g62
(dp3535
g70
I5
ssg71
g3529
sg64
(lp3536
g57
(g66
g59
NtRp3537
(dp3538
g62
(dp3539
g70
I4
ssg71
Nsg64
(lp3540
g57
(g73
g59
NtRp3541
(dp3542
g62
(dp3543
sg71
g3537
sg64
(lp3544
g57
(g78
g59
NtRp3545
(dp3546
g62
(dp3547
g82
g83
ssg71
g3541
sg64
(lp3548
S'Cache-Control'
p3549
asbag57
(g78
g59
NtRp3550
(dp3551
g62
(dp3552
g89
g90
ssg71
g3541
sg64
(lp3553
S':'
asbag57
(g78
g59
NtRp3554
(dp3555
g62
(dp3556
sg71
g3541
sg64
(lp3557
g57
(g58
g59
NtRp3558
(dp3559
g62
(dp3560
g70
I4
ssg71
g3554
sg64
(lp3561
S'no-store, no-cache, must-revalidate, post-check=0, pre-check=0'
p3562
asbasbasbag57
(g73
g59
NtRp3563
(dp3564
g62
(dp3565
sg71
g3537
sg64
(lp3566
g57
(g78
g59
NtRp3567
(dp3568
g62
(dp3569
g82
g83
ssg71
g3563
sg64
(lp3570
S'Content-Type'
p3571
asbag57
(g78
g59
NtRp3572
(dp3573
g62
(dp3574
g89
g90
ssg71
g3563
sg64
(lp3575
S':'
asbag57
(g78
g59
NtRp3576
(dp3577
g62
(dp3578
sg71
g3563
sg64
(lp3579
g57
(g58
g59
NtRp3580
(dp3581
g62
(dp3582
g70
I4
ssg71
g3576
sg64
(lp3583
S'text/html; charset=utf-8'
p3584
asbasbasbag57
(g73
g59
NtRp3585
(dp3586
g62
(dp3587
sg71
g3537
sg64
(lp3588
g57
(g78
g59
NtRp3589
(dp3590
g62
(dp3591
g82
g83
ssg71
g3585
sg64
(lp3592
S'Expires'
p3593
asbag57
(g78
g59
NtRp3594
(dp3595
g62
(dp3596
g89
g90
ssg71
g3585
sg64
(lp3597
S':'
asbag57
(g78
g59
NtRp3598
(dp3599
g62
(dp3600
sg71
g3585
sg64
(lp3601
g57
(g58
g59
NtRp3602
(dp3603
g62
(dp3604
g70
I4
ssg71
g3598
sg64
(lp3605
S'Wed, 07 Mar 2012 14:33:59 GMT'
p3606
asbasbasbag57
(g73
g59
NtRp3607
(dp3608
g62
(dp3609
sg71
g3537
sg64
(lp3610
g57
(g78
g59
NtRp3611
(dp3612
g62
(dp3613
g82
g83
ssg71
g3607
sg64
(lp3614
S'Pragma'
p3615
asbag57
(g78
g59
NtRp3616
(dp3617
g62
(dp3618
g89
g90
ssg71
g3607
sg64
(lp3619
S':'
asbag57
(g78
g59
NtRp3620
(dp3621
g62
(dp3622
sg71
g3607
sg64
(lp3623
g57
(g58
g59
NtRp3624
(dp3625
g62
(dp3626
g70
I4
ssg71
g3620
sg64
(lp3627
S'no-cache'
p3628
asbasbasbag57
(g73
g59
NtRp3629
(dp3630
g62
(dp3631
sg71
g3537
sg64
(lp3632
g57
(g78
g59
NtRp3633
(dp3634
g62
(dp3635
g82
g83
ssg71
g3629
sg64
(lp3636
S'X-Powered-By'
p3637
asbag57
(g78
g59
NtRp3638
(dp3639
g62
(dp3640
g89
g90
ssg71
g3629
sg64
(lp3641
S':'
asbag57
(g78
g59
NtRp3642
(dp3643
g62
(dp3644
sg71
g3629
sg64
(lp3645
g57
(g58
g59
NtRp3646
(dp3647
g62
(dp3648
g70
I4
ssg71
g3642
sg64
(lp3649
S'web2py'
p3650
asbasbasbasbasbasbasbag57
(g73
g59
NtRp3651
(dp3652
g62
(dp3653
sg71
g3199
sg64
(lp3654
g57
(g78
g59
NtRp3655
(dp3656
g62
(dp3657
g82
g83
ssg71
g3651
sg64
(lp3658
S'menu'
p3659
asbag57
(g78
g59
NtRp3660
(dp3661
g62
(dp3662
g89
g90
ssg71
g3651
sg64
(lp3663
S':'
asbag57
(g78
g59
NtRp3664
(dp3665
g62
(dp3666
sg71
g3651
sg64
(lp3667
g57
(g58
g59
NtRp3668
(dp3669
g62
(dp3670
g70
I5
ssg71
g3664
sg64
(lp3671
g57
(g66
g59
NtRp3672
(dp3673
g62
(dp3674
g70
I4
ssg71
Nsg64
(lp3675
g57
(g73
g59
NtRp3676
(dp3677
g62
(dp3678
sg71
g3672
sg64
(lp3679
g57
(g78
g59
NtRp3680
(dp3681
g62
(dp3682
sg71
g3676
sg64
(lp3683
g57
(g58
g59
NtRp3684
(dp3685
g62
(dp3686
g70
I4
ssg71
g3680
sg64
(lp3687
g57
(g66
g59
NtRp3688
(dp3689
g62
(dp3690
g70
I3
ssg71
Nsg64
(lp3691
g57
(g73
g59
NtRp3692
(dp3693
g62
(dp3694
sg71
g3688
sg64
(lp3695
g57
(g78
g59
NtRp3696
(dp3697
g62
(dp3698
sg71
g3692
sg64
(lp3699
g57
(g58
g59
NtRp3700
(dp3701
g62
(dp3702
g70
I3
ssg71
g3696
sg64
(lp3703
cgluon.languages
lazyT_unpickle
p3704
(S't\x04\x00\x00\x00Home'
tRp3705
asbasbasbag57
(g73
g59
NtRp3706
(dp3707
g62
(dp3708
sg71
g3688
sg64
(lp3709
g57
(g78
g59
NtRp3710
(dp3711
g62
(dp3712
sg71
g3706
sg64
(lp3713
g57
(g58
g59
NtRp3714
(dp3715
g62
(dp3716
g70
I3
ssg71
g3710
sg64
(lp3717
g100
asbasbasbag57
(g73
g59
NtRp3718
(dp3719
g62
(dp3720
sg71
g3688
sg64
(lp3721
g57
(g78
g59
NtRp3722
(dp3723
g62
(dp3724
sg71
g3718
sg64
(lp3725
g57
(g58
g59
NtRp3726
(dp3727
g62
(dp3728
g70
I3
ssg71
g3722
sg64
(lp3729
S'/grammateus3/default/index'
p3730
asbasbasbag57
(g73
g59
NtRp3731
(dp3732
g62
(dp3733
sg71
g3688
sg64
(lp3734
g57
(g78
g59
NtRp3735
(dp3736
g62
(dp3737
sg71
g3731
sg64
(lp3738
g57
(g58
g59
NtRp3739
(dp3740
g62
(dp3741
g70
I3
ssg71
g3735
sg64
(lp3742
g57
(g66
g59
NtRp3743
(dp3744
g62
(dp3745
g70
I2
ssg71
Nsg64
(lp3746
sbasbasbasbasbasbasbasbag57
(g73
g59
NtRp3747
(dp3748
g62
(dp3749
sg71
g3672
sg64
(lp3750
g57
(g78
g59
NtRp3751
(dp3752
g62
(dp3753
sg71
g3747
sg64
(lp3754
g57
(g58
g59
NtRp3755
(dp3756
g62
(dp3757
g70
I4
ssg71
g3751
sg64
(lp3758
g57
(g66
g59
NtRp3759
(dp3760
g62
(dp3761
g70
I3
ssg71
Nsg64
(lp3762
g57
(g73
g59
NtRp3763
(dp3764
g62
(dp3765
sg71
g3759
sg64
(lp3766
g57
(g78
g59
NtRp3767
(dp3768
g62
(dp3769
sg71
g3763
sg64
(lp3770
g57
(g58
g59
NtRp3771
(dp3772
g62
(dp3773
g70
I3
ssg71
g3767
sg64
(lp3774
g57
(cgluon.html
SPAN
p3775
g59
NtRp3776
(dp3777
g62
(dp3778
g82
S'color:yellow'
p3779
ssg71
Nsg64
(lp3780
g3650
asbasbasbasbag57
(g73
g59
NtRp3781
(dp3782
g62
(dp3783
sg71
g3759
sg64
(lp3784
g57
(g78
g59
NtRp3785
(dp3786
g62
(dp3787
sg71
g3781
sg64
(lp3788
g57
(g58
g59
NtRp3789
(dp3790
g62
(dp3791
g70
I3
ssg71
g3785
sg64
(lp3792
g100
asbasbasbag57
(g73
g59
NtRp3793
(dp3794
g62
(dp3795
sg71
g3759
sg64
(lp3796
g57
(g78
g59
NtRp3797
(dp3798
g62
(dp3799
sg71
g3793
sg64
(lp3800
g57
(g58
g59
NtRp3801
(dp3802
g62
(dp3803
g70
I3
ssg71
g3797
sg64
(lp3804
S'None'
p3805
asbasbasbag57
(g73
g59
NtRp3806
(dp3807
g62
(dp3808
sg71
g3759
sg64
(lp3809
g57
(g78
g59
NtRp3810
(dp3811
g62
(dp3812
sg71
g3806
sg64
(lp3813
g57
(g58
g59
NtRp3814
(dp3815
g62
(dp3816
g70
I3
ssg71
g3810
sg64
(lp3817
g57
(g66
g59
NtRp3818
(dp3819
g62
(dp3820
g70
I2
ssg71
Nsg64
(lp3821
g57
(g73
g59
NtRp3822
(dp3823
g62
(dp3824
sg71
g3818
sg64
(lp3825
g57
(g78
g59
NtRp3826
(dp3827
g62
(dp3828
sg71
g3822
sg64
(lp3829
g57
(g58
g59
NtRp3830
(dp3831
g62
(dp3832
g70
I2
ssg71
g3826
sg64
(lp3833
g57
(g66
g59
NtRp3834
(dp3835
g62
(dp3836
g70
I1
ssg71
Nsg64
(lp3837
g57
(g73
g59
NtRp3838
(dp3839
g62
(dp3840
sg71
g3834
sg64
(lp3841
g57
(g78
g59
NtRp3842
(dp3843
g62
(dp3844
sg71
g3838
sg64
(lp3845
g57
(g58
g59
NtRp3846
(dp3847
g62
(dp3848
g70
I1
ssg71
g3842
sg64
(lp3849
g3704
(S's\x08\x00\x00\x00My Sites'
tRp3850
asbasbasbag57
(g73
g59
NtRp3851
(dp3852
g62
(dp3853
sg71
g3834
sg64
(lp3854
g57
(g78
g59
NtRp3855
(dp3856
g62
(dp3857
sg71
g3851
sg64
(lp3858
g57
(g58
g59
NtRp3859
(dp3860
g62
(dp3861
g70
I1
ssg71
g3855
sg64
(lp3862
I00
asbasbasbag57
(g73
g59
NtRp3863
(dp3864
g62
(dp3865
sg71
g3834
sg64
(lp3866
g57
(g78
g59
NtRp3867
(dp3868
g62
(dp3869
sg71
g3863
sg64
(lp3870
g57
(g58
g59
NtRp3871
(dp3872
g62
(dp3873
g70
I1
ssg71
g3867
sg64
(lp3874
S'/admin/default/site'
p3875
asbasbasbasbasbasbasbag57
(g73
g59
NtRp3876
(dp3877
g62
(dp3878
sg71
g3818
sg64
(lp3879
g57
(g78
g59
NtRp3880
(dp3881
g62
(dp3882
sg71
g3876
sg64
(lp3883
g57
(g58
g59
NtRp3884
(dp3885
g62
(dp3886
g70
I2
ssg71
g3880
sg64
(lp3887
g57
(g66
g59
NtRp3888
(dp3889
g62
(dp3890
g70
I1
ssg71
Nsg64
(lp3891
g57
(g73
g59
NtRp3892
(dp3893
g62
(dp3894
sg71
g3888
sg64
(lp3895
g57
(g78
g59
NtRp3896
(dp3897
g62
(dp3898
sg71
g3892
sg64
(lp3899
g57
(g58
g59
NtRp3900
(dp3901
g62
(dp3902
g70
I1
ssg71
g3896
sg64
(lp3903
g3704
(S's\x08\x00\x00\x00This App'
tRp3904
asbasbasbag57
(g73
g59
NtRp3905
(dp3906
g62
(dp3907
sg71
g3888
sg64
(lp3908
g57
(g78
g59
NtRp3909
(dp3910
g62
(dp3911
sg71
g3905
sg64
(lp3912
g57
(g58
g59
NtRp3913
(dp3914
g62
(dp3915
g70
I1
ssg71
g3909
sg64
(lp3916
I00
asbasbasbag57
(g73
g59
NtRp3917
(dp3918
g62
(dp3919
sg71
g3888
sg64
(lp3920
g57
(g78
g59
NtRp3921
(dp3922
g62
(dp3923
sg71
g3917
sg64
(lp3924
g57
(g58
g59
NtRp3925
(dp3926
g62
(dp3927
g70
I1
ssg71
g3921
sg64
(lp3928
S'/admin/default/design/grammateus3'
p3929
asbasbasbag57
(g73
g59
NtRp3930
(dp3931
g62
(dp3932
sg71
g3888
sg64
(lp3933
g57
(g78
g59
NtRp3934
(dp3935
g62
(dp3936
sg71
g3930
sg64
(lp3937
g57
(g58
g59
NtRp3938
(dp3939
g62
(dp3940
g70
I1
ssg71
g3934
sg64
(lp3941
(lp3942
(g3704
(S't\n\x00\x00\x00Controller'
tRp3943
I00
S'/admin/default/edit/grammateus3/controllers/docs.py'
tp3944
a(g3704
(S't\x04\x00\x00\x00View'
tRp3945
I00
S'/admin/default/edit/grammateus3/views/docs/index.html'
tp3946
a(g3704
(S't\x06\x00\x00\x00Layout'
tRp3947
I00
S'/admin/default/edit/grammateus3/views/layout.html'
tp3948
a(g3704
(S't\n\x00\x00\x00Stylesheet'
tRp3949
I00
S'/admin/default/edit/grammateus3/static/css/web2py.css'
tp3950
a(g3704
(S's\x08\x00\x00\x00DB Model'
tRp3951
I00
S'/admin/default/edit/grammateus3/models/db.py'
tp3952
a(g3704
(S's\n\x00\x00\x00Menu Model'
tRp3953
I00
S'/admin/default/edit/grammateus3/models/menu.py'
tp3954
a(g3704
(S't\x08\x00\x00\x00Database'
tRp3955
I00
S'/grammateus3/appadmin/index'
tp3956
a(g3704
(S't\x06\x00\x00\x00Errors'
tRp3957
I00
S'/admin/default/errors/grammateus3'
tp3958
a(g3704
(S't\x05\x00\x00\x00About'
tRp3959
I00
S'/admin/default/about/grammateus3'
tp3960
aasbasbasbasbasbasbasbag57
(g73
g59
NtRp3961
(dp3962
g62
(dp3963
sg71
g3818
sg64
(lp3964
g57
(g78
g59
NtRp3965
(dp3966
g62
(dp3967
sg71
g3961
sg64
(lp3968
g57
(g58
g59
NtRp3969
(dp3970
g62
(dp3971
g70
I2
ssg71
g3965
sg64
(lp3972
g57
(g66
g59
NtRp3973
(dp3974
g62
(dp3975
g70
I1
ssg71
Nsg64
(lp3976
g57
(g73
g59
NtRp3977
(dp3978
g62
(dp3979
sg71
g3973
sg64
(lp3980
g57
(g78
g59
NtRp3981
(dp3982
g62
(dp3983
sg71
g3977
sg64
(lp3984
g57
(g58
g59
NtRp3985
(dp3986
g62
(dp3987
g70
I1
ssg71
g3981
sg64
(lp3988
S'web2py.com'
p3989
asbasbasbag57
(g73
g59
NtRp3990
(dp3991
g62
(dp3992
sg71
g3973
sg64
(lp3993
g57
(g78
g59
NtRp3994
(dp3995
g62
(dp3996
sg71
g3990
sg64
(lp3997
g57
(g58
g59
NtRp3998
(dp3999
g62
(dp4000
g70
I1
ssg71
g3994
sg64
(lp4001
I00
asbasbasbag57
(g73
g59
NtRp4002
(dp4003
g62
(dp4004
sg71
g3973
sg64
(lp4005
g57
(g78
g59
NtRp4006
(dp4007
g62
(dp4008
sg71
g4002
sg64
(lp4009
g57
(g58
g59
NtRp4010
(dp4011
g62
(dp4012
g70
I1
ssg71
g4006
sg64
(lp4013
S'http://www.web2py.com'
p4014
asbasbasbag57
(g73
g59
NtRp4015
(dp4016
g62
(dp4017
sg71
g3973
sg64
(lp4018
g57
(g78
g59
NtRp4019
(dp4020
g62
(dp4021
sg71
g4015
sg64
(lp4022
g57
(g58
g59
NtRp4023
(dp4024
g62
(dp4025
g70
I1
ssg71
g4019
sg64
(lp4026
(lp4027
(g3704
(S't\x08\x00\x00\x00Download'
tRp4028
I00
S'http://www.web2py.com/examples/default/download'
p4029
tp4030
a(g3704
(S't\x07\x00\x00\x00Support'
tRp4031
I00
S'http://www.web2py.com/examples/default/support'
p4032
tp4033
a(g3704
(S't\x04\x00\x00\x00Demo'
tRp4034
I00
S'http://web2py.com/demo_admin'
p4035
tp4036
a(g3704
(S's\x0e\x00\x00\x00Quick Examples'
tRp4037
I00
S'http://web2py.com/examples/default/examples'
p4038
tp4039
a(g3704
(S't\x03\x00\x00\x00FAQ'
tRp4040
I00
S'http://web2py.com/AlterEgo'
p4041
tp4042
a(g3704
(S't\x06\x00\x00\x00Videos'
tRp4043
I00
S'http://www.web2py.com/examples/default/videos/'
p4044
tp4045
a(g3704
(S's\x11\x00\x00\x00Free Applications'
tRp4046
I00
S'http://web2py.com/appliances'
p4047
tp4048
a(g3704
(S't\x07\x00\x00\x00Plugins'
tRp4049
I00
S'http://web2py.com/plugins'
p4050
tp4051
a(g3704
(S't\x07\x00\x00\x00Layouts'
tRp4052
I00
S'http://web2py.com/layouts'
p4053
tp4054
a(g3704
(S't\x07\x00\x00\x00Recipes'
tRp4055
I00
S'http://web2pyslices.com/'
p4056
tp4057
a(g3704
(S't\x08\x00\x00\x00Semantic'
tRp4058
I00
S'http://web2py.com/semantic'
p4059
tp4060
aasbasbasbasbasbasbasbag57
(g73
g59
NtRp4061
(dp4062
g62
(dp4063
sg71
g3818
sg64
(lp4064
g57
(g78
g59
NtRp4065
(dp4066
g62
(dp4067
sg71
g4061
sg64
(lp4068
g57
(g58
g59
NtRp4069
(dp4070
g62
(dp4071
g70
I2
ssg71
g4065
sg64
(lp4072
g57
(g66
g59
NtRp4073
(dp4074
g62
(dp4075
g70
I1
ssg71
Nsg64
(lp4076
g57
(g73
g59
NtRp4077
(dp4078
g62
(dp4079
sg71
g4073
sg64
(lp4080
g57
(g78
g59
NtRp4081
(dp4082
g62
(dp4083
sg71
g4077
sg64
(lp4084
g57
(g58
g59
NtRp4085
(dp4086
g62
(dp4087
g70
I1
ssg71
g4081
sg64
(lp4088
g3704
(S't\r\x00\x00\x00Documentation'
tRp4089
asbasbasbag57
(g73
g59
NtRp4090
(dp4091
g62
(dp4092
sg71
g4073
sg64
(lp4093
g57
(g78
g59
NtRp4094
(dp4095
g62
(dp4096
sg71
g4090
sg64
(lp4097
g57
(g58
g59
NtRp4098
(dp4099
g62
(dp4100
g70
I1
ssg71
g4094
sg64
(lp4101
I00
asbasbasbag57
(g73
g59
NtRp4102
(dp4103
g62
(dp4104
sg71
g4073
sg64
(lp4105
g57
(g78
g59
NtRp4106
(dp4107
g62
(dp4108
sg71
g4102
sg64
(lp4109
g57
(g58
g59
NtRp4110
(dp4111
g62
(dp4112
g70
I1
ssg71
g4106
sg64
(lp4113
S'http://www.web2py.com/book'
p4114
asbasbasbag57
(g73
g59
NtRp4115
(dp4116
g62
(dp4117
sg71
g4073
sg64
(lp4118
g57
(g78
g59
NtRp4119
(dp4120
g62
(dp4121
sg71
g4115
sg64
(lp4122
g57
(g58
g59
NtRp4123
(dp4124
g62
(dp4125
g70
I1
ssg71
g4119
sg64
(lp4126
(lp4127
(g3704
(S't\x07\x00\x00\x00Preface'
tRp4128
I00
S'http://www.web2py.com/book/default/chapter/00'
p4129
tp4130
a(g3704
(S't\x0c\x00\x00\x00Introduction'
tRp4131
I00
S'http://www.web2py.com/book/default/chapter/01'
p4132
tp4133
a(g3704
(S't\x06\x00\x00\x00Python'
tRp4134
I00
S'http://www.web2py.com/book/default/chapter/02'
p4135
tp4136
a(g3704
(S't\x08\x00\x00\x00Overview'
tRp4137
I00
S'http://www.web2py.com/book/default/chapter/03'
p4138
tp4139
a(g3704
(S's\x08\x00\x00\x00The Core'
tRp4140
I00
S'http://www.web2py.com/book/default/chapter/04'
p4141
tp4142
a(g3704
(S's\t\x00\x00\x00The Views'
tRp4143
I00
S'http://www.web2py.com/book/default/chapter/05'
p4144
tp4145
a(g3704
(S't\x08\x00\x00\x00Database'
tRp4146
I00
S'http://www.web2py.com/book/default/chapter/06'
p4147
tp4148
a(g3704
(S's\x14\x00\x00\x00Forms and Validators'
tRp4149
I00
S'http://www.web2py.com/book/default/chapter/07'
p4150
tp4151
a(g3704
(S's\r\x00\x00\x00Email and SMS'
tRp4152
I00
S'http://www.web2py.com/book/default/chapter/08'
p4153
tp4154
a(g3704
(S's\x0e\x00\x00\x00Access Control'
tRp4155
I00
S'http://www.web2py.com/book/default/chapter/09'
p4156
tp4157
a(g3704
(S't\x08\x00\x00\x00Services'
tRp4158
I00
S'http://www.web2py.com/book/default/chapter/10'
p4159
tp4160
a(g3704
(S's\x0c\x00\x00\x00Ajax Recipes'
tRp4161
I00
S'http://www.web2py.com/book/default/chapter/11'
p4162
tp4163
a(g3704
(S's\x16\x00\x00\x00Components and Plugins'
tRp4164
I00
S'http://www.web2py.com/book/default/chapter/12'
p4165
tp4166
a(g3704
(S's\x12\x00\x00\x00Deployment Recipes'
tRp4167
I00
S'http://www.web2py.com/book/default/chapter/13'
p4168
tp4169
a(g3704
(S's\r\x00\x00\x00Other Recipes'
tRp4170
I00
S'http://www.web2py.com/book/default/chapter/14'
p4171
tp4172
a(g3704
(S's\r\x00\x00\x00Buy this book'
tRp4173
I00
S'http://stores.lulu.com/web2py'
p4174
tp4175
aasbasbasbasbasbasbasbag57
(g73
g59
NtRp4176
(dp4177
g62
(dp4178
sg71
g3818
sg64
(lp4179
g57
(g78
g59
NtRp4180
(dp4181
g62
(dp4182
sg71
g4176
sg64
(lp4183
g57
(g58
g59
NtRp4184
(dp4185
g62
(dp4186
g70
I2
ssg71
g4180
sg64
(lp4187
g57
(g66
g59
NtRp4188
(dp4189
g62
(dp4190
g70
I1
ssg71
Nsg64
(lp4191
g57
(g73
g59
NtRp4192
(dp4193
g62
(dp4194
sg71
g4188
sg64
(lp4195
g57
(g78
g59
NtRp4196
(dp4197
g62
(dp4198
sg71
g4192
sg64
(lp4199
g57
(g58
g59
NtRp4200
(dp4201
g62
(dp4202
g70
I1
ssg71
g4196
sg64
(lp4203
g3704
(S't\t\x00\x00\x00Community'
tRp4204
asbasbasbag57
(g73
g59
NtRp4205
(dp4206
g62
(dp4207
sg71
g4188
sg64
(lp4208
g57
(g78
g59
NtRp4209
(dp4210
g62
(dp4211
sg71
g4205
sg64
(lp4212
g57
(g58
g59
NtRp4213
(dp4214
g62
(dp4215
g70
I1
ssg71
g4209
sg64
(lp4216
I00
asbasbasbag57
(g73
g59
NtRp4217
(dp4218
g62
(dp4219
sg71
g4188
sg64
(lp4220
g57
(g78
g59
NtRp4221
(dp4222
g62
(dp4223
sg71
g4217
sg64
(lp4224
g57
(g58
g59
NtRp4225
(dp4226
g62
(dp4227
g70
I1
ssg71
g4221
sg64
(lp4228
Nasbasbasbag57
(g73
g59
NtRp4229
(dp4230
g62
(dp4231
sg71
g4188
sg64
(lp4232
g57
(g78
g59
NtRp4233
(dp4234
g62
(dp4235
sg71
g4229
sg64
(lp4236
g57
(g58
g59
NtRp4237
(dp4238
g62
(dp4239
g70
I1
ssg71
g4233
sg64
(lp4240
(lp4241
(g3704
(S't\x06\x00\x00\x00Groups'
tRp4242
I00
S'http://www.web2py.com/examples/default/usergroups'
p4243
tp4244
a(g3704
(S't\x07\x00\x00\x00Twitter'
tRp4245
I00
S'http://twitter.com/web2py'
p4246
tp4247
a(g3704
(S's\t\x00\x00\x00Live Chat'
tRp4248
I00
S'http://webchat.freenode.net/?channels=web2py'
p4249
tp4250
aasbasbasbasbasbasbasbag57
(g73
g59
NtRp4251
(dp4252
g62
(dp4253
sg71
g3818
sg64
(lp4254
g57
(g78
g59
NtRp4255
(dp4256
g62
(dp4257
sg71
g4251
sg64
(lp4258
g57
(g58
g59
NtRp4259
(dp4260
g62
(dp4261
g70
I2
ssg71
g4255
sg64
(lp4262
g57
(g66
g59
NtRp4263
(dp4264
g62
(dp4265
g70
I1
ssg71
Nsg64
(lp4266
g57
(g73
g59
NtRp4267
(dp4268
g62
(dp4269
sg71
g4263
sg64
(lp4270
g57
(g78
g59
NtRp4271
(dp4272
g62
(dp4273
sg71
g4267
sg64
(lp4274
g57
(g58
g59
NtRp4275
(dp4276
g62
(dp4277
g70
I1
ssg71
g4271
sg64
(lp4278
g3704
(S't\x07\x00\x00\x00Plugins'
tRp4279
asbasbasbag57
(g73
g59
NtRp4280
(dp4281
g62
(dp4282
sg71
g4263
sg64
(lp4283
g57
(g78
g59
NtRp4284
(dp4285
g62
(dp4286
sg71
g4280
sg64
(lp4287
g57
(g58
g59
NtRp4288
(dp4289
g62
(dp4290
g70
I1
ssg71
g4284
sg64
(lp4291
I00
asbasbasbag57
(g73
g59
NtRp4292
(dp4293
g62
(dp4294
sg71
g4263
sg64
(lp4295
g57
(g78
g59
NtRp4296
(dp4297
g62
(dp4298
sg71
g4292
sg64
(lp4299
g57
(g58
g59
NtRp4300
(dp4301
g62
(dp4302
g70
I1
ssg71
g4296
sg64
(lp4303
Nasbasbasbag57
(g73
g59
NtRp4304
(dp4305
g62
(dp4306
sg71
g4263
sg64
(lp4307
g57
(g78
g59
NtRp4308
(dp4309
g62
(dp4310
sg71
g4304
sg64
(lp4311
g57
(g58
g59
NtRp4312
(dp4313
g62
(dp4314
g70
I1
ssg71
g4308
sg64
(lp4315
(lp4316
(S'plugin_wiki'
p4317
I00
S'http://web2py.com/examples/default/download'
p4318
tp4319
a(g3704
(S's\r\x00\x00\x00Other Plugins'
tRp4320
I00
g4050
tp4321
a(g3704
(S's\x0e\x00\x00\x00Layout Plugins'
tRp4322
I00
g4053
tp4323
aasbasbasbasbasbasbasbasbasbasbasbasbasbasbasbasbasbasbasbag57
(g73
g59
NtRp4324
(dp4325
g62
(dp4326
sg71
g3199
sg64
(lp4327
g57
(g78
g59
NtRp4328
(dp4329
g62
(dp4330
g82
g83
ssg71
g4324
sg64
(lp4331
S'meta'
p4332
asbag57
(g78
g59
NtRp4333
(dp4334
g62
(dp4335
g89
g90
ssg71
g4324
sg64
(lp4336
S':'
asbag57
(g78
g59
NtRp4337
(dp4338
g62
(dp4339
sg71
g4324
sg64
(lp4340
g57
(g58
g59
NtRp4341
(dp4342
g62
(dp4343
g70
I5
ssg71
g4337
sg64
(lp4344
g57
(g66
g59
NtRp4345
(dp4346
g62
(dp4347
g70
I4
ssg71
Nsg64
(lp4348
g57
(g73
g59
NtRp4349
(dp4350
g62
(dp4351
sg71
g4345
sg64
(lp4352
g57
(g78
g59
NtRp4353
(dp4354
g62
(dp4355
g82
g83
ssg71
g4349
sg64
(lp4356
S'author'
p4357
asbag57
(g78
g59
NtRp4358
(dp4359
g62
(dp4360
g89
g90
ssg71
g4349
sg64
(lp4361
S':'
asbag57
(g78
g59
NtRp4362
(dp4363
g62
(dp4364
sg71
g4349
sg64
(lp4365
g57
(g58
g59
NtRp4366
(dp4367
g62
(dp4368
g70
I4
ssg71
g4362
sg64
(lp4369
S'Your Name <you@example.com>'
p4370
asbasbasbag57
(g73
g59
NtRp4371
(dp4372
g62
(dp4373
sg71
g4345
sg64
(lp4374
g57
(g78
g59
NtRp4375
(dp4376
g62
(dp4377
g82
g83
ssg71
g4371
sg64
(lp4378
S'copyright'
p4379
asbag57
(g78
g59
NtRp4380
(dp4381
g62
(dp4382
g89
g90
ssg71
g4371
sg64
(lp4383
S':'
asbag57
(g78
g59
NtRp4384
(dp4385
g62
(dp4386
sg71
g4371
sg64
(lp4387
g57
(g58
g59
NtRp4388
(dp4389
g62
(dp4390
g70
I4
ssg71
g4384
sg64
(lp4391
S'Copyright 2011'
p4392
asbasbasbag57
(g73
g59
NtRp4393
(dp4394
g62
(dp4395
sg71
g4345
sg64
(lp4396
g57
(g78
g59
NtRp4397
(dp4398
g62
(dp4399
g82
g83
ssg71
g4393
sg64
(lp4400
S'description'
p4401
asbag57
(g78
g59
NtRp4402
(dp4403
g62
(dp4404
g89
g90
ssg71
g4393
sg64
(lp4405
S':'
asbag57
(g78
g59
NtRp4406
(dp4407
g62
(dp4408
sg71
g4393
sg64
(lp4409
g57
(g58
g59
NtRp4410
(dp4411
g62
(dp4412
g70
I4
ssg71
g4406
sg64
(lp4413
S'a cool new app'
p4414
asbasbasbag57
(g73
g59
NtRp4415
(dp4416
g62
(dp4417
sg71
g4345
sg64
(lp4418
g57
(g78
g59
NtRp4419
(dp4420
g62
(dp4421
g82
g83
ssg71
g4415
sg64
(lp4422
S'generator'
p4423
asbag57
(g78
g59
NtRp4424
(dp4425
g62
(dp4426
g89
g90
ssg71
g4415
sg64
(lp4427
S':'
asbag57
(g78
g59
NtRp4428
(dp4429
g62
(dp4430
sg71
g4415
sg64
(lp4431
g57
(g58
g59
NtRp4432
(dp4433
g62
(dp4434
g70
I4
ssg71
g4428
sg64
(lp4435
S'Web2py Web Framework'
p4436
asbasbasbag57
(g73
g59
NtRp4437
(dp4438
g62
(dp4439
sg71
g4345
sg64
(lp4440
g57
(g78
g59
NtRp4441
(dp4442
g62
(dp4443
g82
g83
ssg71
g4437
sg64
(lp4444
S'keywords'
p4445
asbag57
(g78
g59
NtRp4446
(dp4447
g62
(dp4448
g89
g90
ssg71
g4437
sg64
(lp4449
S':'
asbag57
(g78
g59
NtRp4450
(dp4451
g62
(dp4452
sg71
g4437
sg64
(lp4453
g57
(g58
g59
NtRp4454
(dp4455
g62
(dp4456
g70
I4
ssg71
g4450
sg64
(lp4457
S'web2py, python, framework'
p4458
asbasbasbasbasbasbasbag57
(g73
g59
NtRp4459
(dp4460
g62
(dp4461
sg71
g3199
sg64
(lp4462
g57
(g78
g59
NtRp4463
(dp4464
g62
(dp4465
g82
g83
ssg71
g4459
sg64
(lp4466
S'postprocessing'
p4467
asbag57
(g78
g59
NtRp4468
(dp4469
g62
(dp4470
g89
g90
ssg71
g4459
sg64
(lp4471
S':'
asbag57
(g78
g59
NtRp4472
(dp4473
g62
(dp4474
sg71
g4459
sg64
(lp4475
g57
(g58
g59
NtRp4476
(dp4477
g62
(dp4478
g70
I5
ssg71
g4472
sg64
(lp4479
g57
(g66
g59
NtRp4480
(dp4481
g62
(dp4482
g70
I4
ssg71
Nsg64
(lp4483
sbasbasbasbag57
(g73
g59
NtRp4484
(dp4485
g62
(dp4486
sg71
g3199
sg64
(lp4487
g57
(g78
g59
NtRp4488
(dp4489
g62
(dp4490
g82
g83
ssg71
g4484
sg64
(lp4491
S'session_file'
p4492
asbag57
(g78
g59
NtRp4493
(dp4494
g62
(dp4495
g89
g90
ssg71
g4484
sg64
(lp4496
S':'
asbag57
(g78
g59
NtRp4497
(dp4498
g62
(dp4499
sg71
g4484
sg64
(lp4500
g57
(g58
g59
NtRp4501
(dp4502
g62
(dp4503
g70
I5
ssg71
g4497
sg64
(lp4504
S"<open file '/home/ian/web/web2py/applications/grammateus3/sessions/127.0.0.1-1092fa64-b648-4e5a-93f6-6b6d72d1f372', mode 'rb+' at 0x7fdca01c08a0>"
p4505
asbasbasbag57
(g73
g59
NtRp4506
(dp4507
g62
(dp4508
sg71
g3199
sg64
(lp4509
g57
(g78
g59
NtRp4510
(dp4511
g62
(dp4512
g82
g83
ssg71
g4506
sg64
(lp4513
S'session_filename'
p4514
asbag57
(g78
g59
NtRp4515
(dp4516
g62
(dp4517
g89
g90
ssg71
g4506
sg64
(lp4518
S':'
asbag57
(g78
g59
NtRp4519
(dp4520
g62
(dp4521
sg71
g4506
sg64
(lp4522
g57
(g58
g59
NtRp4523
(dp4524
g62
(dp4525
g70
I5
ssg71
g4519
sg64
(lp4526
S'/home/ian/web/web2py/applications/grammateus3/sessions/127.0.0.1-1092fa64-b648-4e5a-93f6-6b6d72d1f372'
p4527
asbasbasbag57
(g73
g59
NtRp4528
(dp4529
g62
(dp4530
sg71
g3199
sg64
(lp4531
g57
(g78
g59
NtRp4532
(dp4533
g62
(dp4534
g82
g83
ssg71
g4528
sg64
(lp4535
S'session_id'
p4536
asbag57
(g78
g59
NtRp4537
(dp4538
g62
(dp4539
g89
g90
ssg71
g4528
sg64
(lp4540
S':'
asbag57
(g78
g59
NtRp4541
(dp4542
g62
(dp4543
sg71
g4528
sg64
(lp4544
g57
(g58
g59
NtRp4545
(dp4546
g62
(dp4547
g70
I5
ssg71
g4541
sg64
(lp4548
S'127.0.0.1-1092fa64-b648-4e5a-93f6-6b6d72d1f372'
p4549
asbasbasbag57
(g73
g59
NtRp4550
(dp4551
g62
(dp4552
sg71
g3199
sg64
(lp4553
g57
(g78
g59
NtRp4554
(dp4555
g62
(dp4556
g82
g83
ssg71
g4550
sg64
(lp4557
S'session_id_name'
p4558
asbag57
(g78
g59
NtRp4559
(dp4560
g62
(dp4561
g89
g90
ssg71
g4550
sg64
(lp4562
S':'
asbag57
(g78
g59
NtRp4563
(dp4564
g62
(dp4565
sg71
g4550
sg64
(lp4566
g57
(g58
g59
NtRp4567
(dp4568
g62
(dp4569
g70
I5
ssg71
g4563
sg64
(lp4570
g3256
asbasbasbag57
(g73
g59
NtRp4571
(dp4572
g62
(dp4573
sg71
g3199
sg64
(lp4574
g57
(g78
g59
NtRp4575
(dp4576
g62
(dp4577
g82
g83
ssg71
g4571
sg64
(lp4578
S'session_locked'
p4579
asbag57
(g78
g59
NtRp4580
(dp4581
g62
(dp4582
g89
g90
ssg71
g4571
sg64
(lp4583
S':'
asbag57
(g78
g59
NtRp4584
(dp4585
g62
(dp4586
sg71
g4571
sg64
(lp4587
g57
(g58
g59
NtRp4588
(dp4589
g62
(dp4590
g70
I5
ssg71
g4584
sg64
(lp4591
g1819
asbasbasbag57
(g73
g59
NtRp4592
(dp4593
g62
(dp4594
sg71
g3199
sg64
(lp4595
g57
(g78
g59
NtRp4596
(dp4597
g62
(dp4598
g82
g83
ssg71
g4592
sg64
(lp4599
S'session_new'
p4600
asbag57
(g78
g59
NtRp4601
(dp4602
g62
(dp4603
g89
g90
ssg71
g4592
sg64
(lp4604
S':'
asbag57
(g78
g59
NtRp4605
(dp4606
g62
(dp4607
sg71
g4592
sg64
(lp4608
g57
(g58
g59
NtRp4609
(dp4610
g62
(dp4611
g70
I5
ssg71
g4605
sg64
(lp4612
g100
asbasbasbag57
(g73
g59
NtRp4613
(dp4614
g62
(dp4615
sg71
g3199
sg64
(lp4616
g57
(g78
g59
NtRp4617
(dp4618
g62
(dp4619
g82
g83
ssg71
g4613
sg64
(lp4620
S'status'
p4621
asbag57
(g78
g59
NtRp4622
(dp4623
g62
(dp4624
g89
g90
ssg71
g4613
sg64
(lp4625
S':'
asbag57
(g78
g59
NtRp4626
(dp4627
g62
(dp4628
sg71
g4613
sg64
(lp4629
g57
(g58
g59
NtRp4630
(dp4631
g62
(dp4632
g70
I5
ssg71
g4626
sg64
(lp4633
S'200'
p4634
asbasbasbag57
(g73
g59
NtRp4635
(dp4636
g62
(dp4637
sg71
g3199
sg64
(lp4638
g57
(g78
g59
NtRp4639
(dp4640
g62
(dp4641
g82
g83
ssg71
g4635
sg64
(lp4642
S'subtitle'
p4643
asbag57
(g78
g59
NtRp4644
(dp4645
g62
(dp4646
g89
g90
ssg71
g4635
sg64
(lp4647
S':'
asbag57
(g78
g59
NtRp4648
(dp4649
g62
(dp4650
sg71
g4635
sg64
(lp4651
g57
(g58
g59
NtRp4652
(dp4653
g62
(dp4654
g70
I5
ssg71
g4648
sg64
(lp4655
g3704
(S's\r\x00\x00\x00customize me!'
tRp4656
asbasbasbag57
(g73
g59
NtRp4657
(dp4658
g62
(dp4659
sg71
g3199
sg64
(lp4660
g57
(g78
g59
NtRp4661
(dp4662
g62
(dp4663
g82
g83
ssg71
g4657
sg64
(lp4664
S'title'
p4665
asbag57
(g78
g59
NtRp4666
(dp4667
g62
(dp4668
g89
g90
ssg71
g4657
sg64
(lp4669
S':'
asbag57
(g78
g59
NtRp4670
(dp4671
g62
(dp4672
sg71
g4657
sg64
(lp4673
g57
(g58
g59
NtRp4674
(dp4675
g62
(dp4676
g70
I5
ssg71
g4670
sg64
(lp4677
S'Grammateus3'
p4678
asbasbasbag57
(g73
g59
NtRp4679
(dp4680
g62
(dp4681
sg71
g3199
sg64
(lp4682
g57
(g78
g59
NtRp4683
(dp4684
g62
(dp4685
g82
g83
ssg71
g4679
sg64
(lp4686
g2483
asbag57
(g78
g59
NtRp4687
(dp4688
g62
(dp4689
g89
g90
ssg71
g4679
sg64
(lp4690
S':'
asbag57
(g78
g59
NtRp4691
(dp4692
g62
(dp4693
sg71
g4679
sg64
(lp4694
g57
(g58
g59
NtRp4695
(dp4696
g62
(dp4697
g70
I5
ssg71
g4691
sg64
(lp4698
g2496
asbasbasbag57
(g73
g59
NtRp4699
(dp4700
g62
(dp4701
sg71
g3199
sg64
(lp4702
g57
(g78
g59
NtRp4703
(dp4704
g62
(dp4705
g82
g83
ssg71
g4699
sg64
(lp4706
S'view'
p4707
asbag57
(g78
g59
NtRp4708
(dp4709
g62
(dp4710
g89
g90
ssg71
g4699
sg64
(lp4711
S':'
asbag57
(g78
g59
NtRp4712
(dp4713
g62
(dp4714
sg71
g4699
sg64
(lp4715
g57
(g58
g59
NtRp4716
(dp4717
g62
(dp4718
g70
I5
ssg71
g4712
sg64
(lp4719
S'docs/index.html'
p4720
asbasbasbasbasbsS'locals'
p4721
(dp4722
ssS'traceback'
p4723
S'Traceback (most recent call last):\n  File "/home/ian/web/web2py/gluon/restricted.py", line 204, in restricted\n    exec ccode in environment\n  File "/home/ian/web/web2py/applications/grammateus3/controllers/docs.py", line 109, in <module>\n  File "/home/ian/web/web2py/gluon/globals.py", line 172, in <lambda>\n    self._caller = lambda f: f()\n  File "/home/ian/web/web2py/applications/grammateus3/controllers/docs.py", line 17, in index\n    filename = request.args[0]\nIndexError: list index out of range\n'
p4724
s.