(dp1
S'output'
p2
S"<class 'lxml.etree.XMLSyntaxError'> Element unit does not carry attribute parallel, line 101, column 7"
p3
sS'layer'
p4
S'/home/ian/web/web2py/applications/grammateus3/controllers/docs.py'
p5
sS'code'
p6
S'# coding: utf8\nfrom lxml import etree\n\nfrom parse import BookParser\n\nimport pprint\nimport inspect\n\nimport re\n\n"""\nList of session objects used in text display:\nsession.filename\nsession.info -- dict; parsed results of BookParser class for current doc\nsession.title -- string; title of current doc\nsession.versions -- list; names of all versions in current doc\n"""\n\ndef index():\n    filename = request.args[0]\n    return dict(filename = filename)\n\ndef text():\n    filename = request.args[0]\n    #TODO: provide fallback and prompt if no filename is given in url\n    \n    #url to pass to web2py load helper in view to load doc section via ajax\n    load_url = URL(\'docs\', \'section.load\', args=filename)\n\n    return dict(load_url = load_url, filename = filename)\n\ndef section():\n    """\n    populates a single text pane via the section.load view (refreshable via ajax)\n    """\n    #print url input for debugging purposes\n    varlist = [(str(k) + \':\' + str(v)) for k, v in request.vars.items()]\n    print \'start of section() method with url \', request.url, varlist\n    #get filename from end of url and parse the file with BookParser class\n    filename = request.args[0]\n    print \'filename: \', filename\n    book_file = \'applications/grammateus3/static/docs/%s.xml\' % filename\n    p = BookParser(book_file)\n    info = p.book_info()\n    #get title of document\n    title = info[\'title\']\n\n    #get names of all versions of current doc and select the version to display\n    versions = [version[\'title\'] for version in info[\'versions\']]     \n    if \'version\' in request.vars:\n        current_version = request.vars[\'version\'].replace(\'_\', \' \')\n        #move selected version to top of list for selectbox\n        i = versions.index(current_version)\n        versions.insert(0, versions.pop(i))\n        print \'current version: \', current_version.replace(\' \', \'&nbsp;\')\n    else:\n        current_version = versions[0]\n        print \'current version: \', current_version.replace(\' \', \'&nbsp;\')\n\n    #find selected version in parsed text\n    for version in info[\'versions\']:\n        for k, v in version.items():\n            if k == \'title\' and v == current_version:\n                curv = version\n                vlang = curv[\'language\']\n                levels = curv[\'organisation_levels\']\n            else:\n                pass\n\n    #get list of mss\n    mslist = [k.strip() for k, v in curv[\'manuscript\'].items()]\n    print \'mslist for this version: \', mslist\n    #use the third url argument as manuscript name if present, otherwise default to first version\n    #check for \'newval\' value, indicating the version has changed\n    if \'type\' in request.vars and request.vars[\'type\'] != \'newval\':\n        current_ms = request.vars[\'type\'].replace(\'_\', \' \')\n        current_ms = current_ms.strip()\n        print \'current_ms: \', current_ms\n        #move selected text type to top of list for ms selectbox\n        i = mslist.index(current_ms)\n        mslist.insert(0, mslist.pop(i))        \n    else:\n        current_ms = mslist[0]\n        print \'current_ms: \', current_ms\n\n    #build hierarchical dict of references\n    reflist = [ref for ref, units in curv[\'text_structure\'].items()]\n\n    #build list for starting ref\n    if \'from\' in request.vars:\n        from_input = request.vars[\'from\']\n        start_sel = from_input.split(\'-\')\n        del start_sel[-1]\n        print \'using url ref\'\n    else:\n        firstref = reflist[0]\n        firstref_parts = re.split(\'[:\\.,;_-]\', firstref)\n        start_sel = [firstref_parts[l-1] for l in range(levels)]\n        print \'using default first ref\'\n\n    #build list for ending ref\n    if \'to\' in request.vars:                \n        to_input = request.vars[\'to\']\n        end_sel = to_input.split(\'-\')\n        del end_sel[-1]\n    else:\n        end_sel = start_sel\n    print \'start_sel\', start_sel\n    print \'end_sel\', end_sel\n    #gather text from units within the selected section of the doc\n    #filters the current version for only readings in the current\n    #text type\n    sel_text = []\n    print \'matching text in: \'\n    for ref, units in curv[\'text_structure\'].items():\n        ref_parts = re.split(\'[:\\.,;_-]\', ref)\n        print \'versions is type: \', type(versions)\n        if int(ref_parts[0]) >= int(start_sel[0]) and int(ref_parts[0]) <= int(end_sel[0]):\n                print ref_parts\n                sel_text.append(SPAN(ref, _class = \'ref\'))\n                for unit_ref, unit_val in units.items():\n                    for mss, raw_text in unit_val.items():\n                        if current_ms[-1] != \' \':\n                            current_ms += \' \'\n                        if current_ms in (mss + \' \'):\n                            if len(units) > 1:\n                                sel_text.append(A(raw_text, _class = vlang, _href=unit_ref))\n                            else:\n                                sel_text.append(SPAN(raw_text, _class = vlang))\n                        else:\n                            pass\n    for s in sel_text:\n        print s[0]\n\n    return dict(title = title, versions = versions, current_version = current_version,\n                info = info, filename = filename, mslist = mslist, sel_text = sel_text,\n                levels = levels, start_sel = start_sel, end_sel = end_sel)\n\n\ndef apparatus():\n    filename = request.args[0]\n    book_file = \'applications/grammateus3/static/docs/%s.xml\' % filename\n    p = BookParser(book_file)\n    info = p.book_info()\n\n    #if no unit has been requested, present the default message\n    if request.vars[\'called\'] == \'no\':\n        rlist = SPAN(\'Click on any blue text to display textual variants for those words. If no links are available that may mean no variants are attested or it may mean that this document does not yet have a complete textual apparatus. See the document introduction for details.\')\n    #if a unit has been requested, assemble that unit\'s readings\n    else:\n        #get current version\n        current_version = request.vars[\'version\'].replace(\'_\', \' \')\n        print \'current version: \', current_version\n\n        #find selected version in parsed text\n        for version in info[\'versions\']:\n            for k, v in version.items():\n                if k == \'title\' and v == current_version:\n                    curv = version\n                    vlang = curv[\'language\']\n\n        #find requested unit and get reading information\n        for ref, units in curv[\'text_structure\'].items():\n            for unit_ref, unit_val in units.items():\n                if unit_ref == request.vars[\'unit\']:\n                    rlist = {k:v for k, v in unit_val.items()}\n\n    return dict(rlist = rlist)\n\ndef test():\n    filename = request.args[0]\n    book_file = \'applications/grammateus3/static/docs/%s.xml\' % filename\n    p = BookParser(book_file)\n    info = p.book_info()\n\n    title = info[\'title\']\n    for version in info[\'versions\']:\n        for key, value in version.items():\n            if key != \'text_structure\':\n                print \'Version\', key, \'-->\', value\n\n            else:\n                print \'Version textstructure\'\n                for ref, ref_val in value.items():\n                    for unit, unit_val in ref_val.items():\n                        for mss, mss_val in unit_val.items():\n                            print \'\\t\', ref, \'-->\', unit, \'-->\', mss, \'-->\', mss_val\n        print \'************\'\n    print\n    print\n\n    return dict(title = title, info = info)\n\nresponse._vars=response._caller(section)\n'
p7
sS'snapshot'
p8
(dp9
S'exception'
p10
(dp11
S'__module__'
p12
S"'lxml.etree'"
p13
sg6
S'518'
p14
sS'__getslice__'
p15
S"<method-wrapper '__getslice__' of XMLSyntaxError object>"
p16
sS'text'
p17
S'None'
p18
sS'__str__'
p19
S"<method-wrapper '__str__' of XMLSyntaxError object>"
p20
sS'__reduce__'
p21
S'<built-in method __reduce__ of XMLSyntaxError object>'
p22
sS'__dict__'
p23
S"{'code': 518, 'error_log': applications/grammateus3/static/docs/SibOr.xml:2...E: Element unit does not carry attribute parallel, 'position': (101, 7)}"
p24
sS'__sizeof__'
p25
S'<built-in method __sizeof__ of XMLSyntaxError object>'
p26
sS'__weakref__'
p27
S'None'
p28
sS'__init__'
p29
S"<bound method XMLSyntaxError.__init__ of XMLSynt... carry attribute parallel, line 101, column 7',)>"
p30
sS'__setattr__'
p31
S"<method-wrapper '__setattr__' of XMLSyntaxError object>"
p32
sS'__reduce_ex__'
p33
S'<built-in method __reduce_ex__ of XMLSyntaxError object>'
p34
sS'__new__'
p35
S'<built-in method __new__ of type object>'
p36
sS'__format__'
p37
S'<built-in method __format__ of XMLSyntaxError object>'
p38
sS'__class__'
p39
S"<class 'lxml.etree.XMLSyntaxError'>"
p40
sS'filename'
p41
S'None'
p42
sS'lineno'
p43
S'None'
p44
sS'msg'
p45
S"u'Element unit does not carry attribute parallel, line 101, column 7'"
p46
sS'__doc__'
p47
S"'Syntax error while parsing an XML document.\\n    '"
p48
sS'__getitem__'
p49
S"<method-wrapper '__getitem__' of XMLSyntaxError object>"
p50
sS'__setstate__'
p51
S'<built-in method __setstate__ of XMLSyntaxError object>'
p52
sS'__getattribute__'
p53
S"<method-wrapper '__getattribute__' of XMLSyntaxError object>"
p54
sS'print_file_and_line'
p55
S'None'
p56
sS'args'
p57
S"(u'Element unit does not carry attribute parallel, line 101, column 7',)"
p58
sS'__subclasshook__'
p59
S'<built-in method __subclasshook__ of type object>'
p60
sS'offset'
p61
S'None'
p62
sS'__unicode__'
p63
S'<built-in method __unicode__ of XMLSyntaxError object>'
p64
sS'error_log'
p65
S'applications/grammateus3/static/docs/SibOr.xml:2...E: Element unit does not carry attribute parallel'
p66
sS'__delattr__'
p67
S"<method-wrapper '__delattr__' of XMLSyntaxError object>"
p68
sS'__repr__'
p69
S"<method-wrapper '__repr__' of XMLSyntaxError object>"
p70
sS'__hash__'
p71
S"<method-wrapper '__hash__' of XMLSyntaxError object>"
p72
sS'position'
p73
S'(101, 7)'
p74
ssS'evalue'
p75
S'Element unit does not carry attribute parallel, line 101, column 7'
p76
sS'request'
p77
ccopy_reg
_reconstructor
p78
(cgluon.html
BEAUTIFY
p79
c__builtin__
object
p80
NtRp81
(dp82
S'attributes'
p83
(dp84
sS'components'
p85
(lp86
g78
(cgluon.html
TABLE
p87
g80
NtRp88
(dp89
g83
(dp90
S'level'
p91
I5
ssS'parent'
p92
Nsg85
(lp93
g78
(cgluon.html
TR
p94
g80
NtRp95
(dp96
g83
(dp97
sg92
g88
sg85
(lp98
g78
(cgluon.html
TD
p99
g80
NtRp100
(dp101
g83
(dp102
S'_style'
p103
S'font-weight:bold;vertical-align:top'
p104
ssg92
g95
sg85
(lp105
S'ajax'
p106
asbag78
(g99
g80
NtRp107
(dp108
g83
(dp109
S'_valign'
p110
S'top'
p111
ssg92
g95
sg85
(lp112
S':'
asbag78
(g99
g80
NtRp113
(dp114
g83
(dp115
sg92
g95
sg85
(lp116
g78
(g79
g80
NtRp117
(dp118
g83
(dp119
g91
I5
ssg92
g113
sg85
(lp120
S'True'
p121
asbasbasbag78
(g94
g80
NtRp122
(dp123
g83
(dp124
sg92
g88
sg85
(lp125
g78
(g99
g80
NtRp126
(dp127
g83
(dp128
g103
g104
ssg92
g122
sg85
(lp129
S'application'
p130
asbag78
(g99
g80
NtRp131
(dp132
g83
(dp133
g110
g111
ssg92
g122
sg85
(lp134
S':'
asbag78
(g99
g80
NtRp135
(dp136
g83
(dp137
sg92
g122
sg85
(lp138
g78
(g79
g80
NtRp139
(dp140
g83
(dp141
g91
I5
ssg92
g135
sg85
(lp142
S'grammateus3'
p143
asbasbasbag78
(g94
g80
NtRp144
(dp145
g83
(dp146
sg92
g88
sg85
(lp147
g78
(g99
g80
NtRp148
(dp149
g83
(dp150
g103
g104
ssg92
g144
sg85
(lp151
g57
asbag78
(g99
g80
NtRp152
(dp153
g83
(dp154
g110
g111
ssg92
g144
sg85
(lp155
S':'
asbag78
(g99
g80
NtRp156
(dp157
g83
(dp158
sg92
g144
sg85
(lp159
g78
(g79
g80
NtRp160
(dp161
g83
(dp162
g91
I5
ssg92
g156
sg85
(lp163
g78
(g87
g80
NtRp164
(dp165
g83
(dp166
g91
I4
ssg92
Nsg85
(lp167
g78
(g94
g80
NtRp168
(dp169
g83
(dp170
sg92
g164
sg85
(lp171
g78
(g99
g80
NtRp172
(dp173
g83
(dp174
sg92
g168
sg85
(lp175
g78
(g79
g80
NtRp176
(dp177
g83
(dp178
g91
I4
ssg92
g172
sg85
(lp179
S'SibOr'
p180
asbasbasbasbasbasbasbag78
(g94
g80
NtRp181
(dp182
g83
(dp183
sg92
g88
sg85
(lp184
g78
(g99
g80
NtRp185
(dp186
g83
(dp187
g103
g104
ssg92
g181
sg85
(lp188
S'body'
p189
asbag78
(g99
g80
NtRp190
(dp191
g83
(dp192
g110
g111
ssg92
g181
sg85
(lp193
S':'
asbag78
(g99
g80
NtRp194
(dp195
g83
(dp196
sg92
g181
sg85
(lp197
g78
(g79
g80
NtRp198
(dp199
g83
(dp200
g91
I5
ssg92
g194
sg85
(lp201
S'<cStringIO.StringO object at 0x7f03d4f8db58>'
p202
asbasbasbag78
(g94
g80
NtRp203
(dp204
g83
(dp205
sg92
g88
sg85
(lp206
g78
(g99
g80
NtRp207
(dp208
g83
(dp209
g103
g104
ssg92
g203
sg85
(lp210
S'cid'
p211
asbag78
(g99
g80
NtRp212
(dp213
g83
(dp214
g110
g111
ssg92
g203
sg85
(lp215
S':'
asbag78
(g99
g80
NtRp216
(dp217
g83
(dp218
sg92
g203
sg85
(lp219
g78
(g79
g80
NtRp220
(dp221
g83
(dp222
g91
I5
ssg92
g216
sg85
(lp223
S'c020213994063'
p224
asbasbasbag78
(g94
g80
NtRp225
(dp226
g83
(dp227
sg92
g88
sg85
(lp228
g78
(g99
g80
NtRp229
(dp230
g83
(dp231
g103
g104
ssg92
g225
sg85
(lp232
S'client'
p233
asbag78
(g99
g80
NtRp234
(dp235
g83
(dp236
g110
g111
ssg92
g225
sg85
(lp237
S':'
asbag78
(g99
g80
NtRp238
(dp239
g83
(dp240
sg92
g225
sg85
(lp241
g78
(g79
g80
NtRp242
(dp243
g83
(dp244
g91
I5
ssg92
g238
sg85
(lp245
S'127.0.0.1'
p246
asbasbasbag78
(g94
g80
NtRp247
(dp248
g83
(dp249
sg92
g88
sg85
(lp250
g78
(g99
g80
NtRp251
(dp252
g83
(dp253
g103
g104
ssg92
g247
sg85
(lp254
S'controller'
p255
asbag78
(g99
g80
NtRp256
(dp257
g83
(dp258
g110
g111
ssg92
g247
sg85
(lp259
S':'
asbag78
(g99
g80
NtRp260
(dp261
g83
(dp262
sg92
g247
sg85
(lp263
g78
(g79
g80
NtRp264
(dp265
g83
(dp266
g91
I5
ssg92
g260
sg85
(lp267
S'docs'
p268
asbasbasbag78
(g94
g80
NtRp269
(dp270
g83
(dp271
sg92
g88
sg85
(lp272
g78
(g99
g80
NtRp273
(dp274
g83
(dp275
g103
g104
ssg92
g269
sg85
(lp276
S'cookies'
p277
asbag78
(g99
g80
NtRp278
(dp279
g83
(dp280
g110
g111
ssg92
g269
sg85
(lp281
S':'
asbag78
(g99
g80
NtRp282
(dp283
g83
(dp284
sg92
g269
sg85
(lp285
g78
(g79
g80
NtRp286
(dp287
g83
(dp288
g91
I5
ssg92
g282
sg85
(lp289
g78
(g87
g80
NtRp290
(dp291
g83
(dp292
g91
I4
ssg92
Nsg85
(lp293
g78
(g94
g80
NtRp294
(dp295
g83
(dp296
sg92
g290
sg85
(lp297
g78
(g99
g80
NtRp298
(dp299
g83
(dp300
g103
g104
ssg92
g294
sg85
(lp301
S'session_id_admin'
p302
asbag78
(g99
g80
NtRp303
(dp304
g83
(dp305
g110
g111
ssg92
g294
sg85
(lp306
S':'
asbag78
(g99
g80
NtRp307
(dp308
g83
(dp309
sg92
g294
sg85
(lp310
g78
(g79
g80
NtRp311
(dp312
g83
(dp313
g91
I4
ssg92
g307
sg85
(lp314
g78
(g87
g80
NtRp315
(dp316
g83
(dp317
g91
I3
ssg92
Nsg85
(lp318
g78
(g94
g80
NtRp319
(dp320
g83
(dp321
sg92
g315
sg85
(lp322
g78
(g99
g80
NtRp323
(dp324
g83
(dp325
g103
g104
ssg92
g319
sg85
(lp326
S'comment'
p327
asbag78
(g99
g80
NtRp328
(dp329
g83
(dp330
g110
g111
ssg92
g319
sg85
(lp331
S':'
asbag78
(g99
g80
NtRp332
(dp333
g83
(dp334
sg92
g319
sg85
(lp335
g78
(g79
g80
NtRp336
(dp337
g83
(dp338
g91
I3
ssg92
g332
sg85
(lp339
S''
asbasbasbag78
(g94
g80
NtRp340
(dp341
g83
(dp342
sg92
g315
sg85
(lp343
g78
(g99
g80
NtRp344
(dp345
g83
(dp346
g103
g104
ssg92
g340
sg85
(lp347
S'domain'
p348
asbag78
(g99
g80
NtRp349
(dp350
g83
(dp351
g110
g111
ssg92
g340
sg85
(lp352
S':'
asbag78
(g99
g80
NtRp353
(dp354
g83
(dp355
sg92
g340
sg85
(lp356
g78
(g79
g80
NtRp357
(dp358
g83
(dp359
g91
I3
ssg92
g353
sg85
(lp360
S''
asbasbasbag78
(g94
g80
NtRp361
(dp362
g83
(dp363
sg92
g315
sg85
(lp364
g78
(g99
g80
NtRp365
(dp366
g83
(dp367
g103
g104
ssg92
g361
sg85
(lp368
S'expires'
p369
asbag78
(g99
g80
NtRp370
(dp371
g83
(dp372
g110
g111
ssg92
g361
sg85
(lp373
S':'
asbag78
(g99
g80
NtRp374
(dp375
g83
(dp376
sg92
g361
sg85
(lp377
g78
(g79
g80
NtRp378
(dp379
g83
(dp380
g91
I3
ssg92
g374
sg85
(lp381
S''
asbasbasbag78
(g94
g80
NtRp382
(dp383
g83
(dp384
sg92
g315
sg85
(lp385
g78
(g99
g80
NtRp386
(dp387
g83
(dp388
g103
g104
ssg92
g382
sg85
(lp389
S'httponly'
p390
asbag78
(g99
g80
NtRp391
(dp392
g83
(dp393
g110
g111
ssg92
g382
sg85
(lp394
S':'
asbag78
(g99
g80
NtRp395
(dp396
g83
(dp397
sg92
g382
sg85
(lp398
g78
(g79
g80
NtRp399
(dp400
g83
(dp401
g91
I3
ssg92
g395
sg85
(lp402
S''
asbasbasbag78
(g94
g80
NtRp403
(dp404
g83
(dp405
sg92
g315
sg85
(lp406
g78
(g99
g80
NtRp407
(dp408
g83
(dp409
g103
g104
ssg92
g403
sg85
(lp410
S'max-age'
p411
asbag78
(g99
g80
NtRp412
(dp413
g83
(dp414
g110
g111
ssg92
g403
sg85
(lp415
S':'
asbag78
(g99
g80
NtRp416
(dp417
g83
(dp418
sg92
g403
sg85
(lp419
g78
(g79
g80
NtRp420
(dp421
g83
(dp422
g91
I3
ssg92
g416
sg85
(lp423
S''
asbasbasbag78
(g94
g80
NtRp424
(dp425
g83
(dp426
sg92
g315
sg85
(lp427
g78
(g99
g80
NtRp428
(dp429
g83
(dp430
g103
g104
ssg92
g424
sg85
(lp431
S'path'
p432
asbag78
(g99
g80
NtRp433
(dp434
g83
(dp435
g110
g111
ssg92
g424
sg85
(lp436
S':'
asbag78
(g99
g80
NtRp437
(dp438
g83
(dp439
sg92
g424
sg85
(lp440
g78
(g79
g80
NtRp441
(dp442
g83
(dp443
g91
I3
ssg92
g437
sg85
(lp444
S''
asbasbasbag78
(g94
g80
NtRp445
(dp446
g83
(dp447
sg92
g315
sg85
(lp448
g78
(g99
g80
NtRp449
(dp450
g83
(dp451
g103
g104
ssg92
g445
sg85
(lp452
S'secure'
p453
asbag78
(g99
g80
NtRp454
(dp455
g83
(dp456
g110
g111
ssg92
g445
sg85
(lp457
S':'
asbag78
(g99
g80
NtRp458
(dp459
g83
(dp460
sg92
g445
sg85
(lp461
g78
(g79
g80
NtRp462
(dp463
g83
(dp464
g91
I3
ssg92
g458
sg85
(lp465
S''
asbasbasbag78
(g94
g80
NtRp466
(dp467
g83
(dp468
sg92
g315
sg85
(lp469
g78
(g99
g80
NtRp470
(dp471
g83
(dp472
g103
g104
ssg92
g466
sg85
(lp473
S'version'
p474
asbag78
(g99
g80
NtRp475
(dp476
g83
(dp477
g110
g111
ssg92
g466
sg85
(lp478
S':'
asbag78
(g99
g80
NtRp479
(dp480
g83
(dp481
sg92
g466
sg85
(lp482
g78
(g79
g80
NtRp483
(dp484
g83
(dp485
g91
I3
ssg92
g479
sg85
(lp486
S''
asbasbasbasbasbasbasbag78
(g94
g80
NtRp487
(dp488
g83
(dp489
sg92
g290
sg85
(lp490
g78
(g99
g80
NtRp491
(dp492
g83
(dp493
g103
g104
ssg92
g487
sg85
(lp494
S'session_id_grammateus3'
p495
asbag78
(g99
g80
NtRp496
(dp497
g83
(dp498
g110
g111
ssg92
g487
sg85
(lp499
S':'
asbag78
(g99
g80
NtRp500
(dp501
g83
(dp502
sg92
g487
sg85
(lp503
g78
(g79
g80
NtRp504
(dp505
g83
(dp506
g91
I4
ssg92
g500
sg85
(lp507
g78
(g87
g80
NtRp508
(dp509
g83
(dp510
g91
I3
ssg92
Nsg85
(lp511
g78
(g94
g80
NtRp512
(dp513
g83
(dp514
sg92
g508
sg85
(lp515
g78
(g99
g80
NtRp516
(dp517
g83
(dp518
g103
g104
ssg92
g512
sg85
(lp519
g327
asbag78
(g99
g80
NtRp520
(dp521
g83
(dp522
g110
g111
ssg92
g512
sg85
(lp523
S':'
asbag78
(g99
g80
NtRp524
(dp525
g83
(dp526
sg92
g512
sg85
(lp527
g78
(g79
g80
NtRp528
(dp529
g83
(dp530
g91
I3
ssg92
g524
sg85
(lp531
S''
asbasbasbag78
(g94
g80
NtRp532
(dp533
g83
(dp534
sg92
g508
sg85
(lp535
g78
(g99
g80
NtRp536
(dp537
g83
(dp538
g103
g104
ssg92
g532
sg85
(lp539
g348
asbag78
(g99
g80
NtRp540
(dp541
g83
(dp542
g110
g111
ssg92
g532
sg85
(lp543
S':'
asbag78
(g99
g80
NtRp544
(dp545
g83
(dp546
sg92
g532
sg85
(lp547
g78
(g79
g80
NtRp548
(dp549
g83
(dp550
g91
I3
ssg92
g544
sg85
(lp551
S''
asbasbasbag78
(g94
g80
NtRp552
(dp553
g83
(dp554
sg92
g508
sg85
(lp555
g78
(g99
g80
NtRp556
(dp557
g83
(dp558
g103
g104
ssg92
g552
sg85
(lp559
g369
asbag78
(g99
g80
NtRp560
(dp561
g83
(dp562
g110
g111
ssg92
g552
sg85
(lp563
S':'
asbag78
(g99
g80
NtRp564
(dp565
g83
(dp566
sg92
g552
sg85
(lp567
g78
(g79
g80
NtRp568
(dp569
g83
(dp570
g91
I3
ssg92
g564
sg85
(lp571
S''
asbasbasbag78
(g94
g80
NtRp572
(dp573
g83
(dp574
sg92
g508
sg85
(lp575
g78
(g99
g80
NtRp576
(dp577
g83
(dp578
g103
g104
ssg92
g572
sg85
(lp579
g390
asbag78
(g99
g80
NtRp580
(dp581
g83
(dp582
g110
g111
ssg92
g572
sg85
(lp583
S':'
asbag78
(g99
g80
NtRp584
(dp585
g83
(dp586
sg92
g572
sg85
(lp587
g78
(g79
g80
NtRp588
(dp589
g83
(dp590
g91
I3
ssg92
g584
sg85
(lp591
S''
asbasbasbag78
(g94
g80
NtRp592
(dp593
g83
(dp594
sg92
g508
sg85
(lp595
g78
(g99
g80
NtRp596
(dp597
g83
(dp598
g103
g104
ssg92
g592
sg85
(lp599
g411
asbag78
(g99
g80
NtRp600
(dp601
g83
(dp602
g110
g111
ssg92
g592
sg85
(lp603
S':'
asbag78
(g99
g80
NtRp604
(dp605
g83
(dp606
sg92
g592
sg85
(lp607
g78
(g79
g80
NtRp608
(dp609
g83
(dp610
g91
I3
ssg92
g604
sg85
(lp611
S''
asbasbasbag78
(g94
g80
NtRp612
(dp613
g83
(dp614
sg92
g508
sg85
(lp615
g78
(g99
g80
NtRp616
(dp617
g83
(dp618
g103
g104
ssg92
g612
sg85
(lp619
g432
asbag78
(g99
g80
NtRp620
(dp621
g83
(dp622
g110
g111
ssg92
g612
sg85
(lp623
S':'
asbag78
(g99
g80
NtRp624
(dp625
g83
(dp626
sg92
g612
sg85
(lp627
g78
(g79
g80
NtRp628
(dp629
g83
(dp630
g91
I3
ssg92
g624
sg85
(lp631
S''
asbasbasbag78
(g94
g80
NtRp632
(dp633
g83
(dp634
sg92
g508
sg85
(lp635
g78
(g99
g80
NtRp636
(dp637
g83
(dp638
g103
g104
ssg92
g632
sg85
(lp639
g453
asbag78
(g99
g80
NtRp640
(dp641
g83
(dp642
g110
g111
ssg92
g632
sg85
(lp643
S':'
asbag78
(g99
g80
NtRp644
(dp645
g83
(dp646
sg92
g632
sg85
(lp647
g78
(g79
g80
NtRp648
(dp649
g83
(dp650
g91
I3
ssg92
g644
sg85
(lp651
S''
asbasbasbag78
(g94
g80
NtRp652
(dp653
g83
(dp654
sg92
g508
sg85
(lp655
g78
(g99
g80
NtRp656
(dp657
g83
(dp658
g103
g104
ssg92
g652
sg85
(lp659
g474
asbag78
(g99
g80
NtRp660
(dp661
g83
(dp662
g110
g111
ssg92
g652
sg85
(lp663
S':'
asbag78
(g99
g80
NtRp664
(dp665
g83
(dp666
sg92
g652
sg85
(lp667
g78
(g79
g80
NtRp668
(dp669
g83
(dp670
g91
I3
ssg92
g664
sg85
(lp671
S''
asbasbasbasbasbasbasbag78
(g94
g80
NtRp672
(dp673
g83
(dp674
sg92
g290
sg85
(lp675
g78
(g99
g80
NtRp676
(dp677
g83
(dp678
g103
g104
ssg92
g672
sg85
(lp679
S'session_id_paideia'
p680
asbag78
(g99
g80
NtRp681
(dp682
g83
(dp683
g110
g111
ssg92
g672
sg85
(lp684
S':'
asbag78
(g99
g80
NtRp685
(dp686
g83
(dp687
sg92
g672
sg85
(lp688
g78
(g79
g80
NtRp689
(dp690
g83
(dp691
g91
I4
ssg92
g685
sg85
(lp692
g78
(g87
g80
NtRp693
(dp694
g83
(dp695
g91
I3
ssg92
Nsg85
(lp696
g78
(g94
g80
NtRp697
(dp698
g83
(dp699
sg92
g693
sg85
(lp700
g78
(g99
g80
NtRp701
(dp702
g83
(dp703
g103
g104
ssg92
g697
sg85
(lp704
g327
asbag78
(g99
g80
NtRp705
(dp706
g83
(dp707
g110
g111
ssg92
g697
sg85
(lp708
S':'
asbag78
(g99
g80
NtRp709
(dp710
g83
(dp711
sg92
g697
sg85
(lp712
g78
(g79
g80
NtRp713
(dp714
g83
(dp715
g91
I3
ssg92
g709
sg85
(lp716
S''
asbasbasbag78
(g94
g80
NtRp717
(dp718
g83
(dp719
sg92
g693
sg85
(lp720
g78
(g99
g80
NtRp721
(dp722
g83
(dp723
g103
g104
ssg92
g717
sg85
(lp724
g348
asbag78
(g99
g80
NtRp725
(dp726
g83
(dp727
g110
g111
ssg92
g717
sg85
(lp728
S':'
asbag78
(g99
g80
NtRp729
(dp730
g83
(dp731
sg92
g717
sg85
(lp732
g78
(g79
g80
NtRp733
(dp734
g83
(dp735
g91
I3
ssg92
g729
sg85
(lp736
S''
asbasbasbag78
(g94
g80
NtRp737
(dp738
g83
(dp739
sg92
g693
sg85
(lp740
g78
(g99
g80
NtRp741
(dp742
g83
(dp743
g103
g104
ssg92
g737
sg85
(lp744
g369
asbag78
(g99
g80
NtRp745
(dp746
g83
(dp747
g110
g111
ssg92
g737
sg85
(lp748
S':'
asbag78
(g99
g80
NtRp749
(dp750
g83
(dp751
sg92
g737
sg85
(lp752
g78
(g79
g80
NtRp753
(dp754
g83
(dp755
g91
I3
ssg92
g749
sg85
(lp756
S''
asbasbasbag78
(g94
g80
NtRp757
(dp758
g83
(dp759
sg92
g693
sg85
(lp760
g78
(g99
g80
NtRp761
(dp762
g83
(dp763
g103
g104
ssg92
g757
sg85
(lp764
g390
asbag78
(g99
g80
NtRp765
(dp766
g83
(dp767
g110
g111
ssg92
g757
sg85
(lp768
S':'
asbag78
(g99
g80
NtRp769
(dp770
g83
(dp771
sg92
g757
sg85
(lp772
g78
(g79
g80
NtRp773
(dp774
g83
(dp775
g91
I3
ssg92
g769
sg85
(lp776
S''
asbasbasbag78
(g94
g80
NtRp777
(dp778
g83
(dp779
sg92
g693
sg85
(lp780
g78
(g99
g80
NtRp781
(dp782
g83
(dp783
g103
g104
ssg92
g777
sg85
(lp784
g411
asbag78
(g99
g80
NtRp785
(dp786
g83
(dp787
g110
g111
ssg92
g777
sg85
(lp788
S':'
asbag78
(g99
g80
NtRp789
(dp790
g83
(dp791
sg92
g777
sg85
(lp792
g78
(g79
g80
NtRp793
(dp794
g83
(dp795
g91
I3
ssg92
g789
sg85
(lp796
S''
asbasbasbag78
(g94
g80
NtRp797
(dp798
g83
(dp799
sg92
g693
sg85
(lp800
g78
(g99
g80
NtRp801
(dp802
g83
(dp803
g103
g104
ssg92
g797
sg85
(lp804
g432
asbag78
(g99
g80
NtRp805
(dp806
g83
(dp807
g110
g111
ssg92
g797
sg85
(lp808
S':'
asbag78
(g99
g80
NtRp809
(dp810
g83
(dp811
sg92
g797
sg85
(lp812
g78
(g79
g80
NtRp813
(dp814
g83
(dp815
g91
I3
ssg92
g809
sg85
(lp816
S''
asbasbasbag78
(g94
g80
NtRp817
(dp818
g83
(dp819
sg92
g693
sg85
(lp820
g78
(g99
g80
NtRp821
(dp822
g83
(dp823
g103
g104
ssg92
g817
sg85
(lp824
g453
asbag78
(g99
g80
NtRp825
(dp826
g83
(dp827
g110
g111
ssg92
g817
sg85
(lp828
S':'
asbag78
(g99
g80
NtRp829
(dp830
g83
(dp831
sg92
g817
sg85
(lp832
g78
(g79
g80
NtRp833
(dp834
g83
(dp835
g91
I3
ssg92
g829
sg85
(lp836
S''
asbasbasbag78
(g94
g80
NtRp837
(dp838
g83
(dp839
sg92
g693
sg85
(lp840
g78
(g99
g80
NtRp841
(dp842
g83
(dp843
g103
g104
ssg92
g837
sg85
(lp844
g474
asbag78
(g99
g80
NtRp845
(dp846
g83
(dp847
g110
g111
ssg92
g837
sg85
(lp848
S':'
asbag78
(g99
g80
NtRp849
(dp850
g83
(dp851
sg92
g837
sg85
(lp852
g78
(g79
g80
NtRp853
(dp854
g83
(dp855
g91
I3
ssg92
g849
sg85
(lp856
S''
asbasbasbasbasbasbasbag78
(g94
g80
NtRp857
(dp858
g83
(dp859
sg92
g290
sg85
(lp860
g78
(g99
g80
NtRp861
(dp862
g83
(dp863
g103
g104
ssg92
g857
sg85
(lp864
S'session_id_welcome'
p865
asbag78
(g99
g80
NtRp866
(dp867
g83
(dp868
g110
g111
ssg92
g857
sg85
(lp869
S':'
asbag78
(g99
g80
NtRp870
(dp871
g83
(dp872
sg92
g857
sg85
(lp873
g78
(g79
g80
NtRp874
(dp875
g83
(dp876
g91
I4
ssg92
g870
sg85
(lp877
g78
(g87
g80
NtRp878
(dp879
g83
(dp880
g91
I3
ssg92
Nsg85
(lp881
g78
(g94
g80
NtRp882
(dp883
g83
(dp884
sg92
g878
sg85
(lp885
g78
(g99
g80
NtRp886
(dp887
g83
(dp888
g103
g104
ssg92
g882
sg85
(lp889
g327
asbag78
(g99
g80
NtRp890
(dp891
g83
(dp892
g110
g111
ssg92
g882
sg85
(lp893
S':'
asbag78
(g99
g80
NtRp894
(dp895
g83
(dp896
sg92
g882
sg85
(lp897
g78
(g79
g80
NtRp898
(dp899
g83
(dp900
g91
I3
ssg92
g894
sg85
(lp901
S''
asbasbasbag78
(g94
g80
NtRp902
(dp903
g83
(dp904
sg92
g878
sg85
(lp905
g78
(g99
g80
NtRp906
(dp907
g83
(dp908
g103
g104
ssg92
g902
sg85
(lp909
g348
asbag78
(g99
g80
NtRp910
(dp911
g83
(dp912
g110
g111
ssg92
g902
sg85
(lp913
S':'
asbag78
(g99
g80
NtRp914
(dp915
g83
(dp916
sg92
g902
sg85
(lp917
g78
(g79
g80
NtRp918
(dp919
g83
(dp920
g91
I3
ssg92
g914
sg85
(lp921
S''
asbasbasbag78
(g94
g80
NtRp922
(dp923
g83
(dp924
sg92
g878
sg85
(lp925
g78
(g99
g80
NtRp926
(dp927
g83
(dp928
g103
g104
ssg92
g922
sg85
(lp929
g369
asbag78
(g99
g80
NtRp930
(dp931
g83
(dp932
g110
g111
ssg92
g922
sg85
(lp933
S':'
asbag78
(g99
g80
NtRp934
(dp935
g83
(dp936
sg92
g922
sg85
(lp937
g78
(g79
g80
NtRp938
(dp939
g83
(dp940
g91
I3
ssg92
g934
sg85
(lp941
S''
asbasbasbag78
(g94
g80
NtRp942
(dp943
g83
(dp944
sg92
g878
sg85
(lp945
g78
(g99
g80
NtRp946
(dp947
g83
(dp948
g103
g104
ssg92
g942
sg85
(lp949
g390
asbag78
(g99
g80
NtRp950
(dp951
g83
(dp952
g110
g111
ssg92
g942
sg85
(lp953
S':'
asbag78
(g99
g80
NtRp954
(dp955
g83
(dp956
sg92
g942
sg85
(lp957
g78
(g79
g80
NtRp958
(dp959
g83
(dp960
g91
I3
ssg92
g954
sg85
(lp961
S''
asbasbasbag78
(g94
g80
NtRp962
(dp963
g83
(dp964
sg92
g878
sg85
(lp965
g78
(g99
g80
NtRp966
(dp967
g83
(dp968
g103
g104
ssg92
g962
sg85
(lp969
g411
asbag78
(g99
g80
NtRp970
(dp971
g83
(dp972
g110
g111
ssg92
g962
sg85
(lp973
S':'
asbag78
(g99
g80
NtRp974
(dp975
g83
(dp976
sg92
g962
sg85
(lp977
g78
(g79
g80
NtRp978
(dp979
g83
(dp980
g91
I3
ssg92
g974
sg85
(lp981
S''
asbasbasbag78
(g94
g80
NtRp982
(dp983
g83
(dp984
sg92
g878
sg85
(lp985
g78
(g99
g80
NtRp986
(dp987
g83
(dp988
g103
g104
ssg92
g982
sg85
(lp989
g432
asbag78
(g99
g80
NtRp990
(dp991
g83
(dp992
g110
g111
ssg92
g982
sg85
(lp993
S':'
asbag78
(g99
g80
NtRp994
(dp995
g83
(dp996
sg92
g982
sg85
(lp997
g78
(g79
g80
NtRp998
(dp999
g83
(dp1000
g91
I3
ssg92
g994
sg85
(lp1001
S''
asbasbasbag78
(g94
g80
NtRp1002
(dp1003
g83
(dp1004
sg92
g878
sg85
(lp1005
g78
(g99
g80
NtRp1006
(dp1007
g83
(dp1008
g103
g104
ssg92
g1002
sg85
(lp1009
g453
asbag78
(g99
g80
NtRp1010
(dp1011
g83
(dp1012
g110
g111
ssg92
g1002
sg85
(lp1013
S':'
asbag78
(g99
g80
NtRp1014
(dp1015
g83
(dp1016
sg92
g1002
sg85
(lp1017
g78
(g79
g80
NtRp1018
(dp1019
g83
(dp1020
g91
I3
ssg92
g1014
sg85
(lp1021
S''
asbasbasbag78
(g94
g80
NtRp1022
(dp1023
g83
(dp1024
sg92
g878
sg85
(lp1025
g78
(g99
g80
NtRp1026
(dp1027
g83
(dp1028
g103
g104
ssg92
g1022
sg85
(lp1029
g474
asbag78
(g99
g80
NtRp1030
(dp1031
g83
(dp1032
g110
g111
ssg92
g1022
sg85
(lp1033
S':'
asbag78
(g99
g80
NtRp1034
(dp1035
g83
(dp1036
sg92
g1022
sg85
(lp1037
g78
(g79
g80
NtRp1038
(dp1039
g83
(dp1040
g91
I3
ssg92
g1034
sg85
(lp1041
S''
asbasbasbasbasbasbasbasbasbasbasbag78
(g94
g80
NtRp1042
(dp1043
g83
(dp1044
sg92
g88
sg85
(lp1045
g78
(g99
g80
NtRp1046
(dp1047
g83
(dp1048
g103
g104
ssg92
g1042
sg85
(lp1049
S'env'
p1050
asbag78
(g99
g80
NtRp1051
(dp1052
g83
(dp1053
g110
g111
ssg92
g1042
sg85
(lp1054
S':'
asbag78
(g99
g80
NtRp1055
(dp1056
g83
(dp1057
sg92
g1042
sg85
(lp1058
g78
(g79
g80
NtRp1059
(dp1060
g83
(dp1061
g91
I5
ssg92
g1055
sg85
(lp1062
g78
(g87
g80
NtRp1063
(dp1064
g83
(dp1065
g91
I4
ssg92
Nsg85
(lp1066
g78
(g94
g80
NtRp1067
(dp1068
g83
(dp1069
sg92
g1063
sg85
(lp1070
g78
(g99
g80
NtRp1071
(dp1072
g83
(dp1073
g103
g104
ssg92
g1067
sg85
(lp1074
S'app_folders'
p1075
asbag78
(g99
g80
NtRp1076
(dp1077
g83
(dp1078
g110
g111
ssg92
g1067
sg85
(lp1079
S':'
asbag78
(g99
g80
NtRp1080
(dp1081
g83
(dp1082
sg92
g1067
sg85
(lp1083
g78
(g79
g80
NtRp1084
(dp1085
g83
(dp1086
g91
I4
ssg92
g1080
sg85
(lp1087
S"set(['/home/ian/web/web2py/applications/welcome/', '/home/ian/web/web2py/applications/grammateus3/', '/home/ian/web/web2py/applications/admin/'])"
p1088
asbasbasbag78
(g94
g80
NtRp1089
(dp1090
g83
(dp1091
sg92
g1063
sg85
(lp1092
g78
(g99
g80
NtRp1093
(dp1094
g83
(dp1095
g103
g104
ssg92
g1089
sg85
(lp1096
S'applications_parent'
p1097
asbag78
(g99
g80
NtRp1098
(dp1099
g83
(dp1100
g110
g111
ssg92
g1089
sg85
(lp1101
S':'
asbag78
(g99
g80
NtRp1102
(dp1103
g83
(dp1104
sg92
g1089
sg85
(lp1105
g78
(g79
g80
NtRp1106
(dp1107
g83
(dp1108
g91
I4
ssg92
g1102
sg85
(lp1109
S'/home/ian/web/web2py'
p1110
asbasbasbag78
(g94
g80
NtRp1111
(dp1112
g83
(dp1113
sg92
g1063
sg85
(lp1114
g78
(g99
g80
NtRp1115
(dp1116
g83
(dp1117
g103
g104
ssg92
g1111
sg85
(lp1118
S'cmd_args'
p1119
asbag78
(g99
g80
NtRp1120
(dp1121
g83
(dp1122
g110
g111
ssg92
g1111
sg85
(lp1123
S':'
asbag78
(g99
g80
NtRp1124
(dp1125
g83
(dp1126
sg92
g1111
sg85
(lp1127
g78
(g79
g80
NtRp1128
(dp1129
g83
(dp1130
g91
I4
ssg92
g1124
sg85
(lp1131
g78
(g87
g80
NtRp1132
(dp1133
g83
(dp1134
g91
I3
ssg92
Nsg85
(lp1135
sbasbasbasbag78
(g94
g80
NtRp1136
(dp1137
g83
(dp1138
sg92
g1063
sg85
(lp1139
g78
(g99
g80
NtRp1140
(dp1141
g83
(dp1142
g103
g104
ssg92
g1136
sg85
(lp1143
S'cmd_options'
p1144
asbag78
(g99
g80
NtRp1145
(dp1146
g83
(dp1147
g110
g111
ssg92
g1136
sg85
(lp1148
S':'
asbag78
(g99
g80
NtRp1149
(dp1150
g83
(dp1151
sg92
g1136
sg85
(lp1152
g78
(g79
g80
NtRp1153
(dp1154
g83
(dp1155
g91
I4
ssg92
g1149
sg85
(lp1156
S"<Values at 0x2d42758: {'verbose': False, 'ip': '127.0.0.1', 'shutdown_timeout': 5, 'taskbar': False, 'nocron': False, 'pid_filename': 'httpserver.pid', 'maxthreads': None, 'softcron': False, 'server_name': 'uriel', 'bpython': False, 'nogui': False, 'port': 8000, 'extcron': False, 'debuglevel': 30, 'test': None, 'folder': '/home/ian/web/web2py', 'config': '', 'import_models': False, 'winservice': '', 'shell': None, 'run': '', 'log_filename': 'httpserver.log', 'args': [''], 'socket_timeout': 1, 'ssl_ca_certificate': None, 'scheduler': None, 'profiler_filename': None, 'ssl_private_key': '', 'password': '<ask>', 'request_queue_size': 5, 'ssl_certificate': '', 'cronjob': False, 'numthreads': None, 'quiet': False, 'interfaces': None, 'minthreads': None, 'timeout': 10, 'plain': False, 'nobanner': False}>"
p1157
asbasbasbag78
(g94
g80
NtRp1158
(dp1159
g83
(dp1160
sg92
g1063
sg85
(lp1161
g78
(g99
g80
NtRp1162
(dp1163
g83
(dp1164
g103
g104
ssg92
g1158
sg85
(lp1165
S'db_sessions'
p1166
asbag78
(g99
g80
NtRp1167
(dp1168
g83
(dp1169
g110
g111
ssg92
g1158
sg85
(lp1170
S':'
asbag78
(g99
g80
NtRp1171
(dp1172
g83
(dp1173
sg92
g1158
sg85
(lp1174
g78
(g79
g80
NtRp1175
(dp1176
g83
(dp1177
g91
I4
ssg92
g1171
sg85
(lp1178
S'set([])'
p1179
asbasbasbag78
(g94
g80
NtRp1180
(dp1181
g83
(dp1182
sg92
g1063
sg85
(lp1183
g78
(g99
g80
NtRp1184
(dp1185
g83
(dp1186
g103
g104
ssg92
g1180
sg85
(lp1187
S'debugging'
p1188
asbag78
(g99
g80
NtRp1189
(dp1190
g83
(dp1191
g110
g111
ssg92
g1180
sg85
(lp1192
S':'
asbag78
(g99
g80
NtRp1193
(dp1194
g83
(dp1195
sg92
g1180
sg85
(lp1196
g78
(g79
g80
NtRp1197
(dp1198
g83
(dp1199
g91
I4
ssg92
g1193
sg85
(lp1200
S'False'
p1201
asbasbasbag78
(g94
g80
NtRp1202
(dp1203
g83
(dp1204
sg92
g1063
sg85
(lp1205
g78
(g99
g80
NtRp1206
(dp1207
g83
(dp1208
g103
g104
ssg92
g1202
sg85
(lp1209
S'gluon_parent'
p1210
asbag78
(g99
g80
NtRp1211
(dp1212
g83
(dp1213
g110
g111
ssg92
g1202
sg85
(lp1214
S':'
asbag78
(g99
g80
NtRp1215
(dp1216
g83
(dp1217
sg92
g1202
sg85
(lp1218
g78
(g79
g80
NtRp1219
(dp1220
g83
(dp1221
g91
I4
ssg92
g1215
sg85
(lp1222
S'/home/ian/web/web2py'
p1223
asbasbasbag78
(g94
g80
NtRp1224
(dp1225
g83
(dp1226
sg92
g1063
sg85
(lp1227
g78
(g99
g80
NtRp1228
(dp1229
g83
(dp1230
g103
g104
ssg92
g1224
sg85
(lp1231
S'http_accept'
p1232
asbag78
(g99
g80
NtRp1233
(dp1234
g83
(dp1235
g110
g111
ssg92
g1224
sg85
(lp1236
S':'
asbag78
(g99
g80
NtRp1237
(dp1238
g83
(dp1239
sg92
g1224
sg85
(lp1240
g78
(g79
g80
NtRp1241
(dp1242
g83
(dp1243
g91
I4
ssg92
g1237
sg85
(lp1244
S'*/*'
p1245
asbasbasbag78
(g94
g80
NtRp1246
(dp1247
g83
(dp1248
sg92
g1063
sg85
(lp1249
g78
(g99
g80
NtRp1250
(dp1251
g83
(dp1252
g103
g104
ssg92
g1246
sg85
(lp1253
S'http_accept_encoding'
p1254
asbag78
(g99
g80
NtRp1255
(dp1256
g83
(dp1257
g110
g111
ssg92
g1246
sg85
(lp1258
S':'
asbag78
(g99
g80
NtRp1259
(dp1260
g83
(dp1261
sg92
g1246
sg85
(lp1262
g78
(g79
g80
NtRp1263
(dp1264
g83
(dp1265
g91
I4
ssg92
g1259
sg85
(lp1266
S'gzip, deflate'
p1267
asbasbasbag78
(g94
g80
NtRp1268
(dp1269
g83
(dp1270
sg92
g1063
sg85
(lp1271
g78
(g99
g80
NtRp1272
(dp1273
g83
(dp1274
g103
g104
ssg92
g1268
sg85
(lp1275
S'http_accept_language'
p1276
asbag78
(g99
g80
NtRp1277
(dp1278
g83
(dp1279
g110
g111
ssg92
g1268
sg85
(lp1280
S':'
asbag78
(g99
g80
NtRp1281
(dp1282
g83
(dp1283
sg92
g1268
sg85
(lp1284
g78
(g79
g80
NtRp1285
(dp1286
g83
(dp1287
g91
I4
ssg92
g1281
sg85
(lp1288
S'en-us,en;q=0.5'
p1289
asbasbasbag78
(g94
g80
NtRp1290
(dp1291
g83
(dp1292
sg92
g1063
sg85
(lp1293
g78
(g99
g80
NtRp1294
(dp1295
g83
(dp1296
g103
g104
ssg92
g1290
sg85
(lp1297
S'http_connection'
p1298
asbag78
(g99
g80
NtRp1299
(dp1300
g83
(dp1301
g110
g111
ssg92
g1290
sg85
(lp1302
S':'
asbag78
(g99
g80
NtRp1303
(dp1304
g83
(dp1305
sg92
g1290
sg85
(lp1306
g78
(g79
g80
NtRp1307
(dp1308
g83
(dp1309
g91
I4
ssg92
g1303
sg85
(lp1310
S'keep-alive'
p1311
asbasbasbag78
(g94
g80
NtRp1312
(dp1313
g83
(dp1314
sg92
g1063
sg85
(lp1315
g78
(g99
g80
NtRp1316
(dp1317
g83
(dp1318
g103
g104
ssg92
g1312
sg85
(lp1319
S'http_cookie'
p1320
asbag78
(g99
g80
NtRp1321
(dp1322
g83
(dp1323
g110
g111
ssg92
g1312
sg85
(lp1324
S':'
asbag78
(g99
g80
NtRp1325
(dp1326
g83
(dp1327
sg92
g1312
sg85
(lp1328
g78
(g79
g80
NtRp1329
(dp1330
g83
(dp1331
g91
I4
ssg92
g1325
sg85
(lp1332
S'session_id_paideia=127.0.0.1-d2b16629-afad-4e3f-840d-43f7f7183774; session_id_welcome=127.0.0.1-2d7c426d-8b25-4e09-8198-5df3cafff407; session_id_admin=127.0.0.1-b5146d43-6d89-4119-a39b-d8d2617ee682; session_id_grammateus3=127.0.0.1-ae131346-de62-453a-b308-33d5b317e3e5'
p1333
asbasbasbag78
(g94
g80
NtRp1334
(dp1335
g83
(dp1336
sg92
g1063
sg85
(lp1337
g78
(g99
g80
NtRp1338
(dp1339
g83
(dp1340
g103
g104
ssg92
g1334
sg85
(lp1341
S'http_host'
p1342
asbag78
(g99
g80
NtRp1343
(dp1344
g83
(dp1345
g110
g111
ssg92
g1334
sg85
(lp1346
S':'
asbag78
(g99
g80
NtRp1347
(dp1348
g83
(dp1349
sg92
g1334
sg85
(lp1350
g78
(g79
g80
NtRp1351
(dp1352
g83
(dp1353
g91
I4
ssg92
g1347
sg85
(lp1354
S'127.0.0.1:8000'
p1355
asbasbasbag78
(g94
g80
NtRp1356
(dp1357
g83
(dp1358
sg92
g1063
sg85
(lp1359
g78
(g99
g80
NtRp1360
(dp1361
g83
(dp1362
g103
g104
ssg92
g1356
sg85
(lp1363
S'http_referer'
p1364
asbag78
(g99
g80
NtRp1365
(dp1366
g83
(dp1367
g110
g111
ssg92
g1356
sg85
(lp1368
S':'
asbag78
(g99
g80
NtRp1369
(dp1370
g83
(dp1371
sg92
g1356
sg85
(lp1372
g78
(g79
g80
NtRp1373
(dp1374
g83
(dp1375
g91
I4
ssg92
g1369
sg85
(lp1376
S'http://127.0.0.1:8000/grammateus3/docs/text/SibOr'
p1377
asbasbasbag78
(g94
g80
NtRp1378
(dp1379
g83
(dp1380
sg92
g1063
sg85
(lp1381
g78
(g99
g80
NtRp1382
(dp1383
g83
(dp1384
g103
g104
ssg92
g1378
sg85
(lp1385
S'http_user_agent'
p1386
asbag78
(g99
g80
NtRp1387
(dp1388
g83
(dp1389
g110
g111
ssg92
g1378
sg85
(lp1390
S':'
asbag78
(g99
g80
NtRp1391
(dp1392
g83
(dp1393
sg92
g1378
sg85
(lp1394
g78
(g79
g80
NtRp1395
(dp1396
g83
(dp1397
g91
I4
ssg92
g1391
sg85
(lp1398
S'Mozilla/5.0 (X11; Ubuntu; Linux x86_64; rv:11.0) Gecko/20100101 Firefox/11.0 openid'
p1399
asbasbasbag78
(g94
g80
NtRp1400
(dp1401
g83
(dp1402
sg92
g1063
sg85
(lp1403
g78
(g99
g80
NtRp1404
(dp1405
g83
(dp1406
g103
g104
ssg92
g1400
sg85
(lp1407
S'http_web2py_component_element'
p1408
asbag78
(g99
g80
NtRp1409
(dp1410
g83
(dp1411
g110
g111
ssg92
g1400
sg85
(lp1412
S':'
asbag78
(g99
g80
NtRp1413
(dp1414
g83
(dp1415
sg92
g1400
sg85
(lp1416
g78
(g79
g80
NtRp1417
(dp1418
g83
(dp1419
g91
I4
ssg92
g1413
sg85
(lp1420
g224
asbasbasbag78
(g94
g80
NtRp1421
(dp1422
g83
(dp1423
sg92
g1063
sg85
(lp1424
g78
(g99
g80
NtRp1425
(dp1426
g83
(dp1427
g103
g104
ssg92
g1421
sg85
(lp1428
S'http_web2py_component_location'
p1429
asbag78
(g99
g80
NtRp1430
(dp1431
g83
(dp1432
g110
g111
ssg92
g1421
sg85
(lp1433
S':'
asbag78
(g99
g80
NtRp1434
(dp1435
g83
(dp1436
sg92
g1421
sg85
(lp1437
g78
(g79
g80
NtRp1438
(dp1439
g83
(dp1440
g91
I4
ssg92
g1434
sg85
(lp1441
S'http://127.0.0.1:8000/grammateus3/docs/text/SibOr'
p1442
asbasbasbag78
(g94
g80
NtRp1443
(dp1444
g83
(dp1445
sg92
g1063
sg85
(lp1446
g78
(g99
g80
NtRp1447
(dp1448
g83
(dp1449
g103
g104
ssg92
g1443
sg85
(lp1450
S'http_x_requested_with'
p1451
asbag78
(g99
g80
NtRp1452
(dp1453
g83
(dp1454
g110
g111
ssg92
g1443
sg85
(lp1455
S':'
asbag78
(g99
g80
NtRp1456
(dp1457
g83
(dp1458
sg92
g1443
sg85
(lp1459
g78
(g79
g80
NtRp1460
(dp1461
g83
(dp1462
g91
I4
ssg92
g1456
sg85
(lp1463
S'XMLHttpRequest'
p1464
asbasbasbag78
(g94
g80
NtRp1465
(dp1466
g83
(dp1467
sg92
g1063
sg85
(lp1468
g78
(g99
g80
NtRp1469
(dp1470
g83
(dp1471
g103
g104
ssg92
g1465
sg85
(lp1472
S'is_jython'
p1473
asbag78
(g99
g80
NtRp1474
(dp1475
g83
(dp1476
g110
g111
ssg92
g1465
sg85
(lp1477
S':'
asbag78
(g99
g80
NtRp1478
(dp1479
g83
(dp1480
sg92
g1465
sg85
(lp1481
g78
(g79
g80
NtRp1482
(dp1483
g83
(dp1484
g91
I4
ssg92
g1478
sg85
(lp1485
g1201
asbasbasbag78
(g94
g80
NtRp1486
(dp1487
g83
(dp1488
sg92
g1063
sg85
(lp1489
g78
(g99
g80
NtRp1490
(dp1491
g83
(dp1492
g103
g104
ssg92
g1486
sg85
(lp1493
S'is_pypy'
p1494
asbag78
(g99
g80
NtRp1495
(dp1496
g83
(dp1497
g110
g111
ssg92
g1486
sg85
(lp1498
S':'
asbag78
(g99
g80
NtRp1499
(dp1500
g83
(dp1501
sg92
g1486
sg85
(lp1502
g78
(g79
g80
NtRp1503
(dp1504
g83
(dp1505
g91
I4
ssg92
g1499
sg85
(lp1506
g1201
asbasbasbag78
(g94
g80
NtRp1507
(dp1508
g83
(dp1509
sg92
g1063
sg85
(lp1510
g78
(g99
g80
NtRp1511
(dp1512
g83
(dp1513
g103
g104
ssg92
g1507
sg85
(lp1514
S'path_info'
p1515
asbag78
(g99
g80
NtRp1516
(dp1517
g83
(dp1518
g110
g111
ssg92
g1507
sg85
(lp1519
S':'
asbag78
(g99
g80
NtRp1520
(dp1521
g83
(dp1522
sg92
g1507
sg85
(lp1523
g78
(g79
g80
NtRp1524
(dp1525
g83
(dp1526
g91
I4
ssg92
g1520
sg85
(lp1527
S'/grammateus3/docs/section.load/SibOr'
p1528
asbasbasbag78
(g94
g80
NtRp1529
(dp1530
g83
(dp1531
sg92
g1063
sg85
(lp1532
g78
(g99
g80
NtRp1533
(dp1534
g83
(dp1535
g103
g104
ssg92
g1529
sg85
(lp1536
S'query_string'
p1537
asbag78
(g99
g80
NtRp1538
(dp1539
g83
(dp1540
g110
g111
ssg92
g1529
sg85
(lp1541
S':'
asbag78
(g99
g80
NtRp1542
(dp1543
g83
(dp1544
sg92
g1529
sg85
(lp1545
g78
(g79
g80
NtRp1546
(dp1547
g83
(dp1548
g91
I4
ssg92
g1542
sg85
(lp1549
S''
asbasbasbag78
(g94
g80
NtRp1550
(dp1551
g83
(dp1552
sg92
g1063
sg85
(lp1553
g78
(g99
g80
NtRp1554
(dp1555
g83
(dp1556
g103
g104
ssg92
g1550
sg85
(lp1557
S'remote_addr'
p1558
asbag78
(g99
g80
NtRp1559
(dp1560
g83
(dp1561
g110
g111
ssg92
g1550
sg85
(lp1562
S':'
asbag78
(g99
g80
NtRp1563
(dp1564
g83
(dp1565
sg92
g1550
sg85
(lp1566
g78
(g79
g80
NtRp1567
(dp1568
g83
(dp1569
g91
I4
ssg92
g1563
sg85
(lp1570
g246
asbasbasbag78
(g94
g80
NtRp1571
(dp1572
g83
(dp1573
sg92
g1063
sg85
(lp1574
g78
(g99
g80
NtRp1575
(dp1576
g83
(dp1577
g103
g104
ssg92
g1571
sg85
(lp1578
S'remote_port'
p1579
asbag78
(g99
g80
NtRp1580
(dp1581
g83
(dp1582
g110
g111
ssg92
g1571
sg85
(lp1583
S':'
asbag78
(g99
g80
NtRp1584
(dp1585
g83
(dp1586
sg92
g1571
sg85
(lp1587
g78
(g79
g80
NtRp1588
(dp1589
g83
(dp1590
g91
I4
ssg92
g1584
sg85
(lp1591
S'46461'
p1592
asbasbasbag78
(g94
g80
NtRp1593
(dp1594
g83
(dp1595
sg92
g1063
sg85
(lp1596
g78
(g99
g80
NtRp1597
(dp1598
g83
(dp1599
g103
g104
ssg92
g1593
sg85
(lp1600
S'request_method'
p1601
asbag78
(g99
g80
NtRp1602
(dp1603
g83
(dp1604
g110
g111
ssg92
g1593
sg85
(lp1605
S':'
asbag78
(g99
g80
NtRp1606
(dp1607
g83
(dp1608
sg92
g1593
sg85
(lp1609
g78
(g79
g80
NtRp1610
(dp1611
g83
(dp1612
g91
I4
ssg92
g1606
sg85
(lp1613
S'GET'
p1614
asbasbasbag78
(g94
g80
NtRp1615
(dp1616
g83
(dp1617
sg92
g1063
sg85
(lp1618
g78
(g99
g80
NtRp1619
(dp1620
g83
(dp1621
g103
g104
ssg92
g1615
sg85
(lp1622
S'script_name'
p1623
asbag78
(g99
g80
NtRp1624
(dp1625
g83
(dp1626
g110
g111
ssg92
g1615
sg85
(lp1627
S':'
asbag78
(g99
g80
NtRp1628
(dp1629
g83
(dp1630
sg92
g1615
sg85
(lp1631
g78
(g79
g80
NtRp1632
(dp1633
g83
(dp1634
g91
I4
ssg92
g1628
sg85
(lp1635
S''
asbasbasbag78
(g94
g80
NtRp1636
(dp1637
g83
(dp1638
sg92
g1063
sg85
(lp1639
g78
(g99
g80
NtRp1640
(dp1641
g83
(dp1642
g103
g104
ssg92
g1636
sg85
(lp1643
S'server_name'
p1644
asbag78
(g99
g80
NtRp1645
(dp1646
g83
(dp1647
g110
g111
ssg92
g1636
sg85
(lp1648
S':'
asbag78
(g99
g80
NtRp1649
(dp1650
g83
(dp1651
sg92
g1636
sg85
(lp1652
g78
(g79
g80
NtRp1653
(dp1654
g83
(dp1655
g91
I4
ssg92
g1649
sg85
(lp1656
S'uriel'
p1657
asbasbasbag78
(g94
g80
NtRp1658
(dp1659
g83
(dp1660
sg92
g1063
sg85
(lp1661
g78
(g99
g80
NtRp1662
(dp1663
g83
(dp1664
g103
g104
ssg92
g1658
sg85
(lp1665
S'server_port'
p1666
asbag78
(g99
g80
NtRp1667
(dp1668
g83
(dp1669
g110
g111
ssg92
g1658
sg85
(lp1670
S':'
asbag78
(g99
g80
NtRp1671
(dp1672
g83
(dp1673
sg92
g1658
sg85
(lp1674
g78
(g79
g80
NtRp1675
(dp1676
g83
(dp1677
g91
I4
ssg92
g1671
sg85
(lp1678
S'8000'
p1679
asbasbasbag78
(g94
g80
NtRp1680
(dp1681
g83
(dp1682
sg92
g1063
sg85
(lp1683
g78
(g99
g80
NtRp1684
(dp1685
g83
(dp1686
g103
g104
ssg92
g1680
sg85
(lp1687
S'server_protocol'
p1688
asbag78
(g99
g80
NtRp1689
(dp1690
g83
(dp1691
g110
g111
ssg92
g1680
sg85
(lp1692
S':'
asbag78
(g99
g80
NtRp1693
(dp1694
g83
(dp1695
sg92
g1680
sg85
(lp1696
g78
(g79
g80
NtRp1697
(dp1698
g83
(dp1699
g91
I4
ssg92
g1693
sg85
(lp1700
S'HTTP/1.1'
p1701
asbasbasbag78
(g94
g80
NtRp1702
(dp1703
g83
(dp1704
sg92
g1063
sg85
(lp1705
g78
(g99
g80
NtRp1706
(dp1707
g83
(dp1708
g103
g104
ssg92
g1702
sg85
(lp1709
S'server_software'
p1710
asbag78
(g99
g80
NtRp1711
(dp1712
g83
(dp1713
g110
g111
ssg92
g1702
sg85
(lp1714
S':'
asbag78
(g99
g80
NtRp1715
(dp1716
g83
(dp1717
sg92
g1702
sg85
(lp1718
g78
(g79
g80
NtRp1719
(dp1720
g83
(dp1721
g91
I4
ssg92
g1715
sg85
(lp1722
S'Rocket 1.2.4'
p1723
asbasbasbag78
(g94
g80
NtRp1724
(dp1725
g83
(dp1726
sg92
g1063
sg85
(lp1727
g78
(g99
g80
NtRp1728
(dp1729
g83
(dp1730
g103
g104
ssg92
g1724
sg85
(lp1731
S'web2py_crontype'
p1732
asbag78
(g99
g80
NtRp1733
(dp1734
g83
(dp1735
g110
g111
ssg92
g1724
sg85
(lp1736
S':'
asbag78
(g99
g80
NtRp1737
(dp1738
g83
(dp1739
sg92
g1724
sg85
(lp1740
g78
(g79
g80
NtRp1741
(dp1742
g83
(dp1743
g91
I4
ssg92
g1737
sg85
(lp1744
S'hard'
p1745
asbasbasbag78
(g94
g80
NtRp1746
(dp1747
g83
(dp1748
sg92
g1063
sg85
(lp1749
g78
(g99
g80
NtRp1750
(dp1751
g83
(dp1752
g103
g104
ssg92
g1746
sg85
(lp1753
S'web2py_path'
p1754
asbag78
(g99
g80
NtRp1755
(dp1756
g83
(dp1757
g110
g111
ssg92
g1746
sg85
(lp1758
S':'
asbag78
(g99
g80
NtRp1759
(dp1760
g83
(dp1761
sg92
g1746
sg85
(lp1762
g78
(g79
g80
NtRp1763
(dp1764
g83
(dp1765
g91
I4
ssg92
g1759
sg85
(lp1766
g1110
asbasbasbag78
(g94
g80
NtRp1767
(dp1768
g83
(dp1769
sg92
g1063
sg85
(lp1770
g78
(g99
g80
NtRp1771
(dp1772
g83
(dp1773
g103
g104
ssg92
g1767
sg85
(lp1774
S'web2py_version'
p1775
asbag78
(g99
g80
NtRp1776
(dp1777
g83
(dp1778
g110
g111
ssg92
g1767
sg85
(lp1779
S':'
asbag78
(g99
g80
NtRp1780
(dp1781
g83
(dp1782
sg92
g1767
sg85
(lp1783
g78
(g79
g80
NtRp1784
(dp1785
g83
(dp1786
g91
I4
ssg92
g1780
sg85
(lp1787
g78
(g87
g80
NtRp1788
(dp1789
g83
(dp1790
g91
I3
ssg92
Nsg85
(lp1791
g78
(g94
g80
NtRp1792
(dp1793
g83
(dp1794
sg92
g1788
sg85
(lp1795
g78
(g99
g80
NtRp1796
(dp1797
g83
(dp1798
sg92
g1792
sg85
(lp1799
g78
(g79
g80
NtRp1800
(dp1801
g83
(dp1802
g91
I3
ssg92
g1796
sg85
(lp1803
S'1'
asbasbasbag78
(g94
g80
NtRp1804
(dp1805
g83
(dp1806
sg92
g1788
sg85
(lp1807
g78
(g99
g80
NtRp1808
(dp1809
g83
(dp1810
sg92
g1804
sg85
(lp1811
g78
(g79
g80
NtRp1812
(dp1813
g83
(dp1814
g91
I3
ssg92
g1808
sg85
(lp1815
S'99'
p1816
asbasbasbag78
(g94
g80
NtRp1817
(dp1818
g83
(dp1819
sg92
g1788
sg85
(lp1820
g78
(g99
g80
NtRp1821
(dp1822
g83
(dp1823
sg92
g1817
sg85
(lp1824
g78
(g79
g80
NtRp1825
(dp1826
g83
(dp1827
g91
I3
ssg92
g1821
sg85
(lp1828
S'4'
asbasbasbag78
(g94
g80
NtRp1829
(dp1830
g83
(dp1831
sg92
g1788
sg85
(lp1832
g78
(g99
g80
NtRp1833
(dp1834
g83
(dp1835
sg92
g1829
sg85
(lp1836
g78
(g79
g80
NtRp1837
(dp1838
g83
(dp1839
g91
I3
ssg92
g1833
sg85
(lp1840
S'datetime.datetime(2011, 12, 14, 14, 46, 14)'
p1841
asbasbasbag78
(g94
g80
NtRp1842
(dp1843
g83
(dp1844
sg92
g1788
sg85
(lp1845
g78
(g99
g80
NtRp1846
(dp1847
g83
(dp1848
sg92
g1842
sg85
(lp1849
g78
(g79
g80
NtRp1850
(dp1851
g83
(dp1852
g91
I3
ssg92
g1846
sg85
(lp1853
S'stable'
p1854
asbasbasbasbasbasbasbag78
(g94
g80
NtRp1855
(dp1856
g83
(dp1857
sg92
g1063
sg85
(lp1858
g78
(g99
g80
NtRp1859
(dp1860
g83
(dp1861
g103
g104
ssg92
g1855
sg85
(lp1862
S'wsgi_errors'
p1863
asbag78
(g99
g80
NtRp1864
(dp1865
g83
(dp1866
g110
g111
ssg92
g1855
sg85
(lp1867
S':'
asbag78
(g99
g80
NtRp1868
(dp1869
g83
(dp1870
sg92
g1855
sg85
(lp1871
g78
(g79
g80
NtRp1872
(dp1873
g83
(dp1874
g91
I4
ssg92
g1868
sg85
(lp1875
S"<open file '<stderr>', mode 'w' at 0x7f03f76bb270>"
p1876
asbasbasbag78
(g94
g80
NtRp1877
(dp1878
g83
(dp1879
sg92
g1063
sg85
(lp1880
g78
(g99
g80
NtRp1881
(dp1882
g83
(dp1883
g103
g104
ssg92
g1877
sg85
(lp1884
S'wsgi_file_wrapper'
p1885
asbag78
(g99
g80
NtRp1886
(dp1887
g83
(dp1888
g110
g111
ssg92
g1877
sg85
(lp1889
S':'
asbag78
(g99
g80
NtRp1890
(dp1891
g83
(dp1892
sg92
g1877
sg85
(lp1893
g78
(g79
g80
NtRp1894
(dp1895
g83
(dp1896
g91
I4
ssg92
g1890
sg85
(lp1897
S'<class wsgiref.util.FileWrapper at 0x2c0cd50>'
p1898
asbasbasbag78
(g94
g80
NtRp1899
(dp1900
g83
(dp1901
sg92
g1063
sg85
(lp1902
g78
(g99
g80
NtRp1903
(dp1904
g83
(dp1905
g103
g104
ssg92
g1899
sg85
(lp1906
S'wsgi_input'
p1907
asbag78
(g99
g80
NtRp1908
(dp1909
g83
(dp1910
g110
g111
ssg92
g1899
sg85
(lp1911
S':'
asbag78
(g99
g80
NtRp1912
(dp1913
g83
(dp1914
sg92
g1899
sg85
(lp1915
g78
(g79
g80
NtRp1916
(dp1917
g83
(dp1918
g91
I4
ssg92
g1912
sg85
(lp1919
S'<socket._fileobject object at 0x7f03e024e450>'
p1920
asbasbasbag78
(g94
g80
NtRp1921
(dp1922
g83
(dp1923
sg92
g1063
sg85
(lp1924
g78
(g99
g80
NtRp1925
(dp1926
g83
(dp1927
g103
g104
ssg92
g1921
sg85
(lp1928
S'wsgi_multiprocess'
p1929
asbag78
(g99
g80
NtRp1930
(dp1931
g83
(dp1932
g110
g111
ssg92
g1921
sg85
(lp1933
S':'
asbag78
(g99
g80
NtRp1934
(dp1935
g83
(dp1936
sg92
g1921
sg85
(lp1937
g78
(g79
g80
NtRp1938
(dp1939
g83
(dp1940
g91
I4
ssg92
g1934
sg85
(lp1941
g1201
asbasbasbag78
(g94
g80
NtRp1942
(dp1943
g83
(dp1944
sg92
g1063
sg85
(lp1945
g78
(g99
g80
NtRp1946
(dp1947
g83
(dp1948
g103
g104
ssg92
g1942
sg85
(lp1949
S'wsgi_multithread'
p1950
asbag78
(g99
g80
NtRp1951
(dp1952
g83
(dp1953
g110
g111
ssg92
g1942
sg85
(lp1954
S':'
asbag78
(g99
g80
NtRp1955
(dp1956
g83
(dp1957
sg92
g1942
sg85
(lp1958
g78
(g79
g80
NtRp1959
(dp1960
g83
(dp1961
g91
I4
ssg92
g1955
sg85
(lp1962
g121
asbasbasbag78
(g94
g80
NtRp1963
(dp1964
g83
(dp1965
sg92
g1063
sg85
(lp1966
g78
(g99
g80
NtRp1967
(dp1968
g83
(dp1969
g103
g104
ssg92
g1963
sg85
(lp1970
S'wsgi_run_once'
p1971
asbag78
(g99
g80
NtRp1972
(dp1973
g83
(dp1974
g110
g111
ssg92
g1963
sg85
(lp1975
S':'
asbag78
(g99
g80
NtRp1976
(dp1977
g83
(dp1978
sg92
g1963
sg85
(lp1979
g78
(g79
g80
NtRp1980
(dp1981
g83
(dp1982
g91
I4
ssg92
g1976
sg85
(lp1983
g1201
asbasbasbag78
(g94
g80
NtRp1984
(dp1985
g83
(dp1986
sg92
g1063
sg85
(lp1987
g78
(g99
g80
NtRp1988
(dp1989
g83
(dp1990
g103
g104
ssg92
g1984
sg85
(lp1991
S'wsgi_url_scheme'
p1992
asbag78
(g99
g80
NtRp1993
(dp1994
g83
(dp1995
g110
g111
ssg92
g1984
sg85
(lp1996
S':'
asbag78
(g99
g80
NtRp1997
(dp1998
g83
(dp1999
sg92
g1984
sg85
(lp2000
g78
(g79
g80
NtRp2001
(dp2002
g83
(dp2003
g91
I4
ssg92
g1997
sg85
(lp2004
S'http'
p2005
asbasbasbag78
(g94
g80
NtRp2006
(dp2007
g83
(dp2008
sg92
g1063
sg85
(lp2009
g78
(g99
g80
NtRp2010
(dp2011
g83
(dp2012
g103
g104
ssg92
g2006
sg85
(lp2013
S'wsgi_version'
p2014
asbag78
(g99
g80
NtRp2015
(dp2016
g83
(dp2017
g110
g111
ssg92
g2006
sg85
(lp2018
S':'
asbag78
(g99
g80
NtRp2019
(dp2020
g83
(dp2021
sg92
g2006
sg85
(lp2022
g78
(g79
g80
NtRp2023
(dp2024
g83
(dp2025
g91
I4
ssg92
g2019
sg85
(lp2026
g78
(g87
g80
NtRp2027
(dp2028
g83
(dp2029
g91
I3
ssg92
Nsg85
(lp2030
g78
(g94
g80
NtRp2031
(dp2032
g83
(dp2033
sg92
g2027
sg85
(lp2034
g78
(g99
g80
NtRp2035
(dp2036
g83
(dp2037
sg92
g2031
sg85
(lp2038
g78
(g79
g80
NtRp2039
(dp2040
g83
(dp2041
g91
I3
ssg92
g2035
sg85
(lp2042
S'1'
asbasbasbag78
(g94
g80
NtRp2043
(dp2044
g83
(dp2045
sg92
g2027
sg85
(lp2046
g78
(g99
g80
NtRp2047
(dp2048
g83
(dp2049
sg92
g2043
sg85
(lp2050
g78
(g79
g80
NtRp2051
(dp2052
g83
(dp2053
g91
I3
ssg92
g2047
sg85
(lp2054
S'0'
asbasbasbasbasbasbasbasbasbasbasbag78
(g94
g80
NtRp2055
(dp2056
g83
(dp2057
sg92
g88
sg85
(lp2058
g78
(g99
g80
NtRp2059
(dp2060
g83
(dp2061
g103
g104
ssg92
g2055
sg85
(lp2062
S'extension'
p2063
asbag78
(g99
g80
NtRp2064
(dp2065
g83
(dp2066
g110
g111
ssg92
g2055
sg85
(lp2067
S':'
asbag78
(g99
g80
NtRp2068
(dp2069
g83
(dp2070
sg92
g2055
sg85
(lp2071
g78
(g79
g80
NtRp2072
(dp2073
g83
(dp2074
g91
I5
ssg92
g2068
sg85
(lp2075
S'load'
p2076
asbasbasbag78
(g94
g80
NtRp2077
(dp2078
g83
(dp2079
sg92
g88
sg85
(lp2080
g78
(g99
g80
NtRp2081
(dp2082
g83
(dp2083
g103
g104
ssg92
g2077
sg85
(lp2084
S'folder'
p2085
asbag78
(g99
g80
NtRp2086
(dp2087
g83
(dp2088
g110
g111
ssg92
g2077
sg85
(lp2089
S':'
asbag78
(g99
g80
NtRp2090
(dp2091
g83
(dp2092
sg92
g2077
sg85
(lp2093
g78
(g79
g80
NtRp2094
(dp2095
g83
(dp2096
g91
I5
ssg92
g2090
sg85
(lp2097
S'/home/ian/web/web2py/applications/grammateus3/'
p2098
asbasbasbag78
(g94
g80
NtRp2099
(dp2100
g83
(dp2101
sg92
g88
sg85
(lp2102
g78
(g99
g80
NtRp2103
(dp2104
g83
(dp2105
g103
g104
ssg92
g2099
sg85
(lp2106
S'function'
p2107
asbag78
(g99
g80
NtRp2108
(dp2109
g83
(dp2110
g110
g111
ssg92
g2099
sg85
(lp2111
S':'
asbag78
(g99
g80
NtRp2112
(dp2113
g83
(dp2114
sg92
g2099
sg85
(lp2115
g78
(g79
g80
NtRp2116
(dp2117
g83
(dp2118
g91
I5
ssg92
g2112
sg85
(lp2119
S'section'
p2120
asbasbasbag78
(g94
g80
NtRp2121
(dp2122
g83
(dp2123
sg92
g88
sg85
(lp2124
g78
(g99
g80
NtRp2125
(dp2126
g83
(dp2127
g103
g104
ssg92
g2121
sg85
(lp2128
S'get_vars'
p2129
asbag78
(g99
g80
NtRp2130
(dp2131
g83
(dp2132
g110
g111
ssg92
g2121
sg85
(lp2133
S':'
asbag78
(g99
g80
NtRp2134
(dp2135
g83
(dp2136
sg92
g2121
sg85
(lp2137
g78
(g79
g80
NtRp2138
(dp2139
g83
(dp2140
g91
I5
ssg92
g2134
sg85
(lp2141
g78
(g87
g80
NtRp2142
(dp2143
g83
(dp2144
g91
I4
ssg92
Nsg85
(lp2145
sbasbasbasbag78
(g94
g80
NtRp2146
(dp2147
g83
(dp2148
sg92
g88
sg85
(lp2149
g78
(g99
g80
NtRp2150
(dp2151
g83
(dp2152
g103
g104
ssg92
g2146
sg85
(lp2153
S'global_settings'
p2154
asbag78
(g99
g80
NtRp2155
(dp2156
g83
(dp2157
g110
g111
ssg92
g2146
sg85
(lp2158
S':'
asbag78
(g99
g80
NtRp2159
(dp2160
g83
(dp2161
sg92
g2146
sg85
(lp2162
g78
(g79
g80
NtRp2163
(dp2164
g83
(dp2165
g91
I5
ssg92
g2159
sg85
(lp2166
g78
(g87
g80
NtRp2167
(dp2168
g83
(dp2169
g91
I4
ssg92
Nsg85
(lp2170
g78
(g94
g80
NtRp2171
(dp2172
g83
(dp2173
sg92
g2167
sg85
(lp2174
g78
(g99
g80
NtRp2175
(dp2176
g83
(dp2177
g103
g104
ssg92
g2171
sg85
(lp2178
g1075
asbag78
(g99
g80
NtRp2179
(dp2180
g83
(dp2181
g110
g111
ssg92
g2171
sg85
(lp2182
S':'
asbag78
(g99
g80
NtRp2183
(dp2184
g83
(dp2185
sg92
g2171
sg85
(lp2186
g78
(g79
g80
NtRp2187
(dp2188
g83
(dp2189
g91
I4
ssg92
g2183
sg85
(lp2190
S"set(['/home/ian/web/web2py/applications/welcome/', '/home/ian/web/web2py/applications/grammateus3/', '/home/ian/web/web2py/applications/admin/'])"
p2191
asbasbasbag78
(g94
g80
NtRp2192
(dp2193
g83
(dp2194
sg92
g2167
sg85
(lp2195
g78
(g99
g80
NtRp2196
(dp2197
g83
(dp2198
g103
g104
ssg92
g2192
sg85
(lp2199
g1097
asbag78
(g99
g80
NtRp2200
(dp2201
g83
(dp2202
g110
g111
ssg92
g2192
sg85
(lp2203
S':'
asbag78
(g99
g80
NtRp2204
(dp2205
g83
(dp2206
sg92
g2192
sg85
(lp2207
g78
(g79
g80
NtRp2208
(dp2209
g83
(dp2210
g91
I4
ssg92
g2204
sg85
(lp2211
g1110
asbasbasbag78
(g94
g80
NtRp2212
(dp2213
g83
(dp2214
sg92
g2167
sg85
(lp2215
g78
(g99
g80
NtRp2216
(dp2217
g83
(dp2218
g103
g104
ssg92
g2212
sg85
(lp2219
g1119
asbag78
(g99
g80
NtRp2220
(dp2221
g83
(dp2222
g110
g111
ssg92
g2212
sg85
(lp2223
S':'
asbag78
(g99
g80
NtRp2224
(dp2225
g83
(dp2226
sg92
g2212
sg85
(lp2227
g78
(g79
g80
NtRp2228
(dp2229
g83
(dp2230
g91
I4
ssg92
g2224
sg85
(lp2231
g78
(g87
g80
NtRp2232
(dp2233
g83
(dp2234
g91
I3
ssg92
Nsg85
(lp2235
sbasbasbasbag78
(g94
g80
NtRp2236
(dp2237
g83
(dp2238
sg92
g2167
sg85
(lp2239
g78
(g99
g80
NtRp2240
(dp2241
g83
(dp2242
g103
g104
ssg92
g2236
sg85
(lp2243
g1144
asbag78
(g99
g80
NtRp2244
(dp2245
g83
(dp2246
g110
g111
ssg92
g2236
sg85
(lp2247
S':'
asbag78
(g99
g80
NtRp2248
(dp2249
g83
(dp2250
sg92
g2236
sg85
(lp2251
g78
(g79
g80
NtRp2252
(dp2253
g83
(dp2254
g91
I4
ssg92
g2248
sg85
(lp2255
S"<Values at 0x2d42758: {'verbose': False, 'ip': '127.0.0.1', 'shutdown_timeout': 5, 'taskbar': False, 'nocron': False, 'pid_filename': 'httpserver.pid', 'maxthreads': None, 'softcron': False, 'server_name': 'uriel', 'bpython': False, 'nogui': False, 'port': 8000, 'extcron': False, 'debuglevel': 30, 'test': None, 'folder': '/home/ian/web/web2py', 'config': '', 'import_models': False, 'winservice': '', 'shell': None, 'run': '', 'log_filename': 'httpserver.log', 'args': [''], 'socket_timeout': 1, 'ssl_ca_certificate': None, 'scheduler': None, 'profiler_filename': None, 'ssl_private_key': '', 'password': '<ask>', 'request_queue_size': 5, 'ssl_certificate': '', 'cronjob': False, 'numthreads': None, 'quiet': False, 'interfaces': None, 'minthreads': None, 'timeout': 10, 'plain': False, 'nobanner': False}>"
p2256
asbasbasbag78
(g94
g80
NtRp2257
(dp2258
g83
(dp2259
sg92
g2167
sg85
(lp2260
g78
(g99
g80
NtRp2261
(dp2262
g83
(dp2263
g103
g104
ssg92
g2257
sg85
(lp2264
g1166
asbag78
(g99
g80
NtRp2265
(dp2266
g83
(dp2267
g110
g111
ssg92
g2257
sg85
(lp2268
S':'
asbag78
(g99
g80
NtRp2269
(dp2270
g83
(dp2271
sg92
g2257
sg85
(lp2272
g78
(g79
g80
NtRp2273
(dp2274
g83
(dp2275
g91
I4
ssg92
g2269
sg85
(lp2276
S'set([])'
p2277
asbasbasbag78
(g94
g80
NtRp2278
(dp2279
g83
(dp2280
sg92
g2167
sg85
(lp2281
g78
(g99
g80
NtRp2282
(dp2283
g83
(dp2284
g103
g104
ssg92
g2278
sg85
(lp2285
g1188
asbag78
(g99
g80
NtRp2286
(dp2287
g83
(dp2288
g110
g111
ssg92
g2278
sg85
(lp2289
S':'
asbag78
(g99
g80
NtRp2290
(dp2291
g83
(dp2292
sg92
g2278
sg85
(lp2293
g78
(g79
g80
NtRp2294
(dp2295
g83
(dp2296
g91
I4
ssg92
g2290
sg85
(lp2297
g1201
asbasbasbag78
(g94
g80
NtRp2298
(dp2299
g83
(dp2300
sg92
g2167
sg85
(lp2301
g78
(g99
g80
NtRp2302
(dp2303
g83
(dp2304
g103
g104
ssg92
g2298
sg85
(lp2305
g1210
asbag78
(g99
g80
NtRp2306
(dp2307
g83
(dp2308
g110
g111
ssg92
g2298
sg85
(lp2309
S':'
asbag78
(g99
g80
NtRp2310
(dp2311
g83
(dp2312
sg92
g2298
sg85
(lp2313
g78
(g79
g80
NtRp2314
(dp2315
g83
(dp2316
g91
I4
ssg92
g2310
sg85
(lp2317
g1223
asbasbasbag78
(g94
g80
NtRp2318
(dp2319
g83
(dp2320
sg92
g2167
sg85
(lp2321
g78
(g99
g80
NtRp2322
(dp2323
g83
(dp2324
g103
g104
ssg92
g2318
sg85
(lp2325
g1473
asbag78
(g99
g80
NtRp2326
(dp2327
g83
(dp2328
g110
g111
ssg92
g2318
sg85
(lp2329
S':'
asbag78
(g99
g80
NtRp2330
(dp2331
g83
(dp2332
sg92
g2318
sg85
(lp2333
g78
(g79
g80
NtRp2334
(dp2335
g83
(dp2336
g91
I4
ssg92
g2330
sg85
(lp2337
g1201
asbasbasbag78
(g94
g80
NtRp2338
(dp2339
g83
(dp2340
sg92
g2167
sg85
(lp2341
g78
(g99
g80
NtRp2342
(dp2343
g83
(dp2344
g103
g104
ssg92
g2338
sg85
(lp2345
g1494
asbag78
(g99
g80
NtRp2346
(dp2347
g83
(dp2348
g110
g111
ssg92
g2338
sg85
(lp2349
S':'
asbag78
(g99
g80
NtRp2350
(dp2351
g83
(dp2352
sg92
g2338
sg85
(lp2353
g78
(g79
g80
NtRp2354
(dp2355
g83
(dp2356
g91
I4
ssg92
g2350
sg85
(lp2357
g1201
asbasbasbag78
(g94
g80
NtRp2358
(dp2359
g83
(dp2360
sg92
g2167
sg85
(lp2361
g78
(g99
g80
NtRp2362
(dp2363
g83
(dp2364
g103
g104
ssg92
g2358
sg85
(lp2365
g1732
asbag78
(g99
g80
NtRp2366
(dp2367
g83
(dp2368
g110
g111
ssg92
g2358
sg85
(lp2369
S':'
asbag78
(g99
g80
NtRp2370
(dp2371
g83
(dp2372
sg92
g2358
sg85
(lp2373
g78
(g79
g80
NtRp2374
(dp2375
g83
(dp2376
g91
I4
ssg92
g2370
sg85
(lp2377
g1745
asbasbasbag78
(g94
g80
NtRp2378
(dp2379
g83
(dp2380
sg92
g2167
sg85
(lp2381
g78
(g99
g80
NtRp2382
(dp2383
g83
(dp2384
g103
g104
ssg92
g2378
sg85
(lp2385
g1775
asbag78
(g99
g80
NtRp2386
(dp2387
g83
(dp2388
g110
g111
ssg92
g2378
sg85
(lp2389
S':'
asbag78
(g99
g80
NtRp2390
(dp2391
g83
(dp2392
sg92
g2378
sg85
(lp2393
g78
(g79
g80
NtRp2394
(dp2395
g83
(dp2396
g91
I4
ssg92
g2390
sg85
(lp2397
g78
(g87
g80
NtRp2398
(dp2399
g83
(dp2400
g91
I3
ssg92
Nsg85
(lp2401
g78
(g94
g80
NtRp2402
(dp2403
g83
(dp2404
sg92
g2398
sg85
(lp2405
g78
(g99
g80
NtRp2406
(dp2407
g83
(dp2408
sg92
g2402
sg85
(lp2409
g78
(g79
g80
NtRp2410
(dp2411
g83
(dp2412
g91
I3
ssg92
g2406
sg85
(lp2413
S'1'
asbasbasbag78
(g94
g80
NtRp2414
(dp2415
g83
(dp2416
sg92
g2398
sg85
(lp2417
g78
(g99
g80
NtRp2418
(dp2419
g83
(dp2420
sg92
g2414
sg85
(lp2421
g78
(g79
g80
NtRp2422
(dp2423
g83
(dp2424
g91
I3
ssg92
g2418
sg85
(lp2425
S'99'
p2426
asbasbasbag78
(g94
g80
NtRp2427
(dp2428
g83
(dp2429
sg92
g2398
sg85
(lp2430
g78
(g99
g80
NtRp2431
(dp2432
g83
(dp2433
sg92
g2427
sg85
(lp2434
g78
(g79
g80
NtRp2435
(dp2436
g83
(dp2437
g91
I3
ssg92
g2431
sg85
(lp2438
S'4'
asbasbasbag78
(g94
g80
NtRp2439
(dp2440
g83
(dp2441
sg92
g2398
sg85
(lp2442
g78
(g99
g80
NtRp2443
(dp2444
g83
(dp2445
sg92
g2439
sg85
(lp2446
g78
(g79
g80
NtRp2447
(dp2448
g83
(dp2449
g91
I3
ssg92
g2443
sg85
(lp2450
S'datetime.datetime(2011, 12, 14, 14, 46, 14)'
p2451
asbasbasbag78
(g94
g80
NtRp2452
(dp2453
g83
(dp2454
sg92
g2398
sg85
(lp2455
g78
(g99
g80
NtRp2456
(dp2457
g83
(dp2458
sg92
g2452
sg85
(lp2459
g78
(g79
g80
NtRp2460
(dp2461
g83
(dp2462
g91
I3
ssg92
g2456
sg85
(lp2463
g1854
asbasbasbasbasbasbasbasbasbasbasbag78
(g94
g80
NtRp2464
(dp2465
g83
(dp2466
sg92
g88
sg85
(lp2467
g78
(g99
g80
NtRp2468
(dp2469
g83
(dp2470
g103
g104
ssg92
g2464
sg85
(lp2471
S'is_https'
p2472
asbag78
(g99
g80
NtRp2473
(dp2474
g83
(dp2475
g110
g111
ssg92
g2464
sg85
(lp2476
S':'
asbag78
(g99
g80
NtRp2477
(dp2478
g83
(dp2479
sg92
g2464
sg85
(lp2480
g78
(g79
g80
NtRp2481
(dp2482
g83
(dp2483
g91
I5
ssg92
g2477
sg85
(lp2484
g1201
asbasbasbag78
(g94
g80
NtRp2485
(dp2486
g83
(dp2487
sg92
g88
sg85
(lp2488
g78
(g99
g80
NtRp2489
(dp2490
g83
(dp2491
g103
g104
ssg92
g2485
sg85
(lp2492
S'is_local'
p2493
asbag78
(g99
g80
NtRp2494
(dp2495
g83
(dp2496
g110
g111
ssg92
g2485
sg85
(lp2497
S':'
asbag78
(g99
g80
NtRp2498
(dp2499
g83
(dp2500
sg92
g2485
sg85
(lp2501
g78
(g79
g80
NtRp2502
(dp2503
g83
(dp2504
g91
I5
ssg92
g2498
sg85
(lp2505
g121
asbasbasbag78
(g94
g80
NtRp2506
(dp2507
g83
(dp2508
sg92
g88
sg85
(lp2509
g78
(g99
g80
NtRp2510
(dp2511
g83
(dp2512
g103
g104
ssg92
g2506
sg85
(lp2513
S'is_restful'
p2514
asbag78
(g99
g80
NtRp2515
(dp2516
g83
(dp2517
g110
g111
ssg92
g2506
sg85
(lp2518
S':'
asbag78
(g99
g80
NtRp2519
(dp2520
g83
(dp2521
sg92
g2506
sg85
(lp2522
g78
(g79
g80
NtRp2523
(dp2524
g83
(dp2525
g91
I5
ssg92
g2519
sg85
(lp2526
g1201
asbasbasbag78
(g94
g80
NtRp2527
(dp2528
g83
(dp2529
sg92
g88
sg85
(lp2530
g78
(g99
g80
NtRp2531
(dp2532
g83
(dp2533
g103
g104
ssg92
g2527
sg85
(lp2534
S'now'
p2535
asbag78
(g99
g80
NtRp2536
(dp2537
g83
(dp2538
g110
g111
ssg92
g2527
sg85
(lp2539
S':'
asbag78
(g99
g80
NtRp2540
(dp2541
g83
(dp2542
sg92
g2527
sg85
(lp2543
g78
(g79
g80
NtRp2544
(dp2545
g83
(dp2546
g91
I5
ssg92
g2540
sg85
(lp2547
S'datetime.datetime(2012, 3, 12, 16, 36, 26, 724142)'
p2548
asbasbasbag78
(g94
g80
NtRp2549
(dp2550
g83
(dp2551
sg92
g88
sg85
(lp2552
g78
(g99
g80
NtRp2553
(dp2554
g83
(dp2555
g103
g104
ssg92
g2549
sg85
(lp2556
S'post_vars'
p2557
asbag78
(g99
g80
NtRp2558
(dp2559
g83
(dp2560
g110
g111
ssg92
g2549
sg85
(lp2561
S':'
asbag78
(g99
g80
NtRp2562
(dp2563
g83
(dp2564
sg92
g2549
sg85
(lp2565
g78
(g79
g80
NtRp2566
(dp2567
g83
(dp2568
g91
I5
ssg92
g2562
sg85
(lp2569
g78
(g87
g80
NtRp2570
(dp2571
g83
(dp2572
g91
I4
ssg92
Nsg85
(lp2573
sbasbasbasbag78
(g94
g80
NtRp2574
(dp2575
g83
(dp2576
sg92
g88
sg85
(lp2577
g78
(g99
g80
NtRp2578
(dp2579
g83
(dp2580
g103
g104
ssg92
g2574
sg85
(lp2581
S'raw_args'
p2582
asbag78
(g99
g80
NtRp2583
(dp2584
g83
(dp2585
g110
g111
ssg92
g2574
sg85
(lp2586
S':'
asbag78
(g99
g80
NtRp2587
(dp2588
g83
(dp2589
sg92
g2574
sg85
(lp2590
g78
(g79
g80
NtRp2591
(dp2592
g83
(dp2593
g91
I5
ssg92
g2587
sg85
(lp2594
g180
asbasbasbag78
(g94
g80
NtRp2595
(dp2596
g83
(dp2597
sg92
g88
sg85
(lp2598
g78
(g99
g80
NtRp2599
(dp2600
g83
(dp2601
g103
g104
ssg92
g2595
sg85
(lp2602
S'raw_extension'
p2603
asbag78
(g99
g80
NtRp2604
(dp2605
g83
(dp2606
g110
g111
ssg92
g2595
sg85
(lp2607
S':'
asbag78
(g99
g80
NtRp2608
(dp2609
g83
(dp2610
sg92
g2595
sg85
(lp2611
g78
(g79
g80
NtRp2612
(dp2613
g83
(dp2614
g91
I5
ssg92
g2608
sg85
(lp2615
g2076
asbasbasbag78
(g94
g80
NtRp2616
(dp2617
g83
(dp2618
sg92
g88
sg85
(lp2619
g78
(g99
g80
NtRp2620
(dp2621
g83
(dp2622
g103
g104
ssg92
g2616
sg85
(lp2623
S'url'
p2624
asbag78
(g99
g80
NtRp2625
(dp2626
g83
(dp2627
g110
g111
ssg92
g2616
sg85
(lp2628
S':'
asbag78
(g99
g80
NtRp2629
(dp2630
g83
(dp2631
sg92
g2616
sg85
(lp2632
g78
(g79
g80
NtRp2633
(dp2634
g83
(dp2635
g91
I5
ssg92
g2629
sg85
(lp2636
S'/grammateus3/docs/section.load/SibOr'
p2637
asbasbasbag78
(g94
g80
NtRp2638
(dp2639
g83
(dp2640
sg92
g88
sg85
(lp2641
g78
(g99
g80
NtRp2642
(dp2643
g83
(dp2644
g103
g104
ssg92
g2638
sg85
(lp2645
S'utcnow'
p2646
asbag78
(g99
g80
NtRp2647
(dp2648
g83
(dp2649
g110
g111
ssg92
g2638
sg85
(lp2650
S':'
asbag78
(g99
g80
NtRp2651
(dp2652
g83
(dp2653
sg92
g2638
sg85
(lp2654
g78
(g79
g80
NtRp2655
(dp2656
g83
(dp2657
g91
I5
ssg92
g2651
sg85
(lp2658
S'datetime.datetime(2012, 3, 12, 20, 36, 26, 724208)'
p2659
asbasbasbag78
(g94
g80
NtRp2660
(dp2661
g83
(dp2662
sg92
g88
sg85
(lp2663
g78
(g99
g80
NtRp2664
(dp2665
g83
(dp2666
g103
g104
ssg92
g2660
sg85
(lp2667
S'uuid'
p2668
asbag78
(g99
g80
NtRp2669
(dp2670
g83
(dp2671
g110
g111
ssg92
g2660
sg85
(lp2672
S':'
asbag78
(g99
g80
NtRp2673
(dp2674
g83
(dp2675
sg92
g2660
sg85
(lp2676
g78
(g79
g80
NtRp2677
(dp2678
g83
(dp2679
g91
I5
ssg92
g2673
sg85
(lp2680
S'grammateus3/127.0.0.1.2012-03-12.16-36-26.1577ce02-b5c1-40f7-886e-bba7b290abe1'
p2681
asbasbasbag78
(g94
g80
NtRp2682
(dp2683
g83
(dp2684
sg92
g88
sg85
(lp2685
g78
(g99
g80
NtRp2686
(dp2687
g83
(dp2688
g103
g104
ssg92
g2682
sg85
(lp2689
S'vars'
p2690
asbag78
(g99
g80
NtRp2691
(dp2692
g83
(dp2693
g110
g111
ssg92
g2682
sg85
(lp2694
S':'
asbag78
(g99
g80
NtRp2695
(dp2696
g83
(dp2697
sg92
g2682
sg85
(lp2698
g78
(g79
g80
NtRp2699
(dp2700
g83
(dp2701
g91
I5
ssg92
g2695
sg85
(lp2702
g78
(g87
g80
NtRp2703
(dp2704
g83
(dp2705
g91
I4
ssg92
Nsg85
(lp2706
sbasbasbasbag78
(g94
g80
NtRp2707
(dp2708
g83
(dp2709
sg92
g88
sg85
(lp2710
g78
(g99
g80
NtRp2711
(dp2712
g83
(dp2713
g103
g104
ssg92
g2707
sg85
(lp2714
S'wsgi'
p2715
asbag78
(g99
g80
NtRp2716
(dp2717
g83
(dp2718
g110
g111
ssg92
g2707
sg85
(lp2719
S':'
asbag78
(g99
g80
NtRp2720
(dp2721
g83
(dp2722
sg92
g2707
sg85
(lp2723
g78
(g79
g80
NtRp2724
(dp2725
g83
(dp2726
g91
I5
ssg92
g2720
sg85
(lp2727
g78
(g87
g80
NtRp2728
(dp2729
g83
(dp2730
g91
I4
ssg92
Nsg85
(lp2731
g78
(g94
g80
NtRp2732
(dp2733
g83
(dp2734
sg92
g2728
sg85
(lp2735
g78
(g99
g80
NtRp2736
(dp2737
g83
(dp2738
g103
g104
ssg92
g2732
sg85
(lp2739
S'environ'
p2740
asbag78
(g99
g80
NtRp2741
(dp2742
g83
(dp2743
g110
g111
ssg92
g2732
sg85
(lp2744
S':'
asbag78
(g99
g80
NtRp2745
(dp2746
g83
(dp2747
sg92
g2732
sg85
(lp2748
g78
(g79
g80
NtRp2749
(dp2750
g83
(dp2751
g91
I4
ssg92
g2745
sg85
(lp2752
g78
(g87
g80
NtRp2753
(dp2754
g83
(dp2755
g91
I3
ssg92
Nsg85
(lp2756
g78
(g94
g80
NtRp2757
(dp2758
g83
(dp2759
sg92
g2753
sg85
(lp2760
g78
(g99
g80
NtRp2761
(dp2762
g83
(dp2763
g103
g104
ssg92
g2757
sg85
(lp2764
S'HTTP_ACCEPT'
p2765
asbag78
(g99
g80
NtRp2766
(dp2767
g83
(dp2768
g110
g111
ssg92
g2757
sg85
(lp2769
S':'
asbag78
(g99
g80
NtRp2770
(dp2771
g83
(dp2772
sg92
g2757
sg85
(lp2773
g78
(g79
g80
NtRp2774
(dp2775
g83
(dp2776
g91
I3
ssg92
g2770
sg85
(lp2777
g1245
asbasbasbag78
(g94
g80
NtRp2778
(dp2779
g83
(dp2780
sg92
g2753
sg85
(lp2781
g78
(g99
g80
NtRp2782
(dp2783
g83
(dp2784
g103
g104
ssg92
g2778
sg85
(lp2785
S'HTTP_ACCEPT_ENCODING'
p2786
asbag78
(g99
g80
NtRp2787
(dp2788
g83
(dp2789
g110
g111
ssg92
g2778
sg85
(lp2790
S':'
asbag78
(g99
g80
NtRp2791
(dp2792
g83
(dp2793
sg92
g2778
sg85
(lp2794
g78
(g79
g80
NtRp2795
(dp2796
g83
(dp2797
g91
I3
ssg92
g2791
sg85
(lp2798
g1267
asbasbasbag78
(g94
g80
NtRp2799
(dp2800
g83
(dp2801
sg92
g2753
sg85
(lp2802
g78
(g99
g80
NtRp2803
(dp2804
g83
(dp2805
g103
g104
ssg92
g2799
sg85
(lp2806
S'HTTP_ACCEPT_LANGUAGE'
p2807
asbag78
(g99
g80
NtRp2808
(dp2809
g83
(dp2810
g110
g111
ssg92
g2799
sg85
(lp2811
S':'
asbag78
(g99
g80
NtRp2812
(dp2813
g83
(dp2814
sg92
g2799
sg85
(lp2815
g78
(g79
g80
NtRp2816
(dp2817
g83
(dp2818
g91
I3
ssg92
g2812
sg85
(lp2819
g1289
asbasbasbag78
(g94
g80
NtRp2820
(dp2821
g83
(dp2822
sg92
g2753
sg85
(lp2823
g78
(g99
g80
NtRp2824
(dp2825
g83
(dp2826
g103
g104
ssg92
g2820
sg85
(lp2827
S'HTTP_CONNECTION'
p2828
asbag78
(g99
g80
NtRp2829
(dp2830
g83
(dp2831
g110
g111
ssg92
g2820
sg85
(lp2832
S':'
asbag78
(g99
g80
NtRp2833
(dp2834
g83
(dp2835
sg92
g2820
sg85
(lp2836
g78
(g79
g80
NtRp2837
(dp2838
g83
(dp2839
g91
I3
ssg92
g2833
sg85
(lp2840
g1311
asbasbasbag78
(g94
g80
NtRp2841
(dp2842
g83
(dp2843
sg92
g2753
sg85
(lp2844
g78
(g99
g80
NtRp2845
(dp2846
g83
(dp2847
g103
g104
ssg92
g2841
sg85
(lp2848
S'HTTP_COOKIE'
p2849
asbag78
(g99
g80
NtRp2850
(dp2851
g83
(dp2852
g110
g111
ssg92
g2841
sg85
(lp2853
S':'
asbag78
(g99
g80
NtRp2854
(dp2855
g83
(dp2856
sg92
g2841
sg85
(lp2857
g78
(g79
g80
NtRp2858
(dp2859
g83
(dp2860
g91
I3
ssg92
g2854
sg85
(lp2861
g1333
asbasbasbag78
(g94
g80
NtRp2862
(dp2863
g83
(dp2864
sg92
g2753
sg85
(lp2865
g78
(g99
g80
NtRp2866
(dp2867
g83
(dp2868
g103
g104
ssg92
g2862
sg85
(lp2869
S'HTTP_HOST'
p2870
asbag78
(g99
g80
NtRp2871
(dp2872
g83
(dp2873
g110
g111
ssg92
g2862
sg85
(lp2874
S':'
asbag78
(g99
g80
NtRp2875
(dp2876
g83
(dp2877
sg92
g2862
sg85
(lp2878
g78
(g79
g80
NtRp2879
(dp2880
g83
(dp2881
g91
I3
ssg92
g2875
sg85
(lp2882
g1355
asbasbasbag78
(g94
g80
NtRp2883
(dp2884
g83
(dp2885
sg92
g2753
sg85
(lp2886
g78
(g99
g80
NtRp2887
(dp2888
g83
(dp2889
g103
g104
ssg92
g2883
sg85
(lp2890
S'HTTP_REFERER'
p2891
asbag78
(g99
g80
NtRp2892
(dp2893
g83
(dp2894
g110
g111
ssg92
g2883
sg85
(lp2895
S':'
asbag78
(g99
g80
NtRp2896
(dp2897
g83
(dp2898
sg92
g2883
sg85
(lp2899
g78
(g79
g80
NtRp2900
(dp2901
g83
(dp2902
g91
I3
ssg92
g2896
sg85
(lp2903
g1377
asbasbasbag78
(g94
g80
NtRp2904
(dp2905
g83
(dp2906
sg92
g2753
sg85
(lp2907
g78
(g99
g80
NtRp2908
(dp2909
g83
(dp2910
g103
g104
ssg92
g2904
sg85
(lp2911
S'HTTP_USER_AGENT'
p2912
asbag78
(g99
g80
NtRp2913
(dp2914
g83
(dp2915
g110
g111
ssg92
g2904
sg85
(lp2916
S':'
asbag78
(g99
g80
NtRp2917
(dp2918
g83
(dp2919
sg92
g2904
sg85
(lp2920
g78
(g79
g80
NtRp2921
(dp2922
g83
(dp2923
g91
I3
ssg92
g2917
sg85
(lp2924
g1399
asbasbasbag78
(g94
g80
NtRp2925
(dp2926
g83
(dp2927
sg92
g2753
sg85
(lp2928
g78
(g99
g80
NtRp2929
(dp2930
g83
(dp2931
g103
g104
ssg92
g2925
sg85
(lp2932
S'HTTP_WEB2PY_COMPONENT_ELEMENT'
p2933
asbag78
(g99
g80
NtRp2934
(dp2935
g83
(dp2936
g110
g111
ssg92
g2925
sg85
(lp2937
S':'
asbag78
(g99
g80
NtRp2938
(dp2939
g83
(dp2940
sg92
g2925
sg85
(lp2941
g78
(g79
g80
NtRp2942
(dp2943
g83
(dp2944
g91
I3
ssg92
g2938
sg85
(lp2945
g224
asbasbasbag78
(g94
g80
NtRp2946
(dp2947
g83
(dp2948
sg92
g2753
sg85
(lp2949
g78
(g99
g80
NtRp2950
(dp2951
g83
(dp2952
g103
g104
ssg92
g2946
sg85
(lp2953
S'HTTP_WEB2PY_COMPONENT_LOCATION'
p2954
asbag78
(g99
g80
NtRp2955
(dp2956
g83
(dp2957
g110
g111
ssg92
g2946
sg85
(lp2958
S':'
asbag78
(g99
g80
NtRp2959
(dp2960
g83
(dp2961
sg92
g2946
sg85
(lp2962
g78
(g79
g80
NtRp2963
(dp2964
g83
(dp2965
g91
I3
ssg92
g2959
sg85
(lp2966
g1442
asbasbasbag78
(g94
g80
NtRp2967
(dp2968
g83
(dp2969
sg92
g2753
sg85
(lp2970
g78
(g99
g80
NtRp2971
(dp2972
g83
(dp2973
g103
g104
ssg92
g2967
sg85
(lp2974
S'HTTP_X_REQUESTED_WITH'
p2975
asbag78
(g99
g80
NtRp2976
(dp2977
g83
(dp2978
g110
g111
ssg92
g2967
sg85
(lp2979
S':'
asbag78
(g99
g80
NtRp2980
(dp2981
g83
(dp2982
sg92
g2967
sg85
(lp2983
g78
(g79
g80
NtRp2984
(dp2985
g83
(dp2986
g91
I3
ssg92
g2980
sg85
(lp2987
g1464
asbasbasbag78
(g94
g80
NtRp2988
(dp2989
g83
(dp2990
sg92
g2753
sg85
(lp2991
g78
(g99
g80
NtRp2992
(dp2993
g83
(dp2994
g103
g104
ssg92
g2988
sg85
(lp2995
S'PATH_INFO'
p2996
asbag78
(g99
g80
NtRp2997
(dp2998
g83
(dp2999
g110
g111
ssg92
g2988
sg85
(lp3000
S':'
asbag78
(g99
g80
NtRp3001
(dp3002
g83
(dp3003
sg92
g2988
sg85
(lp3004
g78
(g79
g80
NtRp3005
(dp3006
g83
(dp3007
g91
I3
ssg92
g3001
sg85
(lp3008
g1528
asbasbasbag78
(g94
g80
NtRp3009
(dp3010
g83
(dp3011
sg92
g2753
sg85
(lp3012
g78
(g99
g80
NtRp3013
(dp3014
g83
(dp3015
g103
g104
ssg92
g3009
sg85
(lp3016
S'QUERY_STRING'
p3017
asbag78
(g99
g80
NtRp3018
(dp3019
g83
(dp3020
g110
g111
ssg92
g3009
sg85
(lp3021
S':'
asbag78
(g99
g80
NtRp3022
(dp3023
g83
(dp3024
sg92
g3009
sg85
(lp3025
g78
(g79
g80
NtRp3026
(dp3027
g83
(dp3028
g91
I3
ssg92
g3022
sg85
(lp3029
S''
asbasbasbag78
(g94
g80
NtRp3030
(dp3031
g83
(dp3032
sg92
g2753
sg85
(lp3033
g78
(g99
g80
NtRp3034
(dp3035
g83
(dp3036
g103
g104
ssg92
g3030
sg85
(lp3037
S'REMOTE_ADDR'
p3038
asbag78
(g99
g80
NtRp3039
(dp3040
g83
(dp3041
g110
g111
ssg92
g3030
sg85
(lp3042
S':'
asbag78
(g99
g80
NtRp3043
(dp3044
g83
(dp3045
sg92
g3030
sg85
(lp3046
g78
(g79
g80
NtRp3047
(dp3048
g83
(dp3049
g91
I3
ssg92
g3043
sg85
(lp3050
g246
asbasbasbag78
(g94
g80
NtRp3051
(dp3052
g83
(dp3053
sg92
g2753
sg85
(lp3054
g78
(g99
g80
NtRp3055
(dp3056
g83
(dp3057
g103
g104
ssg92
g3051
sg85
(lp3058
S'REMOTE_PORT'
p3059
asbag78
(g99
g80
NtRp3060
(dp3061
g83
(dp3062
g110
g111
ssg92
g3051
sg85
(lp3063
S':'
asbag78
(g99
g80
NtRp3064
(dp3065
g83
(dp3066
sg92
g3051
sg85
(lp3067
g78
(g79
g80
NtRp3068
(dp3069
g83
(dp3070
g91
I3
ssg92
g3064
sg85
(lp3071
g1592
asbasbasbag78
(g94
g80
NtRp3072
(dp3073
g83
(dp3074
sg92
g2753
sg85
(lp3075
g78
(g99
g80
NtRp3076
(dp3077
g83
(dp3078
g103
g104
ssg92
g3072
sg85
(lp3079
S'REQUEST_METHOD'
p3080
asbag78
(g99
g80
NtRp3081
(dp3082
g83
(dp3083
g110
g111
ssg92
g3072
sg85
(lp3084
S':'
asbag78
(g99
g80
NtRp3085
(dp3086
g83
(dp3087
sg92
g3072
sg85
(lp3088
g78
(g79
g80
NtRp3089
(dp3090
g83
(dp3091
g91
I3
ssg92
g3085
sg85
(lp3092
g1614
asbasbasbag78
(g94
g80
NtRp3093
(dp3094
g83
(dp3095
sg92
g2753
sg85
(lp3096
g78
(g99
g80
NtRp3097
(dp3098
g83
(dp3099
g103
g104
ssg92
g3093
sg85
(lp3100
S'SCRIPT_NAME'
p3101
asbag78
(g99
g80
NtRp3102
(dp3103
g83
(dp3104
g110
g111
ssg92
g3093
sg85
(lp3105
S':'
asbag78
(g99
g80
NtRp3106
(dp3107
g83
(dp3108
sg92
g3093
sg85
(lp3109
g78
(g79
g80
NtRp3110
(dp3111
g83
(dp3112
g91
I3
ssg92
g3106
sg85
(lp3113
S''
asbasbasbag78
(g94
g80
NtRp3114
(dp3115
g83
(dp3116
sg92
g2753
sg85
(lp3117
g78
(g99
g80
NtRp3118
(dp3119
g83
(dp3120
g103
g104
ssg92
g3114
sg85
(lp3121
S'SERVER_NAME'
p3122
asbag78
(g99
g80
NtRp3123
(dp3124
g83
(dp3125
g110
g111
ssg92
g3114
sg85
(lp3126
S':'
asbag78
(g99
g80
NtRp3127
(dp3128
g83
(dp3129
sg92
g3114
sg85
(lp3130
g78
(g79
g80
NtRp3131
(dp3132
g83
(dp3133
g91
I3
ssg92
g3127
sg85
(lp3134
g1657
asbasbasbag78
(g94
g80
NtRp3135
(dp3136
g83
(dp3137
sg92
g2753
sg85
(lp3138
g78
(g99
g80
NtRp3139
(dp3140
g83
(dp3141
g103
g104
ssg92
g3135
sg85
(lp3142
S'SERVER_PORT'
p3143
asbag78
(g99
g80
NtRp3144
(dp3145
g83
(dp3146
g110
g111
ssg92
g3135
sg85
(lp3147
S':'
asbag78
(g99
g80
NtRp3148
(dp3149
g83
(dp3150
sg92
g3135
sg85
(lp3151
g78
(g79
g80
NtRp3152
(dp3153
g83
(dp3154
g91
I3
ssg92
g3148
sg85
(lp3155
g1679
asbasbasbag78
(g94
g80
NtRp3156
(dp3157
g83
(dp3158
sg92
g2753
sg85
(lp3159
g78
(g99
g80
NtRp3160
(dp3161
g83
(dp3162
g103
g104
ssg92
g3156
sg85
(lp3163
S'SERVER_PROTOCOL'
p3164
asbag78
(g99
g80
NtRp3165
(dp3166
g83
(dp3167
g110
g111
ssg92
g3156
sg85
(lp3168
S':'
asbag78
(g99
g80
NtRp3169
(dp3170
g83
(dp3171
sg92
g3156
sg85
(lp3172
g78
(g79
g80
NtRp3173
(dp3174
g83
(dp3175
g91
I3
ssg92
g3169
sg85
(lp3176
g1701
asbasbasbag78
(g94
g80
NtRp3177
(dp3178
g83
(dp3179
sg92
g2753
sg85
(lp3180
g78
(g99
g80
NtRp3181
(dp3182
g83
(dp3183
g103
g104
ssg92
g3177
sg85
(lp3184
S'SERVER_SOFTWARE'
p3185
asbag78
(g99
g80
NtRp3186
(dp3187
g83
(dp3188
g110
g111
ssg92
g3177
sg85
(lp3189
S':'
asbag78
(g99
g80
NtRp3190
(dp3191
g83
(dp3192
sg92
g3177
sg85
(lp3193
g78
(g79
g80
NtRp3194
(dp3195
g83
(dp3196
g91
I3
ssg92
g3190
sg85
(lp3197
g1723
asbasbasbag78
(g94
g80
NtRp3198
(dp3199
g83
(dp3200
sg92
g2753
sg85
(lp3201
g78
(g99
g80
NtRp3202
(dp3203
g83
(dp3204
g103
g104
ssg92
g3198
sg85
(lp3205
S'wsgi.errors'
p3206
asbag78
(g99
g80
NtRp3207
(dp3208
g83
(dp3209
g110
g111
ssg92
g3198
sg85
(lp3210
S':'
asbag78
(g99
g80
NtRp3211
(dp3212
g83
(dp3213
sg92
g3198
sg85
(lp3214
g78
(g79
g80
NtRp3215
(dp3216
g83
(dp3217
g91
I3
ssg92
g3211
sg85
(lp3218
S"<open file '<stderr>', mode 'w' at 0x7f03f76bb270>"
p3219
asbasbasbag78
(g94
g80
NtRp3220
(dp3221
g83
(dp3222
sg92
g2753
sg85
(lp3223
g78
(g99
g80
NtRp3224
(dp3225
g83
(dp3226
g103
g104
ssg92
g3220
sg85
(lp3227
S'wsgi.file_wrapper'
p3228
asbag78
(g99
g80
NtRp3229
(dp3230
g83
(dp3231
g110
g111
ssg92
g3220
sg85
(lp3232
S':'
asbag78
(g99
g80
NtRp3233
(dp3234
g83
(dp3235
sg92
g3220
sg85
(lp3236
g78
(g79
g80
NtRp3237
(dp3238
g83
(dp3239
g91
I3
ssg92
g3233
sg85
(lp3240
S'<class wsgiref.util.FileWrapper at 0x2c0cd50>'
p3241
asbasbasbag78
(g94
g80
NtRp3242
(dp3243
g83
(dp3244
sg92
g2753
sg85
(lp3245
g78
(g99
g80
NtRp3246
(dp3247
g83
(dp3248
g103
g104
ssg92
g3242
sg85
(lp3249
S'wsgi.input'
p3250
asbag78
(g99
g80
NtRp3251
(dp3252
g83
(dp3253
g110
g111
ssg92
g3242
sg85
(lp3254
S':'
asbag78
(g99
g80
NtRp3255
(dp3256
g83
(dp3257
sg92
g3242
sg85
(lp3258
g78
(g79
g80
NtRp3259
(dp3260
g83
(dp3261
g91
I3
ssg92
g3255
sg85
(lp3262
S'<cStringIO.StringO object at 0x7f03d4f8db58>'
p3263
asbasbasbag78
(g94
g80
NtRp3264
(dp3265
g83
(dp3266
sg92
g2753
sg85
(lp3267
g78
(g99
g80
NtRp3268
(dp3269
g83
(dp3270
g103
g104
ssg92
g3264
sg85
(lp3271
S'wsgi.multiprocess'
p3272
asbag78
(g99
g80
NtRp3273
(dp3274
g83
(dp3275
g110
g111
ssg92
g3264
sg85
(lp3276
S':'
asbag78
(g99
g80
NtRp3277
(dp3278
g83
(dp3279
sg92
g3264
sg85
(lp3280
g78
(g79
g80
NtRp3281
(dp3282
g83
(dp3283
g91
I3
ssg92
g3277
sg85
(lp3284
g1201
asbasbasbag78
(g94
g80
NtRp3285
(dp3286
g83
(dp3287
sg92
g2753
sg85
(lp3288
g78
(g99
g80
NtRp3289
(dp3290
g83
(dp3291
g103
g104
ssg92
g3285
sg85
(lp3292
S'wsgi.multithread'
p3293
asbag78
(g99
g80
NtRp3294
(dp3295
g83
(dp3296
g110
g111
ssg92
g3285
sg85
(lp3297
S':'
asbag78
(g99
g80
NtRp3298
(dp3299
g83
(dp3300
sg92
g3285
sg85
(lp3301
g78
(g79
g80
NtRp3302
(dp3303
g83
(dp3304
g91
I3
ssg92
g3298
sg85
(lp3305
g121
asbasbasbag78
(g94
g80
NtRp3306
(dp3307
g83
(dp3308
sg92
g2753
sg85
(lp3309
g78
(g99
g80
NtRp3310
(dp3311
g83
(dp3312
g103
g104
ssg92
g3306
sg85
(lp3313
S'wsgi.run_once'
p3314
asbag78
(g99
g80
NtRp3315
(dp3316
g83
(dp3317
g110
g111
ssg92
g3306
sg85
(lp3318
S':'
asbag78
(g99
g80
NtRp3319
(dp3320
g83
(dp3321
sg92
g3306
sg85
(lp3322
g78
(g79
g80
NtRp3323
(dp3324
g83
(dp3325
g91
I3
ssg92
g3319
sg85
(lp3326
g1201
asbasbasbag78
(g94
g80
NtRp3327
(dp3328
g83
(dp3329
sg92
g2753
sg85
(lp3330
g78
(g99
g80
NtRp3331
(dp3332
g83
(dp3333
g103
g104
ssg92
g3327
sg85
(lp3334
S'wsgi.url_scheme'
p3335
asbag78
(g99
g80
NtRp3336
(dp3337
g83
(dp3338
g110
g111
ssg92
g3327
sg85
(lp3339
S':'
asbag78
(g99
g80
NtRp3340
(dp3341
g83
(dp3342
sg92
g3327
sg85
(lp3343
g78
(g79
g80
NtRp3344
(dp3345
g83
(dp3346
g91
I3
ssg92
g3340
sg85
(lp3347
g2005
asbasbasbag78
(g94
g80
NtRp3348
(dp3349
g83
(dp3350
sg92
g2753
sg85
(lp3351
g78
(g99
g80
NtRp3352
(dp3353
g83
(dp3354
g103
g104
ssg92
g3348
sg85
(lp3355
S'wsgi.version'
p3356
asbag78
(g99
g80
NtRp3357
(dp3358
g83
(dp3359
g110
g111
ssg92
g3348
sg85
(lp3360
S':'
asbag78
(g99
g80
NtRp3361
(dp3362
g83
(dp3363
sg92
g3348
sg85
(lp3364
g78
(g79
g80
NtRp3365
(dp3366
g83
(dp3367
g91
I3
ssg92
g3361
sg85
(lp3368
S'1'
asbasbasbasbasbasbasbasbasbasbasbasbasbsS'frames'
p3369
(lp3370
(dp3371
S'file'
p3372
S'/home/ian/web/web2py/gluon/restricted.py'
p3373
sS'dump'
p3374
(dp3375
S'environment'
p3376
S"{'A': <class 'gluon.html.A'>, 'Auth': <class 'gluon.tools.Auth'>, 'B': <class 'gluon.html.B'>, 'BEAUTIFY': <class 'gluon.html.BEAUTIFY'>, 'BODY': <class 'gluon.html.BODY'>, 'BR': <class 'gluon.html.BR'>, 'BUTTON': <class 'gluon.html.BUTTON'>, 'BookParser': <class 'applications.grammateus3.modules.parse.BookParser'>, 'CAT': <class 'gluon.html.CAT'>, 'CENTER': <class 'gluon.html.CENTER'>, ...}"
p3377
sS'ccode'
p3378
S'<code object <module> at 0x7f03d4f792b0, file "/...cations/grammateus3/controllers/docs.py", line 2>'
p3379
ssS'lnum'
p3380
I204
sS'lines'
p3381
(dp3382
I199
S'    try:'
p3383
sI200
S'        if type(code) == types.CodeType:'
p3384
sI201
S'            ccode = code'
p3385
sI202
S'        else:'
p3386
sI203
S'            ccode = compile2(code,layer)'
p3387
sI204
S'        exec ccode in environment'
p3388
sI205
S'    except HTTP:'
p3389
sI206
S'        raise'
p3390
sI207
S'    except RestrictedError:'
p3391
sI208
S'        # do not encapsulate (obfuscate) the original RestrictedError'
p3392
ssS'call'
p3393
S"(code='# coding: utf8\\nfrom lxml import etree\\n\\nfrom pars... info)\\n\\nresponse._vars=response._caller(section)\\n', environment={'A': <class 'gluon.html.A'>, 'Auth': <class 'gluon.tools.Auth'>, 'B': <class 'gluon.html.B'>, 'BEAUTIFY': <class 'gluon.html.BEAUTIFY'>, 'BODY': <class 'gluon.html.BODY'>, 'BR': <class 'gluon.html.BR'>, 'BUTTON': <class 'gluon.html.BUTTON'>, 'BookParser': <class 'applications.grammateus3.modules.parse.BookParser'>, 'CAT': <class 'gluon.html.CAT'>, 'CENTER': <class 'gluon.html.CENTER'>, ...}, layer='/home/ian/web/web2py/applications/grammateus3/controllers/docs.py')"
p3394
sS'func'
p3395
S'restricted'
p3396
sa(dp3397
g3372
S'/home/ian/web/web2py/applications/grammateus3/controllers/docs.py'
p3398
sg3374
(dp3399
sg3380
I194
sg3381
(dp3400
I192
S'    return dict(title = title, info = info)'
p3401
sI183
S"                print 'Version textstructure'"
p3402
sI184
S'                for ref, ref_val in value.items():'
p3403
sI185
S'                    for unit, unit_val in ref_val.items():'
p3404
sI186
S'                        for mss, mss_val in unit_val.items():'
p3405
sI187
S"                            print '\\t', ref, '-->', unit, '-->', mss, '-->', mss_val"
p3406
sI188
S"        print '************'"
p3407
sI189
S'    print'
p3408
sI190
S'    print'
p3409
sI191
S''
ssg3393
S'()'
p3410
sg3395
S'<module>'
p3411
sa(dp3412
g3372
S'/home/ian/web/web2py/gluon/globals.py'
p3413
sg3374
(dp3414
S'self'
p3415
S'undefined'
p3416
sS'f'
S'<function section>'
p3417
ssg3380
I172
sg3381
(dp3418
I167
S'        self.meta = Storage()      # used by web2py_ajax.html'
p3419
sI168
S'        self.menu = []             # used by the default view layout'
p3420
sI169
S'        self.files = []            # used by web2py_ajax.html'
p3421
sI170
S'        self.generic_patterns = [] # patterns to allow generic views'
p3422
sI171
S'        self._vars = None'
p3423
sI172
S'        self._caller = lambda f: f()'
p3424
sI173
S'        self._view_environment = None'
p3425
sI174
S'        self._custom_commit = None'
p3426
sI175
S'        self._custom_rollback = None'
p3427
sI176
S''
ssg3393
S'(f=<function section>)'
p3428
sg3395
S'<lambda>'
p3429
sa(dp3430
g3372
S'/home/ian/web/web2py/applications/grammateus3/controllers/docs.py'
p3431
sg3374
(dp3432
S'p'
g3416
sS'global BookParser'
p3433
S"<class 'applications.grammateus3.modules.parse.BookParser'>"
p3434
sS'book_file'
p3435
S"'applications/grammateus3/static/docs/SibOr.xml'"
p3436
ssg3380
I43
sg3381
(dp3437
I38
S"    print 'start of section() method with url ', request.url, varlist"
p3438
sI39
S'    #get filename from end of url and parse the file with BookParser class'
p3439
sI40
S'    filename = request.args[0]'
p3440
sI41
S"    print 'filename: ', filename"
p3441
sI42
S"    book_file = 'applications/grammateus3/static/docs/%s.xml' % filename"
p3442
sI43
S'    p = BookParser(book_file)'
p3443
sI44
S'    info = p.book_info()'
p3444
sI45
S'    #get title of document'
p3445
sI46
S"    title = info['title']"
p3446
sI47
S''
ssg3393
S'()'
p3447
sg3395
S'section'
p3448
sa(dp3449
g3372
S'/home/ian/web/web2py/applications/grammateus3/modules/parse.py'
p3450
sg3374
(dp3451
S'xml_file'
p3452
S"'applications/grammateus3/static/docs/SibOr.xml'"
p3453
sS'self'
p3454
S'<applications.grammateus3.modules.parse.BookParser object>'
p3455
sS'parser'
p3456
S'<lxml.etree.XMLParser object>'
p3457
sS'self.tree'
p3458
g3416
sS'global etree'
p3459
S"<module 'lxml.etree' from '/usr/lib/python2.7/dist-packages/lxml/etree.so'>"
p3460
sS'etree.parse'
p3461
S'<built-in function parse>'
p3462
ssg3380
I25
sg3381
(dp3463
I20
S'        self.xml_file = xml_file'
p3464
sI21
S''
sI22
S'        # Validate document against its schema'
p3465
sI23
S'        parser = etree.XMLParser(dtd_validation=True)'
p3466
sI24
S'        try:'
p3467
sI25
S'            self.tree = etree.parse(xml_file, parser)'
p3468
sI26
S'        except etree.XMLSyntaxError:'
p3469
sI27
S"            print 'Document does not validate against its schema: %s' % xml_file"
p3470
sI28
S'            raise   # Just reraise for now'
p3471
sI29
S''
ssg3393
S"(self=<applications.grammateus3.modules.parse.BookParser object>, xml_file='applications/grammateus3/static/docs/SibOr.xml')"
p3472
sg3395
g29
sa(dp3473
g3372
S'/home/ian/web/web2py/lxml.etree.pyx'
p3474
sg3374
(dp3475
sg3380
I2953
sg3381
(dp3476
sg3393
S'()'
p3477
sg3395
S'lxml.etree.parse (src/lxml/lxml.etree.c:56204)'
p3478
sa(dp3479
g3372
S'/home/ian/web/web2py/parser.pxi'
p3480
sg3374
(dp3481
sg3380
I1533
sg3381
(dp3482
sg3393
S'()'
p3483
sg3395
S'lxml.etree._parseDocument (src/lxml/lxml.etree.c:82287)'
p3484
sa(dp3485
g3372
S'/home/ian/web/web2py/parser.pxi'
p3486
sg3374
(dp3487
sg3380
I1562
sg3381
(dp3488
sg3393
S'()'
p3489
sg3395
S'lxml.etree._parseDocumentFromURL (src/lxml/lxml.etree.c:82580)'
p3490
sa(dp3491
g3372
S'/home/ian/web/web2py/parser.pxi'
p3492
sg3374
(dp3493
sg3380
I1462
sg3381
(dp3494
sg3393
S'()'
p3495
sg3395
S'lxml.etree._parseDocFromFile (src/lxml/lxml.etree.c:81619)'
p3496
sa(dp3497
g3372
S'/home/ian/web/web2py/parser.pxi'
p3498
sg3374
(dp3499
sg3380
I1002
sg3381
(dp3500
sg3393
S'()'
p3501
sg3395
S'lxml.etree._BaseParser._parseDocFromFile (src/lxml/lxml.etree.c:78528)'
p3502
sa(dp3503
g3372
S'/home/ian/web/web2py/parser.pxi'
p3504
sg3374
(dp3505
sg3380
I569
sg3381
(dp3506
sg3393
S'()'
p3507
sg3395
S'lxml.etree._ParserContext._handleParseResultDoc (src/lxml/lxml.etree.c:74472)'
p3508
sa(dp3509
g3372
S'/home/ian/web/web2py/parser.pxi'
p3510
sg3374
(dp3511
sg3380
I650
sg3381
(dp3512
sg3393
S'()'
p3513
sg3395
S'lxml.etree._handleParseResult (src/lxml/lxml.etree.c:75363)'
p3514
sa(dp3515
g3372
S'/home/ian/web/web2py/parser.pxi'
p3516
sg3374
(dp3517
sg3380
I590
sg3381
(dp3518
sg3393
S'()'
p3519
sg3395
S'lxml.etree._raiseParseError (src/lxml/lxml.etree.c:74696)'
p3520
sasS'pyver'
p3521
S'Python 2.7.3rc1: /usr/bin/python2.7'
p3522
sS'session'
p3523
g78
(g79
g80
NtRp3524
(dp3525
g83
(dp3526
sg85
(lp3527
g78
(g87
g80
NtRp3528
(dp3529
g83
(dp3530
g91
I5
ssg92
Nsg85
(lp3531
g78
(g94
g80
NtRp3532
(dp3533
g83
(dp3534
sg92
g3528
sg85
(lp3535
g78
(g99
g80
NtRp3536
(dp3537
g83
(dp3538
g103
g104
ssg92
g3532
sg85
(lp3539
S'auth'
p3540
asbag78
(g99
g80
NtRp3541
(dp3542
g83
(dp3543
g110
g111
ssg92
g3532
sg85
(lp3544
S':'
asbag78
(g99
g80
NtRp3545
(dp3546
g83
(dp3547
sg92
g3532
sg85
(lp3548
g78
(g79
g80
NtRp3549
(dp3550
g83
(dp3551
g91
I5
ssg92
g3545
sg85
(lp3552
g78
(g87
g80
NtRp3553
(dp3554
g83
(dp3555
g91
I4
ssg92
Nsg85
(lp3556
g78
(g94
g80
NtRp3557
(dp3558
g83
(dp3559
sg92
g3553
sg85
(lp3560
g78
(g99
g80
NtRp3561
(dp3562
g83
(dp3563
g103
g104
ssg92
g3557
sg85
(lp3564
S'expiration'
p3565
asbag78
(g99
g80
NtRp3566
(dp3567
g83
(dp3568
g110
g111
ssg92
g3557
sg85
(lp3569
S':'
asbag78
(g99
g80
NtRp3570
(dp3571
g83
(dp3572
sg92
g3557
sg85
(lp3573
g78
(g79
g80
NtRp3574
(dp3575
g83
(dp3576
g91
I4
ssg92
g3570
sg85
(lp3577
S'3600'
p3578
asbasbasbag78
(g94
g80
NtRp3579
(dp3580
g83
(dp3581
sg92
g3553
sg85
(lp3582
g78
(g99
g80
NtRp3583
(dp3584
g83
(dp3585
g103
g104
ssg92
g3579
sg85
(lp3586
S'hmac_key'
p3587
asbag78
(g99
g80
NtRp3588
(dp3589
g83
(dp3590
g110
g111
ssg92
g3579
sg85
(lp3591
S':'
asbag78
(g99
g80
NtRp3592
(dp3593
g83
(dp3594
sg92
g3579
sg85
(lp3595
g78
(g79
g80
NtRp3596
(dp3597
g83
(dp3598
g91
I4
ssg92
g3592
sg85
(lp3599
S'72def4ea-75f4-4ba0-b0df-93cdac129bd0'
p3600
asbasbasbag78
(g94
g80
NtRp3601
(dp3602
g83
(dp3603
sg92
g3553
sg85
(lp3604
g78
(g99
g80
NtRp3605
(dp3606
g83
(dp3607
g103
g104
ssg92
g3601
sg85
(lp3608
S'last_visit'
p3609
asbag78
(g99
g80
NtRp3610
(dp3611
g83
(dp3612
g110
g111
ssg92
g3601
sg85
(lp3613
S':'
asbag78
(g99
g80
NtRp3614
(dp3615
g83
(dp3616
sg92
g3601
sg85
(lp3617
g78
(g79
g80
NtRp3618
(dp3619
g83
(dp3620
g91
I4
ssg92
g3614
sg85
(lp3621
S'datetime.datetime(2012, 3, 12, 16, 35, 57, 899541)'
p3622
asbasbasbag78
(g94
g80
NtRp3623
(dp3624
g83
(dp3625
sg92
g3553
sg85
(lp3626
g78
(g99
g80
NtRp3627
(dp3628
g83
(dp3629
g103
g104
ssg92
g3623
sg85
(lp3630
S'user'
p3631
asbag78
(g99
g80
NtRp3632
(dp3633
g83
(dp3634
g110
g111
ssg92
g3623
sg85
(lp3635
S':'
asbag78
(g99
g80
NtRp3636
(dp3637
g83
(dp3638
sg92
g3623
sg85
(lp3639
g78
(g79
g80
NtRp3640
(dp3641
g83
(dp3642
g91
I4
ssg92
g3636
sg85
(lp3643
g78
(g87
g80
NtRp3644
(dp3645
g83
(dp3646
g91
I3
ssg92
Nsg85
(lp3647
g78
(g94
g80
NtRp3648
(dp3649
g83
(dp3650
sg92
g3644
sg85
(lp3651
g78
(g99
g80
NtRp3652
(dp3653
g83
(dp3654
g103
g104
ssg92
g3648
sg85
(lp3655
S'email'
p3656
asbag78
(g99
g80
NtRp3657
(dp3658
g83
(dp3659
g110
g111
ssg92
g3648
sg85
(lp3660
S':'
asbag78
(g99
g80
NtRp3661
(dp3662
g83
(dp3663
sg92
g3648
sg85
(lp3664
g78
(g79
g80
NtRp3665
(dp3666
g83
(dp3667
g91
I3
ssg92
g3661
sg85
(lp3668
S'scottianw@gmail.com'
p3669
asbasbasbag78
(g94
g80
NtRp3670
(dp3671
g83
(dp3672
sg92
g3644
sg85
(lp3673
g78
(g99
g80
NtRp3674
(dp3675
g83
(dp3676
g103
g104
ssg92
g3670
sg85
(lp3677
S'first_name'
p3678
asbag78
(g99
g80
NtRp3679
(dp3680
g83
(dp3681
g110
g111
ssg92
g3670
sg85
(lp3682
S':'
asbag78
(g99
g80
NtRp3683
(dp3684
g83
(dp3685
sg92
g3670
sg85
(lp3686
g78
(g79
g80
NtRp3687
(dp3688
g83
(dp3689
g91
I3
ssg92
g3683
sg85
(lp3690
S'Ian'
p3691
asbasbasbag78
(g94
g80
NtRp3692
(dp3693
g83
(dp3694
sg92
g3644
sg85
(lp3695
g78
(g99
g80
NtRp3696
(dp3697
g83
(dp3698
g103
g104
ssg92
g3692
sg85
(lp3699
S'id'
p3700
asbag78
(g99
g80
NtRp3701
(dp3702
g83
(dp3703
g110
g111
ssg92
g3692
sg85
(lp3704
S':'
asbag78
(g99
g80
NtRp3705
(dp3706
g83
(dp3707
sg92
g3692
sg85
(lp3708
g78
(g79
g80
NtRp3709
(dp3710
g83
(dp3711
g91
I3
ssg92
g3705
sg85
(lp3712
S'1'
asbasbasbag78
(g94
g80
NtRp3713
(dp3714
g83
(dp3715
sg92
g3644
sg85
(lp3716
g78
(g99
g80
NtRp3717
(dp3718
g83
(dp3719
g103
g104
ssg92
g3713
sg85
(lp3720
S'last_name'
p3721
asbag78
(g99
g80
NtRp3722
(dp3723
g83
(dp3724
g110
g111
ssg92
g3713
sg85
(lp3725
S':'
asbag78
(g99
g80
NtRp3726
(dp3727
g83
(dp3728
sg92
g3713
sg85
(lp3729
g78
(g79
g80
NtRp3730
(dp3731
g83
(dp3732
g91
I3
ssg92
g3726
sg85
(lp3733
S'Scott'
p3734
asbasbasbag78
(g94
g80
NtRp3735
(dp3736
g83
(dp3737
sg92
g3644
sg85
(lp3738
g78
(g99
g80
NtRp3739
(dp3740
g83
(dp3741
g103
g104
ssg92
g3735
sg85
(lp3742
S'password'
p3743
asbag78
(g99
g80
NtRp3744
(dp3745
g83
(dp3746
g110
g111
ssg92
g3735
sg85
(lp3747
S':'
asbag78
(g99
g80
NtRp3748
(dp3749
g83
(dp3750
sg92
g3735
sg85
(lp3751
g78
(g79
g80
NtRp3752
(dp3753
g83
(dp3754
g91
I3
ssg92
g3748
sg85
(lp3755
S'351bc855a8ae4839e89ee60d2f279ed9'
p3756
asbasbasbag78
(g94
g80
NtRp3757
(dp3758
g83
(dp3759
sg92
g3644
sg85
(lp3760
g78
(g99
g80
NtRp3761
(dp3762
g83
(dp3763
g103
g104
ssg92
g3757
sg85
(lp3764
S'registration_id'
p3765
asbag78
(g99
g80
NtRp3766
(dp3767
g83
(dp3768
g110
g111
ssg92
g3757
sg85
(lp3769
S':'
asbag78
(g99
g80
NtRp3770
(dp3771
g83
(dp3772
sg92
g3757
sg85
(lp3773
g78
(g79
g80
NtRp3774
(dp3775
g83
(dp3776
g91
I3
ssg92
g3770
sg85
(lp3777
S''
asbasbasbag78
(g94
g80
NtRp3778
(dp3779
g83
(dp3780
sg92
g3644
sg85
(lp3781
g78
(g99
g80
NtRp3782
(dp3783
g83
(dp3784
g103
g104
ssg92
g3778
sg85
(lp3785
S'registration_key'
p3786
asbag78
(g99
g80
NtRp3787
(dp3788
g83
(dp3789
g110
g111
ssg92
g3778
sg85
(lp3790
S':'
asbag78
(g99
g80
NtRp3791
(dp3792
g83
(dp3793
sg92
g3778
sg85
(lp3794
g78
(g79
g80
NtRp3795
(dp3796
g83
(dp3797
g91
I3
ssg92
g3791
sg85
(lp3798
S''
asbasbasbag78
(g94
g80
NtRp3799
(dp3800
g83
(dp3801
sg92
g3644
sg85
(lp3802
g78
(g99
g80
NtRp3803
(dp3804
g83
(dp3805
g103
g104
ssg92
g3799
sg85
(lp3806
S'reset_password_key'
p3807
asbag78
(g99
g80
NtRp3808
(dp3809
g83
(dp3810
g110
g111
ssg92
g3799
sg85
(lp3811
S':'
asbag78
(g99
g80
NtRp3812
(dp3813
g83
(dp3814
sg92
g3799
sg85
(lp3815
g78
(g79
g80
NtRp3816
(dp3817
g83
(dp3818
g91
I3
ssg92
g3812
sg85
(lp3819
S''
asbasbasbasbasbasbasbasbasbasbasbasbasbsS'etype'
p3820
S"<class 'lxml.etree.XMLSyntaxError'>"
p3821
sS'date'
p3822
S'Mon Mar 12 16:36:27 2012'
p3823
sS'response'
p3824
g78
(g79
g80
NtRp3825
(dp3826
g83
(dp3827
sg85
(lp3828
g78
(g87
g80
NtRp3829
(dp3830
g83
(dp3831
g91
I5
ssg92
Nsg85
(lp3832
g78
(g94
g80
NtRp3833
(dp3834
g83
(dp3835
sg92
g3829
sg85
(lp3836
g78
(g99
g80
NtRp3837
(dp3838
g83
(dp3839
g103
g104
ssg92
g3833
sg85
(lp3840
g189
asbag78
(g99
g80
NtRp3841
(dp3842
g83
(dp3843
g110
g111
ssg92
g3833
sg85
(lp3844
S':'
asbag78
(g99
g80
NtRp3845
(dp3846
g83
(dp3847
sg92
g3833
sg85
(lp3848
g78
(g79
g80
NtRp3849
(dp3850
g83
(dp3851
g91
I5
ssg92
g3845
sg85
(lp3852
S'<cStringIO.StringO object at 0x7f03d4f8d880>'
p3853
asbasbasbag78
(g94
g80
NtRp3854
(dp3855
g83
(dp3856
sg92
g3829
sg85
(lp3857
g78
(g99
g80
NtRp3858
(dp3859
g83
(dp3860
g103
g104
ssg92
g3854
sg85
(lp3861
g277
asbag78
(g99
g80
NtRp3862
(dp3863
g83
(dp3864
g110
g111
ssg92
g3854
sg85
(lp3865
S':'
asbag78
(g99
g80
NtRp3866
(dp3867
g83
(dp3868
sg92
g3854
sg85
(lp3869
g78
(g79
g80
NtRp3870
(dp3871
g83
(dp3872
g91
I5
ssg92
g3866
sg85
(lp3873
g78
(g87
g80
NtRp3874
(dp3875
g83
(dp3876
g91
I4
ssg92
Nsg85
(lp3877
g78
(g94
g80
NtRp3878
(dp3879
g83
(dp3880
sg92
g3874
sg85
(lp3881
g78
(g99
g80
NtRp3882
(dp3883
g83
(dp3884
g103
g104
ssg92
g3878
sg85
(lp3885
S'session_id_grammateus3'
p3886
asbag78
(g99
g80
NtRp3887
(dp3888
g83
(dp3889
g110
g111
ssg92
g3878
sg85
(lp3890
S':'
asbag78
(g99
g80
NtRp3891
(dp3892
g83
(dp3893
sg92
g3878
sg85
(lp3894
g78
(g79
g80
NtRp3895
(dp3896
g83
(dp3897
g91
I4
ssg92
g3891
sg85
(lp3898
g78
(g87
g80
NtRp3899
(dp3900
g83
(dp3901
g91
I3
ssg92
Nsg85
(lp3902
g78
(g94
g80
NtRp3903
(dp3904
g83
(dp3905
sg92
g3899
sg85
(lp3906
g78
(g99
g80
NtRp3907
(dp3908
g83
(dp3909
g103
g104
ssg92
g3903
sg85
(lp3910
g327
asbag78
(g99
g80
NtRp3911
(dp3912
g83
(dp3913
g110
g111
ssg92
g3903
sg85
(lp3914
S':'
asbag78
(g99
g80
NtRp3915
(dp3916
g83
(dp3917
sg92
g3903
sg85
(lp3918
g78
(g79
g80
NtRp3919
(dp3920
g83
(dp3921
g91
I3
ssg92
g3915
sg85
(lp3922
S''
asbasbasbag78
(g94
g80
NtRp3923
(dp3924
g83
(dp3925
sg92
g3899
sg85
(lp3926
g78
(g99
g80
NtRp3927
(dp3928
g83
(dp3929
g103
g104
ssg92
g3923
sg85
(lp3930
g348
asbag78
(g99
g80
NtRp3931
(dp3932
g83
(dp3933
g110
g111
ssg92
g3923
sg85
(lp3934
S':'
asbag78
(g99
g80
NtRp3935
(dp3936
g83
(dp3937
sg92
g3923
sg85
(lp3938
g78
(g79
g80
NtRp3939
(dp3940
g83
(dp3941
g91
I3
ssg92
g3935
sg85
(lp3942
S''
asbasbasbag78
(g94
g80
NtRp3943
(dp3944
g83
(dp3945
sg92
g3899
sg85
(lp3946
g78
(g99
g80
NtRp3947
(dp3948
g83
(dp3949
g103
g104
ssg92
g3943
sg85
(lp3950
g369
asbag78
(g99
g80
NtRp3951
(dp3952
g83
(dp3953
g110
g111
ssg92
g3943
sg85
(lp3954
S':'
asbag78
(g99
g80
NtRp3955
(dp3956
g83
(dp3957
sg92
g3943
sg85
(lp3958
g78
(g79
g80
NtRp3959
(dp3960
g83
(dp3961
g91
I3
ssg92
g3955
sg85
(lp3962
S''
asbasbasbag78
(g94
g80
NtRp3963
(dp3964
g83
(dp3965
sg92
g3899
sg85
(lp3966
g78
(g99
g80
NtRp3967
(dp3968
g83
(dp3969
g103
g104
ssg92
g3963
sg85
(lp3970
g390
asbag78
(g99
g80
NtRp3971
(dp3972
g83
(dp3973
g110
g111
ssg92
g3963
sg85
(lp3974
S':'
asbag78
(g99
g80
NtRp3975
(dp3976
g83
(dp3977
sg92
g3963
sg85
(lp3978
g78
(g79
g80
NtRp3979
(dp3980
g83
(dp3981
g91
I3
ssg92
g3975
sg85
(lp3982
S''
asbasbasbag78
(g94
g80
NtRp3983
(dp3984
g83
(dp3985
sg92
g3899
sg85
(lp3986
g78
(g99
g80
NtRp3987
(dp3988
g83
(dp3989
g103
g104
ssg92
g3983
sg85
(lp3990
g411
asbag78
(g99
g80
NtRp3991
(dp3992
g83
(dp3993
g110
g111
ssg92
g3983
sg85
(lp3994
S':'
asbag78
(g99
g80
NtRp3995
(dp3996
g83
(dp3997
sg92
g3983
sg85
(lp3998
g78
(g79
g80
NtRp3999
(dp4000
g83
(dp4001
g91
I3
ssg92
g3995
sg85
(lp4002
S''
asbasbasbag78
(g94
g80
NtRp4003
(dp4004
g83
(dp4005
sg92
g3899
sg85
(lp4006
g78
(g99
g80
NtRp4007
(dp4008
g83
(dp4009
g103
g104
ssg92
g4003
sg85
(lp4010
g432
asbag78
(g99
g80
NtRp4011
(dp4012
g83
(dp4013
g110
g111
ssg92
g4003
sg85
(lp4014
S':'
asbag78
(g99
g80
NtRp4015
(dp4016
g83
(dp4017
sg92
g4003
sg85
(lp4018
g78
(g79
g80
NtRp4019
(dp4020
g83
(dp4021
g91
I3
ssg92
g4015
sg85
(lp4022
S'/'
asbasbasbag78
(g94
g80
NtRp4023
(dp4024
g83
(dp4025
sg92
g3899
sg85
(lp4026
g78
(g99
g80
NtRp4027
(dp4028
g83
(dp4029
g103
g104
ssg92
g4023
sg85
(lp4030
g453
asbag78
(g99
g80
NtRp4031
(dp4032
g83
(dp4033
g110
g111
ssg92
g4023
sg85
(lp4034
S':'
asbag78
(g99
g80
NtRp4035
(dp4036
g83
(dp4037
sg92
g4023
sg85
(lp4038
g78
(g79
g80
NtRp4039
(dp4040
g83
(dp4041
g91
I3
ssg92
g4035
sg85
(lp4042
S''
asbasbasbag78
(g94
g80
NtRp4043
(dp4044
g83
(dp4045
sg92
g3899
sg85
(lp4046
g78
(g99
g80
NtRp4047
(dp4048
g83
(dp4049
g103
g104
ssg92
g4043
sg85
(lp4050
g474
asbag78
(g99
g80
NtRp4051
(dp4052
g83
(dp4053
g110
g111
ssg92
g4043
sg85
(lp4054
S':'
asbag78
(g99
g80
NtRp4055
(dp4056
g83
(dp4057
sg92
g4043
sg85
(lp4058
g78
(g79
g80
NtRp4059
(dp4060
g83
(dp4061
g91
I3
ssg92
g4055
sg85
(lp4062
S''
asbasbasbasbasbasbasbasbasbasbasbag78
(g94
g80
NtRp4063
(dp4064
g83
(dp4065
sg92
g3829
sg85
(lp4066
g78
(g99
g80
NtRp4067
(dp4068
g83
(dp4069
g103
g104
ssg92
g4063
sg85
(lp4070
S'files'
p4071
asbag78
(g99
g80
NtRp4072
(dp4073
g83
(dp4074
g110
g111
ssg92
g4063
sg85
(lp4075
S':'
asbag78
(g99
g80
NtRp4076
(dp4077
g83
(dp4078
sg92
g4063
sg85
(lp4079
g78
(g79
g80
NtRp4080
(dp4081
g83
(dp4082
g91
I5
ssg92
g4076
sg85
(lp4083
g78
(g87
g80
NtRp4084
(dp4085
g83
(dp4086
g91
I4
ssg92
Nsg85
(lp4087
sbasbasbasbag78
(g94
g80
NtRp4088
(dp4089
g83
(dp4090
sg92
g3829
sg85
(lp4091
g78
(g99
g80
NtRp4092
(dp4093
g83
(dp4094
g103
g104
ssg92
g4088
sg85
(lp4095
S'flash'
p4096
asbag78
(g99
g80
NtRp4097
(dp4098
g83
(dp4099
g110
g111
ssg92
g4088
sg85
(lp4100
S':'
asbag78
(g99
g80
NtRp4101
(dp4102
g83
(dp4103
sg92
g4088
sg85
(lp4104
g78
(g79
g80
NtRp4105
(dp4106
g83
(dp4107
g91
I5
ssg92
g4101
sg85
(lp4108
S''
asbasbasbag78
(g94
g80
NtRp4109
(dp4110
g83
(dp4111
sg92
g3829
sg85
(lp4112
g78
(g99
g80
NtRp4113
(dp4114
g83
(dp4115
g103
g104
ssg92
g4109
sg85
(lp4116
S'generic_patterns'
p4117
asbag78
(g99
g80
NtRp4118
(dp4119
g83
(dp4120
g110
g111
ssg92
g4109
sg85
(lp4121
S':'
asbag78
(g99
g80
NtRp4122
(dp4123
g83
(dp4124
sg92
g4109
sg85
(lp4125
g78
(g79
g80
NtRp4126
(dp4127
g83
(dp4128
g91
I5
ssg92
g4122
sg85
(lp4129
g78
(g87
g80
NtRp4130
(dp4131
g83
(dp4132
g91
I4
ssg92
Nsg85
(lp4133
g78
(g94
g80
NtRp4134
(dp4135
g83
(dp4136
sg92
g4130
sg85
(lp4137
g78
(g99
g80
NtRp4138
(dp4139
g83
(dp4140
sg92
g4134
sg85
(lp4141
g78
(g79
g80
NtRp4142
(dp4143
g83
(dp4144
g91
I4
ssg92
g4138
sg85
(lp4145
S'*'
asbasbasbasbasbasbasbag78
(g94
g80
NtRp4146
(dp4147
g83
(dp4148
sg92
g3829
sg85
(lp4149
g78
(g99
g80
NtRp4150
(dp4151
g83
(dp4152
g103
g104
ssg92
g4146
sg85
(lp4153
S'headers'
p4154
asbag78
(g99
g80
NtRp4155
(dp4156
g83
(dp4157
g110
g111
ssg92
g4146
sg85
(lp4158
S':'
asbag78
(g99
g80
NtRp4159
(dp4160
g83
(dp4161
sg92
g4146
sg85
(lp4162
g78
(g79
g80
NtRp4163
(dp4164
g83
(dp4165
g91
I5
ssg92
g4159
sg85
(lp4166
g78
(g87
g80
NtRp4167
(dp4168
g83
(dp4169
g91
I4
ssg92
Nsg85
(lp4170
g78
(g94
g80
NtRp4171
(dp4172
g83
(dp4173
sg92
g4167
sg85
(lp4174
g78
(g99
g80
NtRp4175
(dp4176
g83
(dp4177
g103
g104
ssg92
g4171
sg85
(lp4178
S'Cache-Control'
p4179
asbag78
(g99
g80
NtRp4180
(dp4181
g83
(dp4182
g110
g111
ssg92
g4171
sg85
(lp4183
S':'
asbag78
(g99
g80
NtRp4184
(dp4185
g83
(dp4186
sg92
g4171
sg85
(lp4187
g78
(g79
g80
NtRp4188
(dp4189
g83
(dp4190
g91
I4
ssg92
g4184
sg85
(lp4191
S'no-store, no-cache, must-revalidate, post-check=0, pre-check=0'
p4192
asbasbasbag78
(g94
g80
NtRp4193
(dp4194
g83
(dp4195
sg92
g4167
sg85
(lp4196
g78
(g99
g80
NtRp4197
(dp4198
g83
(dp4199
g103
g104
ssg92
g4193
sg85
(lp4200
S'Content-Type'
p4201
asbag78
(g99
g80
NtRp4202
(dp4203
g83
(dp4204
g110
g111
ssg92
g4193
sg85
(lp4205
S':'
asbag78
(g99
g80
NtRp4206
(dp4207
g83
(dp4208
sg92
g4193
sg85
(lp4209
g78
(g79
g80
NtRp4210
(dp4211
g83
(dp4212
g91
I4
ssg92
g4206
sg85
(lp4213
S'text/html; charset=utf-8'
p4214
asbasbasbag78
(g94
g80
NtRp4215
(dp4216
g83
(dp4217
sg92
g4167
sg85
(lp4218
g78
(g99
g80
NtRp4219
(dp4220
g83
(dp4221
g103
g104
ssg92
g4215
sg85
(lp4222
S'Expires'
p4223
asbag78
(g99
g80
NtRp4224
(dp4225
g83
(dp4226
g110
g111
ssg92
g4215
sg85
(lp4227
S':'
asbag78
(g99
g80
NtRp4228
(dp4229
g83
(dp4230
sg92
g4215
sg85
(lp4231
g78
(g79
g80
NtRp4232
(dp4233
g83
(dp4234
g91
I4
ssg92
g4228
sg85
(lp4235
S'Mon, 12 Mar 2012 20:36:26 GMT'
p4236
asbasbasbag78
(g94
g80
NtRp4237
(dp4238
g83
(dp4239
sg92
g4167
sg85
(lp4240
g78
(g99
g80
NtRp4241
(dp4242
g83
(dp4243
g103
g104
ssg92
g4237
sg85
(lp4244
S'Pragma'
p4245
asbag78
(g99
g80
NtRp4246
(dp4247
g83
(dp4248
g110
g111
ssg92
g4237
sg85
(lp4249
S':'
asbag78
(g99
g80
NtRp4250
(dp4251
g83
(dp4252
sg92
g4237
sg85
(lp4253
g78
(g79
g80
NtRp4254
(dp4255
g83
(dp4256
g91
I4
ssg92
g4250
sg85
(lp4257
S'no-cache'
p4258
asbasbasbag78
(g94
g80
NtRp4259
(dp4260
g83
(dp4261
sg92
g4167
sg85
(lp4262
g78
(g99
g80
NtRp4263
(dp4264
g83
(dp4265
g103
g104
ssg92
g4259
sg85
(lp4266
S'X-Powered-By'
p4267
asbag78
(g99
g80
NtRp4268
(dp4269
g83
(dp4270
g110
g111
ssg92
g4259
sg85
(lp4271
S':'
asbag78
(g99
g80
NtRp4272
(dp4273
g83
(dp4274
sg92
g4259
sg85
(lp4275
g78
(g79
g80
NtRp4276
(dp4277
g83
(dp4278
g91
I4
ssg92
g4272
sg85
(lp4279
S'web2py'
p4280
asbasbasbasbasbasbasbag78
(g94
g80
NtRp4281
(dp4282
g83
(dp4283
sg92
g3829
sg85
(lp4284
g78
(g99
g80
NtRp4285
(dp4286
g83
(dp4287
g103
g104
ssg92
g4281
sg85
(lp4288
S'menu'
p4289
asbag78
(g99
g80
NtRp4290
(dp4291
g83
(dp4292
g110
g111
ssg92
g4281
sg85
(lp4293
S':'
asbag78
(g99
g80
NtRp4294
(dp4295
g83
(dp4296
sg92
g4281
sg85
(lp4297
g78
(g79
g80
NtRp4298
(dp4299
g83
(dp4300
g91
I5
ssg92
g4294
sg85
(lp4301
g78
(g87
g80
NtRp4302
(dp4303
g83
(dp4304
g91
I4
ssg92
Nsg85
(lp4305
g78
(g94
g80
NtRp4306
(dp4307
g83
(dp4308
sg92
g4302
sg85
(lp4309
g78
(g99
g80
NtRp4310
(dp4311
g83
(dp4312
sg92
g4306
sg85
(lp4313
g78
(g79
g80
NtRp4314
(dp4315
g83
(dp4316
g91
I4
ssg92
g4310
sg85
(lp4317
g78
(g87
g80
NtRp4318
(dp4319
g83
(dp4320
g91
I3
ssg92
Nsg85
(lp4321
g78
(g94
g80
NtRp4322
(dp4323
g83
(dp4324
sg92
g4318
sg85
(lp4325
g78
(g99
g80
NtRp4326
(dp4327
g83
(dp4328
sg92
g4322
sg85
(lp4329
g78
(g79
g80
NtRp4330
(dp4331
g83
(dp4332
g91
I3
ssg92
g4326
sg85
(lp4333
cgluon.languages
lazyT_unpickle
p4334
(S't\x06\x00\x00\x00Drafts'
tRp4335
asbasbasbag78
(g94
g80
NtRp4336
(dp4337
g83
(dp4338
sg92
g4318
sg85
(lp4339
g78
(g99
g80
NtRp4340
(dp4341
g83
(dp4342
sg92
g4336
sg85
(lp4343
g78
(g79
g80
NtRp4344
(dp4345
g83
(dp4346
g91
I3
ssg92
g4340
sg85
(lp4347
g1201
asbasbasbag78
(g94
g80
NtRp4348
(dp4349
g83
(dp4350
sg92
g4318
sg85
(lp4351
g78
(g99
g80
NtRp4352
(dp4353
g83
(dp4354
sg92
g4348
sg85
(lp4355
g78
(g79
g80
NtRp4356
(dp4357
g83
(dp4358
g91
I3
ssg92
g4352
sg85
(lp4359
g78
(cgluon.html
A
p4360
g80
NtRp4361
(dp4362
g83
(dp4363
S'_class'
p4364
S'draftslink'
p4365
sS'_href'
p4366
S'/grammateus3/default/page.load/drafts'
p4367
ssg92
Nsg85
(lp4368
S'Drafts'
p4369
asbasbasbasbag78
(g94
g80
NtRp4370
(dp4371
g83
(dp4372
sg92
g4318
sg85
(lp4373
g78
(g99
g80
NtRp4374
(dp4375
g83
(dp4376
sg92
g4370
sg85
(lp4377
g78
(g79
g80
NtRp4378
(dp4379
g83
(dp4380
g91
I3
ssg92
g4374
sg85
(lp4381
g78
(g87
g80
NtRp4382
(dp4383
g83
(dp4384
g91
I2
ssg92
Nsg85
(lp4385
sbasbasbasbasbasbasbasbag78
(g94
g80
NtRp4386
(dp4387
g83
(dp4388
sg92
g4302
sg85
(lp4389
g78
(g99
g80
NtRp4390
(dp4391
g83
(dp4392
sg92
g4386
sg85
(lp4393
g78
(g79
g80
NtRp4394
(dp4395
g83
(dp4396
g91
I4
ssg92
g4390
sg85
(lp4397
g78
(g87
g80
NtRp4398
(dp4399
g83
(dp4400
g91
I3
ssg92
Nsg85
(lp4401
g78
(g94
g80
NtRp4402
(dp4403
g83
(dp4404
sg92
g4398
sg85
(lp4405
g78
(g99
g80
NtRp4406
(dp4407
g83
(dp4408
sg92
g4402
sg85
(lp4409
g78
(g79
g80
NtRp4410
(dp4411
g83
(dp4412
g91
I3
ssg92
g4406
sg85
(lp4413
g4334
(S't\x05\x00\x00\x00Admin'
tRp4414
asbasbasbag78
(g94
g80
NtRp4415
(dp4416
g83
(dp4417
sg92
g4398
sg85
(lp4418
g78
(g99
g80
NtRp4419
(dp4420
g83
(dp4421
sg92
g4415
sg85
(lp4422
g78
(g79
g80
NtRp4423
(dp4424
g83
(dp4425
g91
I3
ssg92
g4419
sg85
(lp4426
g1201
asbasbasbag78
(g94
g80
NtRp4427
(dp4428
g83
(dp4429
sg92
g4398
sg85
(lp4430
g78
(g99
g80
NtRp4431
(dp4432
g83
(dp4433
sg92
g4427
sg85
(lp4434
g78
(g79
g80
NtRp4435
(dp4436
g83
(dp4437
g91
I3
ssg92
g4431
sg85
(lp4438
g78
(g4360
g80
NtRp4439
(dp4440
g83
(dp4441
g4364
S'adminlink'
p4442
sg4366
S'/grammateus3/default/page.load/admin'
p4443
ssg92
Nsg85
(lp4444
S'Admin'
p4445
asbasbasbasbag78
(g94
g80
NtRp4446
(dp4447
g83
(dp4448
sg92
g4398
sg85
(lp4449
g78
(g99
g80
NtRp4450
(dp4451
g83
(dp4452
sg92
g4446
sg85
(lp4453
g78
(g79
g80
NtRp4454
(dp4455
g83
(dp4456
g91
I3
ssg92
g4450
sg85
(lp4457
g78
(g87
g80
NtRp4458
(dp4459
g83
(dp4460
g91
I2
ssg92
Nsg85
(lp4461
sbasbasbasbasbasbasbasbag78
(g94
g80
NtRp4462
(dp4463
g83
(dp4464
sg92
g4302
sg85
(lp4465
g78
(g99
g80
NtRp4466
(dp4467
g83
(dp4468
sg92
g4462
sg85
(lp4469
g78
(g79
g80
NtRp4470
(dp4471
g83
(dp4472
g91
I4
ssg92
g4466
sg85
(lp4473
g78
(g87
g80
NtRp4474
(dp4475
g83
(dp4476
g91
I3
ssg92
Nsg85
(lp4477
g78
(g94
g80
NtRp4478
(dp4479
g83
(dp4480
sg92
g4474
sg85
(lp4481
g78
(g99
g80
NtRp4482
(dp4483
g83
(dp4484
sg92
g4478
sg85
(lp4485
g78
(g79
g80
NtRp4486
(dp4487
g83
(dp4488
g91
I3
ssg92
g4482
sg85
(lp4489
g4334
(S't\t\x00\x00\x00Copyright'
tRp4490
asbasbasbag78
(g94
g80
NtRp4491
(dp4492
g83
(dp4493
sg92
g4474
sg85
(lp4494
g78
(g99
g80
NtRp4495
(dp4496
g83
(dp4497
sg92
g4491
sg85
(lp4498
g78
(g79
g80
NtRp4499
(dp4500
g83
(dp4501
g91
I3
ssg92
g4495
sg85
(lp4502
g1201
asbasbasbag78
(g94
g80
NtRp4503
(dp4504
g83
(dp4505
sg92
g4474
sg85
(lp4506
g78
(g99
g80
NtRp4507
(dp4508
g83
(dp4509
sg92
g4503
sg85
(lp4510
g78
(g79
g80
NtRp4511
(dp4512
g83
(dp4513
g91
I3
ssg92
g4507
sg85
(lp4514
g78
(g4360
g80
NtRp4515
(dp4516
g83
(dp4517
g4364
S'copyrightlink'
p4518
sg4366
S'/grammateus3/default/page.load/copyright'
p4519
ssg92
Nsg85
(lp4520
S'Copyright'
p4521
asbasbasbasbag78
(g94
g80
NtRp4522
(dp4523
g83
(dp4524
sg92
g4474
sg85
(lp4525
g78
(g99
g80
NtRp4526
(dp4527
g83
(dp4528
sg92
g4522
sg85
(lp4529
g78
(g79
g80
NtRp4530
(dp4531
g83
(dp4532
g91
I3
ssg92
g4526
sg85
(lp4533
g78
(g87
g80
NtRp4534
(dp4535
g83
(dp4536
g91
I2
ssg92
Nsg85
(lp4537
sbasbasbasbasbasbasbasbag78
(g94
g80
NtRp4538
(dp4539
g83
(dp4540
sg92
g4302
sg85
(lp4541
g78
(g99
g80
NtRp4542
(dp4543
g83
(dp4544
sg92
g4538
sg85
(lp4545
g78
(g79
g80
NtRp4546
(dp4547
g83
(dp4548
g91
I4
ssg92
g4542
sg85
(lp4549
g78
(g87
g80
NtRp4550
(dp4551
g83
(dp4552
g91
I3
ssg92
Nsg85
(lp4553
g78
(g94
g80
NtRp4554
(dp4555
g83
(dp4556
sg92
g4550
sg85
(lp4557
g78
(g99
g80
NtRp4558
(dp4559
g83
(dp4560
sg92
g4554
sg85
(lp4561
g78
(g79
g80
NtRp4562
(dp4563
g83
(dp4564
g91
I3
ssg92
g4558
sg85
(lp4565
g4334
(S's\x14\x00\x00\x00Help and Information'
tRp4566
asbasbasbag78
(g94
g80
NtRp4567
(dp4568
g83
(dp4569
sg92
g4550
sg85
(lp4570
g78
(g99
g80
NtRp4571
(dp4572
g83
(dp4573
sg92
g4567
sg85
(lp4574
g78
(g79
g80
NtRp4575
(dp4576
g83
(dp4577
g91
I3
ssg92
g4571
sg85
(lp4578
g1201
asbasbasbag78
(g94
g80
NtRp4579
(dp4580
g83
(dp4581
sg92
g4550
sg85
(lp4582
g78
(g99
g80
NtRp4583
(dp4584
g83
(dp4585
sg92
g4579
sg85
(lp4586
g78
(g79
g80
NtRp4587
(dp4588
g83
(dp4589
g91
I3
ssg92
g4583
sg85
(lp4590
g78
(g4360
g80
NtRp4591
(dp4592
g83
(dp4593
g4364
S'helplink'
p4594
sg4366
S'/grammateus3/default/page.load/help'
p4595
ssg92
Nsg85
(lp4596
S'Help and Information'
p4597
asbasbasbasbag78
(g94
g80
NtRp4598
(dp4599
g83
(dp4600
sg92
g4550
sg85
(lp4601
g78
(g99
g80
NtRp4602
(dp4603
g83
(dp4604
sg92
g4598
sg85
(lp4605
g78
(g79
g80
NtRp4606
(dp4607
g83
(dp4608
g91
I3
ssg92
g4602
sg85
(lp4609
g78
(g87
g80
NtRp4610
(dp4611
g83
(dp4612
g91
I2
ssg92
Nsg85
(lp4613
g78
(g94
g80
NtRp4614
(dp4615
g83
(dp4616
sg92
g4610
sg85
(lp4617
g78
(g99
g80
NtRp4618
(dp4619
g83
(dp4620
sg92
g4614
sg85
(lp4621
g78
(g79
g80
NtRp4622
(dp4623
g83
(dp4624
g91
I2
ssg92
g4618
sg85
(lp4625
g78
(g87
g80
NtRp4626
(dp4627
g83
(dp4628
g91
I1
ssg92
Nsg85
(lp4629
g78
(g94
g80
NtRp4630
(dp4631
g83
(dp4632
sg92
g4626
sg85
(lp4633
g78
(g99
g80
NtRp4634
(dp4635
g83
(dp4636
sg92
g4630
sg85
(lp4637
g78
(g79
g80
NtRp4638
(dp4639
g83
(dp4640
g91
I1
ssg92
g4634
sg85
(lp4641
g4334
(S't\x03\x00\x00\x00FAQ'
tRp4642
asbasbasbag78
(g94
g80
NtRp4643
(dp4644
g83
(dp4645
sg92
g4626
sg85
(lp4646
g78
(g99
g80
NtRp4647
(dp4648
g83
(dp4649
sg92
g4643
sg85
(lp4650
g78
(g79
g80
NtRp4651
(dp4652
g83
(dp4653
g91
I1
ssg92
g4647
sg85
(lp4654
I00
asbasbasbag78
(g94
g80
NtRp4655
(dp4656
g83
(dp4657
sg92
g4626
sg85
(lp4658
g78
(g99
g80
NtRp4659
(dp4660
g83
(dp4661
sg92
g4655
sg85
(lp4662
g78
(g79
g80
NtRp4663
(dp4664
g83
(dp4665
g91
I1
ssg92
g4659
sg85
(lp4666
g78
(g4360
g80
NtRp4667
(dp4668
g83
(dp4669
g4364
S'faqlink'
p4670
sg4366
S'/grammateus3/default/page.load/faq'
p4671
ssg92
Nsg85
(lp4672
S'FAQ'
p4673
asbasbasbasbag78
(g94
g80
NtRp4674
(dp4675
g83
(dp4676
sg92
g4626
sg85
(lp4677
g78
(g99
g80
NtRp4678
(dp4679
g83
(dp4680
sg92
g4674
sg85
(lp4681
g78
(g79
g80
NtRp4682
(dp4683
g83
(dp4684
g91
I1
ssg92
g4678
sg85
(lp4685
(lp4686
asbasbasbasbasbasbasbag78
(g94
g80
NtRp4687
(dp4688
g83
(dp4689
sg92
g4610
sg85
(lp4690
g78
(g99
g80
NtRp4691
(dp4692
g83
(dp4693
sg92
g4687
sg85
(lp4694
g78
(g79
g80
NtRp4695
(dp4696
g83
(dp4697
g91
I2
ssg92
g4691
sg85
(lp4698
g78
(g87
g80
NtRp4699
(dp4700
g83
(dp4701
g91
I1
ssg92
Nsg85
(lp4702
g78
(g94
g80
NtRp4703
(dp4704
g83
(dp4705
sg92
g4699
sg85
(lp4706
g78
(g99
g80
NtRp4707
(dp4708
g83
(dp4709
sg92
g4703
sg85
(lp4710
g78
(g79
g80
NtRp4711
(dp4712
g83
(dp4713
g91
I1
ssg92
g4707
sg85
(lp4714
g4334
(S't\x07\x00\x00\x00Roadmap'
tRp4715
asbasbasbag78
(g94
g80
NtRp4716
(dp4717
g83
(dp4718
sg92
g4699
sg85
(lp4719
g78
(g99
g80
NtRp4720
(dp4721
g83
(dp4722
sg92
g4716
sg85
(lp4723
g78
(g79
g80
NtRp4724
(dp4725
g83
(dp4726
g91
I1
ssg92
g4720
sg85
(lp4727
I00
asbasbasbag78
(g94
g80
NtRp4728
(dp4729
g83
(dp4730
sg92
g4699
sg85
(lp4731
g78
(g99
g80
NtRp4732
(dp4733
g83
(dp4734
sg92
g4728
sg85
(lp4735
g78
(g79
g80
NtRp4736
(dp4737
g83
(dp4738
g91
I1
ssg92
g4732
sg85
(lp4739
g78
(g4360
g80
NtRp4740
(dp4741
g83
(dp4742
g4364
S'roadmaplink'
p4743
sg4366
S'/grammateus3/default/page.load/roadmap'
p4744
ssg92
Nsg85
(lp4745
S'Roadmap'
p4746
asbasbasbasbag78
(g94
g80
NtRp4747
(dp4748
g83
(dp4749
sg92
g4699
sg85
(lp4750
g78
(g99
g80
NtRp4751
(dp4752
g83
(dp4753
sg92
g4747
sg85
(lp4754
g78
(g79
g80
NtRp4755
(dp4756
g83
(dp4757
g91
I1
ssg92
g4751
sg85
(lp4758
(lp4759
asbasbasbasbasbasbasbag78
(g94
g80
NtRp4760
(dp4761
g83
(dp4762
sg92
g4610
sg85
(lp4763
g78
(g99
g80
NtRp4764
(dp4765
g83
(dp4766
sg92
g4760
sg85
(lp4767
g78
(g79
g80
NtRp4768
(dp4769
g83
(dp4770
g91
I2
ssg92
g4764
sg85
(lp4771
g78
(g87
g80
NtRp4772
(dp4773
g83
(dp4774
g91
I1
ssg92
Nsg85
(lp4775
g78
(g94
g80
NtRp4776
(dp4777
g83
(dp4778
sg92
g4772
sg85
(lp4779
g78
(g99
g80
NtRp4780
(dp4781
g83
(dp4782
sg92
g4776
sg85
(lp4783
g78
(g79
g80
NtRp4784
(dp4785
g83
(dp4786
g91
I1
ssg92
g4780
sg85
(lp4787
g4334
(S's\x0c\x00\x00\x00Get involved'
tRp4788
asbasbasbag78
(g94
g80
NtRp4789
(dp4790
g83
(dp4791
sg92
g4772
sg85
(lp4792
g78
(g99
g80
NtRp4793
(dp4794
g83
(dp4795
sg92
g4789
sg85
(lp4796
g78
(g79
g80
NtRp4797
(dp4798
g83
(dp4799
g91
I1
ssg92
g4793
sg85
(lp4800
I00
asbasbasbag78
(g94
g80
NtRp4801
(dp4802
g83
(dp4803
sg92
g4772
sg85
(lp4804
g78
(g99
g80
NtRp4805
(dp4806
g83
(dp4807
sg92
g4801
sg85
(lp4808
g78
(g79
g80
NtRp4809
(dp4810
g83
(dp4811
g91
I1
ssg92
g4805
sg85
(lp4812
g78
(g4360
g80
NtRp4813
(dp4814
g83
(dp4815
g4364
S'involvedlink'
p4816
sg4366
S'/grammateus3/default/page.load/get-involved'
p4817
ssg92
Nsg85
(lp4818
S'Get involved'
p4819
asbasbasbasbag78
(g94
g80
NtRp4820
(dp4821
g83
(dp4822
sg92
g4772
sg85
(lp4823
g78
(g99
g80
NtRp4824
(dp4825
g83
(dp4826
sg92
g4820
sg85
(lp4827
g78
(g79
g80
NtRp4828
(dp4829
g83
(dp4830
g91
I1
ssg92
g4824
sg85
(lp4831
(lp4832
asbasbasbasbasbasbasbasbasbasbasbasbasbasbasbag78
(g94
g80
NtRp4833
(dp4834
g83
(dp4835
sg92
g4302
sg85
(lp4836
g78
(g99
g80
NtRp4837
(dp4838
g83
(dp4839
sg92
g4833
sg85
(lp4840
g78
(g79
g80
NtRp4841
(dp4842
g83
(dp4843
g91
I4
ssg92
g4837
sg85
(lp4844
g78
(g87
g80
NtRp4845
(dp4846
g83
(dp4847
g91
I3
ssg92
Nsg85
(lp4848
g78
(g94
g80
NtRp4849
(dp4850
g83
(dp4851
sg92
g4845
sg85
(lp4852
g78
(g99
g80
NtRp4853
(dp4854
g83
(dp4855
sg92
g4849
sg85
(lp4856
g78
(g79
g80
NtRp4857
(dp4858
g83
(dp4859
g91
I3
ssg92
g4853
sg85
(lp4860
g4334
(S's\x0b\x00\x00\x00Bug reports'
tRp4861
asbasbasbag78
(g94
g80
NtRp4862
(dp4863
g83
(dp4864
sg92
g4845
sg85
(lp4865
g78
(g99
g80
NtRp4866
(dp4867
g83
(dp4868
sg92
g4862
sg85
(lp4869
g78
(g79
g80
NtRp4870
(dp4871
g83
(dp4872
g91
I3
ssg92
g4866
sg85
(lp4873
g1201
asbasbasbag78
(g94
g80
NtRp4874
(dp4875
g83
(dp4876
sg92
g4845
sg85
(lp4877
g78
(g99
g80
NtRp4878
(dp4879
g83
(dp4880
sg92
g4874
sg85
(lp4881
g78
(g79
g80
NtRp4882
(dp4883
g83
(dp4884
g91
I3
ssg92
g4878
sg85
(lp4885
g78
(g4360
g80
NtRp4886
(dp4887
g83
(dp4888
g4364
S'bugslink'
p4889
sg4366
S'/grammateus3/default/page.load/bugs'
p4890
ssg92
Nsg85
(lp4891
S'Bug reports'
p4892
asbasbasbasbag78
(g94
g80
NtRp4893
(dp4894
g83
(dp4895
sg92
g4845
sg85
(lp4896
g78
(g99
g80
NtRp4897
(dp4898
g83
(dp4899
sg92
g4893
sg85
(lp4900
g78
(g79
g80
NtRp4901
(dp4902
g83
(dp4903
g91
I3
ssg92
g4897
sg85
(lp4904
g78
(g87
g80
NtRp4905
(dp4906
g83
(dp4907
g91
I2
ssg92
Nsg85
(lp4908
sbasbasbasbasbasbasbasbag78
(g94
g80
NtRp4909
(dp4910
g83
(dp4911
sg92
g4302
sg85
(lp4912
g78
(g99
g80
NtRp4913
(dp4914
g83
(dp4915
sg92
g4909
sg85
(lp4916
g78
(g79
g80
NtRp4917
(dp4918
g83
(dp4919
g91
I4
ssg92
g4913
sg85
(lp4920
g78
(g87
g80
NtRp4921
(dp4922
g83
(dp4923
g91
I3
ssg92
Nsg85
(lp4924
g78
(g94
g80
NtRp4925
(dp4926
g83
(dp4927
sg92
g4921
sg85
(lp4928
g78
(g99
g80
NtRp4929
(dp4930
g83
(dp4931
sg92
g4925
sg85
(lp4932
g78
(g79
g80
NtRp4933
(dp4934
g83
(dp4935
g91
I3
ssg92
g4929
sg85
(lp4936
g4334
(S't\x0b\x00\x00\x00Suggestions'
tRp4937
asbasbasbag78
(g94
g80
NtRp4938
(dp4939
g83
(dp4940
sg92
g4921
sg85
(lp4941
g78
(g99
g80
NtRp4942
(dp4943
g83
(dp4944
sg92
g4938
sg85
(lp4945
g78
(g79
g80
NtRp4946
(dp4947
g83
(dp4948
g91
I3
ssg92
g4942
sg85
(lp4949
g1201
asbasbasbag78
(g94
g80
NtRp4950
(dp4951
g83
(dp4952
sg92
g4921
sg85
(lp4953
g78
(g99
g80
NtRp4954
(dp4955
g83
(dp4956
sg92
g4950
sg85
(lp4957
g78
(g79
g80
NtRp4958
(dp4959
g83
(dp4960
g91
I3
ssg92
g4954
sg85
(lp4961
g78
(g4360
g80
NtRp4962
(dp4963
g83
(dp4964
g4364
S'suggestionslink'
p4965
sg4366
S'/grammateus3/default/page.load/suggestions'
p4966
ssg92
Nsg85
(lp4967
S'Suggestions'
p4968
asbasbasbasbag78
(g94
g80
NtRp4969
(dp4970
g83
(dp4971
sg92
g4921
sg85
(lp4972
g78
(g99
g80
NtRp4973
(dp4974
g83
(dp4975
sg92
g4969
sg85
(lp4976
g78
(g79
g80
NtRp4977
(dp4978
g83
(dp4979
g91
I3
ssg92
g4973
sg85
(lp4980
g78
(g87
g80
NtRp4981
(dp4982
g83
(dp4983
g91
I2
ssg92
Nsg85
(lp4984
sbasbasbasbasbasbasbasbag78
(g94
g80
NtRp4985
(dp4986
g83
(dp4987
sg92
g4302
sg85
(lp4988
g78
(g99
g80
NtRp4989
(dp4990
g83
(dp4991
sg92
g4985
sg85
(lp4992
g78
(g79
g80
NtRp4993
(dp4994
g83
(dp4995
g91
I4
ssg92
g4989
sg85
(lp4996
g78
(g87
g80
NtRp4997
(dp4998
g83
(dp4999
g91
I3
ssg92
Nsg85
(lp5000
g78
(g94
g80
NtRp5001
(dp5002
g83
(dp5003
sg92
g4997
sg85
(lp5004
g78
(g99
g80
NtRp5005
(dp5006
g83
(dp5007
sg92
g5001
sg85
(lp5008
g78
(g79
g80
NtRp5009
(dp5010
g83
(dp5011
g91
I3
ssg92
g5005
sg85
(lp5012
g4334
(S's\n\x00\x00\x00Contact us'
tRp5013
asbasbasbag78
(g94
g80
NtRp5014
(dp5015
g83
(dp5016
sg92
g4997
sg85
(lp5017
g78
(g99
g80
NtRp5018
(dp5019
g83
(dp5020
sg92
g5014
sg85
(lp5021
g78
(g79
g80
NtRp5022
(dp5023
g83
(dp5024
g91
I3
ssg92
g5018
sg85
(lp5025
g1201
asbasbasbag78
(g94
g80
NtRp5026
(dp5027
g83
(dp5028
sg92
g4997
sg85
(lp5029
g78
(g99
g80
NtRp5030
(dp5031
g83
(dp5032
sg92
g5026
sg85
(lp5033
g78
(g79
g80
NtRp5034
(dp5035
g83
(dp5036
g91
I3
ssg92
g5030
sg85
(lp5037
g78
(g4360
g80
NtRp5038
(dp5039
g83
(dp5040
g4364
S'contactlink'
p5041
sg4366
S'/grammateus3/default/page.load/contact'
p5042
ssg92
Nsg85
(lp5043
S'Contact us'
p5044
asbasbasbasbag78
(g94
g80
NtRp5045
(dp5046
g83
(dp5047
sg92
g4997
sg85
(lp5048
g78
(g99
g80
NtRp5049
(dp5050
g83
(dp5051
sg92
g5045
sg85
(lp5052
g78
(g79
g80
NtRp5053
(dp5054
g83
(dp5055
g91
I3
ssg92
g5049
sg85
(lp5056
g78
(g87
g80
NtRp5057
(dp5058
g83
(dp5059
g91
I2
ssg92
Nsg85
(lp5060
sbasbasbasbasbasbasbasbag78
(g94
g80
NtRp5061
(dp5062
g83
(dp5063
sg92
g4302
sg85
(lp5064
g78
(g99
g80
NtRp5065
(dp5066
g83
(dp5067
sg92
g5061
sg85
(lp5068
g78
(g79
g80
NtRp5069
(dp5070
g83
(dp5071
g91
I4
ssg92
g5065
sg85
(lp5072
g78
(g87
g80
NtRp5073
(dp5074
g83
(dp5075
g91
I3
ssg92
Nsg85
(lp5076
g78
(g94
g80
NtRp5077
(dp5078
g83
(dp5079
sg92
g5073
sg85
(lp5080
g78
(g99
g80
NtRp5081
(dp5082
g83
(dp5083
sg92
g5077
sg85
(lp5084
g78
(g79
g80
NtRp5085
(dp5086
g83
(dp5087
g91
I3
ssg92
g5081
sg85
(lp5088
g4334
(S't\t\x00\x00\x00Documents'
tRp5089
asbasbasbag78
(g94
g80
NtRp5090
(dp5091
g83
(dp5092
sg92
g5073
sg85
(lp5093
g78
(g99
g80
NtRp5094
(dp5095
g83
(dp5096
sg92
g5090
sg85
(lp5097
g78
(g79
g80
NtRp5098
(dp5099
g83
(dp5100
g91
I3
ssg92
g5094
sg85
(lp5101
g1201
asbasbasbag78
(g94
g80
NtRp5102
(dp5103
g83
(dp5104
sg92
g5073
sg85
(lp5105
g78
(g99
g80
NtRp5106
(dp5107
g83
(dp5108
sg92
g5102
sg85
(lp5109
g78
(g79
g80
NtRp5110
(dp5111
g83
(dp5112
g91
I3
ssg92
g5106
sg85
(lp5113
g78
(g4360
g80
NtRp5114
(dp5115
g83
(dp5116
g4364
S'documentslink'
p5117
sg4366
S'/grammateus3/default/index.load'
p5118
ssg92
Nsg85
(lp5119
S'Documents'
p5120
asbasbasbasbag78
(g94
g80
NtRp5121
(dp5122
g83
(dp5123
sg92
g5073
sg85
(lp5124
g78
(g99
g80
NtRp5125
(dp5126
g83
(dp5127
sg92
g5121
sg85
(lp5128
g78
(g79
g80
NtRp5129
(dp5130
g83
(dp5131
g91
I3
ssg92
g5125
sg85
(lp5132
g78
(g87
g80
NtRp5133
(dp5134
g83
(dp5135
g91
I2
ssg92
Nsg85
(lp5136
sbasbasbasbasbasbasbasbasbasbasbasbag78
(g94
g80
NtRp5137
(dp5138
g83
(dp5139
sg92
g3829
sg85
(lp5140
g78
(g99
g80
NtRp5141
(dp5142
g83
(dp5143
g103
g104
ssg92
g5137
sg85
(lp5144
S'meta'
p5145
asbag78
(g99
g80
NtRp5146
(dp5147
g83
(dp5148
g110
g111
ssg92
g5137
sg85
(lp5149
S':'
asbag78
(g99
g80
NtRp5150
(dp5151
g83
(dp5152
sg92
g5137
sg85
(lp5153
g78
(g79
g80
NtRp5154
(dp5155
g83
(dp5156
g91
I5
ssg92
g5150
sg85
(lp5157
g78
(g87
g80
NtRp5158
(dp5159
g83
(dp5160
g91
I4
ssg92
Nsg85
(lp5161
g78
(g94
g80
NtRp5162
(dp5163
g83
(dp5164
sg92
g5158
sg85
(lp5165
g78
(g99
g80
NtRp5166
(dp5167
g83
(dp5168
g103
g104
ssg92
g5162
sg85
(lp5169
S'author'
p5170
asbag78
(g99
g80
NtRp5171
(dp5172
g83
(dp5173
g110
g111
ssg92
g5162
sg85
(lp5174
S':'
asbag78
(g99
g80
NtRp5175
(dp5176
g83
(dp5177
sg92
g5162
sg85
(lp5178
g78
(g79
g80
NtRp5179
(dp5180
g83
(dp5181
g91
I4
ssg92
g5175
sg85
(lp5182
S'Ian W. Scott <you@example.com>'
p5183
asbasbasbag78
(g94
g80
NtRp5184
(dp5185
g83
(dp5186
sg92
g5158
sg85
(lp5187
g78
(g99
g80
NtRp5188
(dp5189
g83
(dp5190
g103
g104
ssg92
g5184
sg85
(lp5191
S'copyright'
p5192
asbag78
(g99
g80
NtRp5193
(dp5194
g83
(dp5195
g110
g111
ssg92
g5184
sg85
(lp5196
S':'
asbag78
(g99
g80
NtRp5197
(dp5198
g83
(dp5199
sg92
g5184
sg85
(lp5200
g78
(g79
g80
NtRp5201
(dp5202
g83
(dp5203
g91
I4
ssg92
g5197
sg85
(lp5204
S'Copyright 2006-2012'
p5205
asbasbasbag78
(g94
g80
NtRp5206
(dp5207
g83
(dp5208
sg92
g5158
sg85
(lp5209
g78
(g99
g80
NtRp5210
(dp5211
g83
(dp5212
g103
g104
ssg92
g5206
sg85
(lp5213
S'description'
p5214
asbag78
(g99
g80
NtRp5215
(dp5216
g83
(dp5217
g110
g111
ssg92
g5206
sg85
(lp5218
S':'
asbag78
(g99
g80
NtRp5219
(dp5220
g83
(dp5221
sg92
g5206
sg85
(lp5222
g78
(g79
g80
NtRp5223
(dp5224
g83
(dp5225
g91
I4
ssg92
g5219
sg85
(lp5226
S'Free-access editions of the "Old Testament Pseudepigrapha"    and related literature'
p5227
asbasbasbag78
(g94
g80
NtRp5228
(dp5229
g83
(dp5230
sg92
g5158
sg85
(lp5231
g78
(g99
g80
NtRp5232
(dp5233
g83
(dp5234
g103
g104
ssg92
g5228
sg85
(lp5235
S'generator'
p5236
asbag78
(g99
g80
NtRp5237
(dp5238
g83
(dp5239
g110
g111
ssg92
g5228
sg85
(lp5240
S':'
asbag78
(g99
g80
NtRp5241
(dp5242
g83
(dp5243
sg92
g5228
sg85
(lp5244
g78
(g79
g80
NtRp5245
(dp5246
g83
(dp5247
g91
I4
ssg92
g5241
sg85
(lp5248
S'Web2py Web Framework'
p5249
asbasbasbag78
(g94
g80
NtRp5250
(dp5251
g83
(dp5252
sg92
g5158
sg85
(lp5253
g78
(g99
g80
NtRp5254
(dp5255
g83
(dp5256
g103
g104
ssg92
g5250
sg85
(lp5257
S'keywords'
p5258
asbag78
(g99
g80
NtRp5259
(dp5260
g83
(dp5261
g110
g111
ssg92
g5250
sg85
(lp5262
S':'
asbag78
(g99
g80
NtRp5263
(dp5264
g83
(dp5265
sg92
g5250
sg85
(lp5266
g78
(g79
g80
NtRp5267
(dp5268
g83
(dp5269
g91
I4
ssg92
g5263
sg85
(lp5270
S'early judaism, religion, ancient, literature, Pseudepigrapha,    apocrypha, textual criticism, primary texts, sources, manuscripts'
p5271
asbasbasbasbasbasbasbag78
(g94
g80
NtRp5272
(dp5273
g83
(dp5274
sg92
g3829
sg85
(lp5275
g78
(g99
g80
NtRp5276
(dp5277
g83
(dp5278
g103
g104
ssg92
g5272
sg85
(lp5279
S'postprocessing'
p5280
asbag78
(g99
g80
NtRp5281
(dp5282
g83
(dp5283
g110
g111
ssg92
g5272
sg85
(lp5284
S':'
asbag78
(g99
g80
NtRp5285
(dp5286
g83
(dp5287
sg92
g5272
sg85
(lp5288
g78
(g79
g80
NtRp5289
(dp5290
g83
(dp5291
g91
I5
ssg92
g5285
sg85
(lp5292
g78
(g87
g80
NtRp5293
(dp5294
g83
(dp5295
g91
I4
ssg92
Nsg85
(lp5296
sbasbasbasbag78
(g94
g80
NtRp5297
(dp5298
g83
(dp5299
sg92
g3829
sg85
(lp5300
g78
(g99
g80
NtRp5301
(dp5302
g83
(dp5303
g103
g104
ssg92
g5297
sg85
(lp5304
S'session_file'
p5305
asbag78
(g99
g80
NtRp5306
(dp5307
g83
(dp5308
g110
g111
ssg92
g5297
sg85
(lp5309
S':'
asbag78
(g99
g80
NtRp5310
(dp5311
g83
(dp5312
sg92
g5297
sg85
(lp5313
g78
(g79
g80
NtRp5314
(dp5315
g83
(dp5316
g91
I5
ssg92
g5310
sg85
(lp5317
S"<open file '/home/ian/web/web2py/applications/grammateus3/sessions/127.0.0.1-ae131346-de62-453a-b308-33d5b317e3e5', mode 'rb+' at 0x7f03c871a540>"
p5318
asbasbasbag78
(g94
g80
NtRp5319
(dp5320
g83
(dp5321
sg92
g3829
sg85
(lp5322
g78
(g99
g80
NtRp5323
(dp5324
g83
(dp5325
g103
g104
ssg92
g5319
sg85
(lp5326
S'session_filename'
p5327
asbag78
(g99
g80
NtRp5328
(dp5329
g83
(dp5330
g110
g111
ssg92
g5319
sg85
(lp5331
S':'
asbag78
(g99
g80
NtRp5332
(dp5333
g83
(dp5334
sg92
g5319
sg85
(lp5335
g78
(g79
g80
NtRp5336
(dp5337
g83
(dp5338
g91
I5
ssg92
g5332
sg85
(lp5339
S'/home/ian/web/web2py/applications/grammateus3/sessions/127.0.0.1-ae131346-de62-453a-b308-33d5b317e3e5'
p5340
asbasbasbag78
(g94
g80
NtRp5341
(dp5342
g83
(dp5343
sg92
g3829
sg85
(lp5344
g78
(g99
g80
NtRp5345
(dp5346
g83
(dp5347
g103
g104
ssg92
g5341
sg85
(lp5348
S'session_id'
p5349
asbag78
(g99
g80
NtRp5350
(dp5351
g83
(dp5352
g110
g111
ssg92
g5341
sg85
(lp5353
S':'
asbag78
(g99
g80
NtRp5354
(dp5355
g83
(dp5356
sg92
g5341
sg85
(lp5357
g78
(g79
g80
NtRp5358
(dp5359
g83
(dp5360
g91
I5
ssg92
g5354
sg85
(lp5361
S'127.0.0.1-ae131346-de62-453a-b308-33d5b317e3e5'
p5362
asbasbasbag78
(g94
g80
NtRp5363
(dp5364
g83
(dp5365
sg92
g3829
sg85
(lp5366
g78
(g99
g80
NtRp5367
(dp5368
g83
(dp5369
g103
g104
ssg92
g5363
sg85
(lp5370
S'session_id_name'
p5371
asbag78
(g99
g80
NtRp5372
(dp5373
g83
(dp5374
g110
g111
ssg92
g5363
sg85
(lp5375
S':'
asbag78
(g99
g80
NtRp5376
(dp5377
g83
(dp5378
sg92
g5363
sg85
(lp5379
g78
(g79
g80
NtRp5380
(dp5381
g83
(dp5382
g91
I5
ssg92
g5376
sg85
(lp5383
g3886
asbasbasbag78
(g94
g80
NtRp5384
(dp5385
g83
(dp5386
sg92
g3829
sg85
(lp5387
g78
(g99
g80
NtRp5388
(dp5389
g83
(dp5390
g103
g104
ssg92
g5384
sg85
(lp5391
S'session_locked'
p5392
asbag78
(g99
g80
NtRp5393
(dp5394
g83
(dp5395
g110
g111
ssg92
g5384
sg85
(lp5396
S':'
asbag78
(g99
g80
NtRp5397
(dp5398
g83
(dp5399
sg92
g5384
sg85
(lp5400
g78
(g79
g80
NtRp5401
(dp5402
g83
(dp5403
g91
I5
ssg92
g5397
sg85
(lp5404
g121
asbasbasbag78
(g94
g80
NtRp5405
(dp5406
g83
(dp5407
sg92
g3829
sg85
(lp5408
g78
(g99
g80
NtRp5409
(dp5410
g83
(dp5411
g103
g104
ssg92
g5405
sg85
(lp5412
S'session_new'
p5413
asbag78
(g99
g80
NtRp5414
(dp5415
g83
(dp5416
g110
g111
ssg92
g5405
sg85
(lp5417
S':'
asbag78
(g99
g80
NtRp5418
(dp5419
g83
(dp5420
sg92
g5405
sg85
(lp5421
g78
(g79
g80
NtRp5422
(dp5423
g83
(dp5424
g91
I5
ssg92
g5418
sg85
(lp5425
g1201
asbasbasbag78
(g94
g80
NtRp5426
(dp5427
g83
(dp5428
sg92
g3829
sg85
(lp5429
g78
(g99
g80
NtRp5430
(dp5431
g83
(dp5432
g103
g104
ssg92
g5426
sg85
(lp5433
S'status'
p5434
asbag78
(g99
g80
NtRp5435
(dp5436
g83
(dp5437
g110
g111
ssg92
g5426
sg85
(lp5438
S':'
asbag78
(g99
g80
NtRp5439
(dp5440
g83
(dp5441
sg92
g5426
sg85
(lp5442
g78
(g79
g80
NtRp5443
(dp5444
g83
(dp5445
g91
I5
ssg92
g5439
sg85
(lp5446
S'200'
p5447
asbasbasbag78
(g94
g80
NtRp5448
(dp5449
g83
(dp5450
sg92
g3829
sg85
(lp5451
g78
(g99
g80
NtRp5452
(dp5453
g83
(dp5454
g103
g104
ssg92
g5448
sg85
(lp5455
S'subtitle'
p5456
asbag78
(g99
g80
NtRp5457
(dp5458
g83
(dp5459
g110
g111
ssg92
g5448
sg85
(lp5460
S':'
asbag78
(g99
g80
NtRp5461
(dp5462
g83
(dp5463
sg92
g5448
sg85
(lp5464
g78
(g79
g80
NtRp5465
(dp5466
g83
(dp5467
g91
I5
ssg92
g5461
sg85
(lp5468
g4334
(S'sh\x00\x00\x00Developing and Publishing Accurate Texts of the "Old Testament Pseudepigrapha"    and related literature'
tRp5469
asbasbasbag78
(g94
g80
NtRp5470
(dp5471
g83
(dp5472
sg92
g3829
sg85
(lp5473
g78
(g99
g80
NtRp5474
(dp5475
g83
(dp5476
g103
g104
ssg92
g5470
sg85
(lp5477
S'title'
p5478
asbag78
(g99
g80
NtRp5479
(dp5480
g83
(dp5481
g110
g111
ssg92
g5470
sg85
(lp5482
S':'
asbag78
(g99
g80
NtRp5483
(dp5484
g83
(dp5485
sg92
g5470
sg85
(lp5486
g78
(g79
g80
NtRp5487
(dp5488
g83
(dp5489
g91
I5
ssg92
g5483
sg85
(lp5490
S'The Online Critical Pseudepigrapha'
p5491
asbasbasbag78
(g94
g80
NtRp5492
(dp5493
g83
(dp5494
sg92
g3829
sg85
(lp5495
g78
(g99
g80
NtRp5496
(dp5497
g83
(dp5498
g103
g104
ssg92
g5492
sg85
(lp5499
g2668
asbag78
(g99
g80
NtRp5500
(dp5501
g83
(dp5502
g110
g111
ssg92
g5492
sg85
(lp5503
S':'
asbag78
(g99
g80
NtRp5504
(dp5505
g83
(dp5506
sg92
g5492
sg85
(lp5507
g78
(g79
g80
NtRp5508
(dp5509
g83
(dp5510
g91
I5
ssg92
g5504
sg85
(lp5511
g2681
asbasbasbag78
(g94
g80
NtRp5512
(dp5513
g83
(dp5514
sg92
g3829
sg85
(lp5515
g78
(g99
g80
NtRp5516
(dp5517
g83
(dp5518
g103
g104
ssg92
g5512
sg85
(lp5519
S'view'
p5520
asbag78
(g99
g80
NtRp5521
(dp5522
g83
(dp5523
g110
g111
ssg92
g5512
sg85
(lp5524
S':'
asbag78
(g99
g80
NtRp5525
(dp5526
g83
(dp5527
sg92
g5512
sg85
(lp5528
g78
(g79
g80
NtRp5529
(dp5530
g83
(dp5531
g91
I5
ssg92
g5525
sg85
(lp5532
S'docs/section.load'
p5533
asbasbasbasbasbsS'locals'
p5534
(dp5535
S'_ModifyContentOnlyProxy'
p5536
S"<type 'lxml.etree._ModifyContentOnlyProxy'>"
p5537
sS'XPathEvaluator'
p5538
S'<built-in function XPathEvaluator>'
p5539
sS'ParserBasedElementClassLookup'
p5540
S"<type 'lxml.etree.ParserBasedElementClassLookup'>"
p5541
sS'_Attrib'
p5542
S"<type 'lxml.etree._Attrib'>"
p5543
sS'_FilelikeWriter'
p5544
S"<type 'lxml.etree._FilelikeWriter'>"
p5545
sS'strip_attributes'
p5546
S'<built-in function strip_attributes>'
p5547
sS'SiblingsIterator'
p5548
S"<type 'lxml.etree.SiblingsIterator'>"
p5549
sS'LIBXSLT_VERSION'
p5550
S'(1, 1, 26)'
p5551
sS'XMLDTDID'
p5552
S'<built-in function XMLDTDID>'
p5553
sS'ElementTree'
p5554
S'<built-in function ElementTree>'
p5555
sS'cleanup_namespaces'
p5556
S'<built-in function cleanup_namespaces>'
p5557
sS'set_default_parser'
p5558
S'<built-in function set_default_parser>'
p5559
sS'ElementClassLookup'
p5560
S"<type 'lxml.etree.ElementClassLookup'>"
p5561
sS'parseid'
p5562
S'<built-in function parseid>'
p5563
sS'LxmlSyntaxError'
p5564
S"<class 'lxml.etree.LxmlSyntaxError'>"
p5565
sS'_XSLTProcessingInstruction'
p5566
S"<type 'lxml.etree._XSLTProcessingInstruction'>"
p5567
sS'_ParserContext'
p5568
S"<type 'lxml.etree._ParserContext'>"
p5569
sS'__pyx_capi__'
p5570
S'{\'appendChild\': <capsule object "void (struct LxmlElement *, struct LxmlElement *)">, \'attributeValue\': <capsule object "PyObject *(xmlNode *, xmlAttr *)">, \'attributeValueFromNsName\': <capsule object "PyObject *(xmlNode *, char *, char *)">, \'callLookupFallback\': <capsule object "PyObject *(struct LxmlFallbackE...lassLookup *, struct LxmlDocument *, xmlNode *)">, \'collectAttributes\': <capsule object "PyObject *(xmlNode *, int)">, \'deepcopyNodeToDocument\': <capsule object "struct LxmlElement *(struct LxmlDocument *, xmlNode *)">, \'delAttribute\': <capsule object "int (struct LxmlElement *, PyObject *)">, \'delAttributeFromNsName\': <capsule object "int (xmlNode *, char *, char *)">, \'documentOrRaise\': <capsule object "struct LxmlDocument *(PyObject *)">, \'elementFactory\': <capsule object "struct LxmlElement *(struct LxmlDocument *, xmlNode *)">, ...}'
p5571
sS'_ModifyContentOnlyEntityProxy'
p5572
S"<type 'lxml.etree._ModifyContentOnlyEntityProxy'>"
p5573
sS'_IDDict'
p5574
S"<type 'lxml.etree._IDDict'>"
p5575
sS'XSLTParseError'
p5576
S"<class 'lxml.etree.XSLTParseError'>"
p5577
sS'__ContentOnlyElement'
p5578
S"<type 'lxml.etree.__ContentOnlyElement'>"
p5579
sS'CustomElementClassLookup'
p5580
S"<type 'lxml.etree.CustomElementClassLookup'>"
p5581
sS'_OpaqueNodeWrapper'
p5582
S"<type 'lxml.etree._OpaqueNodeWrapper'>"
p5583
sS'_XPathFunctionNamespaceRegistry'
p5584
S"<type 'lxml.etree._XPathFunctionNamespaceRegistry'>"
p5585
sS'_ReadOnlyElementProxy'
p5586
S"<type 'lxml.etree._ReadOnlyElementProxy'>"
p5587
sS'LxmlRegistryError'
p5588
S"<class 'lxml.etree.LxmlRegistryError'>"
p5589
sS'__file__'
p5590
S"'/usr/lib/python2.7/dist-packages/lxml/etree.so'"
p5591
sS'TreeBuilder'
p5592
S"<type 'lxml.etree.TreeBuilder'>"
p5593
sS'_FileReaderContext'
p5594
S"<type 'lxml.etree._FileReaderContext'>"
p5595
sS'C14NError'
p5596
S"<class 'lxml.etree.C14NError'>"
p5597
sS'CommentBase'
p5598
S"<type 'lxml.etree.CommentBase'>"
p5599
sS'tostring'
p5600
S'<built-in function tostring>'
p5601
sS'iselement'
p5602
S'<built-in function iselement>'
p5603
sS'_FeedParser'
p5604
S"<type 'lxml.etree._FeedParser'>"
p5605
sS'XPathError'
p5606
S"<class 'lxml.etree.XPathError'>"
p5607
sS'LxmlError'
p5608
S"<class 'lxml.etree.LxmlError'>"
p5609
sS'__version__'
p5610
S"u'2.3.2'"
p5611
sS'_ExsltRegExp'
p5612
S"<type 'lxml.etree._ExsltRegExp'>"
p5613
sS'XMLID'
p5614
S'<built-in function XMLID>'
p5615
sS'DocumentInvalid'
p5616
S"<class 'lxml.etree.DocumentInvalid'>"
p5617
sS'FunctionNamespace'
p5618
S'<built-in function FunctionNamespace>'
p5619
sS'XSLTExtensionError'
p5620
S"<class 'lxml.etree.XSLTExtensionError'>"
p5621
sS'_IterparseContext'
p5622
S"<type 'lxml.etree._IterparseContext'>"
p5623
sS'Entity'
p5624
S'<built-in function Entity>'
p5625
sS'_Entity'
p5626
S"<type 'lxml.etree._Entity'>"
p5627
sS'iterparse'
p5628
S"<type 'lxml.etree.iterparse'>"
p5629
sS'_XPathContext'
p5630
S"<type 'lxml.etree._XPathContext'>"
p5631
sS'__package__'
p5632
S"'lxml'"
p5633
sS'ElementChildIterator'
p5634
S"<type 'lxml.etree.ElementChildIterator'>"
p5635
sS'XPath'
p5636
S"<type 'lxml.etree.XPath'>"
p5637
sS'_LogEntry'
p5638
S"<type 'lxml.etree._LogEntry'>"
p5639
sS'_ResolverContext'
p5640
S"<type 'lxml.etree._ResolverContext'>"
p5641
sS'_AttribIterator'
p5642
S"<type 'lxml.etree._AttribIterator'>"
p5643
sS'_ReadOnlyEntityProxy'
p5644
S"<type 'lxml.etree._ReadOnlyEntityProxy'>"
p5645
sS'PyErrorLog'
p5646
S"<type 'lxml.etree.PyErrorLog'>"
p5647
sS'_SaxParserContext'
p5648
S"<type 'lxml.etree._SaxParserContext'>"
p5649
sS'_ElementTree'
p5650
S"<type 'lxml.etree._ElementTree'>"
p5651
sS'_ListErrorLog'
p5652
S"<type 'lxml.etree._ListErrorLog'>"
p5653
sS'DTD'
p5654
S"<type 'lxml.etree.DTD'>"
p5655
sS'AttributeBasedElementClassLookup'
p5656
S"<type 'lxml.etree.AttributeBasedElementClassLookup'>"
p5657
sS'HTMLParser'
p5658
S"<type 'lxml.etree.HTMLParser'>"
p5659
sS'ElementNamespaceClassLookup'
p5660
S"<type 'lxml.etree.ElementNamespaceClassLookup'>"
p5661
sS'XPathFunctionError'
p5662
S"<class 'lxml.etree.XPathFunctionError'>"
p5663
sS'ElementDepthFirstIterator'
p5664
S"<type 'lxml.etree.ElementDepthFirstIterator'>"
p5665
sS'XMLParser'
p5666
S"<type 'lxml.etree.XMLParser'>"
p5667
sS'XInclude'
p5668
S"<type 'lxml.etree.XInclude'>"
p5669
sS'Schematron'
p5670
S"<type 'lxml.etree.Schematron'>"
p5671
sS'__all__'
p5672
S"['AttributeBasedElementClassLookup', 'C14NError', 'CDATA', 'Comment', 'CommentBase', 'CustomElementClassLookup', 'DEBUG', 'DTD', 'DTDError', 'DTDParseError', 'DTDValidateError', 'DocumentInvalid', 'ETCompatXMLParser', 'ETXPath', 'Element', 'ElementBase', 'ElementClassLookup', 'ElementDefaultClassLookup', 'ElementNamespaceClassLookup', 'ElementTree', ...]"
p5673
sS'NamespaceRegistryError'
p5674
S"<class 'lxml.etree.NamespaceRegistryError'>"
p5675
sS'_Document'
p5676
S"<type 'lxml.etree._Document'>"
p5677
sS'strip_elements'
p5678
S'<built-in function strip_elements>'
p5679
sS'_XSLTContext'
p5680
S"<type 'lxml.etree._XSLTContext'>"
p5681
sS'HTML'
p5682
S'<built-in function HTML>'
p5683
sS'RelaxNG'
p5684
S"<type 'lxml.etree.RelaxNG'>"
p5685
sS'_BaseErrorLog'
p5686
S"<type 'lxml.etree._BaseErrorLog'>"
p5687
sS'PI'
p5688
S'<built-in function ProcessingInstruction>'
p5689
sS'_ParserSchemaValidationContext'
p5690
S"<type 'lxml.etree._ParserSchemaValidationContext'>"
p5691
sS'Extension'
p5692
S'<built-in function Extension>'
p5693
sS'__builtins__'
p5694
S"<module '__builtin__' (built-in)>"
p5695
sS'SchematronParseError'
p5696
S"<class 'lxml.etree.SchematronParseError'>"
p5697
sS'_Element'
p5698
S"<type 'lxml.etree._Element'>"
p5699
sS'XSLTExtension'
p5700
S"<type 'lxml.etree.XSLTExtension'>"
p5701
sS'XMLSchemaValidateError'
p5702
S"<class 'lxml.etree.XMLSchemaValidateError'>"
p5703
sS'XMLSchema'
p5704
S"<type 'lxml.etree.XMLSchema'>"
p5705
sS'DEBUG'
p5706
S'1'
sS'__name__'
p5707
S"'lxml.etree'"
p5708
sS'_ElementUnicodeResult'
p5709
S"<type 'lxml.etree._ElementUnicodeResult'>"
p5710
sS'ErrorTypes'
p5711
S"<class 'lxml.etree.ErrorTypes'>"
p5712
sS'Comment'
p5713
S'<built-in function Comment>'
p5714
sS'XMLTreeBuilder'
p5715
S"<type 'lxml.etree.ETCompatXMLParser'>"
p5716
sS'RelaxNGErrorTypes'
p5717
S"<class 'lxml.etree.RelaxNGErrorTypes'>"
p5718
sS'iterwalk'
p5719
S"<type 'lxml.etree.iterwalk'>"
p5720
sS'ProcessingInstruction'
p5721
S'<built-in function ProcessingInstruction>'
p5722
sS'LXML_VERSION'
p5723
S'(2, 3, 2, 0)'
p5724
sS'_InputDocument'
p5725
S"<type 'lxml.etree._InputDocument'>"
p5726
sS'RelaxNGValidateError'
p5727
S"<class 'lxml.etree.RelaxNGValidateError'>"
p5728
sS'strip_tags'
p5729
S'<built-in function strip_tags>'
p5730
sS'XIncludeError'
p5731
S"<class 'lxml.etree.XIncludeError'>"
p5732
sS'tounicode'
p5733
S'<built-in function tounicode>'
p5734
sS'PIBase'
p5735
S"<type 'lxml.etree.PIBase'>"
p5736
sS'_XSLTResolverContext'
p5737
S"<type 'lxml.etree._XSLTResolverContext'>"
p5738
sS'_ParserDictionaryContext'
p5739
S"<type 'lxml.etree._ParserDictionaryContext'>"
p5740
sS'ParserError'
p5741
S"<class 'lxml.etree.ParserError'>"
p5742
sS'_ElementIterator'
p5743
S"<type 'lxml.etree._ElementIterator'>"
p5744
sS'__docformat__'
p5745
S"u'restructuredtext en'"
p5746
sS'SerialisationError'
p5747
S"<class 'lxml.etree.SerialisationError'>"
p5748
sS'_ReadOnlyProxy'
p5749
S"<type 'lxml.etree._ReadOnlyProxy'>"
p5750
sS'_ReadOnlyPIProxy'
p5751
S"<type 'lxml.etree._ReadOnlyPIProxy'>"
p5752
sS'DocInfo'
p5753
S"<type 'lxml.etree.DocInfo'>"
p5754
sg3374
S'<built-in function dump>'
p5755
sS'XSLTSaveError'
p5756
S"<class 'lxml.etree.XSLTSaveError'>"
p5757
sS'LIBXSLT_COMPILED_VERSION'
p5758
S'(1, 1, 26)'
p5759
sS'ElementTextIterator'
p5760
S"<type 'lxml.etree.ElementTextIterator'>"
p5761
sg47
S"'The ``lxml.etree`` module implements the extended ElementTree API\\nfor XML.\\n'"
p5762
sS'_AppendOnlyElementProxy'
p5763
S"<type 'lxml.etree._AppendOnlyElementProxy'>"
p5764
sS'XPathElementEvaluator'
p5765
S"<type 'lxml.etree.XPathElementEvaluator'>"
p5766
sS'XML'
p5767
S'<built-in function XML>'
p5768
sS'XSLTError'
p5769
S"<class 'lxml.etree.XSLTError'>"
p5770
sS'XSLT'
p5771
S"<type 'lxml.etree.XSLT'>"
p5772
sS'_DomainErrorLog'
p5773
S"<type 'lxml.etree._DomainErrorLog'>"
p5774
sS'AncestorsIterator'
p5775
S"<type 'lxml.etree.AncestorsIterator'>"
p5776
sS'_BaseContext'
p5777
S"<type 'lxml.etree._BaseContext'>"
p5778
sS'_ModifyContentOnlyPIProxy'
p5779
S"<type 'lxml.etree._ModifyContentOnlyPIProxy'>"
p5780
sS'_BaseParser'
p5781
S"<type 'lxml.etree._BaseParser'>"
p5782
sS'Error'
p5783
S"<class 'lxml.etree.Error'>"
p5784
sS'ErrorLevels'
p5785
S"<class 'lxml.etree.ErrorLevels'>"
p5786
sS'_TargetParserContext'
p5787
S"<type 'lxml.etree._TargetParserContext'>"
p5788
sS'LIBXML_VERSION'
p5789
S'(2, 7, 8)'
p5790
sS'XPathResultError'
p5791
S"<class 'lxml.etree.XPathResultError'>"
p5792
sS'_OpaqueDocumentWrapper'
p5793
S"<type 'lxml.etree._OpaqueDocumentWrapper'>"
p5794
sS'XSLTAccessControl'
p5795
S"<type 'lxml.etree.XSLTAccessControl'>"
p5796
sS'XMLSyntaxError'
p5797
S"<class 'lxml.etree.XMLSyntaxError'>"
p5798
sS'XMLSchemaParseError'
p5799
S"<class 'lxml.etree.XMLSchemaParseError'>"
p5800
sS'EntityBase'
p5801
S"<type 'lxml.etree.EntityBase'>"
p5802
sS'_ExceptionContext'
p5803
S"<type 'lxml.etree._ExceptionContext'>"
p5804
sS'SubElement'
p5805
S'<built-in function SubElement>'
p5806
sS'CDATA'
p5807
S"<type 'lxml.etree.CDATA'>"
p5808
sS'_ElementTagMatcher'
p5809
S"<type 'lxml.etree._ElementTagMatcher'>"
p5810
sS'DTDError'
p5811
S"<class 'lxml.etree.DTDError'>"
p5812
sS'_ProcessingInstruction'
p5813
S"<type 'lxml.etree._ProcessingInstruction'>"
p5814
sS'get_default_parser'
p5815
S'<built-in function get_default_parser>'
p5816
sS'register_namespace'
p5817
S'<built-in function register_namespace>'
p5818
sS'ErrorDomains'
p5819
S"<class 'lxml.etree.ErrorDomains'>"
p5820
sS'LIBXML_COMPILED_VERSION'
p5821
S'(2, 7, 8)'
p5822
sS'DTDValidateError'
p5823
S"<class 'lxml.etree.DTDValidateError'>"
p5824
sS'_SaxParserTarget'
p5825
S"<type 'lxml.etree._SaxParserTarget'>"
p5826
sS'parse'
p5827
S'<built-in function parse>'
p5828
sS'set_element_class_lookup'
p5829
S'<built-in function set_element_class_lookup>'
p5830
sS'_TargetParserResult'
p5831
S"<class 'lxml.etree._TargetParserResult'>"
p5832
sS'FallbackElementClassLookup'
p5833
S"<type 'lxml.etree.FallbackElementClassLookup'>"
p5834
sS'RelaxNGError'
p5835
S"<class 'lxml.etree.RelaxNGError'>"
p5836
sS'XPathEvalError'
p5837
S"<class 'lxml.etree.XPathEvalError'>"
p5838
sS'PythonElementClassLookup'
p5839
S"<type 'lxml.etree.PythonElementClassLookup'>"
p5840
sS'_FunctionNamespaceRegistry'
p5841
S"<type 'lxml.etree._FunctionNamespaceRegistry'>"
p5842
sS'clear_error_log'
p5843
S'<built-in function clear_error_log>'
p5844
sS'_RotatingErrorLog'
p5845
S"<type 'lxml.etree._RotatingErrorLog'>"
p5846
sS'XPathDocumentEvaluator'
p5847
S"<type 'lxml.etree.XPathDocumentEvaluator'>"
p5848
sS'_XSLTQuotedStringParam'
p5849
S"<type 'lxml.etree._XSLTQuotedStringParam'>"
p5850
sS'ETXPath'
p5851
S"<type 'lxml.etree.ETXPath'>"
p5852
sS'SchematronError'
p5853
S"<class 'lxml.etree.SchematronError'>"
p5854
sS'Resolver'
p5855
S"<type 'lxml.etree.Resolver'>"
p5856
sS'_NamespaceRegistry'
p5857
S"<type 'lxml.etree._NamespaceRegistry'>"
p5858
sS'fromstringlist'
p5859
S'<built-in function fromstringlist>'
p5860
sS'XSLTApplyError'
p5861
S"<class 'lxml.etree.XSLTApplyError'>"
p5862
sS'_Comment'
p5863
S"<type 'lxml.etree._Comment'>"
p5864
sS'_Validator'
p5865
S"<type 'lxml.etree._Validator'>"
p5866
sS'DTDParseError'
p5867
S"<class 'lxml.etree.DTDParseError'>"
p5868
sS'_ResolverRegistry'
p5869
S"<type 'lxml.etree._ResolverRegistry'>"
p5870
sS'_XPathEvaluatorBase'
p5871
S"<type 'lxml.etree._XPathEvaluatorBase'>"
p5872
sS'_ErrorLog'
p5873
S"<type 'lxml.etree._ErrorLog'>"
p5874
sS'Element'
p5875
S'<built-in function Element>'
p5876
sS'ElementBase'
p5877
S"<type 'lxml.etree.ElementBase'>"
p5878
sS'_ElementStringResult'
p5879
S"<class 'lxml.etree._ElementStringResult'>"
p5880
sS'XPathSyntaxError'
p5881
S"<class 'lxml.etree.XPathSyntaxError'>"
p5882
sS'ParseError'
p5883
S"<class 'lxml.etree.ParseError'>"
p5884
sS'_ClassNamespaceRegistry'
p5885
S"<type 'lxml.etree._ClassNamespaceRegistry'>"
p5886
sS'_PythonSaxParserTarget'
p5887
S"<type 'lxml.etree._PythonSaxParserTarget'>"
p5888
sS'_XSLTResultTree'
p5889
S"<type 'lxml.etree._XSLTResultTree'>"
p5890
sS'_TempStore'
p5891
S"<type 'lxml.etree._TempStore'>"
p5892
sS'XMLSchemaError'
p5893
S"<class 'lxml.etree.XMLSchemaError'>"
p5894
sS'use_global_python_log'
p5895
S'<built-in function use_global_python_log>'
p5896
sS'tostringlist'
p5897
S'<built-in function tostringlist>'
p5898
sS'fromstring'
p5899
S'<built-in function fromstring>'
p5900
sS'QName'
p5901
S"<type 'lxml.etree.QName'>"
p5902
sS'SchematronValidateError'
p5903
S"<class 'lxml.etree.SchematronValidateError'>"
p5904
sS'ETCompatXMLParser'
p5905
S"<type 'lxml.etree.ETCompatXMLParser'>"
p5906
sS'RelaxNGParseError'
p5907
S"<class 'lxml.etree.RelaxNGParseError'>"
p5908
sS'__test__'
p5909
S"{u'XML (line 2711)': u'XML(text, parser=None, base_url=None)\\n\\n    P...ternal entities\\n    (DTD, XInclude, ...).\\n    '}"
p5910
sS'ElementDefaultClassLookup'
p5911
S"<type 'lxml.etree.ElementDefaultClassLookup'>"
p5912
sssS'traceback'
p5913
S'Traceback (most recent call last):\n  File "/home/ian/web/web2py/gluon/restricted.py", line 204, in restricted\n    exec ccode in environment\n  File "/home/ian/web/web2py/applications/grammateus3/controllers/docs.py", line 194, in <module>\n  File "/home/ian/web/web2py/gluon/globals.py", line 172, in <lambda>\n    self._caller = lambda f: f()\n  File "/home/ian/web/web2py/applications/grammateus3/controllers/docs.py", line 43, in section\n    p = BookParser(book_file)\n  File "applications/grammateus3/modules/parse.py", line 25, in __init__\n    self.tree = etree.parse(xml_file, parser)\n  File "lxml.etree.pyx", line 2953, in lxml.etree.parse (src/lxml/lxml.etree.c:56204)\n  File "parser.pxi", line 1533, in lxml.etree._parseDocument (src/lxml/lxml.etree.c:82287)\n  File "parser.pxi", line 1562, in lxml.etree._parseDocumentFromURL (src/lxml/lxml.etree.c:82580)\n  File "parser.pxi", line 1462, in lxml.etree._parseDocFromFile (src/lxml/lxml.etree.c:81619)\n  File "parser.pxi", line 1002, in lxml.etree._BaseParser._parseDocFromFile (src/lxml/lxml.etree.c:78528)\n  File "parser.pxi", line 569, in lxml.etree._ParserContext._handleParseResultDoc (src/lxml/lxml.etree.c:74472)\n  File "parser.pxi", line 650, in lxml.etree._handleParseResult (src/lxml/lxml.etree.c:75363)\n  File "parser.pxi", line 590, in lxml.etree._raiseParseError (src/lxml/lxml.etree.c:74696)\nXMLSyntaxError: Element unit does not carry attribute parallel, line 101, column 7\n'
p5914
s.