(dp1
S'output'
p2
S'<type \'exceptions.IOError\'> Error reading file \'applications/grammateus3/static/docs/grammateus3.xml\': failed to load external entity "applications/grammateus3/static/docs/grammateus3.xml"'
p3
sS'layer'
p4
S'/home/iscott/web/web2py/applications/grammateus3/controllers/docs.py'
p5
sS'code'
p6
S'# coding: utf8\nfrom lxml import etree\n\nfrom parse import BookParser\n\n"""\nList of session objects used in text display:\nsession.filename\nsession.info -- dict; parsed results of BookParser class for current doc\nsession.title -- string; title of current doc\nsession.versions -- list; names of all versions in current doc\n"""\n\ndef index():\n    filename = request.args[0]\n    return dict(filename = filename)\n\ndef text():\n    filename = request.args[0]\n    #TODO: provide fallback and prompt if no filename is given in url\n    \n    #url to pass to web2py load helper in view to load doc section via ajax\n    load_url = URL(\'docs\', \'section.load\', args=filename)\n\n    return dict(load_url = load_url, filename = filename)\n\ndef section():\n    """\n    populates a single text pane via the section.load view (refreshable via ajax)\n    """\n    #get filename from end of url and parse the file with BookParser class\n    filename = request.args[0]\n    book_file = \'applications/grammateus3/static/docs/%s.xml\' % filename\n    p = BookParser(book_file)\n    info = p.book_info()\n    #get title of document\n    title = info[\'title\']\n    #get names of all versions of current doc and select the version to display\n    #use second url argument as version name if present, otherwise default to first version\n    versions = [version[\'title\'] for version in info[\'versions\']]     \n    if len(request.args) < 2:\n        current_version = versions[0]\n    else:\n        current_version = request.args[1]\n        #move selected version to top of list for selectbox\n        i = versions.index(current_version)\n        versions.insert(0, versions.pop(i))\n\n    ref = dict()\n        \n\n    return dict(title = title, versions = versions, current_version = current_version, \n                info = info, filename = filename)\n\ndef test():\n    filename = request.args[0]\n    book_file = \'applications/grammateus3/static/docs/%s.xml\' % filename\n    p = BookParser(book_file)\n    info = p.book_info()\n\n    title = info[\'title\']\n    for version in info[\'versions\']:\n        for key, value in version.items():\n            if key != \'text_structure\':\n                print \'Version\', key, \'-->\', value\n\n            else:\n                print \'Version textstructure\'\n                for ref, ref_val in value.items():\n                    for unit, unit_val in ref_val.items():\n                        for mss, mss_val in unit_val.items():\n                            print \'\\t\', ref, \'-->\', unit, \'-->\', mss, \'-->\', mss_val\n        print \'************\'\n    print\n    print\n\n    return dict(title = title, info = info)\n\nresponse._vars=response._caller(section)\n'
p7
sS'snapshot'
p8
(dp9
S'exception'
p10
(dp11
S'__getslice__'
p12
S"<method-wrapper '__getslice__' of exceptions.IOError object>"
p13
sS'__str__'
p14
S"<method-wrapper '__str__' of exceptions.IOError object>"
p15
sS'__reduce__'
p16
S'<built-in method __reduce__ of exceptions.IOError object>'
p17
sS'__dict__'
p18
S'{}'
p19
sS'__sizeof__'
p20
S'<built-in method __sizeof__ of exceptions.IOError object>'
p21
sS'__init__'
p22
S"<method-wrapper '__init__' of exceptions.IOError object>"
p23
sS'__setattr__'
p24
S"<method-wrapper '__setattr__' of exceptions.IOError object>"
p25
sS'__reduce_ex__'
p26
S'<built-in method __reduce_ex__ of exceptions.IOError object>'
p27
sS'__new__'
p28
S'<built-in method __new__ of type object>'
p29
sS'errno'
p30
S'None'
p31
sS'__format__'
p32
S'<built-in method __format__ of exceptions.IOError object>'
p33
sS'__class__'
p34
S"<type 'exceptions.IOError'>"
p35
sS'filename'
p36
S'None'
p37
sS'__doc__'
p38
S"'I/O operation failed.'"
p39
sS'__getitem__'
p40
S"<method-wrapper '__getitem__' of exceptions.IOError object>"
p41
sS'__setstate__'
p42
S'<built-in method __setstate__ of exceptions.IOError object>'
p43
sS'__getattribute__'
p44
S"<method-wrapper '__getattribute__' of exceptions.IOError object>"
p45
sS'args'
p46
S'(u\'Error reading file \\\'applications/grammateus3/...cations/grammateus3/static/docs/grammateus3.xml"\',)'
p47
sS'__subclasshook__'
p48
S'<built-in method __subclasshook__ of type object>'
p49
sS'__unicode__'
p50
S'<built-in method __unicode__ of exceptions.IOError object>'
p51
sS'strerror'
p52
S'None'
p53
sS'__delattr__'
p54
S"<method-wrapper '__delattr__' of exceptions.IOError object>"
p55
sS'__repr__'
p56
S"<method-wrapper '__repr__' of exceptions.IOError object>"
p57
sS'__hash__'
p58
S"<method-wrapper '__hash__' of exceptions.IOError object>"
p59
ssS'evalue'
p60
S'Error reading file \'applications/grammateus3/static/docs/grammateus3.xml\': failed to load external entity "applications/grammateus3/static/docs/grammateus3.xml"'
p61
sS'request'
p62
ccopy_reg
_reconstructor
p63
(cgluon.html
BEAUTIFY
p64
c__builtin__
object
p65
NtRp66
(dp67
S'attributes'
p68
(dp69
sS'components'
p70
(lp71
g63
(cgluon.html
TABLE
p72
g65
NtRp73
(dp74
g68
(dp75
S'level'
p76
I5
ssS'parent'
p77
Nsg70
(lp78
g63
(cgluon.html
TR
p79
g65
NtRp80
(dp81
g68
(dp82
sg77
g73
sg70
(lp83
g63
(cgluon.html
TD
p84
g65
NtRp85
(dp86
g68
(dp87
S'_style'
p88
S'font-weight:bold;vertical-align:top'
p89
ssg77
g80
sg70
(lp90
S'ajax'
p91
asbag63
(g84
g65
NtRp92
(dp93
g68
(dp94
S'_valign'
p95
S'top'
p96
ssg77
g80
sg70
(lp97
S':'
asbag63
(g84
g65
NtRp98
(dp99
g68
(dp100
sg77
g80
sg70
(lp101
g63
(g64
g65
NtRp102
(dp103
g68
(dp104
g76
I5
ssg77
g98
sg70
(lp105
S'True'
p106
asbasbasbag63
(g79
g65
NtRp107
(dp108
g68
(dp109
sg77
g73
sg70
(lp110
g63
(g84
g65
NtRp111
(dp112
g68
(dp113
g88
g89
ssg77
g107
sg70
(lp114
S'application'
p115
asbag63
(g84
g65
NtRp116
(dp117
g68
(dp118
g95
g96
ssg77
g107
sg70
(lp119
S':'
asbag63
(g84
g65
NtRp120
(dp121
g68
(dp122
sg77
g107
sg70
(lp123
g63
(g64
g65
NtRp124
(dp125
g68
(dp126
g76
I5
ssg77
g120
sg70
(lp127
S'grammateus3'
p128
asbasbasbag63
(g79
g65
NtRp129
(dp130
g68
(dp131
sg77
g73
sg70
(lp132
g63
(g84
g65
NtRp133
(dp134
g68
(dp135
g88
g89
ssg77
g129
sg70
(lp136
g46
asbag63
(g84
g65
NtRp137
(dp138
g68
(dp139
g95
g96
ssg77
g129
sg70
(lp140
S':'
asbag63
(g84
g65
NtRp141
(dp142
g68
(dp143
sg77
g129
sg70
(lp144
g63
(g64
g65
NtRp145
(dp146
g68
(dp147
g76
I5
ssg77
g141
sg70
(lp148
g63
(g72
g65
NtRp149
(dp150
g68
(dp151
g76
I4
ssg77
Nsg70
(lp152
g63
(g79
g65
NtRp153
(dp154
g68
(dp155
sg77
g149
sg70
(lp156
g63
(g84
g65
NtRp157
(dp158
g68
(dp159
sg77
g153
sg70
(lp160
g63
(g64
g65
NtRp161
(dp162
g68
(dp163
g76
I4
ssg77
g157
sg70
(lp164
S'grammateus3'
p165
asbasbasbasbasbasbasbag63
(g79
g65
NtRp166
(dp167
g68
(dp168
sg77
g73
sg70
(lp169
g63
(g84
g65
NtRp170
(dp171
g68
(dp172
g88
g89
ssg77
g166
sg70
(lp173
S'body'
p174
asbag63
(g84
g65
NtRp175
(dp176
g68
(dp177
g95
g96
ssg77
g166
sg70
(lp178
S':'
asbag63
(g84
g65
NtRp179
(dp180
g68
(dp181
sg77
g166
sg70
(lp182
g63
(g64
g65
NtRp183
(dp184
g68
(dp185
g76
I5
ssg77
g179
sg70
(lp186
S'<cStringIO.StringO object at 0xc408d80>'
p187
asbasbasbag63
(g79
g65
NtRp188
(dp189
g68
(dp190
sg77
g73
sg70
(lp191
g63
(g84
g65
NtRp192
(dp193
g68
(dp194
g88
g89
ssg77
g188
sg70
(lp195
S'cid'
p196
asbag63
(g84
g65
NtRp197
(dp198
g68
(dp199
g95
g96
ssg77
g188
sg70
(lp200
S':'
asbag63
(g84
g65
NtRp201
(dp202
g68
(dp203
sg77
g188
sg70
(lp204
g63
(g64
g65
NtRp205
(dp206
g68
(dp207
g76
I5
ssg77
g201
sg70
(lp208
S'c0970120781214'
p209
asbasbasbag63
(g79
g65
NtRp210
(dp211
g68
(dp212
sg77
g73
sg70
(lp213
g63
(g84
g65
NtRp214
(dp215
g68
(dp216
g88
g89
ssg77
g210
sg70
(lp217
S'client'
p218
asbag63
(g84
g65
NtRp219
(dp220
g68
(dp221
g95
g96
ssg77
g210
sg70
(lp222
S':'
asbag63
(g84
g65
NtRp223
(dp224
g68
(dp225
sg77
g210
sg70
(lp226
g63
(g64
g65
NtRp227
(dp228
g68
(dp229
g76
I5
ssg77
g223
sg70
(lp230
S'127.0.0.1'
p231
asbasbasbag63
(g79
g65
NtRp232
(dp233
g68
(dp234
sg77
g73
sg70
(lp235
g63
(g84
g65
NtRp236
(dp237
g68
(dp238
g88
g89
ssg77
g232
sg70
(lp239
S'controller'
p240
asbag63
(g84
g65
NtRp241
(dp242
g68
(dp243
g95
g96
ssg77
g232
sg70
(lp244
S':'
asbag63
(g84
g65
NtRp245
(dp246
g68
(dp247
sg77
g232
sg70
(lp248
g63
(g64
g65
NtRp249
(dp250
g68
(dp251
g76
I5
ssg77
g245
sg70
(lp252
S'docs'
p253
asbasbasbag63
(g79
g65
NtRp254
(dp255
g68
(dp256
sg77
g73
sg70
(lp257
g63
(g84
g65
NtRp258
(dp259
g68
(dp260
g88
g89
ssg77
g254
sg70
(lp261
S'cookies'
p262
asbag63
(g84
g65
NtRp263
(dp264
g68
(dp265
g95
g96
ssg77
g254
sg70
(lp266
S':'
asbag63
(g84
g65
NtRp267
(dp268
g68
(dp269
sg77
g254
sg70
(lp270
g63
(g64
g65
NtRp271
(dp272
g68
(dp273
g76
I5
ssg77
g267
sg70
(lp274
g63
(g72
g65
NtRp275
(dp276
g68
(dp277
g76
I4
ssg77
Nsg70
(lp278
g63
(g79
g65
NtRp279
(dp280
g68
(dp281
sg77
g275
sg70
(lp282
g63
(g84
g65
NtRp283
(dp284
g68
(dp285
g88
g89
ssg77
g279
sg70
(lp286
S'session_id_admin'
p287
asbag63
(g84
g65
NtRp288
(dp289
g68
(dp290
g95
g96
ssg77
g279
sg70
(lp291
S':'
asbag63
(g84
g65
NtRp292
(dp293
g68
(dp294
sg77
g279
sg70
(lp295
g63
(g64
g65
NtRp296
(dp297
g68
(dp298
g76
I4
ssg77
g292
sg70
(lp299
g63
(g72
g65
NtRp300
(dp301
g68
(dp302
g76
I3
ssg77
Nsg70
(lp303
g63
(g79
g65
NtRp304
(dp305
g68
(dp306
sg77
g300
sg70
(lp307
g63
(g84
g65
NtRp308
(dp309
g68
(dp310
g88
g89
ssg77
g304
sg70
(lp311
S'comment'
p312
asbag63
(g84
g65
NtRp313
(dp314
g68
(dp315
g95
g96
ssg77
g304
sg70
(lp316
S':'
asbag63
(g84
g65
NtRp317
(dp318
g68
(dp319
sg77
g304
sg70
(lp320
g63
(g64
g65
NtRp321
(dp322
g68
(dp323
g76
I3
ssg77
g317
sg70
(lp324
S''
asbasbasbag63
(g79
g65
NtRp325
(dp326
g68
(dp327
sg77
g300
sg70
(lp328
g63
(g84
g65
NtRp329
(dp330
g68
(dp331
g88
g89
ssg77
g325
sg70
(lp332
S'domain'
p333
asbag63
(g84
g65
NtRp334
(dp335
g68
(dp336
g95
g96
ssg77
g325
sg70
(lp337
S':'
asbag63
(g84
g65
NtRp338
(dp339
g68
(dp340
sg77
g325
sg70
(lp341
g63
(g64
g65
NtRp342
(dp343
g68
(dp344
g76
I3
ssg77
g338
sg70
(lp345
S''
asbasbasbag63
(g79
g65
NtRp346
(dp347
g68
(dp348
sg77
g300
sg70
(lp349
g63
(g84
g65
NtRp350
(dp351
g68
(dp352
g88
g89
ssg77
g346
sg70
(lp353
S'expires'
p354
asbag63
(g84
g65
NtRp355
(dp356
g68
(dp357
g95
g96
ssg77
g346
sg70
(lp358
S':'
asbag63
(g84
g65
NtRp359
(dp360
g68
(dp361
sg77
g346
sg70
(lp362
g63
(g64
g65
NtRp363
(dp364
g68
(dp365
g76
I3
ssg77
g359
sg70
(lp366
S''
asbasbasbag63
(g79
g65
NtRp367
(dp368
g68
(dp369
sg77
g300
sg70
(lp370
g63
(g84
g65
NtRp371
(dp372
g68
(dp373
g88
g89
ssg77
g367
sg70
(lp374
S'httponly'
p375
asbag63
(g84
g65
NtRp376
(dp377
g68
(dp378
g95
g96
ssg77
g367
sg70
(lp379
S':'
asbag63
(g84
g65
NtRp380
(dp381
g68
(dp382
sg77
g367
sg70
(lp383
g63
(g64
g65
NtRp384
(dp385
g68
(dp386
g76
I3
ssg77
g380
sg70
(lp387
S''
asbasbasbag63
(g79
g65
NtRp388
(dp389
g68
(dp390
sg77
g300
sg70
(lp391
g63
(g84
g65
NtRp392
(dp393
g68
(dp394
g88
g89
ssg77
g388
sg70
(lp395
S'max-age'
p396
asbag63
(g84
g65
NtRp397
(dp398
g68
(dp399
g95
g96
ssg77
g388
sg70
(lp400
S':'
asbag63
(g84
g65
NtRp401
(dp402
g68
(dp403
sg77
g388
sg70
(lp404
g63
(g64
g65
NtRp405
(dp406
g68
(dp407
g76
I3
ssg77
g401
sg70
(lp408
S''
asbasbasbag63
(g79
g65
NtRp409
(dp410
g68
(dp411
sg77
g300
sg70
(lp412
g63
(g84
g65
NtRp413
(dp414
g68
(dp415
g88
g89
ssg77
g409
sg70
(lp416
S'path'
p417
asbag63
(g84
g65
NtRp418
(dp419
g68
(dp420
g95
g96
ssg77
g409
sg70
(lp421
S':'
asbag63
(g84
g65
NtRp422
(dp423
g68
(dp424
sg77
g409
sg70
(lp425
g63
(g64
g65
NtRp426
(dp427
g68
(dp428
g76
I3
ssg77
g422
sg70
(lp429
S''
asbasbasbag63
(g79
g65
NtRp430
(dp431
g68
(dp432
sg77
g300
sg70
(lp433
g63
(g84
g65
NtRp434
(dp435
g68
(dp436
g88
g89
ssg77
g430
sg70
(lp437
S'secure'
p438
asbag63
(g84
g65
NtRp439
(dp440
g68
(dp441
g95
g96
ssg77
g430
sg70
(lp442
S':'
asbag63
(g84
g65
NtRp443
(dp444
g68
(dp445
sg77
g430
sg70
(lp446
g63
(g64
g65
NtRp447
(dp448
g68
(dp449
g76
I3
ssg77
g443
sg70
(lp450
S''
asbasbasbag63
(g79
g65
NtRp451
(dp452
g68
(dp453
sg77
g300
sg70
(lp454
g63
(g84
g65
NtRp455
(dp456
g68
(dp457
g88
g89
ssg77
g451
sg70
(lp458
S'version'
p459
asbag63
(g84
g65
NtRp460
(dp461
g68
(dp462
g95
g96
ssg77
g451
sg70
(lp463
S':'
asbag63
(g84
g65
NtRp464
(dp465
g68
(dp466
sg77
g451
sg70
(lp467
g63
(g64
g65
NtRp468
(dp469
g68
(dp470
g76
I3
ssg77
g464
sg70
(lp471
S''
asbasbasbasbasbasbasbag63
(g79
g65
NtRp472
(dp473
g68
(dp474
sg77
g275
sg70
(lp475
g63
(g84
g65
NtRp476
(dp477
g68
(dp478
g88
g89
ssg77
g472
sg70
(lp479
S'session_id_bloglet'
p480
asbag63
(g84
g65
NtRp481
(dp482
g68
(dp483
g95
g96
ssg77
g472
sg70
(lp484
S':'
asbag63
(g84
g65
NtRp485
(dp486
g68
(dp487
sg77
g472
sg70
(lp488
g63
(g64
g65
NtRp489
(dp490
g68
(dp491
g76
I4
ssg77
g485
sg70
(lp492
g63
(g72
g65
NtRp493
(dp494
g68
(dp495
g76
I3
ssg77
Nsg70
(lp496
g63
(g79
g65
NtRp497
(dp498
g68
(dp499
sg77
g493
sg70
(lp500
g63
(g84
g65
NtRp501
(dp502
g68
(dp503
g88
g89
ssg77
g497
sg70
(lp504
g312
asbag63
(g84
g65
NtRp505
(dp506
g68
(dp507
g95
g96
ssg77
g497
sg70
(lp508
S':'
asbag63
(g84
g65
NtRp509
(dp510
g68
(dp511
sg77
g497
sg70
(lp512
g63
(g64
g65
NtRp513
(dp514
g68
(dp515
g76
I3
ssg77
g509
sg70
(lp516
S''
asbasbasbag63
(g79
g65
NtRp517
(dp518
g68
(dp519
sg77
g493
sg70
(lp520
g63
(g84
g65
NtRp521
(dp522
g68
(dp523
g88
g89
ssg77
g517
sg70
(lp524
g333
asbag63
(g84
g65
NtRp525
(dp526
g68
(dp527
g95
g96
ssg77
g517
sg70
(lp528
S':'
asbag63
(g84
g65
NtRp529
(dp530
g68
(dp531
sg77
g517
sg70
(lp532
g63
(g64
g65
NtRp533
(dp534
g68
(dp535
g76
I3
ssg77
g529
sg70
(lp536
S''
asbasbasbag63
(g79
g65
NtRp537
(dp538
g68
(dp539
sg77
g493
sg70
(lp540
g63
(g84
g65
NtRp541
(dp542
g68
(dp543
g88
g89
ssg77
g537
sg70
(lp544
g354
asbag63
(g84
g65
NtRp545
(dp546
g68
(dp547
g95
g96
ssg77
g537
sg70
(lp548
S':'
asbag63
(g84
g65
NtRp549
(dp550
g68
(dp551
sg77
g537
sg70
(lp552
g63
(g64
g65
NtRp553
(dp554
g68
(dp555
g76
I3
ssg77
g549
sg70
(lp556
S''
asbasbasbag63
(g79
g65
NtRp557
(dp558
g68
(dp559
sg77
g493
sg70
(lp560
g63
(g84
g65
NtRp561
(dp562
g68
(dp563
g88
g89
ssg77
g557
sg70
(lp564
g375
asbag63
(g84
g65
NtRp565
(dp566
g68
(dp567
g95
g96
ssg77
g557
sg70
(lp568
S':'
asbag63
(g84
g65
NtRp569
(dp570
g68
(dp571
sg77
g557
sg70
(lp572
g63
(g64
g65
NtRp573
(dp574
g68
(dp575
g76
I3
ssg77
g569
sg70
(lp576
S''
asbasbasbag63
(g79
g65
NtRp577
(dp578
g68
(dp579
sg77
g493
sg70
(lp580
g63
(g84
g65
NtRp581
(dp582
g68
(dp583
g88
g89
ssg77
g577
sg70
(lp584
g396
asbag63
(g84
g65
NtRp585
(dp586
g68
(dp587
g95
g96
ssg77
g577
sg70
(lp588
S':'
asbag63
(g84
g65
NtRp589
(dp590
g68
(dp591
sg77
g577
sg70
(lp592
g63
(g64
g65
NtRp593
(dp594
g68
(dp595
g76
I3
ssg77
g589
sg70
(lp596
S''
asbasbasbag63
(g79
g65
NtRp597
(dp598
g68
(dp599
sg77
g493
sg70
(lp600
g63
(g84
g65
NtRp601
(dp602
g68
(dp603
g88
g89
ssg77
g597
sg70
(lp604
g417
asbag63
(g84
g65
NtRp605
(dp606
g68
(dp607
g95
g96
ssg77
g597
sg70
(lp608
S':'
asbag63
(g84
g65
NtRp609
(dp610
g68
(dp611
sg77
g597
sg70
(lp612
g63
(g64
g65
NtRp613
(dp614
g68
(dp615
g76
I3
ssg77
g609
sg70
(lp616
S''
asbasbasbag63
(g79
g65
NtRp617
(dp618
g68
(dp619
sg77
g493
sg70
(lp620
g63
(g84
g65
NtRp621
(dp622
g68
(dp623
g88
g89
ssg77
g617
sg70
(lp624
g438
asbag63
(g84
g65
NtRp625
(dp626
g68
(dp627
g95
g96
ssg77
g617
sg70
(lp628
S':'
asbag63
(g84
g65
NtRp629
(dp630
g68
(dp631
sg77
g617
sg70
(lp632
g63
(g64
g65
NtRp633
(dp634
g68
(dp635
g76
I3
ssg77
g629
sg70
(lp636
S''
asbasbasbag63
(g79
g65
NtRp637
(dp638
g68
(dp639
sg77
g493
sg70
(lp640
g63
(g84
g65
NtRp641
(dp642
g68
(dp643
g88
g89
ssg77
g637
sg70
(lp644
g459
asbag63
(g84
g65
NtRp645
(dp646
g68
(dp647
g95
g96
ssg77
g637
sg70
(lp648
S':'
asbag63
(g84
g65
NtRp649
(dp650
g68
(dp651
sg77
g637
sg70
(lp652
g63
(g64
g65
NtRp653
(dp654
g68
(dp655
g76
I3
ssg77
g649
sg70
(lp656
S''
asbasbasbasbasbasbasbag63
(g79
g65
NtRp657
(dp658
g68
(dp659
sg77
g275
sg70
(lp660
g63
(g84
g65
NtRp661
(dp662
g68
(dp663
g88
g89
ssg77
g657
sg70
(lp664
S'session_id_grammateus3'
p665
asbag63
(g84
g65
NtRp666
(dp667
g68
(dp668
g95
g96
ssg77
g657
sg70
(lp669
S':'
asbag63
(g84
g65
NtRp670
(dp671
g68
(dp672
sg77
g657
sg70
(lp673
g63
(g64
g65
NtRp674
(dp675
g68
(dp676
g76
I4
ssg77
g670
sg70
(lp677
g63
(g72
g65
NtRp678
(dp679
g68
(dp680
g76
I3
ssg77
Nsg70
(lp681
g63
(g79
g65
NtRp682
(dp683
g68
(dp684
sg77
g678
sg70
(lp685
g63
(g84
g65
NtRp686
(dp687
g68
(dp688
g88
g89
ssg77
g682
sg70
(lp689
g312
asbag63
(g84
g65
NtRp690
(dp691
g68
(dp692
g95
g96
ssg77
g682
sg70
(lp693
S':'
asbag63
(g84
g65
NtRp694
(dp695
g68
(dp696
sg77
g682
sg70
(lp697
g63
(g64
g65
NtRp698
(dp699
g68
(dp700
g76
I3
ssg77
g694
sg70
(lp701
S''
asbasbasbag63
(g79
g65
NtRp702
(dp703
g68
(dp704
sg77
g678
sg70
(lp705
g63
(g84
g65
NtRp706
(dp707
g68
(dp708
g88
g89
ssg77
g702
sg70
(lp709
g333
asbag63
(g84
g65
NtRp710
(dp711
g68
(dp712
g95
g96
ssg77
g702
sg70
(lp713
S':'
asbag63
(g84
g65
NtRp714
(dp715
g68
(dp716
sg77
g702
sg70
(lp717
g63
(g64
g65
NtRp718
(dp719
g68
(dp720
g76
I3
ssg77
g714
sg70
(lp721
S''
asbasbasbag63
(g79
g65
NtRp722
(dp723
g68
(dp724
sg77
g678
sg70
(lp725
g63
(g84
g65
NtRp726
(dp727
g68
(dp728
g88
g89
ssg77
g722
sg70
(lp729
g354
asbag63
(g84
g65
NtRp730
(dp731
g68
(dp732
g95
g96
ssg77
g722
sg70
(lp733
S':'
asbag63
(g84
g65
NtRp734
(dp735
g68
(dp736
sg77
g722
sg70
(lp737
g63
(g64
g65
NtRp738
(dp739
g68
(dp740
g76
I3
ssg77
g734
sg70
(lp741
S''
asbasbasbag63
(g79
g65
NtRp742
(dp743
g68
(dp744
sg77
g678
sg70
(lp745
g63
(g84
g65
NtRp746
(dp747
g68
(dp748
g88
g89
ssg77
g742
sg70
(lp749
g375
asbag63
(g84
g65
NtRp750
(dp751
g68
(dp752
g95
g96
ssg77
g742
sg70
(lp753
S':'
asbag63
(g84
g65
NtRp754
(dp755
g68
(dp756
sg77
g742
sg70
(lp757
g63
(g64
g65
NtRp758
(dp759
g68
(dp760
g76
I3
ssg77
g754
sg70
(lp761
S''
asbasbasbag63
(g79
g65
NtRp762
(dp763
g68
(dp764
sg77
g678
sg70
(lp765
g63
(g84
g65
NtRp766
(dp767
g68
(dp768
g88
g89
ssg77
g762
sg70
(lp769
g396
asbag63
(g84
g65
NtRp770
(dp771
g68
(dp772
g95
g96
ssg77
g762
sg70
(lp773
S':'
asbag63
(g84
g65
NtRp774
(dp775
g68
(dp776
sg77
g762
sg70
(lp777
g63
(g64
g65
NtRp778
(dp779
g68
(dp780
g76
I3
ssg77
g774
sg70
(lp781
S''
asbasbasbag63
(g79
g65
NtRp782
(dp783
g68
(dp784
sg77
g678
sg70
(lp785
g63
(g84
g65
NtRp786
(dp787
g68
(dp788
g88
g89
ssg77
g782
sg70
(lp789
g417
asbag63
(g84
g65
NtRp790
(dp791
g68
(dp792
g95
g96
ssg77
g782
sg70
(lp793
S':'
asbag63
(g84
g65
NtRp794
(dp795
g68
(dp796
sg77
g782
sg70
(lp797
g63
(g64
g65
NtRp798
(dp799
g68
(dp800
g76
I3
ssg77
g794
sg70
(lp801
S''
asbasbasbag63
(g79
g65
NtRp802
(dp803
g68
(dp804
sg77
g678
sg70
(lp805
g63
(g84
g65
NtRp806
(dp807
g68
(dp808
g88
g89
ssg77
g802
sg70
(lp809
g438
asbag63
(g84
g65
NtRp810
(dp811
g68
(dp812
g95
g96
ssg77
g802
sg70
(lp813
S':'
asbag63
(g84
g65
NtRp814
(dp815
g68
(dp816
sg77
g802
sg70
(lp817
g63
(g64
g65
NtRp818
(dp819
g68
(dp820
g76
I3
ssg77
g814
sg70
(lp821
S''
asbasbasbag63
(g79
g65
NtRp822
(dp823
g68
(dp824
sg77
g678
sg70
(lp825
g63
(g84
g65
NtRp826
(dp827
g68
(dp828
g88
g89
ssg77
g822
sg70
(lp829
g459
asbag63
(g84
g65
NtRp830
(dp831
g68
(dp832
g95
g96
ssg77
g822
sg70
(lp833
S':'
asbag63
(g84
g65
NtRp834
(dp835
g68
(dp836
sg77
g822
sg70
(lp837
g63
(g64
g65
NtRp838
(dp839
g68
(dp840
g76
I3
ssg77
g834
sg70
(lp841
S''
asbasbasbasbasbasbasbag63
(g79
g65
NtRp842
(dp843
g68
(dp844
sg77
g275
sg70
(lp845
g63
(g84
g65
NtRp846
(dp847
g68
(dp848
g88
g89
ssg77
g842
sg70
(lp849
S'session_id_paideia'
p850
asbag63
(g84
g65
NtRp851
(dp852
g68
(dp853
g95
g96
ssg77
g842
sg70
(lp854
S':'
asbag63
(g84
g65
NtRp855
(dp856
g68
(dp857
sg77
g842
sg70
(lp858
g63
(g64
g65
NtRp859
(dp860
g68
(dp861
g76
I4
ssg77
g855
sg70
(lp862
g63
(g72
g65
NtRp863
(dp864
g68
(dp865
g76
I3
ssg77
Nsg70
(lp866
g63
(g79
g65
NtRp867
(dp868
g68
(dp869
sg77
g863
sg70
(lp870
g63
(g84
g65
NtRp871
(dp872
g68
(dp873
g88
g89
ssg77
g867
sg70
(lp874
g312
asbag63
(g84
g65
NtRp875
(dp876
g68
(dp877
g95
g96
ssg77
g867
sg70
(lp878
S':'
asbag63
(g84
g65
NtRp879
(dp880
g68
(dp881
sg77
g867
sg70
(lp882
g63
(g64
g65
NtRp883
(dp884
g68
(dp885
g76
I3
ssg77
g879
sg70
(lp886
S''
asbasbasbag63
(g79
g65
NtRp887
(dp888
g68
(dp889
sg77
g863
sg70
(lp890
g63
(g84
g65
NtRp891
(dp892
g68
(dp893
g88
g89
ssg77
g887
sg70
(lp894
g333
asbag63
(g84
g65
NtRp895
(dp896
g68
(dp897
g95
g96
ssg77
g887
sg70
(lp898
S':'
asbag63
(g84
g65
NtRp899
(dp900
g68
(dp901
sg77
g887
sg70
(lp902
g63
(g64
g65
NtRp903
(dp904
g68
(dp905
g76
I3
ssg77
g899
sg70
(lp906
S''
asbasbasbag63
(g79
g65
NtRp907
(dp908
g68
(dp909
sg77
g863
sg70
(lp910
g63
(g84
g65
NtRp911
(dp912
g68
(dp913
g88
g89
ssg77
g907
sg70
(lp914
g354
asbag63
(g84
g65
NtRp915
(dp916
g68
(dp917
g95
g96
ssg77
g907
sg70
(lp918
S':'
asbag63
(g84
g65
NtRp919
(dp920
g68
(dp921
sg77
g907
sg70
(lp922
g63
(g64
g65
NtRp923
(dp924
g68
(dp925
g76
I3
ssg77
g919
sg70
(lp926
S''
asbasbasbag63
(g79
g65
NtRp927
(dp928
g68
(dp929
sg77
g863
sg70
(lp930
g63
(g84
g65
NtRp931
(dp932
g68
(dp933
g88
g89
ssg77
g927
sg70
(lp934
g375
asbag63
(g84
g65
NtRp935
(dp936
g68
(dp937
g95
g96
ssg77
g927
sg70
(lp938
S':'
asbag63
(g84
g65
NtRp939
(dp940
g68
(dp941
sg77
g927
sg70
(lp942
g63
(g64
g65
NtRp943
(dp944
g68
(dp945
g76
I3
ssg77
g939
sg70
(lp946
S''
asbasbasbag63
(g79
g65
NtRp947
(dp948
g68
(dp949
sg77
g863
sg70
(lp950
g63
(g84
g65
NtRp951
(dp952
g68
(dp953
g88
g89
ssg77
g947
sg70
(lp954
g396
asbag63
(g84
g65
NtRp955
(dp956
g68
(dp957
g95
g96
ssg77
g947
sg70
(lp958
S':'
asbag63
(g84
g65
NtRp959
(dp960
g68
(dp961
sg77
g947
sg70
(lp962
g63
(g64
g65
NtRp963
(dp964
g68
(dp965
g76
I3
ssg77
g959
sg70
(lp966
S''
asbasbasbag63
(g79
g65
NtRp967
(dp968
g68
(dp969
sg77
g863
sg70
(lp970
g63
(g84
g65
NtRp971
(dp972
g68
(dp973
g88
g89
ssg77
g967
sg70
(lp974
g417
asbag63
(g84
g65
NtRp975
(dp976
g68
(dp977
g95
g96
ssg77
g967
sg70
(lp978
S':'
asbag63
(g84
g65
NtRp979
(dp980
g68
(dp981
sg77
g967
sg70
(lp982
g63
(g64
g65
NtRp983
(dp984
g68
(dp985
g76
I3
ssg77
g979
sg70
(lp986
S''
asbasbasbag63
(g79
g65
NtRp987
(dp988
g68
(dp989
sg77
g863
sg70
(lp990
g63
(g84
g65
NtRp991
(dp992
g68
(dp993
g88
g89
ssg77
g987
sg70
(lp994
g438
asbag63
(g84
g65
NtRp995
(dp996
g68
(dp997
g95
g96
ssg77
g987
sg70
(lp998
S':'
asbag63
(g84
g65
NtRp999
(dp1000
g68
(dp1001
sg77
g987
sg70
(lp1002
g63
(g64
g65
NtRp1003
(dp1004
g68
(dp1005
g76
I3
ssg77
g999
sg70
(lp1006
S''
asbasbasbag63
(g79
g65
NtRp1007
(dp1008
g68
(dp1009
sg77
g863
sg70
(lp1010
g63
(g84
g65
NtRp1011
(dp1012
g68
(dp1013
g88
g89
ssg77
g1007
sg70
(lp1014
g459
asbag63
(g84
g65
NtRp1015
(dp1016
g68
(dp1017
g95
g96
ssg77
g1007
sg70
(lp1018
S':'
asbag63
(g84
g65
NtRp1019
(dp1020
g68
(dp1021
sg77
g1007
sg70
(lp1022
g63
(g64
g65
NtRp1023
(dp1024
g68
(dp1025
g76
I3
ssg77
g1019
sg70
(lp1026
S''
asbasbasbasbasbasbasbag63
(g79
g65
NtRp1027
(dp1028
g68
(dp1029
sg77
g275
sg70
(lp1030
g63
(g84
g65
NtRp1031
(dp1032
g68
(dp1033
g88
g89
ssg77
g1027
sg70
(lp1034
S'session_id_welcome'
p1035
asbag63
(g84
g65
NtRp1036
(dp1037
g68
(dp1038
g95
g96
ssg77
g1027
sg70
(lp1039
S':'
asbag63
(g84
g65
NtRp1040
(dp1041
g68
(dp1042
sg77
g1027
sg70
(lp1043
g63
(g64
g65
NtRp1044
(dp1045
g68
(dp1046
g76
I4
ssg77
g1040
sg70
(lp1047
g63
(g72
g65
NtRp1048
(dp1049
g68
(dp1050
g76
I3
ssg77
Nsg70
(lp1051
g63
(g79
g65
NtRp1052
(dp1053
g68
(dp1054
sg77
g1048
sg70
(lp1055
g63
(g84
g65
NtRp1056
(dp1057
g68
(dp1058
g88
g89
ssg77
g1052
sg70
(lp1059
g312
asbag63
(g84
g65
NtRp1060
(dp1061
g68
(dp1062
g95
g96
ssg77
g1052
sg70
(lp1063
S':'
asbag63
(g84
g65
NtRp1064
(dp1065
g68
(dp1066
sg77
g1052
sg70
(lp1067
g63
(g64
g65
NtRp1068
(dp1069
g68
(dp1070
g76
I3
ssg77
g1064
sg70
(lp1071
S''
asbasbasbag63
(g79
g65
NtRp1072
(dp1073
g68
(dp1074
sg77
g1048
sg70
(lp1075
g63
(g84
g65
NtRp1076
(dp1077
g68
(dp1078
g88
g89
ssg77
g1072
sg70
(lp1079
g333
asbag63
(g84
g65
NtRp1080
(dp1081
g68
(dp1082
g95
g96
ssg77
g1072
sg70
(lp1083
S':'
asbag63
(g84
g65
NtRp1084
(dp1085
g68
(dp1086
sg77
g1072
sg70
(lp1087
g63
(g64
g65
NtRp1088
(dp1089
g68
(dp1090
g76
I3
ssg77
g1084
sg70
(lp1091
S''
asbasbasbag63
(g79
g65
NtRp1092
(dp1093
g68
(dp1094
sg77
g1048
sg70
(lp1095
g63
(g84
g65
NtRp1096
(dp1097
g68
(dp1098
g88
g89
ssg77
g1092
sg70
(lp1099
g354
asbag63
(g84
g65
NtRp1100
(dp1101
g68
(dp1102
g95
g96
ssg77
g1092
sg70
(lp1103
S':'
asbag63
(g84
g65
NtRp1104
(dp1105
g68
(dp1106
sg77
g1092
sg70
(lp1107
g63
(g64
g65
NtRp1108
(dp1109
g68
(dp1110
g76
I3
ssg77
g1104
sg70
(lp1111
S''
asbasbasbag63
(g79
g65
NtRp1112
(dp1113
g68
(dp1114
sg77
g1048
sg70
(lp1115
g63
(g84
g65
NtRp1116
(dp1117
g68
(dp1118
g88
g89
ssg77
g1112
sg70
(lp1119
g375
asbag63
(g84
g65
NtRp1120
(dp1121
g68
(dp1122
g95
g96
ssg77
g1112
sg70
(lp1123
S':'
asbag63
(g84
g65
NtRp1124
(dp1125
g68
(dp1126
sg77
g1112
sg70
(lp1127
g63
(g64
g65
NtRp1128
(dp1129
g68
(dp1130
g76
I3
ssg77
g1124
sg70
(lp1131
S''
asbasbasbag63
(g79
g65
NtRp1132
(dp1133
g68
(dp1134
sg77
g1048
sg70
(lp1135
g63
(g84
g65
NtRp1136
(dp1137
g68
(dp1138
g88
g89
ssg77
g1132
sg70
(lp1139
g396
asbag63
(g84
g65
NtRp1140
(dp1141
g68
(dp1142
g95
g96
ssg77
g1132
sg70
(lp1143
S':'
asbag63
(g84
g65
NtRp1144
(dp1145
g68
(dp1146
sg77
g1132
sg70
(lp1147
g63
(g64
g65
NtRp1148
(dp1149
g68
(dp1150
g76
I3
ssg77
g1144
sg70
(lp1151
S''
asbasbasbag63
(g79
g65
NtRp1152
(dp1153
g68
(dp1154
sg77
g1048
sg70
(lp1155
g63
(g84
g65
NtRp1156
(dp1157
g68
(dp1158
g88
g89
ssg77
g1152
sg70
(lp1159
g417
asbag63
(g84
g65
NtRp1160
(dp1161
g68
(dp1162
g95
g96
ssg77
g1152
sg70
(lp1163
S':'
asbag63
(g84
g65
NtRp1164
(dp1165
g68
(dp1166
sg77
g1152
sg70
(lp1167
g63
(g64
g65
NtRp1168
(dp1169
g68
(dp1170
g76
I3
ssg77
g1164
sg70
(lp1171
S''
asbasbasbag63
(g79
g65
NtRp1172
(dp1173
g68
(dp1174
sg77
g1048
sg70
(lp1175
g63
(g84
g65
NtRp1176
(dp1177
g68
(dp1178
g88
g89
ssg77
g1172
sg70
(lp1179
g438
asbag63
(g84
g65
NtRp1180
(dp1181
g68
(dp1182
g95
g96
ssg77
g1172
sg70
(lp1183
S':'
asbag63
(g84
g65
NtRp1184
(dp1185
g68
(dp1186
sg77
g1172
sg70
(lp1187
g63
(g64
g65
NtRp1188
(dp1189
g68
(dp1190
g76
I3
ssg77
g1184
sg70
(lp1191
S''
asbasbasbag63
(g79
g65
NtRp1192
(dp1193
g68
(dp1194
sg77
g1048
sg70
(lp1195
g63
(g84
g65
NtRp1196
(dp1197
g68
(dp1198
g88
g89
ssg77
g1192
sg70
(lp1199
g459
asbag63
(g84
g65
NtRp1200
(dp1201
g68
(dp1202
g95
g96
ssg77
g1192
sg70
(lp1203
S':'
asbag63
(g84
g65
NtRp1204
(dp1205
g68
(dp1206
sg77
g1192
sg70
(lp1207
g63
(g64
g65
NtRp1208
(dp1209
g68
(dp1210
g76
I3
ssg77
g1204
sg70
(lp1211
S''
asbasbasbasbasbasbasbasbasbasbasbag63
(g79
g65
NtRp1212
(dp1213
g68
(dp1214
sg77
g73
sg70
(lp1215
g63
(g84
g65
NtRp1216
(dp1217
g68
(dp1218
g88
g89
ssg77
g1212
sg70
(lp1219
S'env'
p1220
asbag63
(g84
g65
NtRp1221
(dp1222
g68
(dp1223
g95
g96
ssg77
g1212
sg70
(lp1224
S':'
asbag63
(g84
g65
NtRp1225
(dp1226
g68
(dp1227
sg77
g1212
sg70
(lp1228
g63
(g64
g65
NtRp1229
(dp1230
g68
(dp1231
g76
I5
ssg77
g1225
sg70
(lp1232
g63
(g72
g65
NtRp1233
(dp1234
g68
(dp1235
g76
I4
ssg77
Nsg70
(lp1236
g63
(g79
g65
NtRp1237
(dp1238
g68
(dp1239
sg77
g1233
sg70
(lp1240
g63
(g84
g65
NtRp1241
(dp1242
g68
(dp1243
g88
g89
ssg77
g1237
sg70
(lp1244
S'app_folders'
p1245
asbag63
(g84
g65
NtRp1246
(dp1247
g68
(dp1248
g95
g96
ssg77
g1237
sg70
(lp1249
S':'
asbag63
(g84
g65
NtRp1250
(dp1251
g68
(dp1252
sg77
g1237
sg70
(lp1253
g63
(g64
g65
NtRp1254
(dp1255
g68
(dp1256
g76
I4
ssg77
g1250
sg70
(lp1257
S"set(['/home/iscott/web/web2py/applications/grammateus3/', '/home/iscott/web/web2py/applications/admin/', '/home/iscott/web/web2py/applications/welcome/'])"
p1258
asbasbasbag63
(g79
g65
NtRp1259
(dp1260
g68
(dp1261
sg77
g1233
sg70
(lp1262
g63
(g84
g65
NtRp1263
(dp1264
g68
(dp1265
g88
g89
ssg77
g1259
sg70
(lp1266
S'applications_parent'
p1267
asbag63
(g84
g65
NtRp1268
(dp1269
g68
(dp1270
g95
g96
ssg77
g1259
sg70
(lp1271
S':'
asbag63
(g84
g65
NtRp1272
(dp1273
g68
(dp1274
sg77
g1259
sg70
(lp1275
g63
(g64
g65
NtRp1276
(dp1277
g68
(dp1278
g76
I4
ssg77
g1272
sg70
(lp1279
S'/home/iscott/web/web2py'
p1280
asbasbasbag63
(g79
g65
NtRp1281
(dp1282
g68
(dp1283
sg77
g1233
sg70
(lp1284
g63
(g84
g65
NtRp1285
(dp1286
g68
(dp1287
g88
g89
ssg77
g1281
sg70
(lp1288
S'cmd_args'
p1289
asbag63
(g84
g65
NtRp1290
(dp1291
g68
(dp1292
g95
g96
ssg77
g1281
sg70
(lp1293
S':'
asbag63
(g84
g65
NtRp1294
(dp1295
g68
(dp1296
sg77
g1281
sg70
(lp1297
g63
(g64
g65
NtRp1298
(dp1299
g68
(dp1300
g76
I4
ssg77
g1294
sg70
(lp1301
g63
(g72
g65
NtRp1302
(dp1303
g68
(dp1304
g76
I3
ssg77
Nsg70
(lp1305
sbasbasbasbag63
(g79
g65
NtRp1306
(dp1307
g68
(dp1308
sg77
g1233
sg70
(lp1309
g63
(g84
g65
NtRp1310
(dp1311
g68
(dp1312
g88
g89
ssg77
g1306
sg70
(lp1313
S'cmd_options'
p1314
asbag63
(g84
g65
NtRp1315
(dp1316
g68
(dp1317
g95
g96
ssg77
g1306
sg70
(lp1318
S':'
asbag63
(g84
g65
NtRp1319
(dp1320
g68
(dp1321
sg77
g1306
sg70
(lp1322
g63
(g64
g65
NtRp1323
(dp1324
g68
(dp1325
g76
I4
ssg77
g1319
sg70
(lp1326
S"<Values at 0xa5e5b8c: {'verbose': False, 'ip': '127.0.0.1', 'shutdown_timeout': 5, 'taskbar': False, 'nocron': False, 'pid_filename': 'httpserver.pid', 'maxthreads': None, 'softcron': False, 'server_name': 'ubuntu', 'bpython': False, 'nogui': False, 'port': 8000, 'extcron': False, 'debuglevel': 30, 'test': None, 'folder': '/home/iscott/web/web2py', 'config': '', 'import_models': False, 'winservice': '', 'shell': None, 'run': '', 'log_filename': 'httpserver.log', 'args': [''], 'socket_timeout': 1, 'ssl_ca_certificate': None, 'scheduler': None, 'profiler_filename': None, 'ssl_private_key': '', 'password': '<ask>', 'request_queue_size': 5, 'ssl_certificate': '', 'cronjob': False, 'numthreads': None, 'quiet': False, 'interfaces': None, 'minthreads': None, 'timeout': 10, 'plain': False, 'nobanner': False}>"
p1327
asbasbasbag63
(g79
g65
NtRp1328
(dp1329
g68
(dp1330
sg77
g1233
sg70
(lp1331
g63
(g84
g65
NtRp1332
(dp1333
g68
(dp1334
g88
g89
ssg77
g1328
sg70
(lp1335
S'db_sessions'
p1336
asbag63
(g84
g65
NtRp1337
(dp1338
g68
(dp1339
g95
g96
ssg77
g1328
sg70
(lp1340
S':'
asbag63
(g84
g65
NtRp1341
(dp1342
g68
(dp1343
sg77
g1328
sg70
(lp1344
g63
(g64
g65
NtRp1345
(dp1346
g68
(dp1347
g76
I4
ssg77
g1341
sg70
(lp1348
S'set([])'
p1349
asbasbasbag63
(g79
g65
NtRp1350
(dp1351
g68
(dp1352
sg77
g1233
sg70
(lp1353
g63
(g84
g65
NtRp1354
(dp1355
g68
(dp1356
g88
g89
ssg77
g1350
sg70
(lp1357
S'debugging'
p1358
asbag63
(g84
g65
NtRp1359
(dp1360
g68
(dp1361
g95
g96
ssg77
g1350
sg70
(lp1362
S':'
asbag63
(g84
g65
NtRp1363
(dp1364
g68
(dp1365
sg77
g1350
sg70
(lp1366
g63
(g64
g65
NtRp1367
(dp1368
g68
(dp1369
g76
I4
ssg77
g1363
sg70
(lp1370
S'False'
p1371
asbasbasbag63
(g79
g65
NtRp1372
(dp1373
g68
(dp1374
sg77
g1233
sg70
(lp1375
g63
(g84
g65
NtRp1376
(dp1377
g68
(dp1378
g88
g89
ssg77
g1372
sg70
(lp1379
S'gluon_parent'
p1380
asbag63
(g84
g65
NtRp1381
(dp1382
g68
(dp1383
g95
g96
ssg77
g1372
sg70
(lp1384
S':'
asbag63
(g84
g65
NtRp1385
(dp1386
g68
(dp1387
sg77
g1372
sg70
(lp1388
g63
(g64
g65
NtRp1389
(dp1390
g68
(dp1391
g76
I4
ssg77
g1385
sg70
(lp1392
S'/home/iscott/web/web2py'
p1393
asbasbasbag63
(g79
g65
NtRp1394
(dp1395
g68
(dp1396
sg77
g1233
sg70
(lp1397
g63
(g84
g65
NtRp1398
(dp1399
g68
(dp1400
g88
g89
ssg77
g1394
sg70
(lp1401
S'http_accept'
p1402
asbag63
(g84
g65
NtRp1403
(dp1404
g68
(dp1405
g95
g96
ssg77
g1394
sg70
(lp1406
S':'
asbag63
(g84
g65
NtRp1407
(dp1408
g68
(dp1409
sg77
g1394
sg70
(lp1410
g63
(g64
g65
NtRp1411
(dp1412
g68
(dp1413
g76
I4
ssg77
g1407
sg70
(lp1414
S'*/*'
p1415
asbasbasbag63
(g79
g65
NtRp1416
(dp1417
g68
(dp1418
sg77
g1233
sg70
(lp1419
g63
(g84
g65
NtRp1420
(dp1421
g68
(dp1422
g88
g89
ssg77
g1416
sg70
(lp1423
S'http_accept_encoding'
p1424
asbag63
(g84
g65
NtRp1425
(dp1426
g68
(dp1427
g95
g96
ssg77
g1416
sg70
(lp1428
S':'
asbag63
(g84
g65
NtRp1429
(dp1430
g68
(dp1431
sg77
g1416
sg70
(lp1432
g63
(g64
g65
NtRp1433
(dp1434
g68
(dp1435
g76
I4
ssg77
g1429
sg70
(lp1436
S'gzip, deflate'
p1437
asbasbasbag63
(g79
g65
NtRp1438
(dp1439
g68
(dp1440
sg77
g1233
sg70
(lp1441
g63
(g84
g65
NtRp1442
(dp1443
g68
(dp1444
g88
g89
ssg77
g1438
sg70
(lp1445
S'http_accept_language'
p1446
asbag63
(g84
g65
NtRp1447
(dp1448
g68
(dp1449
g95
g96
ssg77
g1438
sg70
(lp1450
S':'
asbag63
(g84
g65
NtRp1451
(dp1452
g68
(dp1453
sg77
g1438
sg70
(lp1454
g63
(g64
g65
NtRp1455
(dp1456
g68
(dp1457
g76
I4
ssg77
g1451
sg70
(lp1458
S'en-us,en;q=0.5'
p1459
asbasbasbag63
(g79
g65
NtRp1460
(dp1461
g68
(dp1462
sg77
g1233
sg70
(lp1463
g63
(g84
g65
NtRp1464
(dp1465
g68
(dp1466
g88
g89
ssg77
g1460
sg70
(lp1467
S'http_connection'
p1468
asbag63
(g84
g65
NtRp1469
(dp1470
g68
(dp1471
g95
g96
ssg77
g1460
sg70
(lp1472
S':'
asbag63
(g84
g65
NtRp1473
(dp1474
g68
(dp1475
sg77
g1460
sg70
(lp1476
g63
(g64
g65
NtRp1477
(dp1478
g68
(dp1479
g76
I4
ssg77
g1473
sg70
(lp1480
S'keep-alive'
p1481
asbasbasbag63
(g79
g65
NtRp1482
(dp1483
g68
(dp1484
sg77
g1233
sg70
(lp1485
g63
(g84
g65
NtRp1486
(dp1487
g68
(dp1488
g88
g89
ssg77
g1482
sg70
(lp1489
S'http_cookie'
p1490
asbag63
(g84
g65
NtRp1491
(dp1492
g68
(dp1493
g95
g96
ssg77
g1482
sg70
(lp1494
S':'
asbag63
(g84
g65
NtRp1495
(dp1496
g68
(dp1497
sg77
g1482
sg70
(lp1498
g63
(g64
g65
NtRp1499
(dp1500
g68
(dp1501
g76
I4
ssg77
g1495
sg70
(lp1502
S'session_id_paideia=127.0.0.1-2edda130-d654-4b0f-a819-06652e443aa6; session_id_bloglet=127.0.0.1-e84b0934-9abc-4375-99c8-24980b610007; session_id_welcome=127.0.0.1-875183c3-33d3-41d0-8035-815b0ac6dec9; session_id_admin=127.0.0.1-ba0d1e5a-4433-48b1-9d72-e06601a8648a; session_id_grammateus3=127.0.0.1-03d15d8e-e891-4307-a6bf-5717208181cd'
p1503
asbasbasbag63
(g79
g65
NtRp1504
(dp1505
g68
(dp1506
sg77
g1233
sg70
(lp1507
g63
(g84
g65
NtRp1508
(dp1509
g68
(dp1510
g88
g89
ssg77
g1504
sg70
(lp1511
S'http_host'
p1512
asbag63
(g84
g65
NtRp1513
(dp1514
g68
(dp1515
g95
g96
ssg77
g1504
sg70
(lp1516
S':'
asbag63
(g84
g65
NtRp1517
(dp1518
g68
(dp1519
sg77
g1504
sg70
(lp1520
g63
(g64
g65
NtRp1521
(dp1522
g68
(dp1523
g76
I4
ssg77
g1517
sg70
(lp1524
S'127.0.0.1:8000'
p1525
asbasbasbag63
(g79
g65
NtRp1526
(dp1527
g68
(dp1528
sg77
g1233
sg70
(lp1529
g63
(g84
g65
NtRp1530
(dp1531
g68
(dp1532
g88
g89
ssg77
g1526
sg70
(lp1533
S'http_referer'
p1534
asbag63
(g84
g65
NtRp1535
(dp1536
g68
(dp1537
g95
g96
ssg77
g1526
sg70
(lp1538
S':'
asbag63
(g84
g65
NtRp1539
(dp1540
g68
(dp1541
sg77
g1526
sg70
(lp1542
g63
(g64
g65
NtRp1543
(dp1544
g68
(dp1545
g76
I4
ssg77
g1539
sg70
(lp1546
S'http://127.0.0.1:8000/grammateus3/docs/text/1En'
p1547
asbasbasbag63
(g79
g65
NtRp1548
(dp1549
g68
(dp1550
sg77
g1233
sg70
(lp1551
g63
(g84
g65
NtRp1552
(dp1553
g68
(dp1554
g88
g89
ssg77
g1548
sg70
(lp1555
S'http_user_agent'
p1556
asbag63
(g84
g65
NtRp1557
(dp1558
g68
(dp1559
g95
g96
ssg77
g1548
sg70
(lp1560
S':'
asbag63
(g84
g65
NtRp1561
(dp1562
g68
(dp1563
sg77
g1548
sg70
(lp1564
g63
(g64
g65
NtRp1565
(dp1566
g68
(dp1567
g76
I4
ssg77
g1561
sg70
(lp1568
S'Mozilla/5.0 (X11; Ubuntu; Linux i686; rv:10.0.2) Gecko/20100101 Firefox/10.0.2'
p1569
asbasbasbag63
(g79
g65
NtRp1570
(dp1571
g68
(dp1572
sg77
g1233
sg70
(lp1573
g63
(g84
g65
NtRp1574
(dp1575
g68
(dp1576
g88
g89
ssg77
g1570
sg70
(lp1577
S'http_web2py_component_element'
p1578
asbag63
(g84
g65
NtRp1579
(dp1580
g68
(dp1581
g95
g96
ssg77
g1570
sg70
(lp1582
S':'
asbag63
(g84
g65
NtRp1583
(dp1584
g68
(dp1585
sg77
g1570
sg70
(lp1586
g63
(g64
g65
NtRp1587
(dp1588
g68
(dp1589
g76
I4
ssg77
g1583
sg70
(lp1590
g209
asbasbasbag63
(g79
g65
NtRp1591
(dp1592
g68
(dp1593
sg77
g1233
sg70
(lp1594
g63
(g84
g65
NtRp1595
(dp1596
g68
(dp1597
g88
g89
ssg77
g1591
sg70
(lp1598
S'http_web2py_component_location'
p1599
asbag63
(g84
g65
NtRp1600
(dp1601
g68
(dp1602
g95
g96
ssg77
g1591
sg70
(lp1603
S':'
asbag63
(g84
g65
NtRp1604
(dp1605
g68
(dp1606
sg77
g1591
sg70
(lp1607
g63
(g64
g65
NtRp1608
(dp1609
g68
(dp1610
g76
I4
ssg77
g1604
sg70
(lp1611
S'http://127.0.0.1:8000/grammateus3/docs/text/1En'
p1612
asbasbasbag63
(g79
g65
NtRp1613
(dp1614
g68
(dp1615
sg77
g1233
sg70
(lp1616
g63
(g84
g65
NtRp1617
(dp1618
g68
(dp1619
g88
g89
ssg77
g1613
sg70
(lp1620
S'http_x_requested_with'
p1621
asbag63
(g84
g65
NtRp1622
(dp1623
g68
(dp1624
g95
g96
ssg77
g1613
sg70
(lp1625
S':'
asbag63
(g84
g65
NtRp1626
(dp1627
g68
(dp1628
sg77
g1613
sg70
(lp1629
g63
(g64
g65
NtRp1630
(dp1631
g68
(dp1632
g76
I4
ssg77
g1626
sg70
(lp1633
S'XMLHttpRequest'
p1634
asbasbasbag63
(g79
g65
NtRp1635
(dp1636
g68
(dp1637
sg77
g1233
sg70
(lp1638
g63
(g84
g65
NtRp1639
(dp1640
g68
(dp1641
g88
g89
ssg77
g1635
sg70
(lp1642
S'is_jython'
p1643
asbag63
(g84
g65
NtRp1644
(dp1645
g68
(dp1646
g95
g96
ssg77
g1635
sg70
(lp1647
S':'
asbag63
(g84
g65
NtRp1648
(dp1649
g68
(dp1650
sg77
g1635
sg70
(lp1651
g63
(g64
g65
NtRp1652
(dp1653
g68
(dp1654
g76
I4
ssg77
g1648
sg70
(lp1655
g1371
asbasbasbag63
(g79
g65
NtRp1656
(dp1657
g68
(dp1658
sg77
g1233
sg70
(lp1659
g63
(g84
g65
NtRp1660
(dp1661
g68
(dp1662
g88
g89
ssg77
g1656
sg70
(lp1663
S'is_pypy'
p1664
asbag63
(g84
g65
NtRp1665
(dp1666
g68
(dp1667
g95
g96
ssg77
g1656
sg70
(lp1668
S':'
asbag63
(g84
g65
NtRp1669
(dp1670
g68
(dp1671
sg77
g1656
sg70
(lp1672
g63
(g64
g65
NtRp1673
(dp1674
g68
(dp1675
g76
I4
ssg77
g1669
sg70
(lp1676
g1371
asbasbasbag63
(g79
g65
NtRp1677
(dp1678
g68
(dp1679
sg77
g1233
sg70
(lp1680
g63
(g84
g65
NtRp1681
(dp1682
g68
(dp1683
g88
g89
ssg77
g1677
sg70
(lp1684
S'path_info'
p1685
asbag63
(g84
g65
NtRp1686
(dp1687
g68
(dp1688
g95
g96
ssg77
g1677
sg70
(lp1689
S':'
asbag63
(g84
g65
NtRp1690
(dp1691
g68
(dp1692
sg77
g1677
sg70
(lp1693
g63
(g64
g65
NtRp1694
(dp1695
g68
(dp1696
g76
I4
ssg77
g1690
sg70
(lp1697
S'/grammateus3/docs/section.load/grammateus3'
p1698
asbasbasbag63
(g79
g65
NtRp1699
(dp1700
g68
(dp1701
sg77
g1233
sg70
(lp1702
g63
(g84
g65
NtRp1703
(dp1704
g68
(dp1705
g88
g89
ssg77
g1699
sg70
(lp1706
S'query_string'
p1707
asbag63
(g84
g65
NtRp1708
(dp1709
g68
(dp1710
g95
g96
ssg77
g1699
sg70
(lp1711
S':'
asbag63
(g84
g65
NtRp1712
(dp1713
g68
(dp1714
sg77
g1699
sg70
(lp1715
g63
(g64
g65
NtRp1716
(dp1717
g68
(dp1718
g76
I4
ssg77
g1712
sg70
(lp1719
S''
asbasbasbag63
(g79
g65
NtRp1720
(dp1721
g68
(dp1722
sg77
g1233
sg70
(lp1723
g63
(g84
g65
NtRp1724
(dp1725
g68
(dp1726
g88
g89
ssg77
g1720
sg70
(lp1727
S'remote_addr'
p1728
asbag63
(g84
g65
NtRp1729
(dp1730
g68
(dp1731
g95
g96
ssg77
g1720
sg70
(lp1732
S':'
asbag63
(g84
g65
NtRp1733
(dp1734
g68
(dp1735
sg77
g1720
sg70
(lp1736
g63
(g64
g65
NtRp1737
(dp1738
g68
(dp1739
g76
I4
ssg77
g1733
sg70
(lp1740
g231
asbasbasbag63
(g79
g65
NtRp1741
(dp1742
g68
(dp1743
sg77
g1233
sg70
(lp1744
g63
(g84
g65
NtRp1745
(dp1746
g68
(dp1747
g88
g89
ssg77
g1741
sg70
(lp1748
S'remote_port'
p1749
asbag63
(g84
g65
NtRp1750
(dp1751
g68
(dp1752
g95
g96
ssg77
g1741
sg70
(lp1753
S':'
asbag63
(g84
g65
NtRp1754
(dp1755
g68
(dp1756
sg77
g1741
sg70
(lp1757
g63
(g64
g65
NtRp1758
(dp1759
g68
(dp1760
g76
I4
ssg77
g1754
sg70
(lp1761
S'41437'
p1762
asbasbasbag63
(g79
g65
NtRp1763
(dp1764
g68
(dp1765
sg77
g1233
sg70
(lp1766
g63
(g84
g65
NtRp1767
(dp1768
g68
(dp1769
g88
g89
ssg77
g1763
sg70
(lp1770
S'request_method'
p1771
asbag63
(g84
g65
NtRp1772
(dp1773
g68
(dp1774
g95
g96
ssg77
g1763
sg70
(lp1775
S':'
asbag63
(g84
g65
NtRp1776
(dp1777
g68
(dp1778
sg77
g1763
sg70
(lp1779
g63
(g64
g65
NtRp1780
(dp1781
g68
(dp1782
g76
I4
ssg77
g1776
sg70
(lp1783
S'GET'
p1784
asbasbasbag63
(g79
g65
NtRp1785
(dp1786
g68
(dp1787
sg77
g1233
sg70
(lp1788
g63
(g84
g65
NtRp1789
(dp1790
g68
(dp1791
g88
g89
ssg77
g1785
sg70
(lp1792
S'script_name'
p1793
asbag63
(g84
g65
NtRp1794
(dp1795
g68
(dp1796
g95
g96
ssg77
g1785
sg70
(lp1797
S':'
asbag63
(g84
g65
NtRp1798
(dp1799
g68
(dp1800
sg77
g1785
sg70
(lp1801
g63
(g64
g65
NtRp1802
(dp1803
g68
(dp1804
g76
I4
ssg77
g1798
sg70
(lp1805
S''
asbasbasbag63
(g79
g65
NtRp1806
(dp1807
g68
(dp1808
sg77
g1233
sg70
(lp1809
g63
(g84
g65
NtRp1810
(dp1811
g68
(dp1812
g88
g89
ssg77
g1806
sg70
(lp1813
S'server_name'
p1814
asbag63
(g84
g65
NtRp1815
(dp1816
g68
(dp1817
g95
g96
ssg77
g1806
sg70
(lp1818
S':'
asbag63
(g84
g65
NtRp1819
(dp1820
g68
(dp1821
sg77
g1806
sg70
(lp1822
g63
(g64
g65
NtRp1823
(dp1824
g68
(dp1825
g76
I4
ssg77
g1819
sg70
(lp1826
S'ubuntu'
p1827
asbasbasbag63
(g79
g65
NtRp1828
(dp1829
g68
(dp1830
sg77
g1233
sg70
(lp1831
g63
(g84
g65
NtRp1832
(dp1833
g68
(dp1834
g88
g89
ssg77
g1828
sg70
(lp1835
S'server_port'
p1836
asbag63
(g84
g65
NtRp1837
(dp1838
g68
(dp1839
g95
g96
ssg77
g1828
sg70
(lp1840
S':'
asbag63
(g84
g65
NtRp1841
(dp1842
g68
(dp1843
sg77
g1828
sg70
(lp1844
g63
(g64
g65
NtRp1845
(dp1846
g68
(dp1847
g76
I4
ssg77
g1841
sg70
(lp1848
S'8000'
p1849
asbasbasbag63
(g79
g65
NtRp1850
(dp1851
g68
(dp1852
sg77
g1233
sg70
(lp1853
g63
(g84
g65
NtRp1854
(dp1855
g68
(dp1856
g88
g89
ssg77
g1850
sg70
(lp1857
S'server_protocol'
p1858
asbag63
(g84
g65
NtRp1859
(dp1860
g68
(dp1861
g95
g96
ssg77
g1850
sg70
(lp1862
S':'
asbag63
(g84
g65
NtRp1863
(dp1864
g68
(dp1865
sg77
g1850
sg70
(lp1866
g63
(g64
g65
NtRp1867
(dp1868
g68
(dp1869
g76
I4
ssg77
g1863
sg70
(lp1870
S'HTTP/1.1'
p1871
asbasbasbag63
(g79
g65
NtRp1872
(dp1873
g68
(dp1874
sg77
g1233
sg70
(lp1875
g63
(g84
g65
NtRp1876
(dp1877
g68
(dp1878
g88
g89
ssg77
g1872
sg70
(lp1879
S'server_software'
p1880
asbag63
(g84
g65
NtRp1881
(dp1882
g68
(dp1883
g95
g96
ssg77
g1872
sg70
(lp1884
S':'
asbag63
(g84
g65
NtRp1885
(dp1886
g68
(dp1887
sg77
g1872
sg70
(lp1888
g63
(g64
g65
NtRp1889
(dp1890
g68
(dp1891
g76
I4
ssg77
g1885
sg70
(lp1892
S'Rocket 1.2.4'
p1893
asbasbasbag63
(g79
g65
NtRp1894
(dp1895
g68
(dp1896
sg77
g1233
sg70
(lp1897
g63
(g84
g65
NtRp1898
(dp1899
g68
(dp1900
g88
g89
ssg77
g1894
sg70
(lp1901
S'web2py_crontype'
p1902
asbag63
(g84
g65
NtRp1903
(dp1904
g68
(dp1905
g95
g96
ssg77
g1894
sg70
(lp1906
S':'
asbag63
(g84
g65
NtRp1907
(dp1908
g68
(dp1909
sg77
g1894
sg70
(lp1910
g63
(g64
g65
NtRp1911
(dp1912
g68
(dp1913
g76
I4
ssg77
g1907
sg70
(lp1914
S'hard'
p1915
asbasbasbag63
(g79
g65
NtRp1916
(dp1917
g68
(dp1918
sg77
g1233
sg70
(lp1919
g63
(g84
g65
NtRp1920
(dp1921
g68
(dp1922
g88
g89
ssg77
g1916
sg70
(lp1923
S'web2py_path'
p1924
asbag63
(g84
g65
NtRp1925
(dp1926
g68
(dp1927
g95
g96
ssg77
g1916
sg70
(lp1928
S':'
asbag63
(g84
g65
NtRp1929
(dp1930
g68
(dp1931
sg77
g1916
sg70
(lp1932
g63
(g64
g65
NtRp1933
(dp1934
g68
(dp1935
g76
I4
ssg77
g1929
sg70
(lp1936
g1280
asbasbasbag63
(g79
g65
NtRp1937
(dp1938
g68
(dp1939
sg77
g1233
sg70
(lp1940
g63
(g84
g65
NtRp1941
(dp1942
g68
(dp1943
g88
g89
ssg77
g1937
sg70
(lp1944
S'web2py_version'
p1945
asbag63
(g84
g65
NtRp1946
(dp1947
g68
(dp1948
g95
g96
ssg77
g1937
sg70
(lp1949
S':'
asbag63
(g84
g65
NtRp1950
(dp1951
g68
(dp1952
sg77
g1937
sg70
(lp1953
g63
(g64
g65
NtRp1954
(dp1955
g68
(dp1956
g76
I4
ssg77
g1950
sg70
(lp1957
g63
(g72
g65
NtRp1958
(dp1959
g68
(dp1960
g76
I3
ssg77
Nsg70
(lp1961
g63
(g79
g65
NtRp1962
(dp1963
g68
(dp1964
sg77
g1958
sg70
(lp1965
g63
(g84
g65
NtRp1966
(dp1967
g68
(dp1968
sg77
g1962
sg70
(lp1969
g63
(g64
g65
NtRp1970
(dp1971
g68
(dp1972
g76
I3
ssg77
g1966
sg70
(lp1973
S'1'
asbasbasbag63
(g79
g65
NtRp1974
(dp1975
g68
(dp1976
sg77
g1958
sg70
(lp1977
g63
(g84
g65
NtRp1978
(dp1979
g68
(dp1980
sg77
g1974
sg70
(lp1981
g63
(g64
g65
NtRp1982
(dp1983
g68
(dp1984
g76
I3
ssg77
g1978
sg70
(lp1985
S'99'
p1986
asbasbasbag63
(g79
g65
NtRp1987
(dp1988
g68
(dp1989
sg77
g1958
sg70
(lp1990
g63
(g84
g65
NtRp1991
(dp1992
g68
(dp1993
sg77
g1987
sg70
(lp1994
g63
(g64
g65
NtRp1995
(dp1996
g68
(dp1997
g76
I3
ssg77
g1991
sg70
(lp1998
S'4'
asbasbasbag63
(g79
g65
NtRp1999
(dp2000
g68
(dp2001
sg77
g1958
sg70
(lp2002
g63
(g84
g65
NtRp2003
(dp2004
g68
(dp2005
sg77
g1999
sg70
(lp2006
g63
(g64
g65
NtRp2007
(dp2008
g68
(dp2009
g76
I3
ssg77
g2003
sg70
(lp2010
S'datetime.datetime(2011, 12, 14, 14, 46, 14)'
p2011
asbasbasbag63
(g79
g65
NtRp2012
(dp2013
g68
(dp2014
sg77
g1958
sg70
(lp2015
g63
(g84
g65
NtRp2016
(dp2017
g68
(dp2018
sg77
g2012
sg70
(lp2019
g63
(g64
g65
NtRp2020
(dp2021
g68
(dp2022
g76
I3
ssg77
g2016
sg70
(lp2023
S'stable'
p2024
asbasbasbasbasbasbasbag63
(g79
g65
NtRp2025
(dp2026
g68
(dp2027
sg77
g1233
sg70
(lp2028
g63
(g84
g65
NtRp2029
(dp2030
g68
(dp2031
g88
g89
ssg77
g2025
sg70
(lp2032
S'wsgi_errors'
p2033
asbag63
(g84
g65
NtRp2034
(dp2035
g68
(dp2036
g95
g96
ssg77
g2025
sg70
(lp2037
S':'
asbag63
(g84
g65
NtRp2038
(dp2039
g68
(dp2040
sg77
g2025
sg70
(lp2041
g63
(g64
g65
NtRp2042
(dp2043
g68
(dp2044
g76
I4
ssg77
g2038
sg70
(lp2045
S"<open file '<stderr>', mode 'w' at 0xb777d0d0>"
p2046
asbasbasbag63
(g79
g65
NtRp2047
(dp2048
g68
(dp2049
sg77
g1233
sg70
(lp2050
g63
(g84
g65
NtRp2051
(dp2052
g68
(dp2053
g88
g89
ssg77
g2047
sg70
(lp2054
S'wsgi_file_wrapper'
p2055
asbag63
(g84
g65
NtRp2056
(dp2057
g68
(dp2058
g95
g96
ssg77
g2047
sg70
(lp2059
S':'
asbag63
(g84
g65
NtRp2060
(dp2061
g68
(dp2062
sg77
g2047
sg70
(lp2063
g63
(g64
g65
NtRp2064
(dp2065
g68
(dp2066
g76
I4
ssg77
g2060
sg70
(lp2067
S'<class wsgiref.util.FileWrapper at 0xa52e20c>'
p2068
asbasbasbag63
(g79
g65
NtRp2069
(dp2070
g68
(dp2071
sg77
g1233
sg70
(lp2072
g63
(g84
g65
NtRp2073
(dp2074
g68
(dp2075
g88
g89
ssg77
g2069
sg70
(lp2076
S'wsgi_input'
p2077
asbag63
(g84
g65
NtRp2078
(dp2079
g68
(dp2080
g95
g96
ssg77
g2069
sg70
(lp2081
S':'
asbag63
(g84
g65
NtRp2082
(dp2083
g68
(dp2084
sg77
g2069
sg70
(lp2085
g63
(g64
g65
NtRp2086
(dp2087
g68
(dp2088
g76
I4
ssg77
g2082
sg70
(lp2089
S'<socket._fileobject object at 0xb0685ec>'
p2090
asbasbasbag63
(g79
g65
NtRp2091
(dp2092
g68
(dp2093
sg77
g1233
sg70
(lp2094
g63
(g84
g65
NtRp2095
(dp2096
g68
(dp2097
g88
g89
ssg77
g2091
sg70
(lp2098
S'wsgi_multiprocess'
p2099
asbag63
(g84
g65
NtRp2100
(dp2101
g68
(dp2102
g95
g96
ssg77
g2091
sg70
(lp2103
S':'
asbag63
(g84
g65
NtRp2104
(dp2105
g68
(dp2106
sg77
g2091
sg70
(lp2107
g63
(g64
g65
NtRp2108
(dp2109
g68
(dp2110
g76
I4
ssg77
g2104
sg70
(lp2111
g1371
asbasbasbag63
(g79
g65
NtRp2112
(dp2113
g68
(dp2114
sg77
g1233
sg70
(lp2115
g63
(g84
g65
NtRp2116
(dp2117
g68
(dp2118
g88
g89
ssg77
g2112
sg70
(lp2119
S'wsgi_multithread'
p2120
asbag63
(g84
g65
NtRp2121
(dp2122
g68
(dp2123
g95
g96
ssg77
g2112
sg70
(lp2124
S':'
asbag63
(g84
g65
NtRp2125
(dp2126
g68
(dp2127
sg77
g2112
sg70
(lp2128
g63
(g64
g65
NtRp2129
(dp2130
g68
(dp2131
g76
I4
ssg77
g2125
sg70
(lp2132
g106
asbasbasbag63
(g79
g65
NtRp2133
(dp2134
g68
(dp2135
sg77
g1233
sg70
(lp2136
g63
(g84
g65
NtRp2137
(dp2138
g68
(dp2139
g88
g89
ssg77
g2133
sg70
(lp2140
S'wsgi_run_once'
p2141
asbag63
(g84
g65
NtRp2142
(dp2143
g68
(dp2144
g95
g96
ssg77
g2133
sg70
(lp2145
S':'
asbag63
(g84
g65
NtRp2146
(dp2147
g68
(dp2148
sg77
g2133
sg70
(lp2149
g63
(g64
g65
NtRp2150
(dp2151
g68
(dp2152
g76
I4
ssg77
g2146
sg70
(lp2153
g1371
asbasbasbag63
(g79
g65
NtRp2154
(dp2155
g68
(dp2156
sg77
g1233
sg70
(lp2157
g63
(g84
g65
NtRp2158
(dp2159
g68
(dp2160
g88
g89
ssg77
g2154
sg70
(lp2161
S'wsgi_url_scheme'
p2162
asbag63
(g84
g65
NtRp2163
(dp2164
g68
(dp2165
g95
g96
ssg77
g2154
sg70
(lp2166
S':'
asbag63
(g84
g65
NtRp2167
(dp2168
g68
(dp2169
sg77
g2154
sg70
(lp2170
g63
(g64
g65
NtRp2171
(dp2172
g68
(dp2173
g76
I4
ssg77
g2167
sg70
(lp2174
S'http'
p2175
asbasbasbag63
(g79
g65
NtRp2176
(dp2177
g68
(dp2178
sg77
g1233
sg70
(lp2179
g63
(g84
g65
NtRp2180
(dp2181
g68
(dp2182
g88
g89
ssg77
g2176
sg70
(lp2183
S'wsgi_version'
p2184
asbag63
(g84
g65
NtRp2185
(dp2186
g68
(dp2187
g95
g96
ssg77
g2176
sg70
(lp2188
S':'
asbag63
(g84
g65
NtRp2189
(dp2190
g68
(dp2191
sg77
g2176
sg70
(lp2192
g63
(g64
g65
NtRp2193
(dp2194
g68
(dp2195
g76
I4
ssg77
g2189
sg70
(lp2196
g63
(g72
g65
NtRp2197
(dp2198
g68
(dp2199
g76
I3
ssg77
Nsg70
(lp2200
g63
(g79
g65
NtRp2201
(dp2202
g68
(dp2203
sg77
g2197
sg70
(lp2204
g63
(g84
g65
NtRp2205
(dp2206
g68
(dp2207
sg77
g2201
sg70
(lp2208
g63
(g64
g65
NtRp2209
(dp2210
g68
(dp2211
g76
I3
ssg77
g2205
sg70
(lp2212
S'1'
asbasbasbag63
(g79
g65
NtRp2213
(dp2214
g68
(dp2215
sg77
g2197
sg70
(lp2216
g63
(g84
g65
NtRp2217
(dp2218
g68
(dp2219
sg77
g2213
sg70
(lp2220
g63
(g64
g65
NtRp2221
(dp2222
g68
(dp2223
g76
I3
ssg77
g2217
sg70
(lp2224
S'0'
asbasbasbasbasbasbasbasbasbasbasbag63
(g79
g65
NtRp2225
(dp2226
g68
(dp2227
sg77
g73
sg70
(lp2228
g63
(g84
g65
NtRp2229
(dp2230
g68
(dp2231
g88
g89
ssg77
g2225
sg70
(lp2232
S'extension'
p2233
asbag63
(g84
g65
NtRp2234
(dp2235
g68
(dp2236
g95
g96
ssg77
g2225
sg70
(lp2237
S':'
asbag63
(g84
g65
NtRp2238
(dp2239
g68
(dp2240
sg77
g2225
sg70
(lp2241
g63
(g64
g65
NtRp2242
(dp2243
g68
(dp2244
g76
I5
ssg77
g2238
sg70
(lp2245
S'load'
p2246
asbasbasbag63
(g79
g65
NtRp2247
(dp2248
g68
(dp2249
sg77
g73
sg70
(lp2250
g63
(g84
g65
NtRp2251
(dp2252
g68
(dp2253
g88
g89
ssg77
g2247
sg70
(lp2254
S'folder'
p2255
asbag63
(g84
g65
NtRp2256
(dp2257
g68
(dp2258
g95
g96
ssg77
g2247
sg70
(lp2259
S':'
asbag63
(g84
g65
NtRp2260
(dp2261
g68
(dp2262
sg77
g2247
sg70
(lp2263
g63
(g64
g65
NtRp2264
(dp2265
g68
(dp2266
g76
I5
ssg77
g2260
sg70
(lp2267
S'/home/iscott/web/web2py/applications/grammateus3/'
p2268
asbasbasbag63
(g79
g65
NtRp2269
(dp2270
g68
(dp2271
sg77
g73
sg70
(lp2272
g63
(g84
g65
NtRp2273
(dp2274
g68
(dp2275
g88
g89
ssg77
g2269
sg70
(lp2276
S'function'
p2277
asbag63
(g84
g65
NtRp2278
(dp2279
g68
(dp2280
g95
g96
ssg77
g2269
sg70
(lp2281
S':'
asbag63
(g84
g65
NtRp2282
(dp2283
g68
(dp2284
sg77
g2269
sg70
(lp2285
g63
(g64
g65
NtRp2286
(dp2287
g68
(dp2288
g76
I5
ssg77
g2282
sg70
(lp2289
S'section'
p2290
asbasbasbag63
(g79
g65
NtRp2291
(dp2292
g68
(dp2293
sg77
g73
sg70
(lp2294
g63
(g84
g65
NtRp2295
(dp2296
g68
(dp2297
g88
g89
ssg77
g2291
sg70
(lp2298
S'get_vars'
p2299
asbag63
(g84
g65
NtRp2300
(dp2301
g68
(dp2302
g95
g96
ssg77
g2291
sg70
(lp2303
S':'
asbag63
(g84
g65
NtRp2304
(dp2305
g68
(dp2306
sg77
g2291
sg70
(lp2307
g63
(g64
g65
NtRp2308
(dp2309
g68
(dp2310
g76
I5
ssg77
g2304
sg70
(lp2311
g63
(g72
g65
NtRp2312
(dp2313
g68
(dp2314
g76
I4
ssg77
Nsg70
(lp2315
sbasbasbasbag63
(g79
g65
NtRp2316
(dp2317
g68
(dp2318
sg77
g73
sg70
(lp2319
g63
(g84
g65
NtRp2320
(dp2321
g68
(dp2322
g88
g89
ssg77
g2316
sg70
(lp2323
S'global_settings'
p2324
asbag63
(g84
g65
NtRp2325
(dp2326
g68
(dp2327
g95
g96
ssg77
g2316
sg70
(lp2328
S':'
asbag63
(g84
g65
NtRp2329
(dp2330
g68
(dp2331
sg77
g2316
sg70
(lp2332
g63
(g64
g65
NtRp2333
(dp2334
g68
(dp2335
g76
I5
ssg77
g2329
sg70
(lp2336
g63
(g72
g65
NtRp2337
(dp2338
g68
(dp2339
g76
I4
ssg77
Nsg70
(lp2340
g63
(g79
g65
NtRp2341
(dp2342
g68
(dp2343
sg77
g2337
sg70
(lp2344
g63
(g84
g65
NtRp2345
(dp2346
g68
(dp2347
g88
g89
ssg77
g2341
sg70
(lp2348
g1245
asbag63
(g84
g65
NtRp2349
(dp2350
g68
(dp2351
g95
g96
ssg77
g2341
sg70
(lp2352
S':'
asbag63
(g84
g65
NtRp2353
(dp2354
g68
(dp2355
sg77
g2341
sg70
(lp2356
g63
(g64
g65
NtRp2357
(dp2358
g68
(dp2359
g76
I4
ssg77
g2353
sg70
(lp2360
S"set(['/home/iscott/web/web2py/applications/grammateus3/', '/home/iscott/web/web2py/applications/admin/', '/home/iscott/web/web2py/applications/welcome/'])"
p2361
asbasbasbag63
(g79
g65
NtRp2362
(dp2363
g68
(dp2364
sg77
g2337
sg70
(lp2365
g63
(g84
g65
NtRp2366
(dp2367
g68
(dp2368
g88
g89
ssg77
g2362
sg70
(lp2369
g1267
asbag63
(g84
g65
NtRp2370
(dp2371
g68
(dp2372
g95
g96
ssg77
g2362
sg70
(lp2373
S':'
asbag63
(g84
g65
NtRp2374
(dp2375
g68
(dp2376
sg77
g2362
sg70
(lp2377
g63
(g64
g65
NtRp2378
(dp2379
g68
(dp2380
g76
I4
ssg77
g2374
sg70
(lp2381
g1280
asbasbasbag63
(g79
g65
NtRp2382
(dp2383
g68
(dp2384
sg77
g2337
sg70
(lp2385
g63
(g84
g65
NtRp2386
(dp2387
g68
(dp2388
g88
g89
ssg77
g2382
sg70
(lp2389
g1289
asbag63
(g84
g65
NtRp2390
(dp2391
g68
(dp2392
g95
g96
ssg77
g2382
sg70
(lp2393
S':'
asbag63
(g84
g65
NtRp2394
(dp2395
g68
(dp2396
sg77
g2382
sg70
(lp2397
g63
(g64
g65
NtRp2398
(dp2399
g68
(dp2400
g76
I4
ssg77
g2394
sg70
(lp2401
g63
(g72
g65
NtRp2402
(dp2403
g68
(dp2404
g76
I3
ssg77
Nsg70
(lp2405
sbasbasbasbag63
(g79
g65
NtRp2406
(dp2407
g68
(dp2408
sg77
g2337
sg70
(lp2409
g63
(g84
g65
NtRp2410
(dp2411
g68
(dp2412
g88
g89
ssg77
g2406
sg70
(lp2413
g1314
asbag63
(g84
g65
NtRp2414
(dp2415
g68
(dp2416
g95
g96
ssg77
g2406
sg70
(lp2417
S':'
asbag63
(g84
g65
NtRp2418
(dp2419
g68
(dp2420
sg77
g2406
sg70
(lp2421
g63
(g64
g65
NtRp2422
(dp2423
g68
(dp2424
g76
I4
ssg77
g2418
sg70
(lp2425
S"<Values at 0xa5e5b8c: {'verbose': False, 'ip': '127.0.0.1', 'shutdown_timeout': 5, 'taskbar': False, 'nocron': False, 'pid_filename': 'httpserver.pid', 'maxthreads': None, 'softcron': False, 'server_name': 'ubuntu', 'bpython': False, 'nogui': False, 'port': 8000, 'extcron': False, 'debuglevel': 30, 'test': None, 'folder': '/home/iscott/web/web2py', 'config': '', 'import_models': False, 'winservice': '', 'shell': None, 'run': '', 'log_filename': 'httpserver.log', 'args': [''], 'socket_timeout': 1, 'ssl_ca_certificate': None, 'scheduler': None, 'profiler_filename': None, 'ssl_private_key': '', 'password': '<ask>', 'request_queue_size': 5, 'ssl_certificate': '', 'cronjob': False, 'numthreads': None, 'quiet': False, 'interfaces': None, 'minthreads': None, 'timeout': 10, 'plain': False, 'nobanner': False}>"
p2426
asbasbasbag63
(g79
g65
NtRp2427
(dp2428
g68
(dp2429
sg77
g2337
sg70
(lp2430
g63
(g84
g65
NtRp2431
(dp2432
g68
(dp2433
g88
g89
ssg77
g2427
sg70
(lp2434
g1336
asbag63
(g84
g65
NtRp2435
(dp2436
g68
(dp2437
g95
g96
ssg77
g2427
sg70
(lp2438
S':'
asbag63
(g84
g65
NtRp2439
(dp2440
g68
(dp2441
sg77
g2427
sg70
(lp2442
g63
(g64
g65
NtRp2443
(dp2444
g68
(dp2445
g76
I4
ssg77
g2439
sg70
(lp2446
S'set([])'
p2447
asbasbasbag63
(g79
g65
NtRp2448
(dp2449
g68
(dp2450
sg77
g2337
sg70
(lp2451
g63
(g84
g65
NtRp2452
(dp2453
g68
(dp2454
g88
g89
ssg77
g2448
sg70
(lp2455
g1358
asbag63
(g84
g65
NtRp2456
(dp2457
g68
(dp2458
g95
g96
ssg77
g2448
sg70
(lp2459
S':'
asbag63
(g84
g65
NtRp2460
(dp2461
g68
(dp2462
sg77
g2448
sg70
(lp2463
g63
(g64
g65
NtRp2464
(dp2465
g68
(dp2466
g76
I4
ssg77
g2460
sg70
(lp2467
g1371
asbasbasbag63
(g79
g65
NtRp2468
(dp2469
g68
(dp2470
sg77
g2337
sg70
(lp2471
g63
(g84
g65
NtRp2472
(dp2473
g68
(dp2474
g88
g89
ssg77
g2468
sg70
(lp2475
g1380
asbag63
(g84
g65
NtRp2476
(dp2477
g68
(dp2478
g95
g96
ssg77
g2468
sg70
(lp2479
S':'
asbag63
(g84
g65
NtRp2480
(dp2481
g68
(dp2482
sg77
g2468
sg70
(lp2483
g63
(g64
g65
NtRp2484
(dp2485
g68
(dp2486
g76
I4
ssg77
g2480
sg70
(lp2487
g1393
asbasbasbag63
(g79
g65
NtRp2488
(dp2489
g68
(dp2490
sg77
g2337
sg70
(lp2491
g63
(g84
g65
NtRp2492
(dp2493
g68
(dp2494
g88
g89
ssg77
g2488
sg70
(lp2495
g1643
asbag63
(g84
g65
NtRp2496
(dp2497
g68
(dp2498
g95
g96
ssg77
g2488
sg70
(lp2499
S':'
asbag63
(g84
g65
NtRp2500
(dp2501
g68
(dp2502
sg77
g2488
sg70
(lp2503
g63
(g64
g65
NtRp2504
(dp2505
g68
(dp2506
g76
I4
ssg77
g2500
sg70
(lp2507
g1371
asbasbasbag63
(g79
g65
NtRp2508
(dp2509
g68
(dp2510
sg77
g2337
sg70
(lp2511
g63
(g84
g65
NtRp2512
(dp2513
g68
(dp2514
g88
g89
ssg77
g2508
sg70
(lp2515
g1664
asbag63
(g84
g65
NtRp2516
(dp2517
g68
(dp2518
g95
g96
ssg77
g2508
sg70
(lp2519
S':'
asbag63
(g84
g65
NtRp2520
(dp2521
g68
(dp2522
sg77
g2508
sg70
(lp2523
g63
(g64
g65
NtRp2524
(dp2525
g68
(dp2526
g76
I4
ssg77
g2520
sg70
(lp2527
g1371
asbasbasbag63
(g79
g65
NtRp2528
(dp2529
g68
(dp2530
sg77
g2337
sg70
(lp2531
g63
(g84
g65
NtRp2532
(dp2533
g68
(dp2534
g88
g89
ssg77
g2528
sg70
(lp2535
g1902
asbag63
(g84
g65
NtRp2536
(dp2537
g68
(dp2538
g95
g96
ssg77
g2528
sg70
(lp2539
S':'
asbag63
(g84
g65
NtRp2540
(dp2541
g68
(dp2542
sg77
g2528
sg70
(lp2543
g63
(g64
g65
NtRp2544
(dp2545
g68
(dp2546
g76
I4
ssg77
g2540
sg70
(lp2547
g1915
asbasbasbag63
(g79
g65
NtRp2548
(dp2549
g68
(dp2550
sg77
g2337
sg70
(lp2551
g63
(g84
g65
NtRp2552
(dp2553
g68
(dp2554
g88
g89
ssg77
g2548
sg70
(lp2555
g1945
asbag63
(g84
g65
NtRp2556
(dp2557
g68
(dp2558
g95
g96
ssg77
g2548
sg70
(lp2559
S':'
asbag63
(g84
g65
NtRp2560
(dp2561
g68
(dp2562
sg77
g2548
sg70
(lp2563
g63
(g64
g65
NtRp2564
(dp2565
g68
(dp2566
g76
I4
ssg77
g2560
sg70
(lp2567
g63
(g72
g65
NtRp2568
(dp2569
g68
(dp2570
g76
I3
ssg77
Nsg70
(lp2571
g63
(g79
g65
NtRp2572
(dp2573
g68
(dp2574
sg77
g2568
sg70
(lp2575
g63
(g84
g65
NtRp2576
(dp2577
g68
(dp2578
sg77
g2572
sg70
(lp2579
g63
(g64
g65
NtRp2580
(dp2581
g68
(dp2582
g76
I3
ssg77
g2576
sg70
(lp2583
S'1'
asbasbasbag63
(g79
g65
NtRp2584
(dp2585
g68
(dp2586
sg77
g2568
sg70
(lp2587
g63
(g84
g65
NtRp2588
(dp2589
g68
(dp2590
sg77
g2584
sg70
(lp2591
g63
(g64
g65
NtRp2592
(dp2593
g68
(dp2594
g76
I3
ssg77
g2588
sg70
(lp2595
S'99'
p2596
asbasbasbag63
(g79
g65
NtRp2597
(dp2598
g68
(dp2599
sg77
g2568
sg70
(lp2600
g63
(g84
g65
NtRp2601
(dp2602
g68
(dp2603
sg77
g2597
sg70
(lp2604
g63
(g64
g65
NtRp2605
(dp2606
g68
(dp2607
g76
I3
ssg77
g2601
sg70
(lp2608
S'4'
asbasbasbag63
(g79
g65
NtRp2609
(dp2610
g68
(dp2611
sg77
g2568
sg70
(lp2612
g63
(g84
g65
NtRp2613
(dp2614
g68
(dp2615
sg77
g2609
sg70
(lp2616
g63
(g64
g65
NtRp2617
(dp2618
g68
(dp2619
g76
I3
ssg77
g2613
sg70
(lp2620
S'datetime.datetime(2011, 12, 14, 14, 46, 14)'
p2621
asbasbasbag63
(g79
g65
NtRp2622
(dp2623
g68
(dp2624
sg77
g2568
sg70
(lp2625
g63
(g84
g65
NtRp2626
(dp2627
g68
(dp2628
sg77
g2622
sg70
(lp2629
g63
(g64
g65
NtRp2630
(dp2631
g68
(dp2632
g76
I3
ssg77
g2626
sg70
(lp2633
g2024
asbasbasbasbasbasbasbasbasbasbasbag63
(g79
g65
NtRp2634
(dp2635
g68
(dp2636
sg77
g73
sg70
(lp2637
g63
(g84
g65
NtRp2638
(dp2639
g68
(dp2640
g88
g89
ssg77
g2634
sg70
(lp2641
S'is_https'
p2642
asbag63
(g84
g65
NtRp2643
(dp2644
g68
(dp2645
g95
g96
ssg77
g2634
sg70
(lp2646
S':'
asbag63
(g84
g65
NtRp2647
(dp2648
g68
(dp2649
sg77
g2634
sg70
(lp2650
g63
(g64
g65
NtRp2651
(dp2652
g68
(dp2653
g76
I5
ssg77
g2647
sg70
(lp2654
g1371
asbasbasbag63
(g79
g65
NtRp2655
(dp2656
g68
(dp2657
sg77
g73
sg70
(lp2658
g63
(g84
g65
NtRp2659
(dp2660
g68
(dp2661
g88
g89
ssg77
g2655
sg70
(lp2662
S'is_local'
p2663
asbag63
(g84
g65
NtRp2664
(dp2665
g68
(dp2666
g95
g96
ssg77
g2655
sg70
(lp2667
S':'
asbag63
(g84
g65
NtRp2668
(dp2669
g68
(dp2670
sg77
g2655
sg70
(lp2671
g63
(g64
g65
NtRp2672
(dp2673
g68
(dp2674
g76
I5
ssg77
g2668
sg70
(lp2675
g106
asbasbasbag63
(g79
g65
NtRp2676
(dp2677
g68
(dp2678
sg77
g73
sg70
(lp2679
g63
(g84
g65
NtRp2680
(dp2681
g68
(dp2682
g88
g89
ssg77
g2676
sg70
(lp2683
S'is_restful'
p2684
asbag63
(g84
g65
NtRp2685
(dp2686
g68
(dp2687
g95
g96
ssg77
g2676
sg70
(lp2688
S':'
asbag63
(g84
g65
NtRp2689
(dp2690
g68
(dp2691
sg77
g2676
sg70
(lp2692
g63
(g64
g65
NtRp2693
(dp2694
g68
(dp2695
g76
I5
ssg77
g2689
sg70
(lp2696
g1371
asbasbasbag63
(g79
g65
NtRp2697
(dp2698
g68
(dp2699
sg77
g73
sg70
(lp2700
g63
(g84
g65
NtRp2701
(dp2702
g68
(dp2703
g88
g89
ssg77
g2697
sg70
(lp2704
S'now'
p2705
asbag63
(g84
g65
NtRp2706
(dp2707
g68
(dp2708
g95
g96
ssg77
g2697
sg70
(lp2709
S':'
asbag63
(g84
g65
NtRp2710
(dp2711
g68
(dp2712
sg77
g2697
sg70
(lp2713
g63
(g64
g65
NtRp2714
(dp2715
g68
(dp2716
g76
I5
ssg77
g2710
sg70
(lp2717
S'datetime.datetime(2012, 3, 6, 14, 21, 51, 802370)'
p2718
asbasbasbag63
(g79
g65
NtRp2719
(dp2720
g68
(dp2721
sg77
g73
sg70
(lp2722
g63
(g84
g65
NtRp2723
(dp2724
g68
(dp2725
g88
g89
ssg77
g2719
sg70
(lp2726
S'post_vars'
p2727
asbag63
(g84
g65
NtRp2728
(dp2729
g68
(dp2730
g95
g96
ssg77
g2719
sg70
(lp2731
S':'
asbag63
(g84
g65
NtRp2732
(dp2733
g68
(dp2734
sg77
g2719
sg70
(lp2735
g63
(g64
g65
NtRp2736
(dp2737
g68
(dp2738
g76
I5
ssg77
g2732
sg70
(lp2739
g63
(g72
g65
NtRp2740
(dp2741
g68
(dp2742
g76
I4
ssg77
Nsg70
(lp2743
sbasbasbasbag63
(g79
g65
NtRp2744
(dp2745
g68
(dp2746
sg77
g73
sg70
(lp2747
g63
(g84
g65
NtRp2748
(dp2749
g68
(dp2750
g88
g89
ssg77
g2744
sg70
(lp2751
S'raw_args'
p2752
asbag63
(g84
g65
NtRp2753
(dp2754
g68
(dp2755
g95
g96
ssg77
g2744
sg70
(lp2756
S':'
asbag63
(g84
g65
NtRp2757
(dp2758
g68
(dp2759
sg77
g2744
sg70
(lp2760
g63
(g64
g65
NtRp2761
(dp2762
g68
(dp2763
g76
I5
ssg77
g2757
sg70
(lp2764
g165
asbasbasbag63
(g79
g65
NtRp2765
(dp2766
g68
(dp2767
sg77
g73
sg70
(lp2768
g63
(g84
g65
NtRp2769
(dp2770
g68
(dp2771
g88
g89
ssg77
g2765
sg70
(lp2772
S'raw_extension'
p2773
asbag63
(g84
g65
NtRp2774
(dp2775
g68
(dp2776
g95
g96
ssg77
g2765
sg70
(lp2777
S':'
asbag63
(g84
g65
NtRp2778
(dp2779
g68
(dp2780
sg77
g2765
sg70
(lp2781
g63
(g64
g65
NtRp2782
(dp2783
g68
(dp2784
g76
I5
ssg77
g2778
sg70
(lp2785
g2246
asbasbasbag63
(g79
g65
NtRp2786
(dp2787
g68
(dp2788
sg77
g73
sg70
(lp2789
g63
(g84
g65
NtRp2790
(dp2791
g68
(dp2792
g88
g89
ssg77
g2786
sg70
(lp2793
S'url'
p2794
asbag63
(g84
g65
NtRp2795
(dp2796
g68
(dp2797
g95
g96
ssg77
g2786
sg70
(lp2798
S':'
asbag63
(g84
g65
NtRp2799
(dp2800
g68
(dp2801
sg77
g2786
sg70
(lp2802
g63
(g64
g65
NtRp2803
(dp2804
g68
(dp2805
g76
I5
ssg77
g2799
sg70
(lp2806
S'/grammateus3/docs/section.load/grammateus3'
p2807
asbasbasbag63
(g79
g65
NtRp2808
(dp2809
g68
(dp2810
sg77
g73
sg70
(lp2811
g63
(g84
g65
NtRp2812
(dp2813
g68
(dp2814
g88
g89
ssg77
g2808
sg70
(lp2815
S'utcnow'
p2816
asbag63
(g84
g65
NtRp2817
(dp2818
g68
(dp2819
g95
g96
ssg77
g2808
sg70
(lp2820
S':'
asbag63
(g84
g65
NtRp2821
(dp2822
g68
(dp2823
sg77
g2808
sg70
(lp2824
g63
(g64
g65
NtRp2825
(dp2826
g68
(dp2827
g76
I5
ssg77
g2821
sg70
(lp2828
S'datetime.datetime(2012, 3, 6, 19, 21, 51, 802426)'
p2829
asbasbasbag63
(g79
g65
NtRp2830
(dp2831
g68
(dp2832
sg77
g73
sg70
(lp2833
g63
(g84
g65
NtRp2834
(dp2835
g68
(dp2836
g88
g89
ssg77
g2830
sg70
(lp2837
S'uuid'
p2838
asbag63
(g84
g65
NtRp2839
(dp2840
g68
(dp2841
g95
g96
ssg77
g2830
sg70
(lp2842
S':'
asbag63
(g84
g65
NtRp2843
(dp2844
g68
(dp2845
sg77
g2830
sg70
(lp2846
g63
(g64
g65
NtRp2847
(dp2848
g68
(dp2849
g76
I5
ssg77
g2843
sg70
(lp2850
S'grammateus3/127.0.0.1.2012-03-06.14-21-51.f1723358-7050-48c9-b2b1-d199f1eed131'
p2851
asbasbasbag63
(g79
g65
NtRp2852
(dp2853
g68
(dp2854
sg77
g73
sg70
(lp2855
g63
(g84
g65
NtRp2856
(dp2857
g68
(dp2858
g88
g89
ssg77
g2852
sg70
(lp2859
S'vars'
p2860
asbag63
(g84
g65
NtRp2861
(dp2862
g68
(dp2863
g95
g96
ssg77
g2852
sg70
(lp2864
S':'
asbag63
(g84
g65
NtRp2865
(dp2866
g68
(dp2867
sg77
g2852
sg70
(lp2868
g63
(g64
g65
NtRp2869
(dp2870
g68
(dp2871
g76
I5
ssg77
g2865
sg70
(lp2872
g63
(g72
g65
NtRp2873
(dp2874
g68
(dp2875
g76
I4
ssg77
Nsg70
(lp2876
sbasbasbasbag63
(g79
g65
NtRp2877
(dp2878
g68
(dp2879
sg77
g73
sg70
(lp2880
g63
(g84
g65
NtRp2881
(dp2882
g68
(dp2883
g88
g89
ssg77
g2877
sg70
(lp2884
S'wsgi'
p2885
asbag63
(g84
g65
NtRp2886
(dp2887
g68
(dp2888
g95
g96
ssg77
g2877
sg70
(lp2889
S':'
asbag63
(g84
g65
NtRp2890
(dp2891
g68
(dp2892
sg77
g2877
sg70
(lp2893
g63
(g64
g65
NtRp2894
(dp2895
g68
(dp2896
g76
I5
ssg77
g2890
sg70
(lp2897
g63
(g72
g65
NtRp2898
(dp2899
g68
(dp2900
g76
I4
ssg77
Nsg70
(lp2901
g63
(g79
g65
NtRp2902
(dp2903
g68
(dp2904
sg77
g2898
sg70
(lp2905
g63
(g84
g65
NtRp2906
(dp2907
g68
(dp2908
g88
g89
ssg77
g2902
sg70
(lp2909
S'environ'
p2910
asbag63
(g84
g65
NtRp2911
(dp2912
g68
(dp2913
g95
g96
ssg77
g2902
sg70
(lp2914
S':'
asbag63
(g84
g65
NtRp2915
(dp2916
g68
(dp2917
sg77
g2902
sg70
(lp2918
g63
(g64
g65
NtRp2919
(dp2920
g68
(dp2921
g76
I4
ssg77
g2915
sg70
(lp2922
g63
(g72
g65
NtRp2923
(dp2924
g68
(dp2925
g76
I3
ssg77
Nsg70
(lp2926
g63
(g79
g65
NtRp2927
(dp2928
g68
(dp2929
sg77
g2923
sg70
(lp2930
g63
(g84
g65
NtRp2931
(dp2932
g68
(dp2933
g88
g89
ssg77
g2927
sg70
(lp2934
S'HTTP_ACCEPT'
p2935
asbag63
(g84
g65
NtRp2936
(dp2937
g68
(dp2938
g95
g96
ssg77
g2927
sg70
(lp2939
S':'
asbag63
(g84
g65
NtRp2940
(dp2941
g68
(dp2942
sg77
g2927
sg70
(lp2943
g63
(g64
g65
NtRp2944
(dp2945
g68
(dp2946
g76
I3
ssg77
g2940
sg70
(lp2947
g1415
asbasbasbag63
(g79
g65
NtRp2948
(dp2949
g68
(dp2950
sg77
g2923
sg70
(lp2951
g63
(g84
g65
NtRp2952
(dp2953
g68
(dp2954
g88
g89
ssg77
g2948
sg70
(lp2955
S'HTTP_ACCEPT_ENCODING'
p2956
asbag63
(g84
g65
NtRp2957
(dp2958
g68
(dp2959
g95
g96
ssg77
g2948
sg70
(lp2960
S':'
asbag63
(g84
g65
NtRp2961
(dp2962
g68
(dp2963
sg77
g2948
sg70
(lp2964
g63
(g64
g65
NtRp2965
(dp2966
g68
(dp2967
g76
I3
ssg77
g2961
sg70
(lp2968
g1437
asbasbasbag63
(g79
g65
NtRp2969
(dp2970
g68
(dp2971
sg77
g2923
sg70
(lp2972
g63
(g84
g65
NtRp2973
(dp2974
g68
(dp2975
g88
g89
ssg77
g2969
sg70
(lp2976
S'HTTP_ACCEPT_LANGUAGE'
p2977
asbag63
(g84
g65
NtRp2978
(dp2979
g68
(dp2980
g95
g96
ssg77
g2969
sg70
(lp2981
S':'
asbag63
(g84
g65
NtRp2982
(dp2983
g68
(dp2984
sg77
g2969
sg70
(lp2985
g63
(g64
g65
NtRp2986
(dp2987
g68
(dp2988
g76
I3
ssg77
g2982
sg70
(lp2989
g1459
asbasbasbag63
(g79
g65
NtRp2990
(dp2991
g68
(dp2992
sg77
g2923
sg70
(lp2993
g63
(g84
g65
NtRp2994
(dp2995
g68
(dp2996
g88
g89
ssg77
g2990
sg70
(lp2997
S'HTTP_CONNECTION'
p2998
asbag63
(g84
g65
NtRp2999
(dp3000
g68
(dp3001
g95
g96
ssg77
g2990
sg70
(lp3002
S':'
asbag63
(g84
g65
NtRp3003
(dp3004
g68
(dp3005
sg77
g2990
sg70
(lp3006
g63
(g64
g65
NtRp3007
(dp3008
g68
(dp3009
g76
I3
ssg77
g3003
sg70
(lp3010
g1481
asbasbasbag63
(g79
g65
NtRp3011
(dp3012
g68
(dp3013
sg77
g2923
sg70
(lp3014
g63
(g84
g65
NtRp3015
(dp3016
g68
(dp3017
g88
g89
ssg77
g3011
sg70
(lp3018
S'HTTP_COOKIE'
p3019
asbag63
(g84
g65
NtRp3020
(dp3021
g68
(dp3022
g95
g96
ssg77
g3011
sg70
(lp3023
S':'
asbag63
(g84
g65
NtRp3024
(dp3025
g68
(dp3026
sg77
g3011
sg70
(lp3027
g63
(g64
g65
NtRp3028
(dp3029
g68
(dp3030
g76
I3
ssg77
g3024
sg70
(lp3031
g1503
asbasbasbag63
(g79
g65
NtRp3032
(dp3033
g68
(dp3034
sg77
g2923
sg70
(lp3035
g63
(g84
g65
NtRp3036
(dp3037
g68
(dp3038
g88
g89
ssg77
g3032
sg70
(lp3039
S'HTTP_HOST'
p3040
asbag63
(g84
g65
NtRp3041
(dp3042
g68
(dp3043
g95
g96
ssg77
g3032
sg70
(lp3044
S':'
asbag63
(g84
g65
NtRp3045
(dp3046
g68
(dp3047
sg77
g3032
sg70
(lp3048
g63
(g64
g65
NtRp3049
(dp3050
g68
(dp3051
g76
I3
ssg77
g3045
sg70
(lp3052
g1525
asbasbasbag63
(g79
g65
NtRp3053
(dp3054
g68
(dp3055
sg77
g2923
sg70
(lp3056
g63
(g84
g65
NtRp3057
(dp3058
g68
(dp3059
g88
g89
ssg77
g3053
sg70
(lp3060
S'HTTP_REFERER'
p3061
asbag63
(g84
g65
NtRp3062
(dp3063
g68
(dp3064
g95
g96
ssg77
g3053
sg70
(lp3065
S':'
asbag63
(g84
g65
NtRp3066
(dp3067
g68
(dp3068
sg77
g3053
sg70
(lp3069
g63
(g64
g65
NtRp3070
(dp3071
g68
(dp3072
g76
I3
ssg77
g3066
sg70
(lp3073
g1547
asbasbasbag63
(g79
g65
NtRp3074
(dp3075
g68
(dp3076
sg77
g2923
sg70
(lp3077
g63
(g84
g65
NtRp3078
(dp3079
g68
(dp3080
g88
g89
ssg77
g3074
sg70
(lp3081
S'HTTP_USER_AGENT'
p3082
asbag63
(g84
g65
NtRp3083
(dp3084
g68
(dp3085
g95
g96
ssg77
g3074
sg70
(lp3086
S':'
asbag63
(g84
g65
NtRp3087
(dp3088
g68
(dp3089
sg77
g3074
sg70
(lp3090
g63
(g64
g65
NtRp3091
(dp3092
g68
(dp3093
g76
I3
ssg77
g3087
sg70
(lp3094
g1569
asbasbasbag63
(g79
g65
NtRp3095
(dp3096
g68
(dp3097
sg77
g2923
sg70
(lp3098
g63
(g84
g65
NtRp3099
(dp3100
g68
(dp3101
g88
g89
ssg77
g3095
sg70
(lp3102
S'HTTP_WEB2PY_COMPONENT_ELEMENT'
p3103
asbag63
(g84
g65
NtRp3104
(dp3105
g68
(dp3106
g95
g96
ssg77
g3095
sg70
(lp3107
S':'
asbag63
(g84
g65
NtRp3108
(dp3109
g68
(dp3110
sg77
g3095
sg70
(lp3111
g63
(g64
g65
NtRp3112
(dp3113
g68
(dp3114
g76
I3
ssg77
g3108
sg70
(lp3115
g209
asbasbasbag63
(g79
g65
NtRp3116
(dp3117
g68
(dp3118
sg77
g2923
sg70
(lp3119
g63
(g84
g65
NtRp3120
(dp3121
g68
(dp3122
g88
g89
ssg77
g3116
sg70
(lp3123
S'HTTP_WEB2PY_COMPONENT_LOCATION'
p3124
asbag63
(g84
g65
NtRp3125
(dp3126
g68
(dp3127
g95
g96
ssg77
g3116
sg70
(lp3128
S':'
asbag63
(g84
g65
NtRp3129
(dp3130
g68
(dp3131
sg77
g3116
sg70
(lp3132
g63
(g64
g65
NtRp3133
(dp3134
g68
(dp3135
g76
I3
ssg77
g3129
sg70
(lp3136
g1612
asbasbasbag63
(g79
g65
NtRp3137
(dp3138
g68
(dp3139
sg77
g2923
sg70
(lp3140
g63
(g84
g65
NtRp3141
(dp3142
g68
(dp3143
g88
g89
ssg77
g3137
sg70
(lp3144
S'HTTP_X_REQUESTED_WITH'
p3145
asbag63
(g84
g65
NtRp3146
(dp3147
g68
(dp3148
g95
g96
ssg77
g3137
sg70
(lp3149
S':'
asbag63
(g84
g65
NtRp3150
(dp3151
g68
(dp3152
sg77
g3137
sg70
(lp3153
g63
(g64
g65
NtRp3154
(dp3155
g68
(dp3156
g76
I3
ssg77
g3150
sg70
(lp3157
g1634
asbasbasbag63
(g79
g65
NtRp3158
(dp3159
g68
(dp3160
sg77
g2923
sg70
(lp3161
g63
(g84
g65
NtRp3162
(dp3163
g68
(dp3164
g88
g89
ssg77
g3158
sg70
(lp3165
S'PATH_INFO'
p3166
asbag63
(g84
g65
NtRp3167
(dp3168
g68
(dp3169
g95
g96
ssg77
g3158
sg70
(lp3170
S':'
asbag63
(g84
g65
NtRp3171
(dp3172
g68
(dp3173
sg77
g3158
sg70
(lp3174
g63
(g64
g65
NtRp3175
(dp3176
g68
(dp3177
g76
I3
ssg77
g3171
sg70
(lp3178
g1698
asbasbasbag63
(g79
g65
NtRp3179
(dp3180
g68
(dp3181
sg77
g2923
sg70
(lp3182
g63
(g84
g65
NtRp3183
(dp3184
g68
(dp3185
g88
g89
ssg77
g3179
sg70
(lp3186
S'QUERY_STRING'
p3187
asbag63
(g84
g65
NtRp3188
(dp3189
g68
(dp3190
g95
g96
ssg77
g3179
sg70
(lp3191
S':'
asbag63
(g84
g65
NtRp3192
(dp3193
g68
(dp3194
sg77
g3179
sg70
(lp3195
g63
(g64
g65
NtRp3196
(dp3197
g68
(dp3198
g76
I3
ssg77
g3192
sg70
(lp3199
S''
asbasbasbag63
(g79
g65
NtRp3200
(dp3201
g68
(dp3202
sg77
g2923
sg70
(lp3203
g63
(g84
g65
NtRp3204
(dp3205
g68
(dp3206
g88
g89
ssg77
g3200
sg70
(lp3207
S'REMOTE_ADDR'
p3208
asbag63
(g84
g65
NtRp3209
(dp3210
g68
(dp3211
g95
g96
ssg77
g3200
sg70
(lp3212
S':'
asbag63
(g84
g65
NtRp3213
(dp3214
g68
(dp3215
sg77
g3200
sg70
(lp3216
g63
(g64
g65
NtRp3217
(dp3218
g68
(dp3219
g76
I3
ssg77
g3213
sg70
(lp3220
g231
asbasbasbag63
(g79
g65
NtRp3221
(dp3222
g68
(dp3223
sg77
g2923
sg70
(lp3224
g63
(g84
g65
NtRp3225
(dp3226
g68
(dp3227
g88
g89
ssg77
g3221
sg70
(lp3228
S'REMOTE_PORT'
p3229
asbag63
(g84
g65
NtRp3230
(dp3231
g68
(dp3232
g95
g96
ssg77
g3221
sg70
(lp3233
S':'
asbag63
(g84
g65
NtRp3234
(dp3235
g68
(dp3236
sg77
g3221
sg70
(lp3237
g63
(g64
g65
NtRp3238
(dp3239
g68
(dp3240
g76
I3
ssg77
g3234
sg70
(lp3241
g1762
asbasbasbag63
(g79
g65
NtRp3242
(dp3243
g68
(dp3244
sg77
g2923
sg70
(lp3245
g63
(g84
g65
NtRp3246
(dp3247
g68
(dp3248
g88
g89
ssg77
g3242
sg70
(lp3249
S'REQUEST_METHOD'
p3250
asbag63
(g84
g65
NtRp3251
(dp3252
g68
(dp3253
g95
g96
ssg77
g3242
sg70
(lp3254
S':'
asbag63
(g84
g65
NtRp3255
(dp3256
g68
(dp3257
sg77
g3242
sg70
(lp3258
g63
(g64
g65
NtRp3259
(dp3260
g68
(dp3261
g76
I3
ssg77
g3255
sg70
(lp3262
g1784
asbasbasbag63
(g79
g65
NtRp3263
(dp3264
g68
(dp3265
sg77
g2923
sg70
(lp3266
g63
(g84
g65
NtRp3267
(dp3268
g68
(dp3269
g88
g89
ssg77
g3263
sg70
(lp3270
S'SCRIPT_NAME'
p3271
asbag63
(g84
g65
NtRp3272
(dp3273
g68
(dp3274
g95
g96
ssg77
g3263
sg70
(lp3275
S':'
asbag63
(g84
g65
NtRp3276
(dp3277
g68
(dp3278
sg77
g3263
sg70
(lp3279
g63
(g64
g65
NtRp3280
(dp3281
g68
(dp3282
g76
I3
ssg77
g3276
sg70
(lp3283
S''
asbasbasbag63
(g79
g65
NtRp3284
(dp3285
g68
(dp3286
sg77
g2923
sg70
(lp3287
g63
(g84
g65
NtRp3288
(dp3289
g68
(dp3290
g88
g89
ssg77
g3284
sg70
(lp3291
S'SERVER_NAME'
p3292
asbag63
(g84
g65
NtRp3293
(dp3294
g68
(dp3295
g95
g96
ssg77
g3284
sg70
(lp3296
S':'
asbag63
(g84
g65
NtRp3297
(dp3298
g68
(dp3299
sg77
g3284
sg70
(lp3300
g63
(g64
g65
NtRp3301
(dp3302
g68
(dp3303
g76
I3
ssg77
g3297
sg70
(lp3304
g1827
asbasbasbag63
(g79
g65
NtRp3305
(dp3306
g68
(dp3307
sg77
g2923
sg70
(lp3308
g63
(g84
g65
NtRp3309
(dp3310
g68
(dp3311
g88
g89
ssg77
g3305
sg70
(lp3312
S'SERVER_PORT'
p3313
asbag63
(g84
g65
NtRp3314
(dp3315
g68
(dp3316
g95
g96
ssg77
g3305
sg70
(lp3317
S':'
asbag63
(g84
g65
NtRp3318
(dp3319
g68
(dp3320
sg77
g3305
sg70
(lp3321
g63
(g64
g65
NtRp3322
(dp3323
g68
(dp3324
g76
I3
ssg77
g3318
sg70
(lp3325
g1849
asbasbasbag63
(g79
g65
NtRp3326
(dp3327
g68
(dp3328
sg77
g2923
sg70
(lp3329
g63
(g84
g65
NtRp3330
(dp3331
g68
(dp3332
g88
g89
ssg77
g3326
sg70
(lp3333
S'SERVER_PROTOCOL'
p3334
asbag63
(g84
g65
NtRp3335
(dp3336
g68
(dp3337
g95
g96
ssg77
g3326
sg70
(lp3338
S':'
asbag63
(g84
g65
NtRp3339
(dp3340
g68
(dp3341
sg77
g3326
sg70
(lp3342
g63
(g64
g65
NtRp3343
(dp3344
g68
(dp3345
g76
I3
ssg77
g3339
sg70
(lp3346
g1871
asbasbasbag63
(g79
g65
NtRp3347
(dp3348
g68
(dp3349
sg77
g2923
sg70
(lp3350
g63
(g84
g65
NtRp3351
(dp3352
g68
(dp3353
g88
g89
ssg77
g3347
sg70
(lp3354
S'SERVER_SOFTWARE'
p3355
asbag63
(g84
g65
NtRp3356
(dp3357
g68
(dp3358
g95
g96
ssg77
g3347
sg70
(lp3359
S':'
asbag63
(g84
g65
NtRp3360
(dp3361
g68
(dp3362
sg77
g3347
sg70
(lp3363
g63
(g64
g65
NtRp3364
(dp3365
g68
(dp3366
g76
I3
ssg77
g3360
sg70
(lp3367
g1893
asbasbasbag63
(g79
g65
NtRp3368
(dp3369
g68
(dp3370
sg77
g2923
sg70
(lp3371
g63
(g84
g65
NtRp3372
(dp3373
g68
(dp3374
g88
g89
ssg77
g3368
sg70
(lp3375
S'wsgi.errors'
p3376
asbag63
(g84
g65
NtRp3377
(dp3378
g68
(dp3379
g95
g96
ssg77
g3368
sg70
(lp3380
S':'
asbag63
(g84
g65
NtRp3381
(dp3382
g68
(dp3383
sg77
g3368
sg70
(lp3384
g63
(g64
g65
NtRp3385
(dp3386
g68
(dp3387
g76
I3
ssg77
g3381
sg70
(lp3388
S"<open file '<stderr>', mode 'w' at 0xb777d0d0>"
p3389
asbasbasbag63
(g79
g65
NtRp3390
(dp3391
g68
(dp3392
sg77
g2923
sg70
(lp3393
g63
(g84
g65
NtRp3394
(dp3395
g68
(dp3396
g88
g89
ssg77
g3390
sg70
(lp3397
S'wsgi.file_wrapper'
p3398
asbag63
(g84
g65
NtRp3399
(dp3400
g68
(dp3401
g95
g96
ssg77
g3390
sg70
(lp3402
S':'
asbag63
(g84
g65
NtRp3403
(dp3404
g68
(dp3405
sg77
g3390
sg70
(lp3406
g63
(g64
g65
NtRp3407
(dp3408
g68
(dp3409
g76
I3
ssg77
g3403
sg70
(lp3410
S'<class wsgiref.util.FileWrapper at 0xa52e20c>'
p3411
asbasbasbag63
(g79
g65
NtRp3412
(dp3413
g68
(dp3414
sg77
g2923
sg70
(lp3415
g63
(g84
g65
NtRp3416
(dp3417
g68
(dp3418
g88
g89
ssg77
g3412
sg70
(lp3419
S'wsgi.input'
p3420
asbag63
(g84
g65
NtRp3421
(dp3422
g68
(dp3423
g95
g96
ssg77
g3412
sg70
(lp3424
S':'
asbag63
(g84
g65
NtRp3425
(dp3426
g68
(dp3427
sg77
g3412
sg70
(lp3428
g63
(g64
g65
NtRp3429
(dp3430
g68
(dp3431
g76
I3
ssg77
g3425
sg70
(lp3432
S'<cStringIO.StringO object at 0xc408d80>'
p3433
asbasbasbag63
(g79
g65
NtRp3434
(dp3435
g68
(dp3436
sg77
g2923
sg70
(lp3437
g63
(g84
g65
NtRp3438
(dp3439
g68
(dp3440
g88
g89
ssg77
g3434
sg70
(lp3441
S'wsgi.multiprocess'
p3442
asbag63
(g84
g65
NtRp3443
(dp3444
g68
(dp3445
g95
g96
ssg77
g3434
sg70
(lp3446
S':'
asbag63
(g84
g65
NtRp3447
(dp3448
g68
(dp3449
sg77
g3434
sg70
(lp3450
g63
(g64
g65
NtRp3451
(dp3452
g68
(dp3453
g76
I3
ssg77
g3447
sg70
(lp3454
g1371
asbasbasbag63
(g79
g65
NtRp3455
(dp3456
g68
(dp3457
sg77
g2923
sg70
(lp3458
g63
(g84
g65
NtRp3459
(dp3460
g68
(dp3461
g88
g89
ssg77
g3455
sg70
(lp3462
S'wsgi.multithread'
p3463
asbag63
(g84
g65
NtRp3464
(dp3465
g68
(dp3466
g95
g96
ssg77
g3455
sg70
(lp3467
S':'
asbag63
(g84
g65
NtRp3468
(dp3469
g68
(dp3470
sg77
g3455
sg70
(lp3471
g63
(g64
g65
NtRp3472
(dp3473
g68
(dp3474
g76
I3
ssg77
g3468
sg70
(lp3475
g106
asbasbasbag63
(g79
g65
NtRp3476
(dp3477
g68
(dp3478
sg77
g2923
sg70
(lp3479
g63
(g84
g65
NtRp3480
(dp3481
g68
(dp3482
g88
g89
ssg77
g3476
sg70
(lp3483
S'wsgi.run_once'
p3484
asbag63
(g84
g65
NtRp3485
(dp3486
g68
(dp3487
g95
g96
ssg77
g3476
sg70
(lp3488
S':'
asbag63
(g84
g65
NtRp3489
(dp3490
g68
(dp3491
sg77
g3476
sg70
(lp3492
g63
(g64
g65
NtRp3493
(dp3494
g68
(dp3495
g76
I3
ssg77
g3489
sg70
(lp3496
g1371
asbasbasbag63
(g79
g65
NtRp3497
(dp3498
g68
(dp3499
sg77
g2923
sg70
(lp3500
g63
(g84
g65
NtRp3501
(dp3502
g68
(dp3503
g88
g89
ssg77
g3497
sg70
(lp3504
S'wsgi.url_scheme'
p3505
asbag63
(g84
g65
NtRp3506
(dp3507
g68
(dp3508
g95
g96
ssg77
g3497
sg70
(lp3509
S':'
asbag63
(g84
g65
NtRp3510
(dp3511
g68
(dp3512
sg77
g3497
sg70
(lp3513
g63
(g64
g65
NtRp3514
(dp3515
g68
(dp3516
g76
I3
ssg77
g3510
sg70
(lp3517
g2175
asbasbasbag63
(g79
g65
NtRp3518
(dp3519
g68
(dp3520
sg77
g2923
sg70
(lp3521
g63
(g84
g65
NtRp3522
(dp3523
g68
(dp3524
g88
g89
ssg77
g3518
sg70
(lp3525
S'wsgi.version'
p3526
asbag63
(g84
g65
NtRp3527
(dp3528
g68
(dp3529
g95
g96
ssg77
g3518
sg70
(lp3530
S':'
asbag63
(g84
g65
NtRp3531
(dp3532
g68
(dp3533
sg77
g3518
sg70
(lp3534
g63
(g64
g65
NtRp3535
(dp3536
g68
(dp3537
g76
I3
ssg77
g3531
sg70
(lp3538
S'1'
asbasbasbasbasbasbasbasbasbasbasbasbasbsS'frames'
p3539
(lp3540
(dp3541
S'file'
p3542
S'/home/iscott/web/web2py/gluon/restricted.py'
p3543
sS'dump'
p3544
(dp3545
S'environment'
p3546
S"{'A': <class 'gluon.html.A'>, 'Auth': <class 'gluon.tools.Auth'>, 'B': <class 'gluon.html.B'>, 'BEAUTIFY': <class 'gluon.html.BEAUTIFY'>, 'BODY': <class 'gluon.html.BODY'>, 'BR': <class 'gluon.html.BR'>, 'BUTTON': <class 'gluon.html.BUTTON'>, 'BookParser': <class 'applications.grammateus3.modules.parse.BookParser'>, 'CAT': <class 'gluon.html.CAT'>, 'CENTER': <class 'gluon.html.CENTER'>, ...}"
p3547
sS'ccode'
p3548
S'<code object <module> at 0xb059ec0, file "/home/...cations/grammateus3/controllers/docs.py", line 2>'
p3549
ssS'lnum'
p3550
I204
sS'lines'
p3551
(dp3552
I199
S'    try:'
p3553
sI200
S'        if type(code) == types.CodeType:'
p3554
sI201
S'            ccode = code'
p3555
sI202
S'        else:'
p3556
sI203
S'            ccode = compile2(code,layer)'
p3557
sI204
S'        exec ccode in environment'
p3558
sI205
S'    except HTTP:'
p3559
sI206
S'        raise'
p3560
sI207
S'    except RestrictedError:'
p3561
sI208
S'        # do not encapsulate (obfuscate) the original RestrictedError'
p3562
ssS'call'
p3563
S"(code='# coding: utf8\\nfrom lxml import etree\\n\\nfrom pars... info)\\n\\nresponse._vars=response._caller(section)\\n', environment={'A': <class 'gluon.html.A'>, 'Auth': <class 'gluon.tools.Auth'>, 'B': <class 'gluon.html.B'>, 'BEAUTIFY': <class 'gluon.html.BEAUTIFY'>, 'BODY': <class 'gluon.html.BODY'>, 'BR': <class 'gluon.html.BR'>, 'BUTTON': <class 'gluon.html.BUTTON'>, 'BookParser': <class 'applications.grammateus3.modules.parse.BookParser'>, 'CAT': <class 'gluon.html.CAT'>, 'CENTER': <class 'gluon.html.CENTER'>, ...}, layer='/home/iscott/web/web2py/applications/grammateus3/controllers/docs.py')"
p3564
sS'func'
p3565
S'restricted'
p3566
sa(dp3567
g3542
S'/home/iscott/web/web2py/applications/grammateus3/controllers/docs.py'
p3568
sg3544
(dp3569
sg3550
I79
sg3551
(dp3570
I68
S"                print 'Version textstructure'"
p3571
sI69
S'                for ref, ref_val in value.items():'
p3572
sI70
S'                    for unit, unit_val in ref_val.items():'
p3573
sI71
S'                        for mss, mss_val in unit_val.items():'
p3574
sI72
S"                            print '\\t', ref, '-->', unit, '-->', mss, '-->', mss_val"
p3575
sI73
S"        print '************'"
p3576
sI74
S'    print'
p3577
sI75
S'    print'
p3578
sI76
S''
sI77
S'    return dict(title = title, info = info)'
p3579
ssg3563
S'()'
p3580
sg3565
S'<module>'
p3581
sa(dp3582
g3542
S'/home/iscott/web/web2py/gluon/globals.py'
p3583
sg3544
(dp3584
S'self'
p3585
S'undefined'
p3586
sS'f'
S'<function section>'
p3587
ssg3550
I172
sg3551
(dp3588
I167
S'        self.meta = Storage()      # used by web2py_ajax.html'
p3589
sI168
S'        self.menu = []             # used by the default view layout'
p3590
sI169
S'        self.files = []            # used by web2py_ajax.html'
p3591
sI170
S'        self.generic_patterns = [] # patterns to allow generic views'
p3592
sI171
S'        self._vars = None'
p3593
sI172
S'        self._caller = lambda f: f()'
p3594
sI173
S'        self._view_environment = None'
p3595
sI174
S'        self._custom_commit = None'
p3596
sI175
S'        self._custom_rollback = None'
p3597
sI176
S''
ssg3563
S'(f=<function section>)'
p3598
sg3565
S'<lambda>'
p3599
sa(dp3600
g3542
S'/home/iscott/web/web2py/applications/grammateus3/controllers/docs.py'
p3601
sg3544
(dp3602
S'p'
g3586
sS'global BookParser'
p3603
S"<class 'applications.grammateus3.modules.parse.BookParser'>"
p3604
sS'book_file'
p3605
S"'applications/grammateus3/static/docs/grammateus3.xml'"
p3606
ssg3550
I34
sg3551
(dp3607
I32
S'    filename = request.args[0]'
p3608
sI33
S"    book_file = 'applications/grammateus3/static/docs/%s.xml' % filename"
p3609
sI34
S'    p = BookParser(book_file)'
p3610
sI35
S'    info = p.book_info()'
p3611
sI36
S'    #get title of document'
p3612
sI37
S"    title = info['title']"
p3613
sI38
S'    #get names of all versions of current doc and select the version to display'
p3614
sI29
S'    populates a single text pane via the section.load view (refreshable via ajax)'
p3615
sI30
S'    """'
p3616
sI31
S'    #get filename from end of url and parse the file with BookParser class'
p3617
ssg3563
S'()'
p3618
sg3565
S'section'
p3619
sa(dp3620
g3542
S'/home/iscott/web/web2py/applications/grammateus3/modules/parse.py'
p3621
sg3544
(dp3622
S'xml_file'
p3623
S"'applications/grammateus3/static/docs/grammateus3.xml'"
p3624
sS'self'
p3625
S'<applications.grammateus3.modules.parse.BookParser object>'
p3626
sS'parser'
p3627
S'<lxml.etree.XMLParser object>'
p3628
sS'self.tree'
p3629
g3586
sS'global etree'
p3630
S"<module 'lxml.etree' from '/usr/lib/python2.7/dist-packages/lxml/etree.so'>"
p3631
sS'etree.parse'
p3632
S'<built-in function parse>'
p3633
ssg3550
I25
sg3551
(dp3634
I20
S'        self.xml_file = xml_file'
p3635
sI21
S''
sI22
S'        # Validate document against its schema'
p3636
sI23
S'        parser = etree.XMLParser(dtd_validation=True)'
p3637
sI24
S'        try:'
p3638
sI25
S'            self.tree = etree.parse(xml_file, parser)'
p3639
sI26
S'        except etree.XMLSyntaxError:'
p3640
sI27
S"            print 'Document does not validate against its schema: %s' % xml_file"
p3641
sI28
S'            raise   # Just reraise for now'
p3642
sI29
S''
ssg3563
S"(self=<applications.grammateus3.modules.parse.BookParser object>, xml_file='applications/grammateus3/static/docs/grammateus3.xml')"
p3643
sg3565
g22
sa(dp3644
g3542
S'/home/iscott/web/web2py/lxml.etree.pyx'
p3645
sg3544
(dp3646
sg3550
I2942
sg3551
(dp3647
sg3563
S'()'
p3648
sg3565
S'lxml.etree.parse (src/lxml/lxml.etree.c:54187)'
p3649
sa(dp3650
g3542
S'/home/iscott/web/web2py/parser.pxi'
p3651
sg3544
(dp3652
sg3550
I1528
sg3551
(dp3653
sg3563
S'()'
p3654
sg3565
S'lxml.etree._parseDocument (src/lxml/lxml.etree.c:79485)'
p3655
sa(dp3656
g3542
S'/home/iscott/web/web2py/parser.pxi'
p3657
sg3544
(dp3658
sg3550
I1557
sg3551
(dp3659
sg3563
S'()'
p3660
sg3565
S'lxml.etree._parseDocumentFromURL (src/lxml/lxml.etree.c:79768)'
p3661
sa(dp3662
g3542
S'/home/iscott/web/web2py/parser.pxi'
p3663
sg3544
(dp3664
sg3550
I1457
sg3551
(dp3665
sg3563
S'()'
p3666
sg3565
S'lxml.etree._parseDocFromFile (src/lxml/lxml.etree.c:78843)'
p3667
sa(dp3668
g3542
S'/home/iscott/web/web2py/parser.pxi'
p3669
sg3544
(dp3670
sg3550
I997
sg3551
(dp3671
sg3563
S'()'
p3672
sg3565
S'lxml.etree._BaseParser._parseDocFromFile (src/lxml/lxml.etree.c:75698)'
p3673
sa(dp3674
g3542
S'/home/iscott/web/web2py/parser.pxi'
p3675
sg3544
(dp3676
sg3550
I564
sg3551
(dp3677
sg3563
S'()'
p3678
sg3565
S'lxml.etree._ParserContext._handleParseResultDoc (src/lxml/lxml.etree.c:71739)'
p3679
sa(dp3680
g3542
S'/home/iscott/web/web2py/parser.pxi'
p3681
sg3544
(dp3682
sg3550
I645
sg3551
(dp3683
sg3563
S'()'
p3684
sg3565
S'lxml.etree._handleParseResult (src/lxml/lxml.etree.c:72614)'
p3685
sa(dp3686
g3542
S'/home/iscott/web/web2py/parser.pxi'
p3687
sg3544
(dp3688
sg3550
I583
sg3551
(dp3689
sg3563
S'()'
p3690
sg3565
S'lxml.etree._raiseParseError (src/lxml/lxml.etree.c:71927)'
p3691
sasS'pyver'
p3692
S'Python 2.7.2+: /usr/bin/python2.7'
p3693
sS'session'
p3694
g63
(g64
g65
NtRp3695
(dp3696
g68
(dp3697
sg70
(lp3698
g63
(g72
g65
NtRp3699
(dp3700
g68
(dp3701
g76
I5
ssg77
Nsg70
(lp3702
sbasbsS'etype'
p3703
S"<type 'exceptions.IOError'>"
p3704
sS'date'
p3705
S'Tue Mar  6 14:21:51 2012'
p3706
sS'response'
p3707
g63
(g64
g65
NtRp3708
(dp3709
g68
(dp3710
sg70
(lp3711
g63
(g72
g65
NtRp3712
(dp3713
g68
(dp3714
g76
I5
ssg77
Nsg70
(lp3715
g63
(g79
g65
NtRp3716
(dp3717
g68
(dp3718
sg77
g3712
sg70
(lp3719
g63
(g84
g65
NtRp3720
(dp3721
g68
(dp3722
g88
g89
ssg77
g3716
sg70
(lp3723
g174
asbag63
(g84
g65
NtRp3724
(dp3725
g68
(dp3726
g95
g96
ssg77
g3716
sg70
(lp3727
S':'
asbag63
(g84
g65
NtRp3728
(dp3729
g68
(dp3730
sg77
g3716
sg70
(lp3731
g63
(g64
g65
NtRp3732
(dp3733
g68
(dp3734
g76
I5
ssg77
g3728
sg70
(lp3735
S'<cStringIO.StringO object at 0xc0b1f00>'
p3736
asbasbasbag63
(g79
g65
NtRp3737
(dp3738
g68
(dp3739
sg77
g3712
sg70
(lp3740
g63
(g84
g65
NtRp3741
(dp3742
g68
(dp3743
g88
g89
ssg77
g3737
sg70
(lp3744
g262
asbag63
(g84
g65
NtRp3745
(dp3746
g68
(dp3747
g95
g96
ssg77
g3737
sg70
(lp3748
S':'
asbag63
(g84
g65
NtRp3749
(dp3750
g68
(dp3751
sg77
g3737
sg70
(lp3752
g63
(g64
g65
NtRp3753
(dp3754
g68
(dp3755
g76
I5
ssg77
g3749
sg70
(lp3756
g63
(g72
g65
NtRp3757
(dp3758
g68
(dp3759
g76
I4
ssg77
Nsg70
(lp3760
g63
(g79
g65
NtRp3761
(dp3762
g68
(dp3763
sg77
g3757
sg70
(lp3764
g63
(g84
g65
NtRp3765
(dp3766
g68
(dp3767
g88
g89
ssg77
g3761
sg70
(lp3768
S'session_id_grammateus3'
p3769
asbag63
(g84
g65
NtRp3770
(dp3771
g68
(dp3772
g95
g96
ssg77
g3761
sg70
(lp3773
S':'
asbag63
(g84
g65
NtRp3774
(dp3775
g68
(dp3776
sg77
g3761
sg70
(lp3777
g63
(g64
g65
NtRp3778
(dp3779
g68
(dp3780
g76
I4
ssg77
g3774
sg70
(lp3781
g63
(g72
g65
NtRp3782
(dp3783
g68
(dp3784
g76
I3
ssg77
Nsg70
(lp3785
g63
(g79
g65
NtRp3786
(dp3787
g68
(dp3788
sg77
g3782
sg70
(lp3789
g63
(g84
g65
NtRp3790
(dp3791
g68
(dp3792
g88
g89
ssg77
g3786
sg70
(lp3793
g312
asbag63
(g84
g65
NtRp3794
(dp3795
g68
(dp3796
g95
g96
ssg77
g3786
sg70
(lp3797
S':'
asbag63
(g84
g65
NtRp3798
(dp3799
g68
(dp3800
sg77
g3786
sg70
(lp3801
g63
(g64
g65
NtRp3802
(dp3803
g68
(dp3804
g76
I3
ssg77
g3798
sg70
(lp3805
S''
asbasbasbag63
(g79
g65
NtRp3806
(dp3807
g68
(dp3808
sg77
g3782
sg70
(lp3809
g63
(g84
g65
NtRp3810
(dp3811
g68
(dp3812
g88
g89
ssg77
g3806
sg70
(lp3813
g333
asbag63
(g84
g65
NtRp3814
(dp3815
g68
(dp3816
g95
g96
ssg77
g3806
sg70
(lp3817
S':'
asbag63
(g84
g65
NtRp3818
(dp3819
g68
(dp3820
sg77
g3806
sg70
(lp3821
g63
(g64
g65
NtRp3822
(dp3823
g68
(dp3824
g76
I3
ssg77
g3818
sg70
(lp3825
S''
asbasbasbag63
(g79
g65
NtRp3826
(dp3827
g68
(dp3828
sg77
g3782
sg70
(lp3829
g63
(g84
g65
NtRp3830
(dp3831
g68
(dp3832
g88
g89
ssg77
g3826
sg70
(lp3833
g354
asbag63
(g84
g65
NtRp3834
(dp3835
g68
(dp3836
g95
g96
ssg77
g3826
sg70
(lp3837
S':'
asbag63
(g84
g65
NtRp3838
(dp3839
g68
(dp3840
sg77
g3826
sg70
(lp3841
g63
(g64
g65
NtRp3842
(dp3843
g68
(dp3844
g76
I3
ssg77
g3838
sg70
(lp3845
S''
asbasbasbag63
(g79
g65
NtRp3846
(dp3847
g68
(dp3848
sg77
g3782
sg70
(lp3849
g63
(g84
g65
NtRp3850
(dp3851
g68
(dp3852
g88
g89
ssg77
g3846
sg70
(lp3853
g375
asbag63
(g84
g65
NtRp3854
(dp3855
g68
(dp3856
g95
g96
ssg77
g3846
sg70
(lp3857
S':'
asbag63
(g84
g65
NtRp3858
(dp3859
g68
(dp3860
sg77
g3846
sg70
(lp3861
g63
(g64
g65
NtRp3862
(dp3863
g68
(dp3864
g76
I3
ssg77
g3858
sg70
(lp3865
S''
asbasbasbag63
(g79
g65
NtRp3866
(dp3867
g68
(dp3868
sg77
g3782
sg70
(lp3869
g63
(g84
g65
NtRp3870
(dp3871
g68
(dp3872
g88
g89
ssg77
g3866
sg70
(lp3873
g396
asbag63
(g84
g65
NtRp3874
(dp3875
g68
(dp3876
g95
g96
ssg77
g3866
sg70
(lp3877
S':'
asbag63
(g84
g65
NtRp3878
(dp3879
g68
(dp3880
sg77
g3866
sg70
(lp3881
g63
(g64
g65
NtRp3882
(dp3883
g68
(dp3884
g76
I3
ssg77
g3878
sg70
(lp3885
S''
asbasbasbag63
(g79
g65
NtRp3886
(dp3887
g68
(dp3888
sg77
g3782
sg70
(lp3889
g63
(g84
g65
NtRp3890
(dp3891
g68
(dp3892
g88
g89
ssg77
g3886
sg70
(lp3893
g417
asbag63
(g84
g65
NtRp3894
(dp3895
g68
(dp3896
g95
g96
ssg77
g3886
sg70
(lp3897
S':'
asbag63
(g84
g65
NtRp3898
(dp3899
g68
(dp3900
sg77
g3886
sg70
(lp3901
g63
(g64
g65
NtRp3902
(dp3903
g68
(dp3904
g76
I3
ssg77
g3898
sg70
(lp3905
S'/'
asbasbasbag63
(g79
g65
NtRp3906
(dp3907
g68
(dp3908
sg77
g3782
sg70
(lp3909
g63
(g84
g65
NtRp3910
(dp3911
g68
(dp3912
g88
g89
ssg77
g3906
sg70
(lp3913
g438
asbag63
(g84
g65
NtRp3914
(dp3915
g68
(dp3916
g95
g96
ssg77
g3906
sg70
(lp3917
S':'
asbag63
(g84
g65
NtRp3918
(dp3919
g68
(dp3920
sg77
g3906
sg70
(lp3921
g63
(g64
g65
NtRp3922
(dp3923
g68
(dp3924
g76
I3
ssg77
g3918
sg70
(lp3925
S''
asbasbasbag63
(g79
g65
NtRp3926
(dp3927
g68
(dp3928
sg77
g3782
sg70
(lp3929
g63
(g84
g65
NtRp3930
(dp3931
g68
(dp3932
g88
g89
ssg77
g3926
sg70
(lp3933
g459
asbag63
(g84
g65
NtRp3934
(dp3935
g68
(dp3936
g95
g96
ssg77
g3926
sg70
(lp3937
S':'
asbag63
(g84
g65
NtRp3938
(dp3939
g68
(dp3940
sg77
g3926
sg70
(lp3941
g63
(g64
g65
NtRp3942
(dp3943
g68
(dp3944
g76
I3
ssg77
g3938
sg70
(lp3945
S''
asbasbasbasbasbasbasbasbasbasbasbag63
(g79
g65
NtRp3946
(dp3947
g68
(dp3948
sg77
g3712
sg70
(lp3949
g63
(g84
g65
NtRp3950
(dp3951
g68
(dp3952
g88
g89
ssg77
g3946
sg70
(lp3953
S'files'
p3954
asbag63
(g84
g65
NtRp3955
(dp3956
g68
(dp3957
g95
g96
ssg77
g3946
sg70
(lp3958
S':'
asbag63
(g84
g65
NtRp3959
(dp3960
g68
(dp3961
sg77
g3946
sg70
(lp3962
g63
(g64
g65
NtRp3963
(dp3964
g68
(dp3965
g76
I5
ssg77
g3959
sg70
(lp3966
g63
(g72
g65
NtRp3967
(dp3968
g68
(dp3969
g76
I4
ssg77
Nsg70
(lp3970
sbasbasbasbag63
(g79
g65
NtRp3971
(dp3972
g68
(dp3973
sg77
g3712
sg70
(lp3974
g63
(g84
g65
NtRp3975
(dp3976
g68
(dp3977
g88
g89
ssg77
g3971
sg70
(lp3978
S'flash'
p3979
asbag63
(g84
g65
NtRp3980
(dp3981
g68
(dp3982
g95
g96
ssg77
g3971
sg70
(lp3983
S':'
asbag63
(g84
g65
NtRp3984
(dp3985
g68
(dp3986
sg77
g3971
sg70
(lp3987
g63
(g64
g65
NtRp3988
(dp3989
g68
(dp3990
g76
I5
ssg77
g3984
sg70
(lp3991
S''
asbasbasbag63
(g79
g65
NtRp3992
(dp3993
g68
(dp3994
sg77
g3712
sg70
(lp3995
g63
(g84
g65
NtRp3996
(dp3997
g68
(dp3998
g88
g89
ssg77
g3992
sg70
(lp3999
S'generic_patterns'
p4000
asbag63
(g84
g65
NtRp4001
(dp4002
g68
(dp4003
g95
g96
ssg77
g3992
sg70
(lp4004
S':'
asbag63
(g84
g65
NtRp4005
(dp4006
g68
(dp4007
sg77
g3992
sg70
(lp4008
g63
(g64
g65
NtRp4009
(dp4010
g68
(dp4011
g76
I5
ssg77
g4005
sg70
(lp4012
g63
(g72
g65
NtRp4013
(dp4014
g68
(dp4015
g76
I4
ssg77
Nsg70
(lp4016
g63
(g79
g65
NtRp4017
(dp4018
g68
(dp4019
sg77
g4013
sg70
(lp4020
g63
(g84
g65
NtRp4021
(dp4022
g68
(dp4023
sg77
g4017
sg70
(lp4024
g63
(g64
g65
NtRp4025
(dp4026
g68
(dp4027
g76
I4
ssg77
g4021
sg70
(lp4028
S'*'
asbasbasbasbasbasbasbag63
(g79
g65
NtRp4029
(dp4030
g68
(dp4031
sg77
g3712
sg70
(lp4032
g63
(g84
g65
NtRp4033
(dp4034
g68
(dp4035
g88
g89
ssg77
g4029
sg70
(lp4036
S'headers'
p4037
asbag63
(g84
g65
NtRp4038
(dp4039
g68
(dp4040
g95
g96
ssg77
g4029
sg70
(lp4041
S':'
asbag63
(g84
g65
NtRp4042
(dp4043
g68
(dp4044
sg77
g4029
sg70
(lp4045
g63
(g64
g65
NtRp4046
(dp4047
g68
(dp4048
g76
I5
ssg77
g4042
sg70
(lp4049
g63
(g72
g65
NtRp4050
(dp4051
g68
(dp4052
g76
I4
ssg77
Nsg70
(lp4053
g63
(g79
g65
NtRp4054
(dp4055
g68
(dp4056
sg77
g4050
sg70
(lp4057
g63
(g84
g65
NtRp4058
(dp4059
g68
(dp4060
g88
g89
ssg77
g4054
sg70
(lp4061
S'Cache-Control'
p4062
asbag63
(g84
g65
NtRp4063
(dp4064
g68
(dp4065
g95
g96
ssg77
g4054
sg70
(lp4066
S':'
asbag63
(g84
g65
NtRp4067
(dp4068
g68
(dp4069
sg77
g4054
sg70
(lp4070
g63
(g64
g65
NtRp4071
(dp4072
g68
(dp4073
g76
I4
ssg77
g4067
sg70
(lp4074
S'no-store, no-cache, must-revalidate, post-check=0, pre-check=0'
p4075
asbasbasbag63
(g79
g65
NtRp4076
(dp4077
g68
(dp4078
sg77
g4050
sg70
(lp4079
g63
(g84
g65
NtRp4080
(dp4081
g68
(dp4082
g88
g89
ssg77
g4076
sg70
(lp4083
S'Content-Type'
p4084
asbag63
(g84
g65
NtRp4085
(dp4086
g68
(dp4087
g95
g96
ssg77
g4076
sg70
(lp4088
S':'
asbag63
(g84
g65
NtRp4089
(dp4090
g68
(dp4091
sg77
g4076
sg70
(lp4092
g63
(g64
g65
NtRp4093
(dp4094
g68
(dp4095
g76
I4
ssg77
g4089
sg70
(lp4096
S'text/html; charset=utf-8'
p4097
asbasbasbag63
(g79
g65
NtRp4098
(dp4099
g68
(dp4100
sg77
g4050
sg70
(lp4101
g63
(g84
g65
NtRp4102
(dp4103
g68
(dp4104
g88
g89
ssg77
g4098
sg70
(lp4105
S'Expires'
p4106
asbag63
(g84
g65
NtRp4107
(dp4108
g68
(dp4109
g95
g96
ssg77
g4098
sg70
(lp4110
S':'
asbag63
(g84
g65
NtRp4111
(dp4112
g68
(dp4113
sg77
g4098
sg70
(lp4114
g63
(g64
g65
NtRp4115
(dp4116
g68
(dp4117
g76
I4
ssg77
g4111
sg70
(lp4118
S'Tue, 06 Mar 2012 19:21:51 GMT'
p4119
asbasbasbag63
(g79
g65
NtRp4120
(dp4121
g68
(dp4122
sg77
g4050
sg70
(lp4123
g63
(g84
g65
NtRp4124
(dp4125
g68
(dp4126
g88
g89
ssg77
g4120
sg70
(lp4127
S'Pragma'
p4128
asbag63
(g84
g65
NtRp4129
(dp4130
g68
(dp4131
g95
g96
ssg77
g4120
sg70
(lp4132
S':'
asbag63
(g84
g65
NtRp4133
(dp4134
g68
(dp4135
sg77
g4120
sg70
(lp4136
g63
(g64
g65
NtRp4137
(dp4138
g68
(dp4139
g76
I4
ssg77
g4133
sg70
(lp4140
S'no-cache'
p4141
asbasbasbag63
(g79
g65
NtRp4142
(dp4143
g68
(dp4144
sg77
g4050
sg70
(lp4145
g63
(g84
g65
NtRp4146
(dp4147
g68
(dp4148
g88
g89
ssg77
g4142
sg70
(lp4149
S'X-Powered-By'
p4150
asbag63
(g84
g65
NtRp4151
(dp4152
g68
(dp4153
g95
g96
ssg77
g4142
sg70
(lp4154
S':'
asbag63
(g84
g65
NtRp4155
(dp4156
g68
(dp4157
sg77
g4142
sg70
(lp4158
g63
(g64
g65
NtRp4159
(dp4160
g68
(dp4161
g76
I4
ssg77
g4155
sg70
(lp4162
S'web2py'
p4163
asbasbasbasbasbasbasbag63
(g79
g65
NtRp4164
(dp4165
g68
(dp4166
sg77
g3712
sg70
(lp4167
g63
(g84
g65
NtRp4168
(dp4169
g68
(dp4170
g88
g89
ssg77
g4164
sg70
(lp4171
S'menu'
p4172
asbag63
(g84
g65
NtRp4173
(dp4174
g68
(dp4175
g95
g96
ssg77
g4164
sg70
(lp4176
S':'
asbag63
(g84
g65
NtRp4177
(dp4178
g68
(dp4179
sg77
g4164
sg70
(lp4180
g63
(g64
g65
NtRp4181
(dp4182
g68
(dp4183
g76
I5
ssg77
g4177
sg70
(lp4184
g63
(g72
g65
NtRp4185
(dp4186
g68
(dp4187
g76
I4
ssg77
Nsg70
(lp4188
g63
(g79
g65
NtRp4189
(dp4190
g68
(dp4191
sg77
g4185
sg70
(lp4192
g63
(g84
g65
NtRp4193
(dp4194
g68
(dp4195
sg77
g4189
sg70
(lp4196
g63
(g64
g65
NtRp4197
(dp4198
g68
(dp4199
g76
I4
ssg77
g4193
sg70
(lp4200
g63
(g72
g65
NtRp4201
(dp4202
g68
(dp4203
g76
I3
ssg77
Nsg70
(lp4204
g63
(g79
g65
NtRp4205
(dp4206
g68
(dp4207
sg77
g4201
sg70
(lp4208
g63
(g84
g65
NtRp4209
(dp4210
g68
(dp4211
sg77
g4205
sg70
(lp4212
g63
(g64
g65
NtRp4213
(dp4214
g68
(dp4215
g76
I3
ssg77
g4209
sg70
(lp4216
cgluon.languages
lazyT_unpickle
p4217
(S't\x04\x00\x00\x00Home'
tRp4218
asbasbasbag63
(g79
g65
NtRp4219
(dp4220
g68
(dp4221
sg77
g4201
sg70
(lp4222
g63
(g84
g65
NtRp4223
(dp4224
g68
(dp4225
sg77
g4219
sg70
(lp4226
g63
(g64
g65
NtRp4227
(dp4228
g68
(dp4229
g76
I3
ssg77
g4223
sg70
(lp4230
g1371
asbasbasbag63
(g79
g65
NtRp4231
(dp4232
g68
(dp4233
sg77
g4201
sg70
(lp4234
g63
(g84
g65
NtRp4235
(dp4236
g68
(dp4237
sg77
g4231
sg70
(lp4238
g63
(g64
g65
NtRp4239
(dp4240
g68
(dp4241
g76
I3
ssg77
g4235
sg70
(lp4242
S'/grammateus3/default/index.load'
p4243
asbasbasbag63
(g79
g65
NtRp4244
(dp4245
g68
(dp4246
sg77
g4201
sg70
(lp4247
g63
(g84
g65
NtRp4248
(dp4249
g68
(dp4250
sg77
g4244
sg70
(lp4251
g63
(g64
g65
NtRp4252
(dp4253
g68
(dp4254
g76
I3
ssg77
g4248
sg70
(lp4255
g63
(g72
g65
NtRp4256
(dp4257
g68
(dp4258
g76
I2
ssg77
Nsg70
(lp4259
sbasbasbasbasbasbasbasbag63
(g79
g65
NtRp4260
(dp4261
g68
(dp4262
sg77
g4185
sg70
(lp4263
g63
(g84
g65
NtRp4264
(dp4265
g68
(dp4266
sg77
g4260
sg70
(lp4267
g63
(g64
g65
NtRp4268
(dp4269
g68
(dp4270
g76
I4
ssg77
g4264
sg70
(lp4271
g63
(g72
g65
NtRp4272
(dp4273
g68
(dp4274
g76
I3
ssg77
Nsg70
(lp4275
g63
(g79
g65
NtRp4276
(dp4277
g68
(dp4278
sg77
g4272
sg70
(lp4279
g63
(g84
g65
NtRp4280
(dp4281
g68
(dp4282
sg77
g4276
sg70
(lp4283
g63
(g64
g65
NtRp4284
(dp4285
g68
(dp4286
g76
I3
ssg77
g4280
sg70
(lp4287
g63
(cgluon.html
SPAN
p4288
g65
NtRp4289
(dp4290
g68
(dp4291
g88
S'color:yellow'
p4292
ssg77
Nsg70
(lp4293
g4163
asbasbasbasbag63
(g79
g65
NtRp4294
(dp4295
g68
(dp4296
sg77
g4272
sg70
(lp4297
g63
(g84
g65
NtRp4298
(dp4299
g68
(dp4300
sg77
g4294
sg70
(lp4301
g63
(g64
g65
NtRp4302
(dp4303
g68
(dp4304
g76
I3
ssg77
g4298
sg70
(lp4305
g1371
asbasbasbag63
(g79
g65
NtRp4306
(dp4307
g68
(dp4308
sg77
g4272
sg70
(lp4309
g63
(g84
g65
NtRp4310
(dp4311
g68
(dp4312
sg77
g4306
sg70
(lp4313
g63
(g64
g65
NtRp4314
(dp4315
g68
(dp4316
g76
I3
ssg77
g4310
sg70
(lp4317
S'None'
p4318
asbasbasbag63
(g79
g65
NtRp4319
(dp4320
g68
(dp4321
sg77
g4272
sg70
(lp4322
g63
(g84
g65
NtRp4323
(dp4324
g68
(dp4325
sg77
g4319
sg70
(lp4326
g63
(g64
g65
NtRp4327
(dp4328
g68
(dp4329
g76
I3
ssg77
g4323
sg70
(lp4330
g63
(g72
g65
NtRp4331
(dp4332
g68
(dp4333
g76
I2
ssg77
Nsg70
(lp4334
g63
(g79
g65
NtRp4335
(dp4336
g68
(dp4337
sg77
g4331
sg70
(lp4338
g63
(g84
g65
NtRp4339
(dp4340
g68
(dp4341
sg77
g4335
sg70
(lp4342
g63
(g64
g65
NtRp4343
(dp4344
g68
(dp4345
g76
I2
ssg77
g4339
sg70
(lp4346
g63
(g72
g65
NtRp4347
(dp4348
g68
(dp4349
g76
I1
ssg77
Nsg70
(lp4350
g63
(g79
g65
NtRp4351
(dp4352
g68
(dp4353
sg77
g4347
sg70
(lp4354
g63
(g84
g65
NtRp4355
(dp4356
g68
(dp4357
sg77
g4351
sg70
(lp4358
g63
(g64
g65
NtRp4359
(dp4360
g68
(dp4361
g76
I1
ssg77
g4355
sg70
(lp4362
g4217
(S's\x08\x00\x00\x00My Sites'
tRp4363
asbasbasbag63
(g79
g65
NtRp4364
(dp4365
g68
(dp4366
sg77
g4347
sg70
(lp4367
g63
(g84
g65
NtRp4368
(dp4369
g68
(dp4370
sg77
g4364
sg70
(lp4371
g63
(g64
g65
NtRp4372
(dp4373
g68
(dp4374
g76
I1
ssg77
g4368
sg70
(lp4375
I00
asbasbasbag63
(g79
g65
NtRp4376
(dp4377
g68
(dp4378
sg77
g4347
sg70
(lp4379
g63
(g84
g65
NtRp4380
(dp4381
g68
(dp4382
sg77
g4376
sg70
(lp4383
g63
(g64
g65
NtRp4384
(dp4385
g68
(dp4386
g76
I1
ssg77
g4380
sg70
(lp4387
S'/admin/default/site.load'
p4388
asbasbasbasbasbasbasbag63
(g79
g65
NtRp4389
(dp4390
g68
(dp4391
sg77
g4331
sg70
(lp4392
g63
(g84
g65
NtRp4393
(dp4394
g68
(dp4395
sg77
g4389
sg70
(lp4396
g63
(g64
g65
NtRp4397
(dp4398
g68
(dp4399
g76
I2
ssg77
g4393
sg70
(lp4400
g63
(g72
g65
NtRp4401
(dp4402
g68
(dp4403
g76
I1
ssg77
Nsg70
(lp4404
g63
(g79
g65
NtRp4405
(dp4406
g68
(dp4407
sg77
g4401
sg70
(lp4408
g63
(g84
g65
NtRp4409
(dp4410
g68
(dp4411
sg77
g4405
sg70
(lp4412
g63
(g64
g65
NtRp4413
(dp4414
g68
(dp4415
g76
I1
ssg77
g4409
sg70
(lp4416
g4217
(S's\x08\x00\x00\x00This App'
tRp4417
asbasbasbag63
(g79
g65
NtRp4418
(dp4419
g68
(dp4420
sg77
g4401
sg70
(lp4421
g63
(g84
g65
NtRp4422
(dp4423
g68
(dp4424
sg77
g4418
sg70
(lp4425
g63
(g64
g65
NtRp4426
(dp4427
g68
(dp4428
g76
I1
ssg77
g4422
sg70
(lp4429
I00
asbasbasbag63
(g79
g65
NtRp4430
(dp4431
g68
(dp4432
sg77
g4401
sg70
(lp4433
g63
(g84
g65
NtRp4434
(dp4435
g68
(dp4436
sg77
g4430
sg70
(lp4437
g63
(g64
g65
NtRp4438
(dp4439
g68
(dp4440
g76
I1
ssg77
g4434
sg70
(lp4441
S'/admin/default/design/grammateus3.load'
p4442
asbasbasbag63
(g79
g65
NtRp4443
(dp4444
g68
(dp4445
sg77
g4401
sg70
(lp4446
g63
(g84
g65
NtRp4447
(dp4448
g68
(dp4449
sg77
g4443
sg70
(lp4450
g63
(g64
g65
NtRp4451
(dp4452
g68
(dp4453
g76
I1
ssg77
g4447
sg70
(lp4454
(lp4455
(g4217
(S't\n\x00\x00\x00Controller'
tRp4456
I00
S'/admin/default/edit/grammateus3/controllers/docs.py'
tp4457
a(g4217
(S't\x04\x00\x00\x00View'
tRp4458
I00
S'/admin/default/edit/grammateus3/views/docs/section.load'
tp4459
a(g4217
(S't\x06\x00\x00\x00Layout'
tRp4460
I00
S'/admin/default/edit/grammateus3/views/layout.html'
tp4461
a(g4217
(S't\n\x00\x00\x00Stylesheet'
tRp4462
I00
S'/admin/default/edit/grammateus3/static/css/web2py.css'
tp4463
a(g4217
(S's\x08\x00\x00\x00DB Model'
tRp4464
I00
S'/admin/default/edit/grammateus3/models/db.py'
tp4465
a(g4217
(S's\n\x00\x00\x00Menu Model'
tRp4466
I00
S'/admin/default/edit/grammateus3/models/menu.py'
tp4467
a(g4217
(S't\x08\x00\x00\x00Database'
tRp4468
I00
S'/grammateus3/appadmin/index.load'
tp4469
a(g4217
(S't\x06\x00\x00\x00Errors'
tRp4470
I00
S'/admin/default/errors/grammateus3.load'
tp4471
a(g4217
(S't\x05\x00\x00\x00About'
tRp4472
I00
S'/admin/default/about/grammateus3.load'
tp4473
aasbasbasbasbasbasbasbag63
(g79
g65
NtRp4474
(dp4475
g68
(dp4476
sg77
g4331
sg70
(lp4477
g63
(g84
g65
NtRp4478
(dp4479
g68
(dp4480
sg77
g4474
sg70
(lp4481
g63
(g64
g65
NtRp4482
(dp4483
g68
(dp4484
g76
I2
ssg77
g4478
sg70
(lp4485
g63
(g72
g65
NtRp4486
(dp4487
g68
(dp4488
g76
I1
ssg77
Nsg70
(lp4489
g63
(g79
g65
NtRp4490
(dp4491
g68
(dp4492
sg77
g4486
sg70
(lp4493
g63
(g84
g65
NtRp4494
(dp4495
g68
(dp4496
sg77
g4490
sg70
(lp4497
g63
(g64
g65
NtRp4498
(dp4499
g68
(dp4500
g76
I1
ssg77
g4494
sg70
(lp4501
S'web2py.com'
p4502
asbasbasbag63
(g79
g65
NtRp4503
(dp4504
g68
(dp4505
sg77
g4486
sg70
(lp4506
g63
(g84
g65
NtRp4507
(dp4508
g68
(dp4509
sg77
g4503
sg70
(lp4510
g63
(g64
g65
NtRp4511
(dp4512
g68
(dp4513
g76
I1
ssg77
g4507
sg70
(lp4514
I00
asbasbasbag63
(g79
g65
NtRp4515
(dp4516
g68
(dp4517
sg77
g4486
sg70
(lp4518
g63
(g84
g65
NtRp4519
(dp4520
g68
(dp4521
sg77
g4515
sg70
(lp4522
g63
(g64
g65
NtRp4523
(dp4524
g68
(dp4525
g76
I1
ssg77
g4519
sg70
(lp4526
S'http://www.web2py.com'
p4527
asbasbasbag63
(g79
g65
NtRp4528
(dp4529
g68
(dp4530
sg77
g4486
sg70
(lp4531
g63
(g84
g65
NtRp4532
(dp4533
g68
(dp4534
sg77
g4528
sg70
(lp4535
g63
(g64
g65
NtRp4536
(dp4537
g68
(dp4538
g76
I1
ssg77
g4532
sg70
(lp4539
(lp4540
(g4217
(S't\x08\x00\x00\x00Download'
tRp4541
I00
S'http://www.web2py.com/examples/default/download'
p4542
tp4543
a(g4217
(S't\x07\x00\x00\x00Support'
tRp4544
I00
S'http://www.web2py.com/examples/default/support'
p4545
tp4546
a(g4217
(S't\x04\x00\x00\x00Demo'
tRp4547
I00
S'http://web2py.com/demo_admin'
p4548
tp4549
a(g4217
(S's\x0e\x00\x00\x00Quick Examples'
tRp4550
I00
S'http://web2py.com/examples/default/examples'
p4551
tp4552
a(g4217
(S't\x03\x00\x00\x00FAQ'
tRp4553
I00
S'http://web2py.com/AlterEgo'
p4554
tp4555
a(g4217
(S't\x06\x00\x00\x00Videos'
tRp4556
I00
S'http://www.web2py.com/examples/default/videos/'
p4557
tp4558
a(g4217
(S's\x11\x00\x00\x00Free Applications'
tRp4559
I00
S'http://web2py.com/appliances'
p4560
tp4561
a(g4217
(S't\x07\x00\x00\x00Plugins'
tRp4562
I00
S'http://web2py.com/plugins'
p4563
tp4564
a(g4217
(S't\x07\x00\x00\x00Layouts'
tRp4565
I00
S'http://web2py.com/layouts'
p4566
tp4567
a(g4217
(S't\x07\x00\x00\x00Recipes'
tRp4568
I00
S'http://web2pyslices.com/'
p4569
tp4570
a(g4217
(S't\x08\x00\x00\x00Semantic'
tRp4571
I00
S'http://web2py.com/semantic'
p4572
tp4573
aasbasbasbasbasbasbasbag63
(g79
g65
NtRp4574
(dp4575
g68
(dp4576
sg77
g4331
sg70
(lp4577
g63
(g84
g65
NtRp4578
(dp4579
g68
(dp4580
sg77
g4574
sg70
(lp4581
g63
(g64
g65
NtRp4582
(dp4583
g68
(dp4584
g76
I2
ssg77
g4578
sg70
(lp4585
g63
(g72
g65
NtRp4586
(dp4587
g68
(dp4588
g76
I1
ssg77
Nsg70
(lp4589
g63
(g79
g65
NtRp4590
(dp4591
g68
(dp4592
sg77
g4586
sg70
(lp4593
g63
(g84
g65
NtRp4594
(dp4595
g68
(dp4596
sg77
g4590
sg70
(lp4597
g63
(g64
g65
NtRp4598
(dp4599
g68
(dp4600
g76
I1
ssg77
g4594
sg70
(lp4601
g4217
(S't\r\x00\x00\x00Documentation'
tRp4602
asbasbasbag63
(g79
g65
NtRp4603
(dp4604
g68
(dp4605
sg77
g4586
sg70
(lp4606
g63
(g84
g65
NtRp4607
(dp4608
g68
(dp4609
sg77
g4603
sg70
(lp4610
g63
(g64
g65
NtRp4611
(dp4612
g68
(dp4613
g76
I1
ssg77
g4607
sg70
(lp4614
I00
asbasbasbag63
(g79
g65
NtRp4615
(dp4616
g68
(dp4617
sg77
g4586
sg70
(lp4618
g63
(g84
g65
NtRp4619
(dp4620
g68
(dp4621
sg77
g4615
sg70
(lp4622
g63
(g64
g65
NtRp4623
(dp4624
g68
(dp4625
g76
I1
ssg77
g4619
sg70
(lp4626
S'http://www.web2py.com/book'
p4627
asbasbasbag63
(g79
g65
NtRp4628
(dp4629
g68
(dp4630
sg77
g4586
sg70
(lp4631
g63
(g84
g65
NtRp4632
(dp4633
g68
(dp4634
sg77
g4628
sg70
(lp4635
g63
(g64
g65
NtRp4636
(dp4637
g68
(dp4638
g76
I1
ssg77
g4632
sg70
(lp4639
(lp4640
(g4217
(S't\x07\x00\x00\x00Preface'
tRp4641
I00
S'http://www.web2py.com/book/default/chapter/00'
p4642
tp4643
a(g4217
(S't\x0c\x00\x00\x00Introduction'
tRp4644
I00
S'http://www.web2py.com/book/default/chapter/01'
p4645
tp4646
a(g4217
(S't\x06\x00\x00\x00Python'
tRp4647
I00
S'http://www.web2py.com/book/default/chapter/02'
p4648
tp4649
a(g4217
(S't\x08\x00\x00\x00Overview'
tRp4650
I00
S'http://www.web2py.com/book/default/chapter/03'
p4651
tp4652
a(g4217
(S's\x08\x00\x00\x00The Core'
tRp4653
I00
S'http://www.web2py.com/book/default/chapter/04'
p4654
tp4655
a(g4217
(S's\t\x00\x00\x00The Views'
tRp4656
I00
S'http://www.web2py.com/book/default/chapter/05'
p4657
tp4658
a(g4217
(S't\x08\x00\x00\x00Database'
tRp4659
I00
S'http://www.web2py.com/book/default/chapter/06'
p4660
tp4661
a(g4217
(S's\x14\x00\x00\x00Forms and Validators'
tRp4662
I00
S'http://www.web2py.com/book/default/chapter/07'
p4663
tp4664
a(g4217
(S's\r\x00\x00\x00Email and SMS'
tRp4665
I00
S'http://www.web2py.com/book/default/chapter/08'
p4666
tp4667
a(g4217
(S's\x0e\x00\x00\x00Access Control'
tRp4668
I00
S'http://www.web2py.com/book/default/chapter/09'
p4669
tp4670
a(g4217
(S't\x08\x00\x00\x00Services'
tRp4671
I00
S'http://www.web2py.com/book/default/chapter/10'
p4672
tp4673
a(g4217
(S's\x0c\x00\x00\x00Ajax Recipes'
tRp4674
I00
S'http://www.web2py.com/book/default/chapter/11'
p4675
tp4676
a(g4217
(S's\x16\x00\x00\x00Components and Plugins'
tRp4677
I00
S'http://www.web2py.com/book/default/chapter/12'
p4678
tp4679
a(g4217
(S's\x12\x00\x00\x00Deployment Recipes'
tRp4680
I00
S'http://www.web2py.com/book/default/chapter/13'
p4681
tp4682
a(g4217
(S's\r\x00\x00\x00Other Recipes'
tRp4683
I00
S'http://www.web2py.com/book/default/chapter/14'
p4684
tp4685
a(g4217
(S's\r\x00\x00\x00Buy this book'
tRp4686
I00
S'http://stores.lulu.com/web2py'
p4687
tp4688
aasbasbasbasbasbasbasbag63
(g79
g65
NtRp4689
(dp4690
g68
(dp4691
sg77
g4331
sg70
(lp4692
g63
(g84
g65
NtRp4693
(dp4694
g68
(dp4695
sg77
g4689
sg70
(lp4696
g63
(g64
g65
NtRp4697
(dp4698
g68
(dp4699
g76
I2
ssg77
g4693
sg70
(lp4700
g63
(g72
g65
NtRp4701
(dp4702
g68
(dp4703
g76
I1
ssg77
Nsg70
(lp4704
g63
(g79
g65
NtRp4705
(dp4706
g68
(dp4707
sg77
g4701
sg70
(lp4708
g63
(g84
g65
NtRp4709
(dp4710
g68
(dp4711
sg77
g4705
sg70
(lp4712
g63
(g64
g65
NtRp4713
(dp4714
g68
(dp4715
g76
I1
ssg77
g4709
sg70
(lp4716
g4217
(S't\t\x00\x00\x00Community'
tRp4717
asbasbasbag63
(g79
g65
NtRp4718
(dp4719
g68
(dp4720
sg77
g4701
sg70
(lp4721
g63
(g84
g65
NtRp4722
(dp4723
g68
(dp4724
sg77
g4718
sg70
(lp4725
g63
(g64
g65
NtRp4726
(dp4727
g68
(dp4728
g76
I1
ssg77
g4722
sg70
(lp4729
I00
asbasbasbag63
(g79
g65
NtRp4730
(dp4731
g68
(dp4732
sg77
g4701
sg70
(lp4733
g63
(g84
g65
NtRp4734
(dp4735
g68
(dp4736
sg77
g4730
sg70
(lp4737
g63
(g64
g65
NtRp4738
(dp4739
g68
(dp4740
g76
I1
ssg77
g4734
sg70
(lp4741
Nasbasbasbag63
(g79
g65
NtRp4742
(dp4743
g68
(dp4744
sg77
g4701
sg70
(lp4745
g63
(g84
g65
NtRp4746
(dp4747
g68
(dp4748
sg77
g4742
sg70
(lp4749
g63
(g64
g65
NtRp4750
(dp4751
g68
(dp4752
g76
I1
ssg77
g4746
sg70
(lp4753
(lp4754
(g4217
(S't\x06\x00\x00\x00Groups'
tRp4755
I00
S'http://www.web2py.com/examples/default/usergroups'
p4756
tp4757
a(g4217
(S't\x07\x00\x00\x00Twitter'
tRp4758
I00
S'http://twitter.com/web2py'
p4759
tp4760
a(g4217
(S's\t\x00\x00\x00Live Chat'
tRp4761
I00
S'http://webchat.freenode.net/?channels=web2py'
p4762
tp4763
aasbasbasbasbasbasbasbag63
(g79
g65
NtRp4764
(dp4765
g68
(dp4766
sg77
g4331
sg70
(lp4767
g63
(g84
g65
NtRp4768
(dp4769
g68
(dp4770
sg77
g4764
sg70
(lp4771
g63
(g64
g65
NtRp4772
(dp4773
g68
(dp4774
g76
I2
ssg77
g4768
sg70
(lp4775
g63
(g72
g65
NtRp4776
(dp4777
g68
(dp4778
g76
I1
ssg77
Nsg70
(lp4779
g63
(g79
g65
NtRp4780
(dp4781
g68
(dp4782
sg77
g4776
sg70
(lp4783
g63
(g84
g65
NtRp4784
(dp4785
g68
(dp4786
sg77
g4780
sg70
(lp4787
g63
(g64
g65
NtRp4788
(dp4789
g68
(dp4790
g76
I1
ssg77
g4784
sg70
(lp4791
g4217
(S't\x07\x00\x00\x00Plugins'
tRp4792
asbasbasbag63
(g79
g65
NtRp4793
(dp4794
g68
(dp4795
sg77
g4776
sg70
(lp4796
g63
(g84
g65
NtRp4797
(dp4798
g68
(dp4799
sg77
g4793
sg70
(lp4800
g63
(g64
g65
NtRp4801
(dp4802
g68
(dp4803
g76
I1
ssg77
g4797
sg70
(lp4804
I00
asbasbasbag63
(g79
g65
NtRp4805
(dp4806
g68
(dp4807
sg77
g4776
sg70
(lp4808
g63
(g84
g65
NtRp4809
(dp4810
g68
(dp4811
sg77
g4805
sg70
(lp4812
g63
(g64
g65
NtRp4813
(dp4814
g68
(dp4815
g76
I1
ssg77
g4809
sg70
(lp4816
Nasbasbasbag63
(g79
g65
NtRp4817
(dp4818
g68
(dp4819
sg77
g4776
sg70
(lp4820
g63
(g84
g65
NtRp4821
(dp4822
g68
(dp4823
sg77
g4817
sg70
(lp4824
g63
(g64
g65
NtRp4825
(dp4826
g68
(dp4827
g76
I1
ssg77
g4821
sg70
(lp4828
(lp4829
(S'plugin_wiki'
p4830
I00
S'http://web2py.com/examples/default/download'
p4831
tp4832
a(g4217
(S's\r\x00\x00\x00Other Plugins'
tRp4833
I00
g4563
tp4834
a(g4217
(S's\x0e\x00\x00\x00Layout Plugins'
tRp4835
I00
g4566
tp4836
aasbasbasbasbasbasbasbasbasbasbasbasbasbasbasbasbasbasbasbag63
(g79
g65
NtRp4837
(dp4838
g68
(dp4839
sg77
g3712
sg70
(lp4840
g63
(g84
g65
NtRp4841
(dp4842
g68
(dp4843
g88
g89
ssg77
g4837
sg70
(lp4844
S'meta'
p4845
asbag63
(g84
g65
NtRp4846
(dp4847
g68
(dp4848
g95
g96
ssg77
g4837
sg70
(lp4849
S':'
asbag63
(g84
g65
NtRp4850
(dp4851
g68
(dp4852
sg77
g4837
sg70
(lp4853
g63
(g64
g65
NtRp4854
(dp4855
g68
(dp4856
g76
I5
ssg77
g4850
sg70
(lp4857
g63
(g72
g65
NtRp4858
(dp4859
g68
(dp4860
g76
I4
ssg77
Nsg70
(lp4861
g63
(g79
g65
NtRp4862
(dp4863
g68
(dp4864
sg77
g4858
sg70
(lp4865
g63
(g84
g65
NtRp4866
(dp4867
g68
(dp4868
g88
g89
ssg77
g4862
sg70
(lp4869
S'author'
p4870
asbag63
(g84
g65
NtRp4871
(dp4872
g68
(dp4873
g95
g96
ssg77
g4862
sg70
(lp4874
S':'
asbag63
(g84
g65
NtRp4875
(dp4876
g68
(dp4877
sg77
g4862
sg70
(lp4878
g63
(g64
g65
NtRp4879
(dp4880
g68
(dp4881
g76
I4
ssg77
g4875
sg70
(lp4882
S'Your Name <you@example.com>'
p4883
asbasbasbag63
(g79
g65
NtRp4884
(dp4885
g68
(dp4886
sg77
g4858
sg70
(lp4887
g63
(g84
g65
NtRp4888
(dp4889
g68
(dp4890
g88
g89
ssg77
g4884
sg70
(lp4891
S'copyright'
p4892
asbag63
(g84
g65
NtRp4893
(dp4894
g68
(dp4895
g95
g96
ssg77
g4884
sg70
(lp4896
S':'
asbag63
(g84
g65
NtRp4897
(dp4898
g68
(dp4899
sg77
g4884
sg70
(lp4900
g63
(g64
g65
NtRp4901
(dp4902
g68
(dp4903
g76
I4
ssg77
g4897
sg70
(lp4904
S'Copyright 2011'
p4905
asbasbasbag63
(g79
g65
NtRp4906
(dp4907
g68
(dp4908
sg77
g4858
sg70
(lp4909
g63
(g84
g65
NtRp4910
(dp4911
g68
(dp4912
g88
g89
ssg77
g4906
sg70
(lp4913
S'description'
p4914
asbag63
(g84
g65
NtRp4915
(dp4916
g68
(dp4917
g95
g96
ssg77
g4906
sg70
(lp4918
S':'
asbag63
(g84
g65
NtRp4919
(dp4920
g68
(dp4921
sg77
g4906
sg70
(lp4922
g63
(g64
g65
NtRp4923
(dp4924
g68
(dp4925
g76
I4
ssg77
g4919
sg70
(lp4926
S'a cool new app'
p4927
asbasbasbag63
(g79
g65
NtRp4928
(dp4929
g68
(dp4930
sg77
g4858
sg70
(lp4931
g63
(g84
g65
NtRp4932
(dp4933
g68
(dp4934
g88
g89
ssg77
g4928
sg70
(lp4935
S'generator'
p4936
asbag63
(g84
g65
NtRp4937
(dp4938
g68
(dp4939
g95
g96
ssg77
g4928
sg70
(lp4940
S':'
asbag63
(g84
g65
NtRp4941
(dp4942
g68
(dp4943
sg77
g4928
sg70
(lp4944
g63
(g64
g65
NtRp4945
(dp4946
g68
(dp4947
g76
I4
ssg77
g4941
sg70
(lp4948
S'Web2py Web Framework'
p4949
asbasbasbag63
(g79
g65
NtRp4950
(dp4951
g68
(dp4952
sg77
g4858
sg70
(lp4953
g63
(g84
g65
NtRp4954
(dp4955
g68
(dp4956
g88
g89
ssg77
g4950
sg70
(lp4957
S'keywords'
p4958
asbag63
(g84
g65
NtRp4959
(dp4960
g68
(dp4961
g95
g96
ssg77
g4950
sg70
(lp4962
S':'
asbag63
(g84
g65
NtRp4963
(dp4964
g68
(dp4965
sg77
g4950
sg70
(lp4966
g63
(g64
g65
NtRp4967
(dp4968
g68
(dp4969
g76
I4
ssg77
g4963
sg70
(lp4970
S'web2py, python, framework'
p4971
asbasbasbasbasbasbasbag63
(g79
g65
NtRp4972
(dp4973
g68
(dp4974
sg77
g3712
sg70
(lp4975
g63
(g84
g65
NtRp4976
(dp4977
g68
(dp4978
g88
g89
ssg77
g4972
sg70
(lp4979
S'postprocessing'
p4980
asbag63
(g84
g65
NtRp4981
(dp4982
g68
(dp4983
g95
g96
ssg77
g4972
sg70
(lp4984
S':'
asbag63
(g84
g65
NtRp4985
(dp4986
g68
(dp4987
sg77
g4972
sg70
(lp4988
g63
(g64
g65
NtRp4989
(dp4990
g68
(dp4991
g76
I5
ssg77
g4985
sg70
(lp4992
g63
(g72
g65
NtRp4993
(dp4994
g68
(dp4995
g76
I4
ssg77
Nsg70
(lp4996
sbasbasbasbag63
(g79
g65
NtRp4997
(dp4998
g68
(dp4999
sg77
g3712
sg70
(lp5000
g63
(g84
g65
NtRp5001
(dp5002
g68
(dp5003
g88
g89
ssg77
g4997
sg70
(lp5004
S'session_file'
p5005
asbag63
(g84
g65
NtRp5006
(dp5007
g68
(dp5008
g95
g96
ssg77
g4997
sg70
(lp5009
S':'
asbag63
(g84
g65
NtRp5010
(dp5011
g68
(dp5012
sg77
g4997
sg70
(lp5013
g63
(g64
g65
NtRp5014
(dp5015
g68
(dp5016
g76
I5
ssg77
g5010
sg70
(lp5017
S"<open file '/home/iscott/web/web2py/applications/grammateus3/sessions/127.0.0.1-03d15d8e-e891-4307-a6bf-5717208181cd', mode 'rb+' at 0xaad5bd0>"
p5018
asbasbasbag63
(g79
g65
NtRp5019
(dp5020
g68
(dp5021
sg77
g3712
sg70
(lp5022
g63
(g84
g65
NtRp5023
(dp5024
g68
(dp5025
g88
g89
ssg77
g5019
sg70
(lp5026
S'session_filename'
p5027
asbag63
(g84
g65
NtRp5028
(dp5029
g68
(dp5030
g95
g96
ssg77
g5019
sg70
(lp5031
S':'
asbag63
(g84
g65
NtRp5032
(dp5033
g68
(dp5034
sg77
g5019
sg70
(lp5035
g63
(g64
g65
NtRp5036
(dp5037
g68
(dp5038
g76
I5
ssg77
g5032
sg70
(lp5039
S'/home/iscott/web/web2py/applications/grammateus3/sessions/127.0.0.1-03d15d8e-e891-4307-a6bf-5717208181cd'
p5040
asbasbasbag63
(g79
g65
NtRp5041
(dp5042
g68
(dp5043
sg77
g3712
sg70
(lp5044
g63
(g84
g65
NtRp5045
(dp5046
g68
(dp5047
g88
g89
ssg77
g5041
sg70
(lp5048
S'session_id'
p5049
asbag63
(g84
g65
NtRp5050
(dp5051
g68
(dp5052
g95
g96
ssg77
g5041
sg70
(lp5053
S':'
asbag63
(g84
g65
NtRp5054
(dp5055
g68
(dp5056
sg77
g5041
sg70
(lp5057
g63
(g64
g65
NtRp5058
(dp5059
g68
(dp5060
g76
I5
ssg77
g5054
sg70
(lp5061
S'127.0.0.1-03d15d8e-e891-4307-a6bf-5717208181cd'
p5062
asbasbasbag63
(g79
g65
NtRp5063
(dp5064
g68
(dp5065
sg77
g3712
sg70
(lp5066
g63
(g84
g65
NtRp5067
(dp5068
g68
(dp5069
g88
g89
ssg77
g5063
sg70
(lp5070
S'session_id_name'
p5071
asbag63
(g84
g65
NtRp5072
(dp5073
g68
(dp5074
g95
g96
ssg77
g5063
sg70
(lp5075
S':'
asbag63
(g84
g65
NtRp5076
(dp5077
g68
(dp5078
sg77
g5063
sg70
(lp5079
g63
(g64
g65
NtRp5080
(dp5081
g68
(dp5082
g76
I5
ssg77
g5076
sg70
(lp5083
g3769
asbasbasbag63
(g79
g65
NtRp5084
(dp5085
g68
(dp5086
sg77
g3712
sg70
(lp5087
g63
(g84
g65
NtRp5088
(dp5089
g68
(dp5090
g88
g89
ssg77
g5084
sg70
(lp5091
S'session_locked'
p5092
asbag63
(g84
g65
NtRp5093
(dp5094
g68
(dp5095
g95
g96
ssg77
g5084
sg70
(lp5096
S':'
asbag63
(g84
g65
NtRp5097
(dp5098
g68
(dp5099
sg77
g5084
sg70
(lp5100
g63
(g64
g65
NtRp5101
(dp5102
g68
(dp5103
g76
I5
ssg77
g5097
sg70
(lp5104
g106
asbasbasbag63
(g79
g65
NtRp5105
(dp5106
g68
(dp5107
sg77
g3712
sg70
(lp5108
g63
(g84
g65
NtRp5109
(dp5110
g68
(dp5111
g88
g89
ssg77
g5105
sg70
(lp5112
S'session_new'
p5113
asbag63
(g84
g65
NtRp5114
(dp5115
g68
(dp5116
g95
g96
ssg77
g5105
sg70
(lp5117
S':'
asbag63
(g84
g65
NtRp5118
(dp5119
g68
(dp5120
sg77
g5105
sg70
(lp5121
g63
(g64
g65
NtRp5122
(dp5123
g68
(dp5124
g76
I5
ssg77
g5118
sg70
(lp5125
g1371
asbasbasbag63
(g79
g65
NtRp5126
(dp5127
g68
(dp5128
sg77
g3712
sg70
(lp5129
g63
(g84
g65
NtRp5130
(dp5131
g68
(dp5132
g88
g89
ssg77
g5126
sg70
(lp5133
S'status'
p5134
asbag63
(g84
g65
NtRp5135
(dp5136
g68
(dp5137
g95
g96
ssg77
g5126
sg70
(lp5138
S':'
asbag63
(g84
g65
NtRp5139
(dp5140
g68
(dp5141
sg77
g5126
sg70
(lp5142
g63
(g64
g65
NtRp5143
(dp5144
g68
(dp5145
g76
I5
ssg77
g5139
sg70
(lp5146
S'200'
p5147
asbasbasbag63
(g79
g65
NtRp5148
(dp5149
g68
(dp5150
sg77
g3712
sg70
(lp5151
g63
(g84
g65
NtRp5152
(dp5153
g68
(dp5154
g88
g89
ssg77
g5148
sg70
(lp5155
S'subtitle'
p5156
asbag63
(g84
g65
NtRp5157
(dp5158
g68
(dp5159
g95
g96
ssg77
g5148
sg70
(lp5160
S':'
asbag63
(g84
g65
NtRp5161
(dp5162
g68
(dp5163
sg77
g5148
sg70
(lp5164
g63
(g64
g65
NtRp5165
(dp5166
g68
(dp5167
g76
I5
ssg77
g5161
sg70
(lp5168
g4217
(S's\r\x00\x00\x00customize me!'
tRp5169
asbasbasbag63
(g79
g65
NtRp5170
(dp5171
g68
(dp5172
sg77
g3712
sg70
(lp5173
g63
(g84
g65
NtRp5174
(dp5175
g68
(dp5176
g88
g89
ssg77
g5170
sg70
(lp5177
S'title'
p5178
asbag63
(g84
g65
NtRp5179
(dp5180
g68
(dp5181
g95
g96
ssg77
g5170
sg70
(lp5182
S':'
asbag63
(g84
g65
NtRp5183
(dp5184
g68
(dp5185
sg77
g5170
sg70
(lp5186
g63
(g64
g65
NtRp5187
(dp5188
g68
(dp5189
g76
I5
ssg77
g5183
sg70
(lp5190
S'Grammateus3'
p5191
asbasbasbag63
(g79
g65
NtRp5192
(dp5193
g68
(dp5194
sg77
g3712
sg70
(lp5195
g63
(g84
g65
NtRp5196
(dp5197
g68
(dp5198
g88
g89
ssg77
g5192
sg70
(lp5199
g2838
asbag63
(g84
g65
NtRp5200
(dp5201
g68
(dp5202
g95
g96
ssg77
g5192
sg70
(lp5203
S':'
asbag63
(g84
g65
NtRp5204
(dp5205
g68
(dp5206
sg77
g5192
sg70
(lp5207
g63
(g64
g65
NtRp5208
(dp5209
g68
(dp5210
g76
I5
ssg77
g5204
sg70
(lp5211
g2851
asbasbasbag63
(g79
g65
NtRp5212
(dp5213
g68
(dp5214
sg77
g3712
sg70
(lp5215
g63
(g84
g65
NtRp5216
(dp5217
g68
(dp5218
g88
g89
ssg77
g5212
sg70
(lp5219
S'view'
p5220
asbag63
(g84
g65
NtRp5221
(dp5222
g68
(dp5223
g95
g96
ssg77
g5212
sg70
(lp5224
S':'
asbag63
(g84
g65
NtRp5225
(dp5226
g68
(dp5227
sg77
g5212
sg70
(lp5228
g63
(g64
g65
NtRp5229
(dp5230
g68
(dp5231
g76
I5
ssg77
g5225
sg70
(lp5232
S'docs/section.load'
p5233
asbasbasbasbasbsS'locals'
p5234
(dp5235
S'_ModifyContentOnlyProxy'
p5236
S"<type 'lxml.etree._ModifyContentOnlyProxy'>"
p5237
sS'XPathEvaluator'
p5238
S'<built-in function XPathEvaluator>'
p5239
sS'ParserBasedElementClassLookup'
p5240
S"<type 'lxml.etree.ParserBasedElementClassLookup'>"
p5241
sS'_Attrib'
p5242
S"<type 'lxml.etree._Attrib'>"
p5243
sS'_FilelikeWriter'
p5244
S"<type 'lxml.etree._FilelikeWriter'>"
p5245
sS'strip_attributes'
p5246
S'<built-in function strip_attributes>'
p5247
sS'SiblingsIterator'
p5248
S"<type 'lxml.etree.SiblingsIterator'>"
p5249
sS'LIBXSLT_VERSION'
p5250
S'(1, 1, 26)'
p5251
sS'XMLDTDID'
p5252
S'<built-in function XMLDTDID>'
p5253
sS'ElementTree'
p5254
S'<built-in function ElementTree>'
p5255
sS'cleanup_namespaces'
p5256
S'<built-in function cleanup_namespaces>'
p5257
sS'set_default_parser'
p5258
S'<built-in function set_default_parser>'
p5259
sS'ElementClassLookup'
p5260
S"<type 'lxml.etree.ElementClassLookup'>"
p5261
sS'parseid'
p5262
S'<built-in function parseid>'
p5263
sS'LxmlSyntaxError'
p5264
S"<class 'lxml.etree.LxmlSyntaxError'>"
p5265
sS'_XSLTProcessingInstruction'
p5266
S"<type 'lxml.etree._XSLTProcessingInstruction'>"
p5267
sS'_ParserContext'
p5268
S"<type 'lxml.etree._ParserContext'>"
p5269
sS'__pyx_capi__'
p5270
S'{\'appendChild\': <capsule object "void (struct LxmlElement *, struct LxmlElement *)">, \'attributeValue\': <capsule object "PyObject *(xmlNode *, xmlAttr *)">, \'attributeValueFromNsName\': <capsule object "PyObject *(xmlNode *, char *, char *)">, \'callLookupFallback\': <capsule object "PyObject *(struct LxmlFallbackE...lassLookup *, struct LxmlDocument *, xmlNode *)">, \'collectAttributes\': <capsule object "PyObject *(xmlNode *, int)">, \'deepcopyNodeToDocument\': <capsule object "struct LxmlElement *(struct LxmlDocument *, xmlNode *)">, \'delAttribute\': <capsule object "int (struct LxmlElement *, PyObject *)">, \'delAttributeFromNsName\': <capsule object "int (xmlNode *, char *, char *)">, \'documentOrRaise\': <capsule object "struct LxmlDocument *(PyObject *)">, \'elementFactory\': <capsule object "struct LxmlElement *(struct LxmlDocument *, xmlNode *)">, ...}'
p5271
sS'_ModifyContentOnlyEntityProxy'
p5272
S"<type 'lxml.etree._ModifyContentOnlyEntityProxy'>"
p5273
sS'_IDDict'
p5274
S"<type 'lxml.etree._IDDict'>"
p5275
sS'XSLTParseError'
p5276
S"<class 'lxml.etree.XSLTParseError'>"
p5277
sS'__ContentOnlyElement'
p5278
S"<type 'lxml.etree.__ContentOnlyElement'>"
p5279
sS'CustomElementClassLookup'
p5280
S"<type 'lxml.etree.CustomElementClassLookup'>"
p5281
sS'_OpaqueNodeWrapper'
p5282
S"<type 'lxml.etree._OpaqueNodeWrapper'>"
p5283
sS'_XPathFunctionNamespaceRegistry'
p5284
S"<type 'lxml.etree._XPathFunctionNamespaceRegistry'>"
p5285
sS'_ReadOnlyElementProxy'
p5286
S"<type 'lxml.etree._ReadOnlyElementProxy'>"
p5287
sS'LxmlRegistryError'
p5288
S"<class 'lxml.etree.LxmlRegistryError'>"
p5289
sS'__file__'
p5290
S"'/usr/lib/python2.7/dist-packages/lxml/etree.so'"
p5291
sS'TreeBuilder'
p5292
S"<type 'lxml.etree.TreeBuilder'>"
p5293
sS'_FileReaderContext'
p5294
S"<type 'lxml.etree._FileReaderContext'>"
p5295
sS'C14NError'
p5296
S"<class 'lxml.etree.C14NError'>"
p5297
sS'CommentBase'
p5298
S"<type 'lxml.etree.CommentBase'>"
p5299
sS'tostring'
p5300
S'<built-in function tostring>'
p5301
sS'iselement'
p5302
S'<built-in function iselement>'
p5303
sS'_FeedParser'
p5304
S"<type 'lxml.etree._FeedParser'>"
p5305
sS'XPathError'
p5306
S"<class 'lxml.etree.XPathError'>"
p5307
sS'LxmlError'
p5308
S"<class 'lxml.etree.LxmlError'>"
p5309
sS'__version__'
p5310
S"u'2.3.0'"
p5311
sS'_ExsltRegExp'
p5312
S"<type 'lxml.etree._ExsltRegExp'>"
p5313
sS'XMLID'
p5314
S'<built-in function XMLID>'
p5315
sS'DocumentInvalid'
p5316
S"<class 'lxml.etree.DocumentInvalid'>"
p5317
sS'FunctionNamespace'
p5318
S'<built-in function FunctionNamespace>'
p5319
sS'XSLTExtensionError'
p5320
S"<class 'lxml.etree.XSLTExtensionError'>"
p5321
sS'_IterparseContext'
p5322
S"<type 'lxml.etree._IterparseContext'>"
p5323
sS'Entity'
p5324
S'<built-in function Entity>'
p5325
sS'_Entity'
p5326
S"<type 'lxml.etree._Entity'>"
p5327
sS'iterparse'
p5328
S"<type 'lxml.etree.iterparse'>"
p5329
sS'_XPathContext'
p5330
S"<type 'lxml.etree._XPathContext'>"
p5331
sS'__package__'
p5332
S"'lxml'"
p5333
sS'ElementChildIterator'
p5334
S"<type 'lxml.etree.ElementChildIterator'>"
p5335
sS'XPath'
p5336
S"<type 'lxml.etree.XPath'>"
p5337
sS'_LogEntry'
p5338
S"<type 'lxml.etree._LogEntry'>"
p5339
sS'_ResolverContext'
p5340
S"<type 'lxml.etree._ResolverContext'>"
p5341
sS'_AttribIterator'
p5342
S"<type 'lxml.etree._AttribIterator'>"
p5343
sS'_ReadOnlyEntityProxy'
p5344
S"<type 'lxml.etree._ReadOnlyEntityProxy'>"
p5345
sS'PyErrorLog'
p5346
S"<type 'lxml.etree.PyErrorLog'>"
p5347
sS'_SaxParserContext'
p5348
S"<type 'lxml.etree._SaxParserContext'>"
p5349
sS'_ElementTree'
p5350
S"<type 'lxml.etree._ElementTree'>"
p5351
sS'_ListErrorLog'
p5352
S"<type 'lxml.etree._ListErrorLog'>"
p5353
sS'DTD'
p5354
S"<type 'lxml.etree.DTD'>"
p5355
sS'AttributeBasedElementClassLookup'
p5356
S"<type 'lxml.etree.AttributeBasedElementClassLookup'>"
p5357
sS'HTMLParser'
p5358
S"<type 'lxml.etree.HTMLParser'>"
p5359
sS'ElementNamespaceClassLookup'
p5360
S"<type 'lxml.etree.ElementNamespaceClassLookup'>"
p5361
sS'XPathFunctionError'
p5362
S"<class 'lxml.etree.XPathFunctionError'>"
p5363
sS'ElementDepthFirstIterator'
p5364
S"<type 'lxml.etree.ElementDepthFirstIterator'>"
p5365
sS'XMLParser'
p5366
S"<type 'lxml.etree.XMLParser'>"
p5367
sS'XInclude'
p5368
S"<type 'lxml.etree.XInclude'>"
p5369
sS'Schematron'
p5370
S"<type 'lxml.etree.Schematron'>"
p5371
sS'__all__'
p5372
S"['AttributeBasedElementClassLookup', 'C14NError', 'CDATA', 'Comment', 'CommentBase', 'CustomElementClassLookup', 'DEBUG', 'DTD', 'DTDError', 'DTDParseError', 'DTDValidateError', 'DocumentInvalid', 'ETCompatXMLParser', 'ETXPath', 'Element', 'ElementBase', 'ElementClassLookup', 'ElementDefaultClassLookup', 'ElementNamespaceClassLookup', 'ElementTree', ...]"
p5373
sS'NamespaceRegistryError'
p5374
S"<class 'lxml.etree.NamespaceRegistryError'>"
p5375
sS'_Document'
p5376
S"<type 'lxml.etree._Document'>"
p5377
sS'strip_elements'
p5378
S'<built-in function strip_elements>'
p5379
sS'_XSLTContext'
p5380
S"<type 'lxml.etree._XSLTContext'>"
p5381
sS'HTML'
p5382
S'<built-in function HTML>'
p5383
sS'RelaxNG'
p5384
S"<type 'lxml.etree.RelaxNG'>"
p5385
sS'_BaseErrorLog'
p5386
S"<type 'lxml.etree._BaseErrorLog'>"
p5387
sS'PI'
p5388
S'<built-in function ProcessingInstruction>'
p5389
sS'_ParserSchemaValidationContext'
p5390
S"<type 'lxml.etree._ParserSchemaValidationContext'>"
p5391
sS'Extension'
p5392
S'<built-in function Extension>'
p5393
sS'__builtins__'
p5394
S"<module '__builtin__' (built-in)>"
p5395
sS'SchematronParseError'
p5396
S"<class 'lxml.etree.SchematronParseError'>"
p5397
sS'_Element'
p5398
S"<type 'lxml.etree._Element'>"
p5399
sS'XSLTExtension'
p5400
S"<type 'lxml.etree.XSLTExtension'>"
p5401
sS'XMLSchemaValidateError'
p5402
S"<class 'lxml.etree.XMLSchemaValidateError'>"
p5403
sS'XMLSchema'
p5404
S"<type 'lxml.etree.XMLSchema'>"
p5405
sS'DEBUG'
p5406
S'1'
sS'__name__'
p5407
S"'lxml.etree'"
p5408
sS'_ElementUnicodeResult'
p5409
S"<type 'lxml.etree._ElementUnicodeResult'>"
p5410
sS'ErrorTypes'
p5411
S"<class 'lxml.etree.ErrorTypes'>"
p5412
sS'Comment'
p5413
S'<built-in function Comment>'
p5414
sS'XMLTreeBuilder'
p5415
S"<type 'lxml.etree.ETCompatXMLParser'>"
p5416
sS'RelaxNGErrorTypes'
p5417
S"<class 'lxml.etree.RelaxNGErrorTypes'>"
p5418
sS'iterwalk'
p5419
S"<type 'lxml.etree.iterwalk'>"
p5420
sS'ProcessingInstruction'
p5421
S'<built-in function ProcessingInstruction>'
p5422
sS'LXML_VERSION'
p5423
S'(2, 3, 0, 0)'
p5424
sS'_InputDocument'
p5425
S"<type 'lxml.etree._InputDocument'>"
p5426
sS'RelaxNGValidateError'
p5427
S"<class 'lxml.etree.RelaxNGValidateError'>"
p5428
sS'strip_tags'
p5429
S'<built-in function strip_tags>'
p5430
sS'XIncludeError'
p5431
S"<class 'lxml.etree.XIncludeError'>"
p5432
sS'tounicode'
p5433
S'<built-in function tounicode>'
p5434
sS'PIBase'
p5435
S"<type 'lxml.etree.PIBase'>"
p5436
sS'_XSLTResolverContext'
p5437
S"<type 'lxml.etree._XSLTResolverContext'>"
p5438
sS'_ParserDictionaryContext'
p5439
S"<type 'lxml.etree._ParserDictionaryContext'>"
p5440
sS'ParserError'
p5441
S"<class 'lxml.etree.ParserError'>"
p5442
sS'_ElementIterator'
p5443
S"<type 'lxml.etree._ElementIterator'>"
p5444
sS'__docformat__'
p5445
S"u'restructuredtext en'"
p5446
sS'SerialisationError'
p5447
S"<class 'lxml.etree.SerialisationError'>"
p5448
sS'_ReadOnlyProxy'
p5449
S"<type 'lxml.etree._ReadOnlyProxy'>"
p5450
sS'_ReadOnlyPIProxy'
p5451
S"<type 'lxml.etree._ReadOnlyPIProxy'>"
p5452
sS'DocInfo'
p5453
S"<type 'lxml.etree.DocInfo'>"
p5454
sg3544
S'<built-in function dump>'
p5455
sS'XSLTSaveError'
p5456
S"<class 'lxml.etree.XSLTSaveError'>"
p5457
sS'LIBXSLT_COMPILED_VERSION'
p5458
S'(1, 1, 26)'
p5459
sS'ElementTextIterator'
p5460
S"<type 'lxml.etree.ElementTextIterator'>"
p5461
sg38
S"'The ``lxml.etree`` module implements the extended ElementTree API\\nfor XML.\\n'"
p5462
sS'_AppendOnlyElementProxy'
p5463
S"<type 'lxml.etree._AppendOnlyElementProxy'>"
p5464
sS'XPathElementEvaluator'
p5465
S"<type 'lxml.etree.XPathElementEvaluator'>"
p5466
sS'XML'
p5467
S'<built-in function XML>'
p5468
sS'XSLTError'
p5469
S"<class 'lxml.etree.XSLTError'>"
p5470
sS'XSLT'
p5471
S"<type 'lxml.etree.XSLT'>"
p5472
sS'_DomainErrorLog'
p5473
S"<type 'lxml.etree._DomainErrorLog'>"
p5474
sS'AncestorsIterator'
p5475
S"<type 'lxml.etree.AncestorsIterator'>"
p5476
sS'_BaseContext'
p5477
S"<type 'lxml.etree._BaseContext'>"
p5478
sS'_ModifyContentOnlyPIProxy'
p5479
S"<type 'lxml.etree._ModifyContentOnlyPIProxy'>"
p5480
sS'_BaseParser'
p5481
S"<type 'lxml.etree._BaseParser'>"
p5482
sS'Error'
p5483
S"<class 'lxml.etree.Error'>"
p5484
sS'ErrorLevels'
p5485
S"<class 'lxml.etree.ErrorLevels'>"
p5486
sS'_TargetParserContext'
p5487
S"<type 'lxml.etree._TargetParserContext'>"
p5488
sS'LIBXML_VERSION'
p5489
S'(2, 7, 8)'
p5490
sS'XPathResultError'
p5491
S"<class 'lxml.etree.XPathResultError'>"
p5492
sS'_OpaqueDocumentWrapper'
p5493
S"<type 'lxml.etree._OpaqueDocumentWrapper'>"
p5494
sS'XSLTAccessControl'
p5495
S"<type 'lxml.etree.XSLTAccessControl'>"
p5496
sS'XMLSyntaxError'
p5497
S"<class 'lxml.etree.XMLSyntaxError'>"
p5498
sS'XMLSchemaParseError'
p5499
S"<class 'lxml.etree.XMLSchemaParseError'>"
p5500
sS'EntityBase'
p5501
S"<type 'lxml.etree.EntityBase'>"
p5502
sS'_ExceptionContext'
p5503
S"<type 'lxml.etree._ExceptionContext'>"
p5504
sS'SubElement'
p5505
S'<built-in function SubElement>'
p5506
sS'CDATA'
p5507
S"<type 'lxml.etree.CDATA'>"
p5508
sS'_ElementTagMatcher'
p5509
S"<type 'lxml.etree._ElementTagMatcher'>"
p5510
sS'DTDError'
p5511
S"<class 'lxml.etree.DTDError'>"
p5512
sS'_ProcessingInstruction'
p5513
S"<type 'lxml.etree._ProcessingInstruction'>"
p5514
sS'get_default_parser'
p5515
S'<built-in function get_default_parser>'
p5516
sS'register_namespace'
p5517
S'<built-in function register_namespace>'
p5518
sS'ErrorDomains'
p5519
S"<class 'lxml.etree.ErrorDomains'>"
p5520
sS'LIBXML_COMPILED_VERSION'
p5521
S'(2, 7, 8)'
p5522
sS'DTDValidateError'
p5523
S"<class 'lxml.etree.DTDValidateError'>"
p5524
sS'_SaxParserTarget'
p5525
S"<type 'lxml.etree._SaxParserTarget'>"
p5526
sS'parse'
p5527
S'<built-in function parse>'
p5528
sS'set_element_class_lookup'
p5529
S'<built-in function set_element_class_lookup>'
p5530
sS'_TargetParserResult'
p5531
S"<class 'lxml.etree._TargetParserResult'>"
p5532
sS'FallbackElementClassLookup'
p5533
S"<type 'lxml.etree.FallbackElementClassLookup'>"
p5534
sS'RelaxNGError'
p5535
S"<class 'lxml.etree.RelaxNGError'>"
p5536
sS'XPathEvalError'
p5537
S"<class 'lxml.etree.XPathEvalError'>"
p5538
sS'PythonElementClassLookup'
p5539
S"<type 'lxml.etree.PythonElementClassLookup'>"
p5540
sS'_FunctionNamespaceRegistry'
p5541
S"<type 'lxml.etree._FunctionNamespaceRegistry'>"
p5542
sS'clear_error_log'
p5543
S'<built-in function clear_error_log>'
p5544
sS'_RotatingErrorLog'
p5545
S"<type 'lxml.etree._RotatingErrorLog'>"
p5546
sS'XPathDocumentEvaluator'
p5547
S"<type 'lxml.etree.XPathDocumentEvaluator'>"
p5548
sS'_XSLTQuotedStringParam'
p5549
S"<type 'lxml.etree._XSLTQuotedStringParam'>"
p5550
sS'ETXPath'
p5551
S"<type 'lxml.etree.ETXPath'>"
p5552
sS'SchematronError'
p5553
S"<class 'lxml.etree.SchematronError'>"
p5554
sS'Resolver'
p5555
S"<type 'lxml.etree.Resolver'>"
p5556
sS'_NamespaceRegistry'
p5557
S"<type 'lxml.etree._NamespaceRegistry'>"
p5558
sS'fromstringlist'
p5559
S'<built-in function fromstringlist>'
p5560
sS'XSLTApplyError'
p5561
S"<class 'lxml.etree.XSLTApplyError'>"
p5562
sS'_Comment'
p5563
S"<type 'lxml.etree._Comment'>"
p5564
sS'_Validator'
p5565
S"<type 'lxml.etree._Validator'>"
p5566
sS'DTDParseError'
p5567
S"<class 'lxml.etree.DTDParseError'>"
p5568
sS'_ResolverRegistry'
p5569
S"<type 'lxml.etree._ResolverRegistry'>"
p5570
sS'_XPathEvaluatorBase'
p5571
S"<type 'lxml.etree._XPathEvaluatorBase'>"
p5572
sS'_ErrorLog'
p5573
S"<type 'lxml.etree._ErrorLog'>"
p5574
sS'Element'
p5575
S'<built-in function Element>'
p5576
sS'ElementBase'
p5577
S"<type 'lxml.etree.ElementBase'>"
p5578
sS'_ElementStringResult'
p5579
S"<class 'lxml.etree._ElementStringResult'>"
p5580
sS'XPathSyntaxError'
p5581
S"<class 'lxml.etree.XPathSyntaxError'>"
p5582
sS'ParseError'
p5583
S"<class 'lxml.etree.ParseError'>"
p5584
sS'_ClassNamespaceRegistry'
p5585
S"<type 'lxml.etree._ClassNamespaceRegistry'>"
p5586
sS'_PythonSaxParserTarget'
p5587
S"<type 'lxml.etree._PythonSaxParserTarget'>"
p5588
sS'_XSLTResultTree'
p5589
S"<type 'lxml.etree._XSLTResultTree'>"
p5590
sS'_TempStore'
p5591
S"<type 'lxml.etree._TempStore'>"
p5592
sS'XMLSchemaError'
p5593
S"<class 'lxml.etree.XMLSchemaError'>"
p5594
sS'use_global_python_log'
p5595
S'<built-in function use_global_python_log>'
p5596
sS'tostringlist'
p5597
S'<built-in function tostringlist>'
p5598
sS'fromstring'
p5599
S'<built-in function fromstring>'
p5600
sS'QName'
p5601
S"<type 'lxml.etree.QName'>"
p5602
sS'SchematronValidateError'
p5603
S"<class 'lxml.etree.SchematronValidateError'>"
p5604
sS'ETCompatXMLParser'
p5605
S"<type 'lxml.etree.ETCompatXMLParser'>"
p5606
sS'RelaxNGParseError'
p5607
S"<class 'lxml.etree.RelaxNGParseError'>"
p5608
sS'__test__'
p5609
S"{u'XML (line 2700)': u'XML(text, parser=None, base_url=None)\\n\\n    P...ternal entities\\n    (DTD, XInclude, ...).\\n    '}"
p5610
sS'ElementDefaultClassLookup'
p5611
S"<type 'lxml.etree.ElementDefaultClassLookup'>"
p5612
sssS'traceback'
p5613
S'Traceback (most recent call last):\n  File "/home/iscott/web/web2py/gluon/restricted.py", line 204, in restricted\n    exec ccode in environment\n  File "/home/iscott/web/web2py/applications/grammateus3/controllers/docs.py", line 79, in <module>\n  File "/home/iscott/web/web2py/gluon/globals.py", line 172, in <lambda>\n    self._caller = lambda f: f()\n  File "/home/iscott/web/web2py/applications/grammateus3/controllers/docs.py", line 34, in section\n    p = BookParser(book_file)\n  File "applications/grammateus3/modules/parse.py", line 25, in __init__\n    self.tree = etree.parse(xml_file, parser)\n  File "lxml.etree.pyx", line 2942, in lxml.etree.parse (src/lxml/lxml.etree.c:54187)\n  File "parser.pxi", line 1528, in lxml.etree._parseDocument (src/lxml/lxml.etree.c:79485)\n  File "parser.pxi", line 1557, in lxml.etree._parseDocumentFromURL (src/lxml/lxml.etree.c:79768)\n  File "parser.pxi", line 1457, in lxml.etree._parseDocFromFile (src/lxml/lxml.etree.c:78843)\n  File "parser.pxi", line 997, in lxml.etree._BaseParser._parseDocFromFile (src/lxml/lxml.etree.c:75698)\n  File "parser.pxi", line 564, in lxml.etree._ParserContext._handleParseResultDoc (src/lxml/lxml.etree.c:71739)\n  File "parser.pxi", line 645, in lxml.etree._handleParseResult (src/lxml/lxml.etree.c:72614)\n  File "parser.pxi", line 583, in lxml.etree._raiseParseError (src/lxml/lxml.etree.c:71927)\nIOError: Error reading file \'applications/grammateus3/static/docs/grammateus3.xml\': failed to load external entity "applications/grammateus3/static/docs/grammateus3.xml"\n'
p5614
s.