(dp1
S'output'
p2
S"<type 'exceptions.IndexError'> list index out of range"
p3
sS'layer'
p4
S'/home/ian/Web Pages/web2py/applications/grammateus3/controllers/docs.py'
p5
sS'code'
p6
S"# coding: utf8\nfrom lxml import etree\n\n# Track changes to modules so that the server knows about them\n# Only do this for local requests e.g. on a development machine\nif request.is_local:\n    from gluon.custom_import import track_changes\n    track_changes()\n\nfrom parse import BookParser\n\ndef index():\n    filename = request.args[0]\n    return dict(filename = filename)\n\ndef text():\n    filename = request.args[0]\n    return dict(filename = filename)\n\ndef test():\n    filename = request.args[0]\n    book_file = 'applications/grammateus3/static/docs/%s.xml' % filename\n    p = BookParser(book_file)\n    info = p.book_info()\n\n    title = info['title']\n    for version in info['versions']:\n        for key, value in version.items():\n            if key != 'text_structure':\n                print 'Version', key, '-->', value\n\n            else:\n                print 'Version textstructure'\n                for ref, ref_val in value.items():\n                    for unit, unit_val in ref_val.items():\n                        for mss, mss_val in unit_val.items():\n                            print '\\t', ref, '-->', unit, '-->', mss, '-->', mss_val\n        print '************'\n    print\n    print\n\n    return dict(title = title, info = info)\n\nresponse._vars=response._caller(test)\n"
p7
sS'snapshot'
p8
(dp9
S'exception'
p10
(dp11
S'__hash__'
p12
S"<method-wrapper '__hash__' of exceptions.IndexError object>"
p13
sS'__setattr__'
p14
S"<method-wrapper '__setattr__' of exceptions.IndexError object>"
p15
sS'__reduce_ex__'
p16
S'<built-in method __reduce_ex__ of exceptions.IndexError object>'
p17
sS'__getslice__'
p18
S"<method-wrapper '__getslice__' of exceptions.IndexError object>"
p19
sS'__getitem__'
p20
S"<method-wrapper '__getitem__' of exceptions.IndexError object>"
p21
sS'__setstate__'
p22
S'<built-in method __setstate__ of exceptions.IndexError object>'
p23
sS'args'
p24
S"('list index out of range',)"
p25
sS'__reduce__'
p26
S'<built-in method __reduce__ of exceptions.IndexError object>'
p27
sS'__str__'
p28
S"<method-wrapper '__str__' of exceptions.IndexError object>"
p29
sS'__format__'
p30
S'<built-in method __format__ of exceptions.IndexError object>'
p31
sS'__getattribute__'
p32
S"<method-wrapper '__getattribute__' of exceptions.IndexError object>"
p33
sS'__class__'
p34
S"<type 'exceptions.IndexError'>"
p35
sS'__unicode__'
p36
S'<built-in method __unicode__ of exceptions.IndexError object>'
p37
sS'__delattr__'
p38
S"<method-wrapper '__delattr__' of exceptions.IndexError object>"
p39
sS'__subclasshook__'
p40
S'<built-in method __subclasshook__ of type object>'
p41
sS'__repr__'
p42
S"<method-wrapper '__repr__' of exceptions.IndexError object>"
p43
sS'__dict__'
p44
S'{}'
p45
sS'__sizeof__'
p46
S'<built-in method __sizeof__ of exceptions.IndexError object>'
p47
sS'__doc__'
p48
S"'Sequence index out of range.'"
p49
sS'__init__'
p50
S"<method-wrapper '__init__' of exceptions.IndexError object>"
p51
sS'__new__'
p52
S'<built-in method __new__ of type object>'
p53
ssS'evalue'
p54
S'list index out of range'
p55
sS'request'
p56
ccopy_reg
_reconstructor
p57
(cgluon.html
BEAUTIFY
p58
c__builtin__
object
p59
NtRp60
(dp61
S'attributes'
p62
(dp63
sS'components'
p64
(lp65
g57
(cgluon.html
TABLE
p66
g59
NtRp67
(dp68
g62
(dp69
S'level'
p70
I5
ssS'parent'
p71
Nsg64
(lp72
g57
(cgluon.html
TR
p73
g59
NtRp74
(dp75
g62
(dp76
sg71
g67
sg64
(lp77
g57
(cgluon.html
TD
p78
g59
NtRp79
(dp80
g62
(dp81
S'_style'
p82
S'font-weight:bold;vertical-align:top'
p83
ssg71
g74
sg64
(lp84
S'ajax'
p85
asbag57
(g78
g59
NtRp86
(dp87
g62
(dp88
S'_valign'
p89
S'top'
p90
ssg71
g74
sg64
(lp91
S':'
asbag57
(g78
g59
NtRp92
(dp93
g62
(dp94
sg71
g74
sg64
(lp95
g57
(g58
g59
NtRp96
(dp97
g62
(dp98
g70
I5
ssg71
g92
sg64
(lp99
S'False'
p100
asbasbasbag57
(g73
g59
NtRp101
(dp102
g62
(dp103
sg71
g67
sg64
(lp104
g57
(g78
g59
NtRp105
(dp106
g62
(dp107
g82
g83
ssg71
g101
sg64
(lp108
S'application'
p109
asbag57
(g78
g59
NtRp110
(dp111
g62
(dp112
g89
g90
ssg71
g101
sg64
(lp113
S':'
asbag57
(g78
g59
NtRp114
(dp115
g62
(dp116
sg71
g101
sg64
(lp117
g57
(g58
g59
NtRp118
(dp119
g62
(dp120
g70
I5
ssg71
g114
sg64
(lp121
S'grammateus3'
p122
asbasbasbag57
(g73
g59
NtRp123
(dp124
g62
(dp125
sg71
g67
sg64
(lp126
g57
(g78
g59
NtRp127
(dp128
g62
(dp129
g82
g83
ssg71
g123
sg64
(lp130
g24
asbag57
(g78
g59
NtRp131
(dp132
g62
(dp133
g89
g90
ssg71
g123
sg64
(lp134
S':'
asbag57
(g78
g59
NtRp135
(dp136
g62
(dp137
sg71
g123
sg64
(lp138
g57
(g58
g59
NtRp139
(dp140
g62
(dp141
g70
I5
ssg71
g135
sg64
(lp142
g57
(g66
g59
NtRp143
(dp144
g62
(dp145
g70
I4
ssg71
Nsg64
(lp146
g57
(g73
g59
NtRp147
(dp148
g62
(dp149
sg71
g143
sg64
(lp150
g57
(g78
g59
NtRp151
(dp152
g62
(dp153
sg71
g147
sg64
(lp154
g57
(g58
g59
NtRp155
(dp156
g62
(dp157
g70
I4
ssg71
g151
sg64
(lp158
S'1En'
p159
asbasbasbasbasbasbasbag57
(g73
g59
NtRp160
(dp161
g62
(dp162
sg71
g67
sg64
(lp163
g57
(g78
g59
NtRp164
(dp165
g62
(dp166
g82
g83
ssg71
g160
sg64
(lp167
S'body'
p168
asbag57
(g78
g59
NtRp169
(dp170
g62
(dp171
g89
g90
ssg71
g160
sg64
(lp172
S':'
asbag57
(g78
g59
NtRp173
(dp174
g62
(dp175
sg71
g160
sg64
(lp176
g57
(g58
g59
NtRp177
(dp178
g62
(dp179
g70
I5
ssg71
g173
sg64
(lp180
S'<cStringIO.StringO object at 0x31dd148>'
p181
asbasbasbag57
(g73
g59
NtRp182
(dp183
g62
(dp184
sg71
g67
sg64
(lp185
g57
(g78
g59
NtRp186
(dp187
g62
(dp188
g82
g83
ssg71
g182
sg64
(lp189
S'client'
p190
asbag57
(g78
g59
NtRp191
(dp192
g62
(dp193
g89
g90
ssg71
g182
sg64
(lp194
S':'
asbag57
(g78
g59
NtRp195
(dp196
g62
(dp197
sg71
g182
sg64
(lp198
g57
(g58
g59
NtRp199
(dp200
g62
(dp201
g70
I5
ssg71
g195
sg64
(lp202
S'127.0.0.1'
p203
asbasbasbag57
(g73
g59
NtRp204
(dp205
g62
(dp206
sg71
g67
sg64
(lp207
g57
(g78
g59
NtRp208
(dp209
g62
(dp210
g82
g83
ssg71
g204
sg64
(lp211
S'controller'
p212
asbag57
(g78
g59
NtRp213
(dp214
g62
(dp215
g89
g90
ssg71
g204
sg64
(lp216
S':'
asbag57
(g78
g59
NtRp217
(dp218
g62
(dp219
sg71
g204
sg64
(lp220
g57
(g58
g59
NtRp221
(dp222
g62
(dp223
g70
I5
ssg71
g217
sg64
(lp224
S'docs'
p225
asbasbasbag57
(g73
g59
NtRp226
(dp227
g62
(dp228
sg71
g67
sg64
(lp229
g57
(g78
g59
NtRp230
(dp231
g62
(dp232
g82
g83
ssg71
g226
sg64
(lp233
S'cookies'
p234
asbag57
(g78
g59
NtRp235
(dp236
g62
(dp237
g89
g90
ssg71
g226
sg64
(lp238
S':'
asbag57
(g78
g59
NtRp239
(dp240
g62
(dp241
sg71
g226
sg64
(lp242
g57
(g58
g59
NtRp243
(dp244
g62
(dp245
g70
I5
ssg71
g239
sg64
(lp246
g57
(g66
g59
NtRp247
(dp248
g62
(dp249
g70
I4
ssg71
Nsg64
(lp250
g57
(g73
g59
NtRp251
(dp252
g62
(dp253
sg71
g247
sg64
(lp254
g57
(g78
g59
NtRp255
(dp256
g62
(dp257
g82
g83
ssg71
g251
sg64
(lp258
S'session_id_admin'
p259
asbag57
(g78
g59
NtRp260
(dp261
g62
(dp262
g89
g90
ssg71
g251
sg64
(lp263
S':'
asbag57
(g78
g59
NtRp264
(dp265
g62
(dp266
sg71
g251
sg64
(lp267
g57
(g58
g59
NtRp268
(dp269
g62
(dp270
g70
I4
ssg71
g264
sg64
(lp271
g57
(g66
g59
NtRp272
(dp273
g62
(dp274
g70
I3
ssg71
Nsg64
(lp275
g57
(g73
g59
NtRp276
(dp277
g62
(dp278
sg71
g272
sg64
(lp279
g57
(g78
g59
NtRp280
(dp281
g62
(dp282
g82
g83
ssg71
g276
sg64
(lp283
S'comment'
p284
asbag57
(g78
g59
NtRp285
(dp286
g62
(dp287
g89
g90
ssg71
g276
sg64
(lp288
S':'
asbag57
(g78
g59
NtRp289
(dp290
g62
(dp291
sg71
g276
sg64
(lp292
g57
(g58
g59
NtRp293
(dp294
g62
(dp295
g70
I3
ssg71
g289
sg64
(lp296
S''
asbasbasbag57
(g73
g59
NtRp297
(dp298
g62
(dp299
sg71
g272
sg64
(lp300
g57
(g78
g59
NtRp301
(dp302
g62
(dp303
g82
g83
ssg71
g297
sg64
(lp304
S'domain'
p305
asbag57
(g78
g59
NtRp306
(dp307
g62
(dp308
g89
g90
ssg71
g297
sg64
(lp309
S':'
asbag57
(g78
g59
NtRp310
(dp311
g62
(dp312
sg71
g297
sg64
(lp313
g57
(g58
g59
NtRp314
(dp315
g62
(dp316
g70
I3
ssg71
g310
sg64
(lp317
S''
asbasbasbag57
(g73
g59
NtRp318
(dp319
g62
(dp320
sg71
g272
sg64
(lp321
g57
(g78
g59
NtRp322
(dp323
g62
(dp324
g82
g83
ssg71
g318
sg64
(lp325
S'expires'
p326
asbag57
(g78
g59
NtRp327
(dp328
g62
(dp329
g89
g90
ssg71
g318
sg64
(lp330
S':'
asbag57
(g78
g59
NtRp331
(dp332
g62
(dp333
sg71
g318
sg64
(lp334
g57
(g58
g59
NtRp335
(dp336
g62
(dp337
g70
I3
ssg71
g331
sg64
(lp338
S''
asbasbasbag57
(g73
g59
NtRp339
(dp340
g62
(dp341
sg71
g272
sg64
(lp342
g57
(g78
g59
NtRp343
(dp344
g62
(dp345
g82
g83
ssg71
g339
sg64
(lp346
S'httponly'
p347
asbag57
(g78
g59
NtRp348
(dp349
g62
(dp350
g89
g90
ssg71
g339
sg64
(lp351
S':'
asbag57
(g78
g59
NtRp352
(dp353
g62
(dp354
sg71
g339
sg64
(lp355
g57
(g58
g59
NtRp356
(dp357
g62
(dp358
g70
I3
ssg71
g352
sg64
(lp359
S''
asbasbasbag57
(g73
g59
NtRp360
(dp361
g62
(dp362
sg71
g272
sg64
(lp363
g57
(g78
g59
NtRp364
(dp365
g62
(dp366
g82
g83
ssg71
g360
sg64
(lp367
S'max-age'
p368
asbag57
(g78
g59
NtRp369
(dp370
g62
(dp371
g89
g90
ssg71
g360
sg64
(lp372
S':'
asbag57
(g78
g59
NtRp373
(dp374
g62
(dp375
sg71
g360
sg64
(lp376
g57
(g58
g59
NtRp377
(dp378
g62
(dp379
g70
I3
ssg71
g373
sg64
(lp380
S''
asbasbasbag57
(g73
g59
NtRp381
(dp382
g62
(dp383
sg71
g272
sg64
(lp384
g57
(g78
g59
NtRp385
(dp386
g62
(dp387
g82
g83
ssg71
g381
sg64
(lp388
S'path'
p389
asbag57
(g78
g59
NtRp390
(dp391
g62
(dp392
g89
g90
ssg71
g381
sg64
(lp393
S':'
asbag57
(g78
g59
NtRp394
(dp395
g62
(dp396
sg71
g381
sg64
(lp397
g57
(g58
g59
NtRp398
(dp399
g62
(dp400
g70
I3
ssg71
g394
sg64
(lp401
S''
asbasbasbag57
(g73
g59
NtRp402
(dp403
g62
(dp404
sg71
g272
sg64
(lp405
g57
(g78
g59
NtRp406
(dp407
g62
(dp408
g82
g83
ssg71
g402
sg64
(lp409
S'secure'
p410
asbag57
(g78
g59
NtRp411
(dp412
g62
(dp413
g89
g90
ssg71
g402
sg64
(lp414
S':'
asbag57
(g78
g59
NtRp415
(dp416
g62
(dp417
sg71
g402
sg64
(lp418
g57
(g58
g59
NtRp419
(dp420
g62
(dp421
g70
I3
ssg71
g415
sg64
(lp422
S''
asbasbasbag57
(g73
g59
NtRp423
(dp424
g62
(dp425
sg71
g272
sg64
(lp426
g57
(g78
g59
NtRp427
(dp428
g62
(dp429
g82
g83
ssg71
g423
sg64
(lp430
S'version'
p431
asbag57
(g78
g59
NtRp432
(dp433
g62
(dp434
g89
g90
ssg71
g423
sg64
(lp435
S':'
asbag57
(g78
g59
NtRp436
(dp437
g62
(dp438
sg71
g423
sg64
(lp439
g57
(g58
g59
NtRp440
(dp441
g62
(dp442
g70
I3
ssg71
g436
sg64
(lp443
S''
asbasbasbasbasbasbasbag57
(g73
g59
NtRp444
(dp445
g62
(dp446
sg71
g247
sg64
(lp447
g57
(g78
g59
NtRp448
(dp449
g62
(dp450
g82
g83
ssg71
g444
sg64
(lp451
S'session_id_grammateus3'
p452
asbag57
(g78
g59
NtRp453
(dp454
g62
(dp455
g89
g90
ssg71
g444
sg64
(lp456
S':'
asbag57
(g78
g59
NtRp457
(dp458
g62
(dp459
sg71
g444
sg64
(lp460
g57
(g58
g59
NtRp461
(dp462
g62
(dp463
g70
I4
ssg71
g457
sg64
(lp464
g57
(g66
g59
NtRp465
(dp466
g62
(dp467
g70
I3
ssg71
Nsg64
(lp468
g57
(g73
g59
NtRp469
(dp470
g62
(dp471
sg71
g465
sg64
(lp472
g57
(g78
g59
NtRp473
(dp474
g62
(dp475
g82
g83
ssg71
g469
sg64
(lp476
g284
asbag57
(g78
g59
NtRp477
(dp478
g62
(dp479
g89
g90
ssg71
g469
sg64
(lp480
S':'
asbag57
(g78
g59
NtRp481
(dp482
g62
(dp483
sg71
g469
sg64
(lp484
g57
(g58
g59
NtRp485
(dp486
g62
(dp487
g70
I3
ssg71
g481
sg64
(lp488
S''
asbasbasbag57
(g73
g59
NtRp489
(dp490
g62
(dp491
sg71
g465
sg64
(lp492
g57
(g78
g59
NtRp493
(dp494
g62
(dp495
g82
g83
ssg71
g489
sg64
(lp496
g305
asbag57
(g78
g59
NtRp497
(dp498
g62
(dp499
g89
g90
ssg71
g489
sg64
(lp500
S':'
asbag57
(g78
g59
NtRp501
(dp502
g62
(dp503
sg71
g489
sg64
(lp504
g57
(g58
g59
NtRp505
(dp506
g62
(dp507
g70
I3
ssg71
g501
sg64
(lp508
S''
asbasbasbag57
(g73
g59
NtRp509
(dp510
g62
(dp511
sg71
g465
sg64
(lp512
g57
(g78
g59
NtRp513
(dp514
g62
(dp515
g82
g83
ssg71
g509
sg64
(lp516
g326
asbag57
(g78
g59
NtRp517
(dp518
g62
(dp519
g89
g90
ssg71
g509
sg64
(lp520
S':'
asbag57
(g78
g59
NtRp521
(dp522
g62
(dp523
sg71
g509
sg64
(lp524
g57
(g58
g59
NtRp525
(dp526
g62
(dp527
g70
I3
ssg71
g521
sg64
(lp528
S''
asbasbasbag57
(g73
g59
NtRp529
(dp530
g62
(dp531
sg71
g465
sg64
(lp532
g57
(g78
g59
NtRp533
(dp534
g62
(dp535
g82
g83
ssg71
g529
sg64
(lp536
g347
asbag57
(g78
g59
NtRp537
(dp538
g62
(dp539
g89
g90
ssg71
g529
sg64
(lp540
S':'
asbag57
(g78
g59
NtRp541
(dp542
g62
(dp543
sg71
g529
sg64
(lp544
g57
(g58
g59
NtRp545
(dp546
g62
(dp547
g70
I3
ssg71
g541
sg64
(lp548
S''
asbasbasbag57
(g73
g59
NtRp549
(dp550
g62
(dp551
sg71
g465
sg64
(lp552
g57
(g78
g59
NtRp553
(dp554
g62
(dp555
g82
g83
ssg71
g549
sg64
(lp556
g368
asbag57
(g78
g59
NtRp557
(dp558
g62
(dp559
g89
g90
ssg71
g549
sg64
(lp560
S':'
asbag57
(g78
g59
NtRp561
(dp562
g62
(dp563
sg71
g549
sg64
(lp564
g57
(g58
g59
NtRp565
(dp566
g62
(dp567
g70
I3
ssg71
g561
sg64
(lp568
S''
asbasbasbag57
(g73
g59
NtRp569
(dp570
g62
(dp571
sg71
g465
sg64
(lp572
g57
(g78
g59
NtRp573
(dp574
g62
(dp575
g82
g83
ssg71
g569
sg64
(lp576
g389
asbag57
(g78
g59
NtRp577
(dp578
g62
(dp579
g89
g90
ssg71
g569
sg64
(lp580
S':'
asbag57
(g78
g59
NtRp581
(dp582
g62
(dp583
sg71
g569
sg64
(lp584
g57
(g58
g59
NtRp585
(dp586
g62
(dp587
g70
I3
ssg71
g581
sg64
(lp588
S''
asbasbasbag57
(g73
g59
NtRp589
(dp590
g62
(dp591
sg71
g465
sg64
(lp592
g57
(g78
g59
NtRp593
(dp594
g62
(dp595
g82
g83
ssg71
g589
sg64
(lp596
g410
asbag57
(g78
g59
NtRp597
(dp598
g62
(dp599
g89
g90
ssg71
g589
sg64
(lp600
S':'
asbag57
(g78
g59
NtRp601
(dp602
g62
(dp603
sg71
g589
sg64
(lp604
g57
(g58
g59
NtRp605
(dp606
g62
(dp607
g70
I3
ssg71
g601
sg64
(lp608
S''
asbasbasbag57
(g73
g59
NtRp609
(dp610
g62
(dp611
sg71
g465
sg64
(lp612
g57
(g78
g59
NtRp613
(dp614
g62
(dp615
g82
g83
ssg71
g609
sg64
(lp616
g431
asbag57
(g78
g59
NtRp617
(dp618
g62
(dp619
g89
g90
ssg71
g609
sg64
(lp620
S':'
asbag57
(g78
g59
NtRp621
(dp622
g62
(dp623
sg71
g609
sg64
(lp624
g57
(g58
g59
NtRp625
(dp626
g62
(dp627
g70
I3
ssg71
g621
sg64
(lp628
S''
asbasbasbasbasbasbasbag57
(g73
g59
NtRp629
(dp630
g62
(dp631
sg71
g247
sg64
(lp632
g57
(g78
g59
NtRp633
(dp634
g62
(dp635
g82
g83
ssg71
g629
sg64
(lp636
S'session_id_paideia'
p637
asbag57
(g78
g59
NtRp638
(dp639
g62
(dp640
g89
g90
ssg71
g629
sg64
(lp641
S':'
asbag57
(g78
g59
NtRp642
(dp643
g62
(dp644
sg71
g629
sg64
(lp645
g57
(g58
g59
NtRp646
(dp647
g62
(dp648
g70
I4
ssg71
g642
sg64
(lp649
g57
(g66
g59
NtRp650
(dp651
g62
(dp652
g70
I3
ssg71
Nsg64
(lp653
g57
(g73
g59
NtRp654
(dp655
g62
(dp656
sg71
g650
sg64
(lp657
g57
(g78
g59
NtRp658
(dp659
g62
(dp660
g82
g83
ssg71
g654
sg64
(lp661
g284
asbag57
(g78
g59
NtRp662
(dp663
g62
(dp664
g89
g90
ssg71
g654
sg64
(lp665
S':'
asbag57
(g78
g59
NtRp666
(dp667
g62
(dp668
sg71
g654
sg64
(lp669
g57
(g58
g59
NtRp670
(dp671
g62
(dp672
g70
I3
ssg71
g666
sg64
(lp673
S''
asbasbasbag57
(g73
g59
NtRp674
(dp675
g62
(dp676
sg71
g650
sg64
(lp677
g57
(g78
g59
NtRp678
(dp679
g62
(dp680
g82
g83
ssg71
g674
sg64
(lp681
g305
asbag57
(g78
g59
NtRp682
(dp683
g62
(dp684
g89
g90
ssg71
g674
sg64
(lp685
S':'
asbag57
(g78
g59
NtRp686
(dp687
g62
(dp688
sg71
g674
sg64
(lp689
g57
(g58
g59
NtRp690
(dp691
g62
(dp692
g70
I3
ssg71
g686
sg64
(lp693
S''
asbasbasbag57
(g73
g59
NtRp694
(dp695
g62
(dp696
sg71
g650
sg64
(lp697
g57
(g78
g59
NtRp698
(dp699
g62
(dp700
g82
g83
ssg71
g694
sg64
(lp701
g326
asbag57
(g78
g59
NtRp702
(dp703
g62
(dp704
g89
g90
ssg71
g694
sg64
(lp705
S':'
asbag57
(g78
g59
NtRp706
(dp707
g62
(dp708
sg71
g694
sg64
(lp709
g57
(g58
g59
NtRp710
(dp711
g62
(dp712
g70
I3
ssg71
g706
sg64
(lp713
S''
asbasbasbag57
(g73
g59
NtRp714
(dp715
g62
(dp716
sg71
g650
sg64
(lp717
g57
(g78
g59
NtRp718
(dp719
g62
(dp720
g82
g83
ssg71
g714
sg64
(lp721
g347
asbag57
(g78
g59
NtRp722
(dp723
g62
(dp724
g89
g90
ssg71
g714
sg64
(lp725
S':'
asbag57
(g78
g59
NtRp726
(dp727
g62
(dp728
sg71
g714
sg64
(lp729
g57
(g58
g59
NtRp730
(dp731
g62
(dp732
g70
I3
ssg71
g726
sg64
(lp733
S''
asbasbasbag57
(g73
g59
NtRp734
(dp735
g62
(dp736
sg71
g650
sg64
(lp737
g57
(g78
g59
NtRp738
(dp739
g62
(dp740
g82
g83
ssg71
g734
sg64
(lp741
g368
asbag57
(g78
g59
NtRp742
(dp743
g62
(dp744
g89
g90
ssg71
g734
sg64
(lp745
S':'
asbag57
(g78
g59
NtRp746
(dp747
g62
(dp748
sg71
g734
sg64
(lp749
g57
(g58
g59
NtRp750
(dp751
g62
(dp752
g70
I3
ssg71
g746
sg64
(lp753
S''
asbasbasbag57
(g73
g59
NtRp754
(dp755
g62
(dp756
sg71
g650
sg64
(lp757
g57
(g78
g59
NtRp758
(dp759
g62
(dp760
g82
g83
ssg71
g754
sg64
(lp761
g389
asbag57
(g78
g59
NtRp762
(dp763
g62
(dp764
g89
g90
ssg71
g754
sg64
(lp765
S':'
asbag57
(g78
g59
NtRp766
(dp767
g62
(dp768
sg71
g754
sg64
(lp769
g57
(g58
g59
NtRp770
(dp771
g62
(dp772
g70
I3
ssg71
g766
sg64
(lp773
S''
asbasbasbag57
(g73
g59
NtRp774
(dp775
g62
(dp776
sg71
g650
sg64
(lp777
g57
(g78
g59
NtRp778
(dp779
g62
(dp780
g82
g83
ssg71
g774
sg64
(lp781
g410
asbag57
(g78
g59
NtRp782
(dp783
g62
(dp784
g89
g90
ssg71
g774
sg64
(lp785
S':'
asbag57
(g78
g59
NtRp786
(dp787
g62
(dp788
sg71
g774
sg64
(lp789
g57
(g58
g59
NtRp790
(dp791
g62
(dp792
g70
I3
ssg71
g786
sg64
(lp793
S''
asbasbasbag57
(g73
g59
NtRp794
(dp795
g62
(dp796
sg71
g650
sg64
(lp797
g57
(g78
g59
NtRp798
(dp799
g62
(dp800
g82
g83
ssg71
g794
sg64
(lp801
g431
asbag57
(g78
g59
NtRp802
(dp803
g62
(dp804
g89
g90
ssg71
g794
sg64
(lp805
S':'
asbag57
(g78
g59
NtRp806
(dp807
g62
(dp808
sg71
g794
sg64
(lp809
g57
(g58
g59
NtRp810
(dp811
g62
(dp812
g70
I3
ssg71
g806
sg64
(lp813
S''
asbasbasbasbasbasbasbag57
(g73
g59
NtRp814
(dp815
g62
(dp816
sg71
g247
sg64
(lp817
g57
(g78
g59
NtRp818
(dp819
g62
(dp820
g82
g83
ssg71
g814
sg64
(lp821
S'session_id_topoi'
p822
asbag57
(g78
g59
NtRp823
(dp824
g62
(dp825
g89
g90
ssg71
g814
sg64
(lp826
S':'
asbag57
(g78
g59
NtRp827
(dp828
g62
(dp829
sg71
g814
sg64
(lp830
g57
(g58
g59
NtRp831
(dp832
g62
(dp833
g70
I4
ssg71
g827
sg64
(lp834
g57
(g66
g59
NtRp835
(dp836
g62
(dp837
g70
I3
ssg71
Nsg64
(lp838
g57
(g73
g59
NtRp839
(dp840
g62
(dp841
sg71
g835
sg64
(lp842
g57
(g78
g59
NtRp843
(dp844
g62
(dp845
g82
g83
ssg71
g839
sg64
(lp846
g284
asbag57
(g78
g59
NtRp847
(dp848
g62
(dp849
g89
g90
ssg71
g839
sg64
(lp850
S':'
asbag57
(g78
g59
NtRp851
(dp852
g62
(dp853
sg71
g839
sg64
(lp854
g57
(g58
g59
NtRp855
(dp856
g62
(dp857
g70
I3
ssg71
g851
sg64
(lp858
S''
asbasbasbag57
(g73
g59
NtRp859
(dp860
g62
(dp861
sg71
g835
sg64
(lp862
g57
(g78
g59
NtRp863
(dp864
g62
(dp865
g82
g83
ssg71
g859
sg64
(lp866
g305
asbag57
(g78
g59
NtRp867
(dp868
g62
(dp869
g89
g90
ssg71
g859
sg64
(lp870
S':'
asbag57
(g78
g59
NtRp871
(dp872
g62
(dp873
sg71
g859
sg64
(lp874
g57
(g58
g59
NtRp875
(dp876
g62
(dp877
g70
I3
ssg71
g871
sg64
(lp878
S''
asbasbasbag57
(g73
g59
NtRp879
(dp880
g62
(dp881
sg71
g835
sg64
(lp882
g57
(g78
g59
NtRp883
(dp884
g62
(dp885
g82
g83
ssg71
g879
sg64
(lp886
g326
asbag57
(g78
g59
NtRp887
(dp888
g62
(dp889
g89
g90
ssg71
g879
sg64
(lp890
S':'
asbag57
(g78
g59
NtRp891
(dp892
g62
(dp893
sg71
g879
sg64
(lp894
g57
(g58
g59
NtRp895
(dp896
g62
(dp897
g70
I3
ssg71
g891
sg64
(lp898
S''
asbasbasbag57
(g73
g59
NtRp899
(dp900
g62
(dp901
sg71
g835
sg64
(lp902
g57
(g78
g59
NtRp903
(dp904
g62
(dp905
g82
g83
ssg71
g899
sg64
(lp906
g347
asbag57
(g78
g59
NtRp907
(dp908
g62
(dp909
g89
g90
ssg71
g899
sg64
(lp910
S':'
asbag57
(g78
g59
NtRp911
(dp912
g62
(dp913
sg71
g899
sg64
(lp914
g57
(g58
g59
NtRp915
(dp916
g62
(dp917
g70
I3
ssg71
g911
sg64
(lp918
S''
asbasbasbag57
(g73
g59
NtRp919
(dp920
g62
(dp921
sg71
g835
sg64
(lp922
g57
(g78
g59
NtRp923
(dp924
g62
(dp925
g82
g83
ssg71
g919
sg64
(lp926
g368
asbag57
(g78
g59
NtRp927
(dp928
g62
(dp929
g89
g90
ssg71
g919
sg64
(lp930
S':'
asbag57
(g78
g59
NtRp931
(dp932
g62
(dp933
sg71
g919
sg64
(lp934
g57
(g58
g59
NtRp935
(dp936
g62
(dp937
g70
I3
ssg71
g931
sg64
(lp938
S''
asbasbasbag57
(g73
g59
NtRp939
(dp940
g62
(dp941
sg71
g835
sg64
(lp942
g57
(g78
g59
NtRp943
(dp944
g62
(dp945
g82
g83
ssg71
g939
sg64
(lp946
g389
asbag57
(g78
g59
NtRp947
(dp948
g62
(dp949
g89
g90
ssg71
g939
sg64
(lp950
S':'
asbag57
(g78
g59
NtRp951
(dp952
g62
(dp953
sg71
g939
sg64
(lp954
g57
(g58
g59
NtRp955
(dp956
g62
(dp957
g70
I3
ssg71
g951
sg64
(lp958
S''
asbasbasbag57
(g73
g59
NtRp959
(dp960
g62
(dp961
sg71
g835
sg64
(lp962
g57
(g78
g59
NtRp963
(dp964
g62
(dp965
g82
g83
ssg71
g959
sg64
(lp966
g410
asbag57
(g78
g59
NtRp967
(dp968
g62
(dp969
g89
g90
ssg71
g959
sg64
(lp970
S':'
asbag57
(g78
g59
NtRp971
(dp972
g62
(dp973
sg71
g959
sg64
(lp974
g57
(g58
g59
NtRp975
(dp976
g62
(dp977
g70
I3
ssg71
g971
sg64
(lp978
S''
asbasbasbag57
(g73
g59
NtRp979
(dp980
g62
(dp981
sg71
g835
sg64
(lp982
g57
(g78
g59
NtRp983
(dp984
g62
(dp985
g82
g83
ssg71
g979
sg64
(lp986
g431
asbag57
(g78
g59
NtRp987
(dp988
g62
(dp989
g89
g90
ssg71
g979
sg64
(lp990
S':'
asbag57
(g78
g59
NtRp991
(dp992
g62
(dp993
sg71
g979
sg64
(lp994
g57
(g58
g59
NtRp995
(dp996
g62
(dp997
g70
I3
ssg71
g991
sg64
(lp998
S''
asbasbasbasbasbasbasbag57
(g73
g59
NtRp999
(dp1000
g62
(dp1001
sg71
g247
sg64
(lp1002
g57
(g78
g59
NtRp1003
(dp1004
g62
(dp1005
g82
g83
ssg71
g999
sg64
(lp1006
S'session_id_welcome'
p1007
asbag57
(g78
g59
NtRp1008
(dp1009
g62
(dp1010
g89
g90
ssg71
g999
sg64
(lp1011
S':'
asbag57
(g78
g59
NtRp1012
(dp1013
g62
(dp1014
sg71
g999
sg64
(lp1015
g57
(g58
g59
NtRp1016
(dp1017
g62
(dp1018
g70
I4
ssg71
g1012
sg64
(lp1019
g57
(g66
g59
NtRp1020
(dp1021
g62
(dp1022
g70
I3
ssg71
Nsg64
(lp1023
g57
(g73
g59
NtRp1024
(dp1025
g62
(dp1026
sg71
g1020
sg64
(lp1027
g57
(g78
g59
NtRp1028
(dp1029
g62
(dp1030
g82
g83
ssg71
g1024
sg64
(lp1031
g284
asbag57
(g78
g59
NtRp1032
(dp1033
g62
(dp1034
g89
g90
ssg71
g1024
sg64
(lp1035
S':'
asbag57
(g78
g59
NtRp1036
(dp1037
g62
(dp1038
sg71
g1024
sg64
(lp1039
g57
(g58
g59
NtRp1040
(dp1041
g62
(dp1042
g70
I3
ssg71
g1036
sg64
(lp1043
S''
asbasbasbag57
(g73
g59
NtRp1044
(dp1045
g62
(dp1046
sg71
g1020
sg64
(lp1047
g57
(g78
g59
NtRp1048
(dp1049
g62
(dp1050
g82
g83
ssg71
g1044
sg64
(lp1051
g305
asbag57
(g78
g59
NtRp1052
(dp1053
g62
(dp1054
g89
g90
ssg71
g1044
sg64
(lp1055
S':'
asbag57
(g78
g59
NtRp1056
(dp1057
g62
(dp1058
sg71
g1044
sg64
(lp1059
g57
(g58
g59
NtRp1060
(dp1061
g62
(dp1062
g70
I3
ssg71
g1056
sg64
(lp1063
S''
asbasbasbag57
(g73
g59
NtRp1064
(dp1065
g62
(dp1066
sg71
g1020
sg64
(lp1067
g57
(g78
g59
NtRp1068
(dp1069
g62
(dp1070
g82
g83
ssg71
g1064
sg64
(lp1071
g326
asbag57
(g78
g59
NtRp1072
(dp1073
g62
(dp1074
g89
g90
ssg71
g1064
sg64
(lp1075
S':'
asbag57
(g78
g59
NtRp1076
(dp1077
g62
(dp1078
sg71
g1064
sg64
(lp1079
g57
(g58
g59
NtRp1080
(dp1081
g62
(dp1082
g70
I3
ssg71
g1076
sg64
(lp1083
S''
asbasbasbag57
(g73
g59
NtRp1084
(dp1085
g62
(dp1086
sg71
g1020
sg64
(lp1087
g57
(g78
g59
NtRp1088
(dp1089
g62
(dp1090
g82
g83
ssg71
g1084
sg64
(lp1091
g347
asbag57
(g78
g59
NtRp1092
(dp1093
g62
(dp1094
g89
g90
ssg71
g1084
sg64
(lp1095
S':'
asbag57
(g78
g59
NtRp1096
(dp1097
g62
(dp1098
sg71
g1084
sg64
(lp1099
g57
(g58
g59
NtRp1100
(dp1101
g62
(dp1102
g70
I3
ssg71
g1096
sg64
(lp1103
S''
asbasbasbag57
(g73
g59
NtRp1104
(dp1105
g62
(dp1106
sg71
g1020
sg64
(lp1107
g57
(g78
g59
NtRp1108
(dp1109
g62
(dp1110
g82
g83
ssg71
g1104
sg64
(lp1111
g368
asbag57
(g78
g59
NtRp1112
(dp1113
g62
(dp1114
g89
g90
ssg71
g1104
sg64
(lp1115
S':'
asbag57
(g78
g59
NtRp1116
(dp1117
g62
(dp1118
sg71
g1104
sg64
(lp1119
g57
(g58
g59
NtRp1120
(dp1121
g62
(dp1122
g70
I3
ssg71
g1116
sg64
(lp1123
S''
asbasbasbag57
(g73
g59
NtRp1124
(dp1125
g62
(dp1126
sg71
g1020
sg64
(lp1127
g57
(g78
g59
NtRp1128
(dp1129
g62
(dp1130
g82
g83
ssg71
g1124
sg64
(lp1131
g389
asbag57
(g78
g59
NtRp1132
(dp1133
g62
(dp1134
g89
g90
ssg71
g1124
sg64
(lp1135
S':'
asbag57
(g78
g59
NtRp1136
(dp1137
g62
(dp1138
sg71
g1124
sg64
(lp1139
g57
(g58
g59
NtRp1140
(dp1141
g62
(dp1142
g70
I3
ssg71
g1136
sg64
(lp1143
S''
asbasbasbag57
(g73
g59
NtRp1144
(dp1145
g62
(dp1146
sg71
g1020
sg64
(lp1147
g57
(g78
g59
NtRp1148
(dp1149
g62
(dp1150
g82
g83
ssg71
g1144
sg64
(lp1151
g410
asbag57
(g78
g59
NtRp1152
(dp1153
g62
(dp1154
g89
g90
ssg71
g1144
sg64
(lp1155
S':'
asbag57
(g78
g59
NtRp1156
(dp1157
g62
(dp1158
sg71
g1144
sg64
(lp1159
g57
(g58
g59
NtRp1160
(dp1161
g62
(dp1162
g70
I3
ssg71
g1156
sg64
(lp1163
S''
asbasbasbag57
(g73
g59
NtRp1164
(dp1165
g62
(dp1166
sg71
g1020
sg64
(lp1167
g57
(g78
g59
NtRp1168
(dp1169
g62
(dp1170
g82
g83
ssg71
g1164
sg64
(lp1171
g431
asbag57
(g78
g59
NtRp1172
(dp1173
g62
(dp1174
g89
g90
ssg71
g1164
sg64
(lp1175
S':'
asbag57
(g78
g59
NtRp1176
(dp1177
g62
(dp1178
sg71
g1164
sg64
(lp1179
g57
(g58
g59
NtRp1180
(dp1181
g62
(dp1182
g70
I3
ssg71
g1176
sg64
(lp1183
S''
asbasbasbasbasbasbasbasbasbasbasbag57
(g73
g59
NtRp1184
(dp1185
g62
(dp1186
sg71
g67
sg64
(lp1187
g57
(g78
g59
NtRp1188
(dp1189
g62
(dp1190
g82
g83
ssg71
g1184
sg64
(lp1191
S'env'
p1192
asbag57
(g78
g59
NtRp1193
(dp1194
g62
(dp1195
g89
g90
ssg71
g1184
sg64
(lp1196
S':'
asbag57
(g78
g59
NtRp1197
(dp1198
g62
(dp1199
sg71
g1184
sg64
(lp1200
g57
(g58
g59
NtRp1201
(dp1202
g62
(dp1203
g70
I5
ssg71
g1197
sg64
(lp1204
g57
(g66
g59
NtRp1205
(dp1206
g62
(dp1207
g70
I4
ssg71
Nsg64
(lp1208
g57
(g73
g59
NtRp1209
(dp1210
g62
(dp1211
sg71
g1205
sg64
(lp1212
g57
(g78
g59
NtRp1213
(dp1214
g62
(dp1215
g82
g83
ssg71
g1209
sg64
(lp1216
S'app_folders'
p1217
asbag57
(g78
g59
NtRp1218
(dp1219
g62
(dp1220
g89
g90
ssg71
g1209
sg64
(lp1221
S':'
asbag57
(g78
g59
NtRp1222
(dp1223
g62
(dp1224
sg71
g1209
sg64
(lp1225
g57
(g58
g59
NtRp1226
(dp1227
g62
(dp1228
g70
I4
ssg71
g1222
sg64
(lp1229
S"set(['/home/ian/Web Pages/web2py/applications/welcome/', '/home/ian/Web Pages/web2py/applications/admin/', '/home/ian/Web Pages/web2py/applications/grammateus3/', '/home/ian/Web Pages/web2py/applications/paideia/'])"
p1230
asbasbasbag57
(g73
g59
NtRp1231
(dp1232
g62
(dp1233
sg71
g1205
sg64
(lp1234
g57
(g78
g59
NtRp1235
(dp1236
g62
(dp1237
g82
g83
ssg71
g1231
sg64
(lp1238
S'applications_parent'
p1239
asbag57
(g78
g59
NtRp1240
(dp1241
g62
(dp1242
g89
g90
ssg71
g1231
sg64
(lp1243
S':'
asbag57
(g78
g59
NtRp1244
(dp1245
g62
(dp1246
sg71
g1231
sg64
(lp1247
g57
(g58
g59
NtRp1248
(dp1249
g62
(dp1250
g70
I4
ssg71
g1244
sg64
(lp1251
S'/home/ian/Web Pages/web2py'
p1252
asbasbasbag57
(g73
g59
NtRp1253
(dp1254
g62
(dp1255
sg71
g1205
sg64
(lp1256
g57
(g78
g59
NtRp1257
(dp1258
g62
(dp1259
g82
g83
ssg71
g1253
sg64
(lp1260
S'cmd_args'
p1261
asbag57
(g78
g59
NtRp1262
(dp1263
g62
(dp1264
g89
g90
ssg71
g1253
sg64
(lp1265
S':'
asbag57
(g78
g59
NtRp1266
(dp1267
g62
(dp1268
sg71
g1253
sg64
(lp1269
g57
(g58
g59
NtRp1270
(dp1271
g62
(dp1272
g70
I4
ssg71
g1266
sg64
(lp1273
g57
(g66
g59
NtRp1274
(dp1275
g62
(dp1276
g70
I3
ssg71
Nsg64
(lp1277
sbasbasbasbag57
(g73
g59
NtRp1278
(dp1279
g62
(dp1280
sg71
g1205
sg64
(lp1281
g57
(g78
g59
NtRp1282
(dp1283
g62
(dp1284
g82
g83
ssg71
g1278
sg64
(lp1285
S'cmd_options'
p1286
asbag57
(g78
g59
NtRp1287
(dp1288
g62
(dp1289
g89
g90
ssg71
g1278
sg64
(lp1290
S':'
asbag57
(g78
g59
NtRp1291
(dp1292
g62
(dp1293
sg71
g1278
sg64
(lp1294
g57
(g58
g59
NtRp1295
(dp1296
g62
(dp1297
g70
I4
ssg71
g1291
sg64
(lp1298
S"<Values at 0x23effc8: {'verbose': False, 'ip': '127.0.0.1', 'shutdown_timeout': 5, 'taskbar': False, 'nocron': False, 'pid_filename': 'httpserver.pid', 'maxthreads': None, 'softcron': False, 'server_name': 'uriel', 'bpython': False, 'nogui': False, 'port': 8000, 'extcron': False, 'debuglevel': 30, 'test': None, 'folder': '/home/ian/Web Pages/web2py', 'config': '', 'import_models': False, 'winservice': '', 'shell': None, 'run': '', 'log_filename': 'httpserver.log', 'args': [''], 'socket_timeout': 1, 'ssl_ca_certificate': None, 'scheduler': None, 'profiler_filename': None, 'ssl_private_key': '', 'password': '<ask>', 'request_queue_size': 5, 'ssl_certificate': '', 'cronjob': False, 'numthreads': None, 'quiet': False, 'interfaces': None, 'minthreads': None, 'timeout': 10, 'plain': False, 'nobanner': False}>"
p1299
asbasbasbag57
(g73
g59
NtRp1300
(dp1301
g62
(dp1302
sg71
g1205
sg64
(lp1303
g57
(g78
g59
NtRp1304
(dp1305
g62
(dp1306
g82
g83
ssg71
g1300
sg64
(lp1307
S'db_sessions'
p1308
asbag57
(g78
g59
NtRp1309
(dp1310
g62
(dp1311
g89
g90
ssg71
g1300
sg64
(lp1312
S':'
asbag57
(g78
g59
NtRp1313
(dp1314
g62
(dp1315
sg71
g1300
sg64
(lp1316
g57
(g58
g59
NtRp1317
(dp1318
g62
(dp1319
g70
I4
ssg71
g1313
sg64
(lp1320
S'set([])'
p1321
asbasbasbag57
(g73
g59
NtRp1322
(dp1323
g62
(dp1324
sg71
g1205
sg64
(lp1325
g57
(g78
g59
NtRp1326
(dp1327
g62
(dp1328
g82
g83
ssg71
g1322
sg64
(lp1329
S'debugging'
p1330
asbag57
(g78
g59
NtRp1331
(dp1332
g62
(dp1333
g89
g90
ssg71
g1322
sg64
(lp1334
S':'
asbag57
(g78
g59
NtRp1335
(dp1336
g62
(dp1337
sg71
g1322
sg64
(lp1338
g57
(g58
g59
NtRp1339
(dp1340
g62
(dp1341
g70
I4
ssg71
g1335
sg64
(lp1342
g100
asbasbasbag57
(g73
g59
NtRp1343
(dp1344
g62
(dp1345
sg71
g1205
sg64
(lp1346
g57
(g78
g59
NtRp1347
(dp1348
g62
(dp1349
g82
g83
ssg71
g1343
sg64
(lp1350
S'gluon_parent'
p1351
asbag57
(g78
g59
NtRp1352
(dp1353
g62
(dp1354
g89
g90
ssg71
g1343
sg64
(lp1355
S':'
asbag57
(g78
g59
NtRp1356
(dp1357
g62
(dp1358
sg71
g1343
sg64
(lp1359
g57
(g58
g59
NtRp1360
(dp1361
g62
(dp1362
g70
I4
ssg71
g1356
sg64
(lp1363
S'/home/ian/Web Pages/web2py'
p1364
asbasbasbag57
(g73
g59
NtRp1365
(dp1366
g62
(dp1367
sg71
g1205
sg64
(lp1368
g57
(g78
g59
NtRp1369
(dp1370
g62
(dp1371
g82
g83
ssg71
g1365
sg64
(lp1372
S'http_accept'
p1373
asbag57
(g78
g59
NtRp1374
(dp1375
g62
(dp1376
g89
g90
ssg71
g1365
sg64
(lp1377
S':'
asbag57
(g78
g59
NtRp1378
(dp1379
g62
(dp1380
sg71
g1365
sg64
(lp1381
g57
(g58
g59
NtRp1382
(dp1383
g62
(dp1384
g70
I4
ssg71
g1378
sg64
(lp1385
S'text/html,application/xhtml+xml,application/xml;q=0.9,*/*;q=0.8'
p1386
asbasbasbag57
(g73
g59
NtRp1387
(dp1388
g62
(dp1389
sg71
g1205
sg64
(lp1390
g57
(g78
g59
NtRp1391
(dp1392
g62
(dp1393
g82
g83
ssg71
g1387
sg64
(lp1394
S'http_accept_encoding'
p1395
asbag57
(g78
g59
NtRp1396
(dp1397
g62
(dp1398
g89
g90
ssg71
g1387
sg64
(lp1399
S':'
asbag57
(g78
g59
NtRp1400
(dp1401
g62
(dp1402
sg71
g1387
sg64
(lp1403
g57
(g58
g59
NtRp1404
(dp1405
g62
(dp1406
g70
I4
ssg71
g1400
sg64
(lp1407
S'gzip, deflate'
p1408
asbasbasbag57
(g73
g59
NtRp1409
(dp1410
g62
(dp1411
sg71
g1205
sg64
(lp1412
g57
(g78
g59
NtRp1413
(dp1414
g62
(dp1415
g82
g83
ssg71
g1409
sg64
(lp1416
S'http_accept_language'
p1417
asbag57
(g78
g59
NtRp1418
(dp1419
g62
(dp1420
g89
g90
ssg71
g1409
sg64
(lp1421
S':'
asbag57
(g78
g59
NtRp1422
(dp1423
g62
(dp1424
sg71
g1409
sg64
(lp1425
g57
(g58
g59
NtRp1426
(dp1427
g62
(dp1428
g70
I4
ssg71
g1422
sg64
(lp1429
S'en-us,en;q=0.5'
p1430
asbasbasbag57
(g73
g59
NtRp1431
(dp1432
g62
(dp1433
sg71
g1205
sg64
(lp1434
g57
(g78
g59
NtRp1435
(dp1436
g62
(dp1437
g82
g83
ssg71
g1431
sg64
(lp1438
S'http_connection'
p1439
asbag57
(g78
g59
NtRp1440
(dp1441
g62
(dp1442
g89
g90
ssg71
g1431
sg64
(lp1443
S':'
asbag57
(g78
g59
NtRp1444
(dp1445
g62
(dp1446
sg71
g1431
sg64
(lp1447
g57
(g58
g59
NtRp1448
(dp1449
g62
(dp1450
g70
I4
ssg71
g1444
sg64
(lp1451
S'keep-alive'
p1452
asbasbasbag57
(g73
g59
NtRp1453
(dp1454
g62
(dp1455
sg71
g1205
sg64
(lp1456
g57
(g78
g59
NtRp1457
(dp1458
g62
(dp1459
g82
g83
ssg71
g1453
sg64
(lp1460
S'http_cookie'
p1461
asbag57
(g78
g59
NtRp1462
(dp1463
g62
(dp1464
g89
g90
ssg71
g1453
sg64
(lp1465
S':'
asbag57
(g78
g59
NtRp1466
(dp1467
g62
(dp1468
sg71
g1453
sg64
(lp1469
g57
(g58
g59
NtRp1470
(dp1471
g62
(dp1472
g70
I4
ssg71
g1466
sg64
(lp1473
S'session_id_topoi=127.0.0.1-fbfd7fa3-57f5-4d42-8f08-594178070e93; session_id_welcome=127.0.0.1-0388681a-e1a7-456b-a912-9fe132a62644; session_id_paideia=127.0.0.1-57334432-89a9-4dac-9aba-55c5ddeda01d; session_id_grammateus3=127.0.0.1-8e7af26d-b962-466e-a7f6-ea35eeb09dc0; session_id_admin=127.0.0.1-a01f9356-74d1-47f9-bbed-2573717f08f7'
p1474
asbasbasbag57
(g73
g59
NtRp1475
(dp1476
g62
(dp1477
sg71
g1205
sg64
(lp1478
g57
(g78
g59
NtRp1479
(dp1480
g62
(dp1481
g82
g83
ssg71
g1475
sg64
(lp1482
S'http_host'
p1483
asbag57
(g78
g59
NtRp1484
(dp1485
g62
(dp1486
g89
g90
ssg71
g1475
sg64
(lp1487
S':'
asbag57
(g78
g59
NtRp1488
(dp1489
g62
(dp1490
sg71
g1475
sg64
(lp1491
g57
(g58
g59
NtRp1492
(dp1493
g62
(dp1494
g70
I4
ssg71
g1488
sg64
(lp1495
S'127.0.0.1:8000'
p1496
asbasbasbag57
(g73
g59
NtRp1497
(dp1498
g62
(dp1499
sg71
g1205
sg64
(lp1500
g57
(g78
g59
NtRp1501
(dp1502
g62
(dp1503
g82
g83
ssg71
g1497
sg64
(lp1504
S'http_user_agent'
p1505
asbag57
(g78
g59
NtRp1506
(dp1507
g62
(dp1508
g89
g90
ssg71
g1497
sg64
(lp1509
S':'
asbag57
(g78
g59
NtRp1510
(dp1511
g62
(dp1512
sg71
g1497
sg64
(lp1513
g57
(g58
g59
NtRp1514
(dp1515
g62
(dp1516
g70
I4
ssg71
g1510
sg64
(lp1517
S'Mozilla/5.0 (X11; Ubuntu; Linux x86_64; rv:10.0) Gecko/20100101 Firefox/10.0'
p1518
asbasbasbag57
(g73
g59
NtRp1519
(dp1520
g62
(dp1521
sg71
g1205
sg64
(lp1522
g57
(g78
g59
NtRp1523
(dp1524
g62
(dp1525
g82
g83
ssg71
g1519
sg64
(lp1526
S'is_jython'
p1527
asbag57
(g78
g59
NtRp1528
(dp1529
g62
(dp1530
g89
g90
ssg71
g1519
sg64
(lp1531
S':'
asbag57
(g78
g59
NtRp1532
(dp1533
g62
(dp1534
sg71
g1519
sg64
(lp1535
g57
(g58
g59
NtRp1536
(dp1537
g62
(dp1538
g70
I4
ssg71
g1532
sg64
(lp1539
g100
asbasbasbag57
(g73
g59
NtRp1540
(dp1541
g62
(dp1542
sg71
g1205
sg64
(lp1543
g57
(g78
g59
NtRp1544
(dp1545
g62
(dp1546
g82
g83
ssg71
g1540
sg64
(lp1547
S'is_pypy'
p1548
asbag57
(g78
g59
NtRp1549
(dp1550
g62
(dp1551
g89
g90
ssg71
g1540
sg64
(lp1552
S':'
asbag57
(g78
g59
NtRp1553
(dp1554
g62
(dp1555
sg71
g1540
sg64
(lp1556
g57
(g58
g59
NtRp1557
(dp1558
g62
(dp1559
g70
I4
ssg71
g1553
sg64
(lp1560
g100
asbasbasbag57
(g73
g59
NtRp1561
(dp1562
g62
(dp1563
sg71
g1205
sg64
(lp1564
g57
(g78
g59
NtRp1565
(dp1566
g62
(dp1567
g82
g83
ssg71
g1561
sg64
(lp1568
S'path_info'
p1569
asbag57
(g78
g59
NtRp1570
(dp1571
g62
(dp1572
g89
g90
ssg71
g1561
sg64
(lp1573
S':'
asbag57
(g78
g59
NtRp1574
(dp1575
g62
(dp1576
sg71
g1561
sg64
(lp1577
g57
(g58
g59
NtRp1578
(dp1579
g62
(dp1580
g70
I4
ssg71
g1574
sg64
(lp1581
S'/grammateus3/docs/test/1En'
p1582
asbasbasbag57
(g73
g59
NtRp1583
(dp1584
g62
(dp1585
sg71
g1205
sg64
(lp1586
g57
(g78
g59
NtRp1587
(dp1588
g62
(dp1589
g82
g83
ssg71
g1583
sg64
(lp1590
S'query_string'
p1591
asbag57
(g78
g59
NtRp1592
(dp1593
g62
(dp1594
g89
g90
ssg71
g1583
sg64
(lp1595
S':'
asbag57
(g78
g59
NtRp1596
(dp1597
g62
(dp1598
sg71
g1583
sg64
(lp1599
g57
(g58
g59
NtRp1600
(dp1601
g62
(dp1602
g70
I4
ssg71
g1596
sg64
(lp1603
S''
asbasbasbag57
(g73
g59
NtRp1604
(dp1605
g62
(dp1606
sg71
g1205
sg64
(lp1607
g57
(g78
g59
NtRp1608
(dp1609
g62
(dp1610
g82
g83
ssg71
g1604
sg64
(lp1611
S'remote_addr'
p1612
asbag57
(g78
g59
NtRp1613
(dp1614
g62
(dp1615
g89
g90
ssg71
g1604
sg64
(lp1616
S':'
asbag57
(g78
g59
NtRp1617
(dp1618
g62
(dp1619
sg71
g1604
sg64
(lp1620
g57
(g58
g59
NtRp1621
(dp1622
g62
(dp1623
g70
I4
ssg71
g1617
sg64
(lp1624
g203
asbasbasbag57
(g73
g59
NtRp1625
(dp1626
g62
(dp1627
sg71
g1205
sg64
(lp1628
g57
(g78
g59
NtRp1629
(dp1630
g62
(dp1631
g82
g83
ssg71
g1625
sg64
(lp1632
S'remote_port'
p1633
asbag57
(g78
g59
NtRp1634
(dp1635
g62
(dp1636
g89
g90
ssg71
g1625
sg64
(lp1637
S':'
asbag57
(g78
g59
NtRp1638
(dp1639
g62
(dp1640
sg71
g1625
sg64
(lp1641
g57
(g58
g59
NtRp1642
(dp1643
g62
(dp1644
g70
I4
ssg71
g1638
sg64
(lp1645
S'35510'
p1646
asbasbasbag57
(g73
g59
NtRp1647
(dp1648
g62
(dp1649
sg71
g1205
sg64
(lp1650
g57
(g78
g59
NtRp1651
(dp1652
g62
(dp1653
g82
g83
ssg71
g1647
sg64
(lp1654
S'request_method'
p1655
asbag57
(g78
g59
NtRp1656
(dp1657
g62
(dp1658
g89
g90
ssg71
g1647
sg64
(lp1659
S':'
asbag57
(g78
g59
NtRp1660
(dp1661
g62
(dp1662
sg71
g1647
sg64
(lp1663
g57
(g58
g59
NtRp1664
(dp1665
g62
(dp1666
g70
I4
ssg71
g1660
sg64
(lp1667
S'GET'
p1668
asbasbasbag57
(g73
g59
NtRp1669
(dp1670
g62
(dp1671
sg71
g1205
sg64
(lp1672
g57
(g78
g59
NtRp1673
(dp1674
g62
(dp1675
g82
g83
ssg71
g1669
sg64
(lp1676
S'script_name'
p1677
asbag57
(g78
g59
NtRp1678
(dp1679
g62
(dp1680
g89
g90
ssg71
g1669
sg64
(lp1681
S':'
asbag57
(g78
g59
NtRp1682
(dp1683
g62
(dp1684
sg71
g1669
sg64
(lp1685
g57
(g58
g59
NtRp1686
(dp1687
g62
(dp1688
g70
I4
ssg71
g1682
sg64
(lp1689
S''
asbasbasbag57
(g73
g59
NtRp1690
(dp1691
g62
(dp1692
sg71
g1205
sg64
(lp1693
g57
(g78
g59
NtRp1694
(dp1695
g62
(dp1696
g82
g83
ssg71
g1690
sg64
(lp1697
S'server_name'
p1698
asbag57
(g78
g59
NtRp1699
(dp1700
g62
(dp1701
g89
g90
ssg71
g1690
sg64
(lp1702
S':'
asbag57
(g78
g59
NtRp1703
(dp1704
g62
(dp1705
sg71
g1690
sg64
(lp1706
g57
(g58
g59
NtRp1707
(dp1708
g62
(dp1709
g70
I4
ssg71
g1703
sg64
(lp1710
S'uriel'
p1711
asbasbasbag57
(g73
g59
NtRp1712
(dp1713
g62
(dp1714
sg71
g1205
sg64
(lp1715
g57
(g78
g59
NtRp1716
(dp1717
g62
(dp1718
g82
g83
ssg71
g1712
sg64
(lp1719
S'server_port'
p1720
asbag57
(g78
g59
NtRp1721
(dp1722
g62
(dp1723
g89
g90
ssg71
g1712
sg64
(lp1724
S':'
asbag57
(g78
g59
NtRp1725
(dp1726
g62
(dp1727
sg71
g1712
sg64
(lp1728
g57
(g58
g59
NtRp1729
(dp1730
g62
(dp1731
g70
I4
ssg71
g1725
sg64
(lp1732
S'8000'
p1733
asbasbasbag57
(g73
g59
NtRp1734
(dp1735
g62
(dp1736
sg71
g1205
sg64
(lp1737
g57
(g78
g59
NtRp1738
(dp1739
g62
(dp1740
g82
g83
ssg71
g1734
sg64
(lp1741
S'server_protocol'
p1742
asbag57
(g78
g59
NtRp1743
(dp1744
g62
(dp1745
g89
g90
ssg71
g1734
sg64
(lp1746
S':'
asbag57
(g78
g59
NtRp1747
(dp1748
g62
(dp1749
sg71
g1734
sg64
(lp1750
g57
(g58
g59
NtRp1751
(dp1752
g62
(dp1753
g70
I4
ssg71
g1747
sg64
(lp1754
S'HTTP/1.1'
p1755
asbasbasbag57
(g73
g59
NtRp1756
(dp1757
g62
(dp1758
sg71
g1205
sg64
(lp1759
g57
(g78
g59
NtRp1760
(dp1761
g62
(dp1762
g82
g83
ssg71
g1756
sg64
(lp1763
S'server_software'
p1764
asbag57
(g78
g59
NtRp1765
(dp1766
g62
(dp1767
g89
g90
ssg71
g1756
sg64
(lp1768
S':'
asbag57
(g78
g59
NtRp1769
(dp1770
g62
(dp1771
sg71
g1756
sg64
(lp1772
g57
(g58
g59
NtRp1773
(dp1774
g62
(dp1775
g70
I4
ssg71
g1769
sg64
(lp1776
S'Rocket 1.2.4'
p1777
asbasbasbag57
(g73
g59
NtRp1778
(dp1779
g62
(dp1780
sg71
g1205
sg64
(lp1781
g57
(g78
g59
NtRp1782
(dp1783
g62
(dp1784
g82
g83
ssg71
g1778
sg64
(lp1785
S'web2py_crontype'
p1786
asbag57
(g78
g59
NtRp1787
(dp1788
g62
(dp1789
g89
g90
ssg71
g1778
sg64
(lp1790
S':'
asbag57
(g78
g59
NtRp1791
(dp1792
g62
(dp1793
sg71
g1778
sg64
(lp1794
g57
(g58
g59
NtRp1795
(dp1796
g62
(dp1797
g70
I4
ssg71
g1791
sg64
(lp1798
S'hard'
p1799
asbasbasbag57
(g73
g59
NtRp1800
(dp1801
g62
(dp1802
sg71
g1205
sg64
(lp1803
g57
(g78
g59
NtRp1804
(dp1805
g62
(dp1806
g82
g83
ssg71
g1800
sg64
(lp1807
S'web2py_path'
p1808
asbag57
(g78
g59
NtRp1809
(dp1810
g62
(dp1811
g89
g90
ssg71
g1800
sg64
(lp1812
S':'
asbag57
(g78
g59
NtRp1813
(dp1814
g62
(dp1815
sg71
g1800
sg64
(lp1816
g57
(g58
g59
NtRp1817
(dp1818
g62
(dp1819
g70
I4
ssg71
g1813
sg64
(lp1820
g1252
asbasbasbag57
(g73
g59
NtRp1821
(dp1822
g62
(dp1823
sg71
g1205
sg64
(lp1824
g57
(g78
g59
NtRp1825
(dp1826
g62
(dp1827
g82
g83
ssg71
g1821
sg64
(lp1828
S'web2py_version'
p1829
asbag57
(g78
g59
NtRp1830
(dp1831
g62
(dp1832
g89
g90
ssg71
g1821
sg64
(lp1833
S':'
asbag57
(g78
g59
NtRp1834
(dp1835
g62
(dp1836
sg71
g1821
sg64
(lp1837
g57
(g58
g59
NtRp1838
(dp1839
g62
(dp1840
g70
I4
ssg71
g1834
sg64
(lp1841
g57
(g66
g59
NtRp1842
(dp1843
g62
(dp1844
g70
I3
ssg71
Nsg64
(lp1845
g57
(g73
g59
NtRp1846
(dp1847
g62
(dp1848
sg71
g1842
sg64
(lp1849
g57
(g78
g59
NtRp1850
(dp1851
g62
(dp1852
sg71
g1846
sg64
(lp1853
g57
(g58
g59
NtRp1854
(dp1855
g62
(dp1856
g70
I3
ssg71
g1850
sg64
(lp1857
S'1'
asbasbasbag57
(g73
g59
NtRp1858
(dp1859
g62
(dp1860
sg71
g1842
sg64
(lp1861
g57
(g78
g59
NtRp1862
(dp1863
g62
(dp1864
sg71
g1858
sg64
(lp1865
g57
(g58
g59
NtRp1866
(dp1867
g62
(dp1868
g70
I3
ssg71
g1862
sg64
(lp1869
S'99'
p1870
asbasbasbag57
(g73
g59
NtRp1871
(dp1872
g62
(dp1873
sg71
g1842
sg64
(lp1874
g57
(g78
g59
NtRp1875
(dp1876
g62
(dp1877
sg71
g1871
sg64
(lp1878
g57
(g58
g59
NtRp1879
(dp1880
g62
(dp1881
g70
I3
ssg71
g1875
sg64
(lp1882
S'4'
asbasbasbag57
(g73
g59
NtRp1883
(dp1884
g62
(dp1885
sg71
g1842
sg64
(lp1886
g57
(g78
g59
NtRp1887
(dp1888
g62
(dp1889
sg71
g1883
sg64
(lp1890
g57
(g58
g59
NtRp1891
(dp1892
g62
(dp1893
g70
I3
ssg71
g1887
sg64
(lp1894
S'datetime.datetime(2011, 12, 14, 14, 46, 14)'
p1895
asbasbasbag57
(g73
g59
NtRp1896
(dp1897
g62
(dp1898
sg71
g1842
sg64
(lp1899
g57
(g78
g59
NtRp1900
(dp1901
g62
(dp1902
sg71
g1896
sg64
(lp1903
g57
(g58
g59
NtRp1904
(dp1905
g62
(dp1906
g70
I3
ssg71
g1900
sg64
(lp1907
S'stable'
p1908
asbasbasbasbasbasbasbag57
(g73
g59
NtRp1909
(dp1910
g62
(dp1911
sg71
g1205
sg64
(lp1912
g57
(g78
g59
NtRp1913
(dp1914
g62
(dp1915
g82
g83
ssg71
g1909
sg64
(lp1916
S'wsgi_errors'
p1917
asbag57
(g78
g59
NtRp1918
(dp1919
g62
(dp1920
g89
g90
ssg71
g1909
sg64
(lp1921
S':'
asbag57
(g78
g59
NtRp1922
(dp1923
g62
(dp1924
sg71
g1909
sg64
(lp1925
g57
(g58
g59
NtRp1926
(dp1927
g62
(dp1928
g70
I4
ssg71
g1922
sg64
(lp1929
S"<open file '<stderr>', mode 'w' at 0x7fa97bb27270>"
p1930
asbasbasbag57
(g73
g59
NtRp1931
(dp1932
g62
(dp1933
sg71
g1205
sg64
(lp1934
g57
(g78
g59
NtRp1935
(dp1936
g62
(dp1937
g82
g83
ssg71
g1931
sg64
(lp1938
S'wsgi_file_wrapper'
p1939
asbag57
(g78
g59
NtRp1940
(dp1941
g62
(dp1942
g89
g90
ssg71
g1931
sg64
(lp1943
S':'
asbag57
(g78
g59
NtRp1944
(dp1945
g62
(dp1946
sg71
g1931
sg64
(lp1947
g57
(g58
g59
NtRp1948
(dp1949
g62
(dp1950
g70
I4
ssg71
g1944
sg64
(lp1951
S'<class wsgiref.util.FileWrapper at 0x22d5120>'
p1952
asbasbasbag57
(g73
g59
NtRp1953
(dp1954
g62
(dp1955
sg71
g1205
sg64
(lp1956
g57
(g78
g59
NtRp1957
(dp1958
g62
(dp1959
g82
g83
ssg71
g1953
sg64
(lp1960
S'wsgi_input'
p1961
asbag57
(g78
g59
NtRp1962
(dp1963
g62
(dp1964
g89
g90
ssg71
g1953
sg64
(lp1965
S':'
asbag57
(g78
g59
NtRp1966
(dp1967
g62
(dp1968
sg71
g1953
sg64
(lp1969
g57
(g58
g59
NtRp1970
(dp1971
g62
(dp1972
g70
I4
ssg71
g1966
sg64
(lp1973
S'<socket._fileobject object at 0x34d24d0>'
p1974
asbasbasbag57
(g73
g59
NtRp1975
(dp1976
g62
(dp1977
sg71
g1205
sg64
(lp1978
g57
(g78
g59
NtRp1979
(dp1980
g62
(dp1981
g82
g83
ssg71
g1975
sg64
(lp1982
S'wsgi_multiprocess'
p1983
asbag57
(g78
g59
NtRp1984
(dp1985
g62
(dp1986
g89
g90
ssg71
g1975
sg64
(lp1987
S':'
asbag57
(g78
g59
NtRp1988
(dp1989
g62
(dp1990
sg71
g1975
sg64
(lp1991
g57
(g58
g59
NtRp1992
(dp1993
g62
(dp1994
g70
I4
ssg71
g1988
sg64
(lp1995
g100
asbasbasbag57
(g73
g59
NtRp1996
(dp1997
g62
(dp1998
sg71
g1205
sg64
(lp1999
g57
(g78
g59
NtRp2000
(dp2001
g62
(dp2002
g82
g83
ssg71
g1996
sg64
(lp2003
S'wsgi_multithread'
p2004
asbag57
(g78
g59
NtRp2005
(dp2006
g62
(dp2007
g89
g90
ssg71
g1996
sg64
(lp2008
S':'
asbag57
(g78
g59
NtRp2009
(dp2010
g62
(dp2011
sg71
g1996
sg64
(lp2012
g57
(g58
g59
NtRp2013
(dp2014
g62
(dp2015
g70
I4
ssg71
g2009
sg64
(lp2016
S'True'
p2017
asbasbasbag57
(g73
g59
NtRp2018
(dp2019
g62
(dp2020
sg71
g1205
sg64
(lp2021
g57
(g78
g59
NtRp2022
(dp2023
g62
(dp2024
g82
g83
ssg71
g2018
sg64
(lp2025
S'wsgi_run_once'
p2026
asbag57
(g78
g59
NtRp2027
(dp2028
g62
(dp2029
g89
g90
ssg71
g2018
sg64
(lp2030
S':'
asbag57
(g78
g59
NtRp2031
(dp2032
g62
(dp2033
sg71
g2018
sg64
(lp2034
g57
(g58
g59
NtRp2035
(dp2036
g62
(dp2037
g70
I4
ssg71
g2031
sg64
(lp2038
g100
asbasbasbag57
(g73
g59
NtRp2039
(dp2040
g62
(dp2041
sg71
g1205
sg64
(lp2042
g57
(g78
g59
NtRp2043
(dp2044
g62
(dp2045
g82
g83
ssg71
g2039
sg64
(lp2046
S'wsgi_url_scheme'
p2047
asbag57
(g78
g59
NtRp2048
(dp2049
g62
(dp2050
g89
g90
ssg71
g2039
sg64
(lp2051
S':'
asbag57
(g78
g59
NtRp2052
(dp2053
g62
(dp2054
sg71
g2039
sg64
(lp2055
g57
(g58
g59
NtRp2056
(dp2057
g62
(dp2058
g70
I4
ssg71
g2052
sg64
(lp2059
S'http'
p2060
asbasbasbag57
(g73
g59
NtRp2061
(dp2062
g62
(dp2063
sg71
g1205
sg64
(lp2064
g57
(g78
g59
NtRp2065
(dp2066
g62
(dp2067
g82
g83
ssg71
g2061
sg64
(lp2068
S'wsgi_version'
p2069
asbag57
(g78
g59
NtRp2070
(dp2071
g62
(dp2072
g89
g90
ssg71
g2061
sg64
(lp2073
S':'
asbag57
(g78
g59
NtRp2074
(dp2075
g62
(dp2076
sg71
g2061
sg64
(lp2077
g57
(g58
g59
NtRp2078
(dp2079
g62
(dp2080
g70
I4
ssg71
g2074
sg64
(lp2081
g57
(g66
g59
NtRp2082
(dp2083
g62
(dp2084
g70
I3
ssg71
Nsg64
(lp2085
g57
(g73
g59
NtRp2086
(dp2087
g62
(dp2088
sg71
g2082
sg64
(lp2089
g57
(g78
g59
NtRp2090
(dp2091
g62
(dp2092
sg71
g2086
sg64
(lp2093
g57
(g58
g59
NtRp2094
(dp2095
g62
(dp2096
g70
I3
ssg71
g2090
sg64
(lp2097
S'1'
asbasbasbag57
(g73
g59
NtRp2098
(dp2099
g62
(dp2100
sg71
g2082
sg64
(lp2101
g57
(g78
g59
NtRp2102
(dp2103
g62
(dp2104
sg71
g2098
sg64
(lp2105
g57
(g58
g59
NtRp2106
(dp2107
g62
(dp2108
g70
I3
ssg71
g2102
sg64
(lp2109
S'0'
asbasbasbasbasbasbasbasbasbasbasbag57
(g73
g59
NtRp2110
(dp2111
g62
(dp2112
sg71
g67
sg64
(lp2113
g57
(g78
g59
NtRp2114
(dp2115
g62
(dp2116
g82
g83
ssg71
g2110
sg64
(lp2117
S'extension'
p2118
asbag57
(g78
g59
NtRp2119
(dp2120
g62
(dp2121
g89
g90
ssg71
g2110
sg64
(lp2122
S':'
asbag57
(g78
g59
NtRp2123
(dp2124
g62
(dp2125
sg71
g2110
sg64
(lp2126
g57
(g58
g59
NtRp2127
(dp2128
g62
(dp2129
g70
I5
ssg71
g2123
sg64
(lp2130
S'html'
p2131
asbasbasbag57
(g73
g59
NtRp2132
(dp2133
g62
(dp2134
sg71
g67
sg64
(lp2135
g57
(g78
g59
NtRp2136
(dp2137
g62
(dp2138
g82
g83
ssg71
g2132
sg64
(lp2139
S'folder'
p2140
asbag57
(g78
g59
NtRp2141
(dp2142
g62
(dp2143
g89
g90
ssg71
g2132
sg64
(lp2144
S':'
asbag57
(g78
g59
NtRp2145
(dp2146
g62
(dp2147
sg71
g2132
sg64
(lp2148
g57
(g58
g59
NtRp2149
(dp2150
g62
(dp2151
g70
I5
ssg71
g2145
sg64
(lp2152
S'/home/ian/Web Pages/web2py/applications/grammateus3/'
p2153
asbasbasbag57
(g73
g59
NtRp2154
(dp2155
g62
(dp2156
sg71
g67
sg64
(lp2157
g57
(g78
g59
NtRp2158
(dp2159
g62
(dp2160
g82
g83
ssg71
g2154
sg64
(lp2161
S'function'
p2162
asbag57
(g78
g59
NtRp2163
(dp2164
g62
(dp2165
g89
g90
ssg71
g2154
sg64
(lp2166
S':'
asbag57
(g78
g59
NtRp2167
(dp2168
g62
(dp2169
sg71
g2154
sg64
(lp2170
g57
(g58
g59
NtRp2171
(dp2172
g62
(dp2173
g70
I5
ssg71
g2167
sg64
(lp2174
S'test'
p2175
asbasbasbag57
(g73
g59
NtRp2176
(dp2177
g62
(dp2178
sg71
g67
sg64
(lp2179
g57
(g78
g59
NtRp2180
(dp2181
g62
(dp2182
g82
g83
ssg71
g2176
sg64
(lp2183
S'get_vars'
p2184
asbag57
(g78
g59
NtRp2185
(dp2186
g62
(dp2187
g89
g90
ssg71
g2176
sg64
(lp2188
S':'
asbag57
(g78
g59
NtRp2189
(dp2190
g62
(dp2191
sg71
g2176
sg64
(lp2192
g57
(g58
g59
NtRp2193
(dp2194
g62
(dp2195
g70
I5
ssg71
g2189
sg64
(lp2196
g57
(g66
g59
NtRp2197
(dp2198
g62
(dp2199
g70
I4
ssg71
Nsg64
(lp2200
sbasbasbasbag57
(g73
g59
NtRp2201
(dp2202
g62
(dp2203
sg71
g67
sg64
(lp2204
g57
(g78
g59
NtRp2205
(dp2206
g62
(dp2207
g82
g83
ssg71
g2201
sg64
(lp2208
S'global_settings'
p2209
asbag57
(g78
g59
NtRp2210
(dp2211
g62
(dp2212
g89
g90
ssg71
g2201
sg64
(lp2213
S':'
asbag57
(g78
g59
NtRp2214
(dp2215
g62
(dp2216
sg71
g2201
sg64
(lp2217
g57
(g58
g59
NtRp2218
(dp2219
g62
(dp2220
g70
I5
ssg71
g2214
sg64
(lp2221
g57
(g66
g59
NtRp2222
(dp2223
g62
(dp2224
g70
I4
ssg71
Nsg64
(lp2225
g57
(g73
g59
NtRp2226
(dp2227
g62
(dp2228
sg71
g2222
sg64
(lp2229
g57
(g78
g59
NtRp2230
(dp2231
g62
(dp2232
g82
g83
ssg71
g2226
sg64
(lp2233
g1217
asbag57
(g78
g59
NtRp2234
(dp2235
g62
(dp2236
g89
g90
ssg71
g2226
sg64
(lp2237
S':'
asbag57
(g78
g59
NtRp2238
(dp2239
g62
(dp2240
sg71
g2226
sg64
(lp2241
g57
(g58
g59
NtRp2242
(dp2243
g62
(dp2244
g70
I4
ssg71
g2238
sg64
(lp2245
S"set(['/home/ian/Web Pages/web2py/applications/welcome/', '/home/ian/Web Pages/web2py/applications/admin/', '/home/ian/Web Pages/web2py/applications/grammateus3/', '/home/ian/Web Pages/web2py/applications/paideia/'])"
p2246
asbasbasbag57
(g73
g59
NtRp2247
(dp2248
g62
(dp2249
sg71
g2222
sg64
(lp2250
g57
(g78
g59
NtRp2251
(dp2252
g62
(dp2253
g82
g83
ssg71
g2247
sg64
(lp2254
g1239
asbag57
(g78
g59
NtRp2255
(dp2256
g62
(dp2257
g89
g90
ssg71
g2247
sg64
(lp2258
S':'
asbag57
(g78
g59
NtRp2259
(dp2260
g62
(dp2261
sg71
g2247
sg64
(lp2262
g57
(g58
g59
NtRp2263
(dp2264
g62
(dp2265
g70
I4
ssg71
g2259
sg64
(lp2266
g1252
asbasbasbag57
(g73
g59
NtRp2267
(dp2268
g62
(dp2269
sg71
g2222
sg64
(lp2270
g57
(g78
g59
NtRp2271
(dp2272
g62
(dp2273
g82
g83
ssg71
g2267
sg64
(lp2274
g1261
asbag57
(g78
g59
NtRp2275
(dp2276
g62
(dp2277
g89
g90
ssg71
g2267
sg64
(lp2278
S':'
asbag57
(g78
g59
NtRp2279
(dp2280
g62
(dp2281
sg71
g2267
sg64
(lp2282
g57
(g58
g59
NtRp2283
(dp2284
g62
(dp2285
g70
I4
ssg71
g2279
sg64
(lp2286
g57
(g66
g59
NtRp2287
(dp2288
g62
(dp2289
g70
I3
ssg71
Nsg64
(lp2290
sbasbasbasbag57
(g73
g59
NtRp2291
(dp2292
g62
(dp2293
sg71
g2222
sg64
(lp2294
g57
(g78
g59
NtRp2295
(dp2296
g62
(dp2297
g82
g83
ssg71
g2291
sg64
(lp2298
g1286
asbag57
(g78
g59
NtRp2299
(dp2300
g62
(dp2301
g89
g90
ssg71
g2291
sg64
(lp2302
S':'
asbag57
(g78
g59
NtRp2303
(dp2304
g62
(dp2305
sg71
g2291
sg64
(lp2306
g57
(g58
g59
NtRp2307
(dp2308
g62
(dp2309
g70
I4
ssg71
g2303
sg64
(lp2310
S"<Values at 0x23effc8: {'verbose': False, 'ip': '127.0.0.1', 'shutdown_timeout': 5, 'taskbar': False, 'nocron': False, 'pid_filename': 'httpserver.pid', 'maxthreads': None, 'softcron': False, 'server_name': 'uriel', 'bpython': False, 'nogui': False, 'port': 8000, 'extcron': False, 'debuglevel': 30, 'test': None, 'folder': '/home/ian/Web Pages/web2py', 'config': '', 'import_models': False, 'winservice': '', 'shell': None, 'run': '', 'log_filename': 'httpserver.log', 'args': [''], 'socket_timeout': 1, 'ssl_ca_certificate': None, 'scheduler': None, 'profiler_filename': None, 'ssl_private_key': '', 'password': '<ask>', 'request_queue_size': 5, 'ssl_certificate': '', 'cronjob': False, 'numthreads': None, 'quiet': False, 'interfaces': None, 'minthreads': None, 'timeout': 10, 'plain': False, 'nobanner': False}>"
p2311
asbasbasbag57
(g73
g59
NtRp2312
(dp2313
g62
(dp2314
sg71
g2222
sg64
(lp2315
g57
(g78
g59
NtRp2316
(dp2317
g62
(dp2318
g82
g83
ssg71
g2312
sg64
(lp2319
g1308
asbag57
(g78
g59
NtRp2320
(dp2321
g62
(dp2322
g89
g90
ssg71
g2312
sg64
(lp2323
S':'
asbag57
(g78
g59
NtRp2324
(dp2325
g62
(dp2326
sg71
g2312
sg64
(lp2327
g57
(g58
g59
NtRp2328
(dp2329
g62
(dp2330
g70
I4
ssg71
g2324
sg64
(lp2331
S'set([])'
p2332
asbasbasbag57
(g73
g59
NtRp2333
(dp2334
g62
(dp2335
sg71
g2222
sg64
(lp2336
g57
(g78
g59
NtRp2337
(dp2338
g62
(dp2339
g82
g83
ssg71
g2333
sg64
(lp2340
g1330
asbag57
(g78
g59
NtRp2341
(dp2342
g62
(dp2343
g89
g90
ssg71
g2333
sg64
(lp2344
S':'
asbag57
(g78
g59
NtRp2345
(dp2346
g62
(dp2347
sg71
g2333
sg64
(lp2348
g57
(g58
g59
NtRp2349
(dp2350
g62
(dp2351
g70
I4
ssg71
g2345
sg64
(lp2352
g100
asbasbasbag57
(g73
g59
NtRp2353
(dp2354
g62
(dp2355
sg71
g2222
sg64
(lp2356
g57
(g78
g59
NtRp2357
(dp2358
g62
(dp2359
g82
g83
ssg71
g2353
sg64
(lp2360
g1351
asbag57
(g78
g59
NtRp2361
(dp2362
g62
(dp2363
g89
g90
ssg71
g2353
sg64
(lp2364
S':'
asbag57
(g78
g59
NtRp2365
(dp2366
g62
(dp2367
sg71
g2353
sg64
(lp2368
g57
(g58
g59
NtRp2369
(dp2370
g62
(dp2371
g70
I4
ssg71
g2365
sg64
(lp2372
g1364
asbasbasbag57
(g73
g59
NtRp2373
(dp2374
g62
(dp2375
sg71
g2222
sg64
(lp2376
g57
(g78
g59
NtRp2377
(dp2378
g62
(dp2379
g82
g83
ssg71
g2373
sg64
(lp2380
g1527
asbag57
(g78
g59
NtRp2381
(dp2382
g62
(dp2383
g89
g90
ssg71
g2373
sg64
(lp2384
S':'
asbag57
(g78
g59
NtRp2385
(dp2386
g62
(dp2387
sg71
g2373
sg64
(lp2388
g57
(g58
g59
NtRp2389
(dp2390
g62
(dp2391
g70
I4
ssg71
g2385
sg64
(lp2392
g100
asbasbasbag57
(g73
g59
NtRp2393
(dp2394
g62
(dp2395
sg71
g2222
sg64
(lp2396
g57
(g78
g59
NtRp2397
(dp2398
g62
(dp2399
g82
g83
ssg71
g2393
sg64
(lp2400
g1548
asbag57
(g78
g59
NtRp2401
(dp2402
g62
(dp2403
g89
g90
ssg71
g2393
sg64
(lp2404
S':'
asbag57
(g78
g59
NtRp2405
(dp2406
g62
(dp2407
sg71
g2393
sg64
(lp2408
g57
(g58
g59
NtRp2409
(dp2410
g62
(dp2411
g70
I4
ssg71
g2405
sg64
(lp2412
g100
asbasbasbag57
(g73
g59
NtRp2413
(dp2414
g62
(dp2415
sg71
g2222
sg64
(lp2416
g57
(g78
g59
NtRp2417
(dp2418
g62
(dp2419
g82
g83
ssg71
g2413
sg64
(lp2420
g1786
asbag57
(g78
g59
NtRp2421
(dp2422
g62
(dp2423
g89
g90
ssg71
g2413
sg64
(lp2424
S':'
asbag57
(g78
g59
NtRp2425
(dp2426
g62
(dp2427
sg71
g2413
sg64
(lp2428
g57
(g58
g59
NtRp2429
(dp2430
g62
(dp2431
g70
I4
ssg71
g2425
sg64
(lp2432
g1799
asbasbasbag57
(g73
g59
NtRp2433
(dp2434
g62
(dp2435
sg71
g2222
sg64
(lp2436
g57
(g78
g59
NtRp2437
(dp2438
g62
(dp2439
g82
g83
ssg71
g2433
sg64
(lp2440
g1829
asbag57
(g78
g59
NtRp2441
(dp2442
g62
(dp2443
g89
g90
ssg71
g2433
sg64
(lp2444
S':'
asbag57
(g78
g59
NtRp2445
(dp2446
g62
(dp2447
sg71
g2433
sg64
(lp2448
g57
(g58
g59
NtRp2449
(dp2450
g62
(dp2451
g70
I4
ssg71
g2445
sg64
(lp2452
g57
(g66
g59
NtRp2453
(dp2454
g62
(dp2455
g70
I3
ssg71
Nsg64
(lp2456
g57
(g73
g59
NtRp2457
(dp2458
g62
(dp2459
sg71
g2453
sg64
(lp2460
g57
(g78
g59
NtRp2461
(dp2462
g62
(dp2463
sg71
g2457
sg64
(lp2464
g57
(g58
g59
NtRp2465
(dp2466
g62
(dp2467
g70
I3
ssg71
g2461
sg64
(lp2468
S'1'
asbasbasbag57
(g73
g59
NtRp2469
(dp2470
g62
(dp2471
sg71
g2453
sg64
(lp2472
g57
(g78
g59
NtRp2473
(dp2474
g62
(dp2475
sg71
g2469
sg64
(lp2476
g57
(g58
g59
NtRp2477
(dp2478
g62
(dp2479
g70
I3
ssg71
g2473
sg64
(lp2480
S'99'
p2481
asbasbasbag57
(g73
g59
NtRp2482
(dp2483
g62
(dp2484
sg71
g2453
sg64
(lp2485
g57
(g78
g59
NtRp2486
(dp2487
g62
(dp2488
sg71
g2482
sg64
(lp2489
g57
(g58
g59
NtRp2490
(dp2491
g62
(dp2492
g70
I3
ssg71
g2486
sg64
(lp2493
S'4'
asbasbasbag57
(g73
g59
NtRp2494
(dp2495
g62
(dp2496
sg71
g2453
sg64
(lp2497
g57
(g78
g59
NtRp2498
(dp2499
g62
(dp2500
sg71
g2494
sg64
(lp2501
g57
(g58
g59
NtRp2502
(dp2503
g62
(dp2504
g70
I3
ssg71
g2498
sg64
(lp2505
S'datetime.datetime(2011, 12, 14, 14, 46, 14)'
p2506
asbasbasbag57
(g73
g59
NtRp2507
(dp2508
g62
(dp2509
sg71
g2453
sg64
(lp2510
g57
(g78
g59
NtRp2511
(dp2512
g62
(dp2513
sg71
g2507
sg64
(lp2514
g57
(g58
g59
NtRp2515
(dp2516
g62
(dp2517
g70
I3
ssg71
g2511
sg64
(lp2518
g1908
asbasbasbasbasbasbasbasbasbasbasbag57
(g73
g59
NtRp2519
(dp2520
g62
(dp2521
sg71
g67
sg64
(lp2522
g57
(g78
g59
NtRp2523
(dp2524
g62
(dp2525
g82
g83
ssg71
g2519
sg64
(lp2526
S'is_https'
p2527
asbag57
(g78
g59
NtRp2528
(dp2529
g62
(dp2530
g89
g90
ssg71
g2519
sg64
(lp2531
S':'
asbag57
(g78
g59
NtRp2532
(dp2533
g62
(dp2534
sg71
g2519
sg64
(lp2535
g57
(g58
g59
NtRp2536
(dp2537
g62
(dp2538
g70
I5
ssg71
g2532
sg64
(lp2539
g100
asbasbasbag57
(g73
g59
NtRp2540
(dp2541
g62
(dp2542
sg71
g67
sg64
(lp2543
g57
(g78
g59
NtRp2544
(dp2545
g62
(dp2546
g82
g83
ssg71
g2540
sg64
(lp2547
S'is_local'
p2548
asbag57
(g78
g59
NtRp2549
(dp2550
g62
(dp2551
g89
g90
ssg71
g2540
sg64
(lp2552
S':'
asbag57
(g78
g59
NtRp2553
(dp2554
g62
(dp2555
sg71
g2540
sg64
(lp2556
g57
(g58
g59
NtRp2557
(dp2558
g62
(dp2559
g70
I5
ssg71
g2553
sg64
(lp2560
g2017
asbasbasbag57
(g73
g59
NtRp2561
(dp2562
g62
(dp2563
sg71
g67
sg64
(lp2564
g57
(g78
g59
NtRp2565
(dp2566
g62
(dp2567
g82
g83
ssg71
g2561
sg64
(lp2568
S'is_restful'
p2569
asbag57
(g78
g59
NtRp2570
(dp2571
g62
(dp2572
g89
g90
ssg71
g2561
sg64
(lp2573
S':'
asbag57
(g78
g59
NtRp2574
(dp2575
g62
(dp2576
sg71
g2561
sg64
(lp2577
g57
(g58
g59
NtRp2578
(dp2579
g62
(dp2580
g70
I5
ssg71
g2574
sg64
(lp2581
g100
asbasbasbag57
(g73
g59
NtRp2582
(dp2583
g62
(dp2584
sg71
g67
sg64
(lp2585
g57
(g78
g59
NtRp2586
(dp2587
g62
(dp2588
g82
g83
ssg71
g2582
sg64
(lp2589
S'now'
p2590
asbag57
(g78
g59
NtRp2591
(dp2592
g62
(dp2593
g89
g90
ssg71
g2582
sg64
(lp2594
S':'
asbag57
(g78
g59
NtRp2595
(dp2596
g62
(dp2597
sg71
g2582
sg64
(lp2598
g57
(g58
g59
NtRp2599
(dp2600
g62
(dp2601
g70
I5
ssg71
g2595
sg64
(lp2602
S'datetime.datetime(2012, 2, 10, 15, 58, 21, 470787)'
p2603
asbasbasbag57
(g73
g59
NtRp2604
(dp2605
g62
(dp2606
sg71
g67
sg64
(lp2607
g57
(g78
g59
NtRp2608
(dp2609
g62
(dp2610
g82
g83
ssg71
g2604
sg64
(lp2611
S'post_vars'
p2612
asbag57
(g78
g59
NtRp2613
(dp2614
g62
(dp2615
g89
g90
ssg71
g2604
sg64
(lp2616
S':'
asbag57
(g78
g59
NtRp2617
(dp2618
g62
(dp2619
sg71
g2604
sg64
(lp2620
g57
(g58
g59
NtRp2621
(dp2622
g62
(dp2623
g70
I5
ssg71
g2617
sg64
(lp2624
g57
(g66
g59
NtRp2625
(dp2626
g62
(dp2627
g70
I4
ssg71
Nsg64
(lp2628
sbasbasbasbag57
(g73
g59
NtRp2629
(dp2630
g62
(dp2631
sg71
g67
sg64
(lp2632
g57
(g78
g59
NtRp2633
(dp2634
g62
(dp2635
g82
g83
ssg71
g2629
sg64
(lp2636
S'raw_args'
p2637
asbag57
(g78
g59
NtRp2638
(dp2639
g62
(dp2640
g89
g90
ssg71
g2629
sg64
(lp2641
S':'
asbag57
(g78
g59
NtRp2642
(dp2643
g62
(dp2644
sg71
g2629
sg64
(lp2645
g57
(g58
g59
NtRp2646
(dp2647
g62
(dp2648
g70
I5
ssg71
g2642
sg64
(lp2649
g159
asbasbasbag57
(g73
g59
NtRp2650
(dp2651
g62
(dp2652
sg71
g67
sg64
(lp2653
g57
(g78
g59
NtRp2654
(dp2655
g62
(dp2656
g82
g83
ssg71
g2650
sg64
(lp2657
S'url'
p2658
asbag57
(g78
g59
NtRp2659
(dp2660
g62
(dp2661
g89
g90
ssg71
g2650
sg64
(lp2662
S':'
asbag57
(g78
g59
NtRp2663
(dp2664
g62
(dp2665
sg71
g2650
sg64
(lp2666
g57
(g58
g59
NtRp2667
(dp2668
g62
(dp2669
g70
I5
ssg71
g2663
sg64
(lp2670
S'/grammateus3/docs/test/1En'
p2671
asbasbasbag57
(g73
g59
NtRp2672
(dp2673
g62
(dp2674
sg71
g67
sg64
(lp2675
g57
(g78
g59
NtRp2676
(dp2677
g62
(dp2678
g82
g83
ssg71
g2672
sg64
(lp2679
S'utcnow'
p2680
asbag57
(g78
g59
NtRp2681
(dp2682
g62
(dp2683
g89
g90
ssg71
g2672
sg64
(lp2684
S':'
asbag57
(g78
g59
NtRp2685
(dp2686
g62
(dp2687
sg71
g2672
sg64
(lp2688
g57
(g58
g59
NtRp2689
(dp2690
g62
(dp2691
g70
I5
ssg71
g2685
sg64
(lp2692
S'datetime.datetime(2012, 2, 10, 20, 58, 21, 470821)'
p2693
asbasbasbag57
(g73
g59
NtRp2694
(dp2695
g62
(dp2696
sg71
g67
sg64
(lp2697
g57
(g78
g59
NtRp2698
(dp2699
g62
(dp2700
g82
g83
ssg71
g2694
sg64
(lp2701
S'uuid'
p2702
asbag57
(g78
g59
NtRp2703
(dp2704
g62
(dp2705
g89
g90
ssg71
g2694
sg64
(lp2706
S':'
asbag57
(g78
g59
NtRp2707
(dp2708
g62
(dp2709
sg71
g2694
sg64
(lp2710
g57
(g58
g59
NtRp2711
(dp2712
g62
(dp2713
g70
I5
ssg71
g2707
sg64
(lp2714
S'grammateus3/127.0.0.1.2012-02-10.15-58-21.cb09ea36-5726-4738-b664-6e194210c538'
p2715
asbasbasbag57
(g73
g59
NtRp2716
(dp2717
g62
(dp2718
sg71
g67
sg64
(lp2719
g57
(g78
g59
NtRp2720
(dp2721
g62
(dp2722
g82
g83
ssg71
g2716
sg64
(lp2723
S'vars'
p2724
asbag57
(g78
g59
NtRp2725
(dp2726
g62
(dp2727
g89
g90
ssg71
g2716
sg64
(lp2728
S':'
asbag57
(g78
g59
NtRp2729
(dp2730
g62
(dp2731
sg71
g2716
sg64
(lp2732
g57
(g58
g59
NtRp2733
(dp2734
g62
(dp2735
g70
I5
ssg71
g2729
sg64
(lp2736
g57
(g66
g59
NtRp2737
(dp2738
g62
(dp2739
g70
I4
ssg71
Nsg64
(lp2740
sbasbasbasbag57
(g73
g59
NtRp2741
(dp2742
g62
(dp2743
sg71
g67
sg64
(lp2744
g57
(g78
g59
NtRp2745
(dp2746
g62
(dp2747
g82
g83
ssg71
g2741
sg64
(lp2748
S'wsgi'
p2749
asbag57
(g78
g59
NtRp2750
(dp2751
g62
(dp2752
g89
g90
ssg71
g2741
sg64
(lp2753
S':'
asbag57
(g78
g59
NtRp2754
(dp2755
g62
(dp2756
sg71
g2741
sg64
(lp2757
g57
(g58
g59
NtRp2758
(dp2759
g62
(dp2760
g70
I5
ssg71
g2754
sg64
(lp2761
g57
(g66
g59
NtRp2762
(dp2763
g62
(dp2764
g70
I4
ssg71
Nsg64
(lp2765
g57
(g73
g59
NtRp2766
(dp2767
g62
(dp2768
sg71
g2762
sg64
(lp2769
g57
(g78
g59
NtRp2770
(dp2771
g62
(dp2772
g82
g83
ssg71
g2766
sg64
(lp2773
S'environ'
p2774
asbag57
(g78
g59
NtRp2775
(dp2776
g62
(dp2777
g89
g90
ssg71
g2766
sg64
(lp2778
S':'
asbag57
(g78
g59
NtRp2779
(dp2780
g62
(dp2781
sg71
g2766
sg64
(lp2782
g57
(g58
g59
NtRp2783
(dp2784
g62
(dp2785
g70
I4
ssg71
g2779
sg64
(lp2786
g57
(g66
g59
NtRp2787
(dp2788
g62
(dp2789
g70
I3
ssg71
Nsg64
(lp2790
g57
(g73
g59
NtRp2791
(dp2792
g62
(dp2793
sg71
g2787
sg64
(lp2794
g57
(g78
g59
NtRp2795
(dp2796
g62
(dp2797
g82
g83
ssg71
g2791
sg64
(lp2798
S'HTTP_ACCEPT'
p2799
asbag57
(g78
g59
NtRp2800
(dp2801
g62
(dp2802
g89
g90
ssg71
g2791
sg64
(lp2803
S':'
asbag57
(g78
g59
NtRp2804
(dp2805
g62
(dp2806
sg71
g2791
sg64
(lp2807
g57
(g58
g59
NtRp2808
(dp2809
g62
(dp2810
g70
I3
ssg71
g2804
sg64
(lp2811
g1386
asbasbasbag57
(g73
g59
NtRp2812
(dp2813
g62
(dp2814
sg71
g2787
sg64
(lp2815
g57
(g78
g59
NtRp2816
(dp2817
g62
(dp2818
g82
g83
ssg71
g2812
sg64
(lp2819
S'HTTP_ACCEPT_ENCODING'
p2820
asbag57
(g78
g59
NtRp2821
(dp2822
g62
(dp2823
g89
g90
ssg71
g2812
sg64
(lp2824
S':'
asbag57
(g78
g59
NtRp2825
(dp2826
g62
(dp2827
sg71
g2812
sg64
(lp2828
g57
(g58
g59
NtRp2829
(dp2830
g62
(dp2831
g70
I3
ssg71
g2825
sg64
(lp2832
g1408
asbasbasbag57
(g73
g59
NtRp2833
(dp2834
g62
(dp2835
sg71
g2787
sg64
(lp2836
g57
(g78
g59
NtRp2837
(dp2838
g62
(dp2839
g82
g83
ssg71
g2833
sg64
(lp2840
S'HTTP_ACCEPT_LANGUAGE'
p2841
asbag57
(g78
g59
NtRp2842
(dp2843
g62
(dp2844
g89
g90
ssg71
g2833
sg64
(lp2845
S':'
asbag57
(g78
g59
NtRp2846
(dp2847
g62
(dp2848
sg71
g2833
sg64
(lp2849
g57
(g58
g59
NtRp2850
(dp2851
g62
(dp2852
g70
I3
ssg71
g2846
sg64
(lp2853
g1430
asbasbasbag57
(g73
g59
NtRp2854
(dp2855
g62
(dp2856
sg71
g2787
sg64
(lp2857
g57
(g78
g59
NtRp2858
(dp2859
g62
(dp2860
g82
g83
ssg71
g2854
sg64
(lp2861
S'HTTP_CONNECTION'
p2862
asbag57
(g78
g59
NtRp2863
(dp2864
g62
(dp2865
g89
g90
ssg71
g2854
sg64
(lp2866
S':'
asbag57
(g78
g59
NtRp2867
(dp2868
g62
(dp2869
sg71
g2854
sg64
(lp2870
g57
(g58
g59
NtRp2871
(dp2872
g62
(dp2873
g70
I3
ssg71
g2867
sg64
(lp2874
g1452
asbasbasbag57
(g73
g59
NtRp2875
(dp2876
g62
(dp2877
sg71
g2787
sg64
(lp2878
g57
(g78
g59
NtRp2879
(dp2880
g62
(dp2881
g82
g83
ssg71
g2875
sg64
(lp2882
S'HTTP_COOKIE'
p2883
asbag57
(g78
g59
NtRp2884
(dp2885
g62
(dp2886
g89
g90
ssg71
g2875
sg64
(lp2887
S':'
asbag57
(g78
g59
NtRp2888
(dp2889
g62
(dp2890
sg71
g2875
sg64
(lp2891
g57
(g58
g59
NtRp2892
(dp2893
g62
(dp2894
g70
I3
ssg71
g2888
sg64
(lp2895
g1474
asbasbasbag57
(g73
g59
NtRp2896
(dp2897
g62
(dp2898
sg71
g2787
sg64
(lp2899
g57
(g78
g59
NtRp2900
(dp2901
g62
(dp2902
g82
g83
ssg71
g2896
sg64
(lp2903
S'HTTP_HOST'
p2904
asbag57
(g78
g59
NtRp2905
(dp2906
g62
(dp2907
g89
g90
ssg71
g2896
sg64
(lp2908
S':'
asbag57
(g78
g59
NtRp2909
(dp2910
g62
(dp2911
sg71
g2896
sg64
(lp2912
g57
(g58
g59
NtRp2913
(dp2914
g62
(dp2915
g70
I3
ssg71
g2909
sg64
(lp2916
g1496
asbasbasbag57
(g73
g59
NtRp2917
(dp2918
g62
(dp2919
sg71
g2787
sg64
(lp2920
g57
(g78
g59
NtRp2921
(dp2922
g62
(dp2923
g82
g83
ssg71
g2917
sg64
(lp2924
S'HTTP_USER_AGENT'
p2925
asbag57
(g78
g59
NtRp2926
(dp2927
g62
(dp2928
g89
g90
ssg71
g2917
sg64
(lp2929
S':'
asbag57
(g78
g59
NtRp2930
(dp2931
g62
(dp2932
sg71
g2917
sg64
(lp2933
g57
(g58
g59
NtRp2934
(dp2935
g62
(dp2936
g70
I3
ssg71
g2930
sg64
(lp2937
g1518
asbasbasbag57
(g73
g59
NtRp2938
(dp2939
g62
(dp2940
sg71
g2787
sg64
(lp2941
g57
(g78
g59
NtRp2942
(dp2943
g62
(dp2944
g82
g83
ssg71
g2938
sg64
(lp2945
S'PATH_INFO'
p2946
asbag57
(g78
g59
NtRp2947
(dp2948
g62
(dp2949
g89
g90
ssg71
g2938
sg64
(lp2950
S':'
asbag57
(g78
g59
NtRp2951
(dp2952
g62
(dp2953
sg71
g2938
sg64
(lp2954
g57
(g58
g59
NtRp2955
(dp2956
g62
(dp2957
g70
I3
ssg71
g2951
sg64
(lp2958
g1582
asbasbasbag57
(g73
g59
NtRp2959
(dp2960
g62
(dp2961
sg71
g2787
sg64
(lp2962
g57
(g78
g59
NtRp2963
(dp2964
g62
(dp2965
g82
g83
ssg71
g2959
sg64
(lp2966
S'QUERY_STRING'
p2967
asbag57
(g78
g59
NtRp2968
(dp2969
g62
(dp2970
g89
g90
ssg71
g2959
sg64
(lp2971
S':'
asbag57
(g78
g59
NtRp2972
(dp2973
g62
(dp2974
sg71
g2959
sg64
(lp2975
g57
(g58
g59
NtRp2976
(dp2977
g62
(dp2978
g70
I3
ssg71
g2972
sg64
(lp2979
S''
asbasbasbag57
(g73
g59
NtRp2980
(dp2981
g62
(dp2982
sg71
g2787
sg64
(lp2983
g57
(g78
g59
NtRp2984
(dp2985
g62
(dp2986
g82
g83
ssg71
g2980
sg64
(lp2987
S'REMOTE_ADDR'
p2988
asbag57
(g78
g59
NtRp2989
(dp2990
g62
(dp2991
g89
g90
ssg71
g2980
sg64
(lp2992
S':'
asbag57
(g78
g59
NtRp2993
(dp2994
g62
(dp2995
sg71
g2980
sg64
(lp2996
g57
(g58
g59
NtRp2997
(dp2998
g62
(dp2999
g70
I3
ssg71
g2993
sg64
(lp3000
g203
asbasbasbag57
(g73
g59
NtRp3001
(dp3002
g62
(dp3003
sg71
g2787
sg64
(lp3004
g57
(g78
g59
NtRp3005
(dp3006
g62
(dp3007
g82
g83
ssg71
g3001
sg64
(lp3008
S'REMOTE_PORT'
p3009
asbag57
(g78
g59
NtRp3010
(dp3011
g62
(dp3012
g89
g90
ssg71
g3001
sg64
(lp3013
S':'
asbag57
(g78
g59
NtRp3014
(dp3015
g62
(dp3016
sg71
g3001
sg64
(lp3017
g57
(g58
g59
NtRp3018
(dp3019
g62
(dp3020
g70
I3
ssg71
g3014
sg64
(lp3021
g1646
asbasbasbag57
(g73
g59
NtRp3022
(dp3023
g62
(dp3024
sg71
g2787
sg64
(lp3025
g57
(g78
g59
NtRp3026
(dp3027
g62
(dp3028
g82
g83
ssg71
g3022
sg64
(lp3029
S'REQUEST_METHOD'
p3030
asbag57
(g78
g59
NtRp3031
(dp3032
g62
(dp3033
g89
g90
ssg71
g3022
sg64
(lp3034
S':'
asbag57
(g78
g59
NtRp3035
(dp3036
g62
(dp3037
sg71
g3022
sg64
(lp3038
g57
(g58
g59
NtRp3039
(dp3040
g62
(dp3041
g70
I3
ssg71
g3035
sg64
(lp3042
g1668
asbasbasbag57
(g73
g59
NtRp3043
(dp3044
g62
(dp3045
sg71
g2787
sg64
(lp3046
g57
(g78
g59
NtRp3047
(dp3048
g62
(dp3049
g82
g83
ssg71
g3043
sg64
(lp3050
S'SCRIPT_NAME'
p3051
asbag57
(g78
g59
NtRp3052
(dp3053
g62
(dp3054
g89
g90
ssg71
g3043
sg64
(lp3055
S':'
asbag57
(g78
g59
NtRp3056
(dp3057
g62
(dp3058
sg71
g3043
sg64
(lp3059
g57
(g58
g59
NtRp3060
(dp3061
g62
(dp3062
g70
I3
ssg71
g3056
sg64
(lp3063
S''
asbasbasbag57
(g73
g59
NtRp3064
(dp3065
g62
(dp3066
sg71
g2787
sg64
(lp3067
g57
(g78
g59
NtRp3068
(dp3069
g62
(dp3070
g82
g83
ssg71
g3064
sg64
(lp3071
S'SERVER_NAME'
p3072
asbag57
(g78
g59
NtRp3073
(dp3074
g62
(dp3075
g89
g90
ssg71
g3064
sg64
(lp3076
S':'
asbag57
(g78
g59
NtRp3077
(dp3078
g62
(dp3079
sg71
g3064
sg64
(lp3080
g57
(g58
g59
NtRp3081
(dp3082
g62
(dp3083
g70
I3
ssg71
g3077
sg64
(lp3084
g1711
asbasbasbag57
(g73
g59
NtRp3085
(dp3086
g62
(dp3087
sg71
g2787
sg64
(lp3088
g57
(g78
g59
NtRp3089
(dp3090
g62
(dp3091
g82
g83
ssg71
g3085
sg64
(lp3092
S'SERVER_PORT'
p3093
asbag57
(g78
g59
NtRp3094
(dp3095
g62
(dp3096
g89
g90
ssg71
g3085
sg64
(lp3097
S':'
asbag57
(g78
g59
NtRp3098
(dp3099
g62
(dp3100
sg71
g3085
sg64
(lp3101
g57
(g58
g59
NtRp3102
(dp3103
g62
(dp3104
g70
I3
ssg71
g3098
sg64
(lp3105
g1733
asbasbasbag57
(g73
g59
NtRp3106
(dp3107
g62
(dp3108
sg71
g2787
sg64
(lp3109
g57
(g78
g59
NtRp3110
(dp3111
g62
(dp3112
g82
g83
ssg71
g3106
sg64
(lp3113
S'SERVER_PROTOCOL'
p3114
asbag57
(g78
g59
NtRp3115
(dp3116
g62
(dp3117
g89
g90
ssg71
g3106
sg64
(lp3118
S':'
asbag57
(g78
g59
NtRp3119
(dp3120
g62
(dp3121
sg71
g3106
sg64
(lp3122
g57
(g58
g59
NtRp3123
(dp3124
g62
(dp3125
g70
I3
ssg71
g3119
sg64
(lp3126
g1755
asbasbasbag57
(g73
g59
NtRp3127
(dp3128
g62
(dp3129
sg71
g2787
sg64
(lp3130
g57
(g78
g59
NtRp3131
(dp3132
g62
(dp3133
g82
g83
ssg71
g3127
sg64
(lp3134
S'SERVER_SOFTWARE'
p3135
asbag57
(g78
g59
NtRp3136
(dp3137
g62
(dp3138
g89
g90
ssg71
g3127
sg64
(lp3139
S':'
asbag57
(g78
g59
NtRp3140
(dp3141
g62
(dp3142
sg71
g3127
sg64
(lp3143
g57
(g58
g59
NtRp3144
(dp3145
g62
(dp3146
g70
I3
ssg71
g3140
sg64
(lp3147
g1777
asbasbasbag57
(g73
g59
NtRp3148
(dp3149
g62
(dp3150
sg71
g2787
sg64
(lp3151
g57
(g78
g59
NtRp3152
(dp3153
g62
(dp3154
g82
g83
ssg71
g3148
sg64
(lp3155
S'wsgi.errors'
p3156
asbag57
(g78
g59
NtRp3157
(dp3158
g62
(dp3159
g89
g90
ssg71
g3148
sg64
(lp3160
S':'
asbag57
(g78
g59
NtRp3161
(dp3162
g62
(dp3163
sg71
g3148
sg64
(lp3164
g57
(g58
g59
NtRp3165
(dp3166
g62
(dp3167
g70
I3
ssg71
g3161
sg64
(lp3168
S"<open file '<stderr>', mode 'w' at 0x7fa97bb27270>"
p3169
asbasbasbag57
(g73
g59
NtRp3170
(dp3171
g62
(dp3172
sg71
g2787
sg64
(lp3173
g57
(g78
g59
NtRp3174
(dp3175
g62
(dp3176
g82
g83
ssg71
g3170
sg64
(lp3177
S'wsgi.file_wrapper'
p3178
asbag57
(g78
g59
NtRp3179
(dp3180
g62
(dp3181
g89
g90
ssg71
g3170
sg64
(lp3182
S':'
asbag57
(g78
g59
NtRp3183
(dp3184
g62
(dp3185
sg71
g3170
sg64
(lp3186
g57
(g58
g59
NtRp3187
(dp3188
g62
(dp3189
g70
I3
ssg71
g3183
sg64
(lp3190
S'<class wsgiref.util.FileWrapper at 0x22d5120>'
p3191
asbasbasbag57
(g73
g59
NtRp3192
(dp3193
g62
(dp3194
sg71
g2787
sg64
(lp3195
g57
(g78
g59
NtRp3196
(dp3197
g62
(dp3198
g82
g83
ssg71
g3192
sg64
(lp3199
S'wsgi.input'
p3200
asbag57
(g78
g59
NtRp3201
(dp3202
g62
(dp3203
g89
g90
ssg71
g3192
sg64
(lp3204
S':'
asbag57
(g78
g59
NtRp3205
(dp3206
g62
(dp3207
sg71
g3192
sg64
(lp3208
g57
(g58
g59
NtRp3209
(dp3210
g62
(dp3211
g70
I3
ssg71
g3205
sg64
(lp3212
S'<cStringIO.StringO object at 0x31dd148>'
p3213
asbasbasbag57
(g73
g59
NtRp3214
(dp3215
g62
(dp3216
sg71
g2787
sg64
(lp3217
g57
(g78
g59
NtRp3218
(dp3219
g62
(dp3220
g82
g83
ssg71
g3214
sg64
(lp3221
S'wsgi.multiprocess'
p3222
asbag57
(g78
g59
NtRp3223
(dp3224
g62
(dp3225
g89
g90
ssg71
g3214
sg64
(lp3226
S':'
asbag57
(g78
g59
NtRp3227
(dp3228
g62
(dp3229
sg71
g3214
sg64
(lp3230
g57
(g58
g59
NtRp3231
(dp3232
g62
(dp3233
g70
I3
ssg71
g3227
sg64
(lp3234
g100
asbasbasbag57
(g73
g59
NtRp3235
(dp3236
g62
(dp3237
sg71
g2787
sg64
(lp3238
g57
(g78
g59
NtRp3239
(dp3240
g62
(dp3241
g82
g83
ssg71
g3235
sg64
(lp3242
S'wsgi.multithread'
p3243
asbag57
(g78
g59
NtRp3244
(dp3245
g62
(dp3246
g89
g90
ssg71
g3235
sg64
(lp3247
S':'
asbag57
(g78
g59
NtRp3248
(dp3249
g62
(dp3250
sg71
g3235
sg64
(lp3251
g57
(g58
g59
NtRp3252
(dp3253
g62
(dp3254
g70
I3
ssg71
g3248
sg64
(lp3255
g2017
asbasbasbag57
(g73
g59
NtRp3256
(dp3257
g62
(dp3258
sg71
g2787
sg64
(lp3259
g57
(g78
g59
NtRp3260
(dp3261
g62
(dp3262
g82
g83
ssg71
g3256
sg64
(lp3263
S'wsgi.run_once'
p3264
asbag57
(g78
g59
NtRp3265
(dp3266
g62
(dp3267
g89
g90
ssg71
g3256
sg64
(lp3268
S':'
asbag57
(g78
g59
NtRp3269
(dp3270
g62
(dp3271
sg71
g3256
sg64
(lp3272
g57
(g58
g59
NtRp3273
(dp3274
g62
(dp3275
g70
I3
ssg71
g3269
sg64
(lp3276
g100
asbasbasbag57
(g73
g59
NtRp3277
(dp3278
g62
(dp3279
sg71
g2787
sg64
(lp3280
g57
(g78
g59
NtRp3281
(dp3282
g62
(dp3283
g82
g83
ssg71
g3277
sg64
(lp3284
S'wsgi.url_scheme'
p3285
asbag57
(g78
g59
NtRp3286
(dp3287
g62
(dp3288
g89
g90
ssg71
g3277
sg64
(lp3289
S':'
asbag57
(g78
g59
NtRp3290
(dp3291
g62
(dp3292
sg71
g3277
sg64
(lp3293
g57
(g58
g59
NtRp3294
(dp3295
g62
(dp3296
g70
I3
ssg71
g3290
sg64
(lp3297
g2060
asbasbasbag57
(g73
g59
NtRp3298
(dp3299
g62
(dp3300
sg71
g2787
sg64
(lp3301
g57
(g78
g59
NtRp3302
(dp3303
g62
(dp3304
g82
g83
ssg71
g3298
sg64
(lp3305
S'wsgi.version'
p3306
asbag57
(g78
g59
NtRp3307
(dp3308
g62
(dp3309
g89
g90
ssg71
g3298
sg64
(lp3310
S':'
asbag57
(g78
g59
NtRp3311
(dp3312
g62
(dp3313
sg71
g3298
sg64
(lp3314
g57
(g58
g59
NtRp3315
(dp3316
g62
(dp3317
g70
I3
ssg71
g3311
sg64
(lp3318
S'1'
asbasbasbasbasbasbasbasbasbasbasbasbasbsS'frames'
p3319
(lp3320
(dp3321
S'file'
p3322
S'/home/ian/Web Pages/web2py/gluon/restricted.py'
p3323
sS'dump'
p3324
(dp3325
S'environment'
p3326
S"{'A': <class 'gluon.html.A'>, 'Auth': <class 'gluon.tools.Auth'>, 'B': <class 'gluon.html.B'>, 'BEAUTIFY': <class 'gluon.html.BEAUTIFY'>, 'BODY': <class 'gluon.html.BODY'>, 'BR': <class 'gluon.html.BR'>, 'BUTTON': <class 'gluon.html.BUTTON'>, 'BookParser': <class 'applications.grammateus3.modules.parse.BookParser'>, 'CAT': <class 'gluon.html.CAT'>, 'CENTER': <class 'gluon.html.CENTER'>, ...}"
p3327
sS'ccode'
p3328
S'<code object <module> at 0x34d2330, file "/home/...cations/grammateus3/controllers/docs.py", line 2>'
p3329
ssS'lnum'
p3330
I204
sS'lines'
p3331
(dp3332
I199
S'    try:'
p3333
sI200
S'        if type(code) == types.CodeType:'
p3334
sI201
S'            ccode = code'
p3335
sI202
S'        else:'
p3336
sI203
S'            ccode = compile2(code,layer)'
p3337
sI204
S'        exec ccode in environment'
p3338
sI205
S'    except HTTP:'
p3339
sI206
S'        raise'
p3340
sI207
S'    except RestrictedError:'
p3341
sI208
S'        # do not encapsulate (obfuscate) the original RestrictedError'
p3342
ssS'call'
p3343
S"(code='# coding: utf8\\nfrom lxml import etree\\n\\n# Track c...o = info)\\n\\nresponse._vars=response._caller(test)\\n', environment={'A': <class 'gluon.html.A'>, 'Auth': <class 'gluon.tools.Auth'>, 'B': <class 'gluon.html.B'>, 'BEAUTIFY': <class 'gluon.html.BEAUTIFY'>, 'BODY': <class 'gluon.html.BODY'>, 'BR': <class 'gluon.html.BR'>, 'BUTTON': <class 'gluon.html.BUTTON'>, 'BookParser': <class 'applications.grammateus3.modules.parse.BookParser'>, 'CAT': <class 'gluon.html.CAT'>, 'CENTER': <class 'gluon.html.CENTER'>, ...}, layer='/home/ian/Web Pages/web2py/applications/grammateus3/controllers/docs.py')"
p3344
sS'func'
p3345
S'restricted'
p3346
sa(dp3347
g3322
S'/home/ian/Web Pages/web2py/applications/grammateus3/controllers/docs.py'
p3348
sg3324
(dp3349
sg3330
I44
sg3331
(dp3350
I33
S"                print 'Version textstructure'"
p3351
sI34
S'                for ref, ref_val in value.items():'
p3352
sI35
S'                    for unit, unit_val in ref_val.items():'
p3353
sI36
S'                        for mss, mss_val in unit_val.items():'
p3354
sI37
S"                            print '\\t', ref, '-->', unit, '-->', mss, '-->', mss_val"
p3355
sI38
S"        print '************'"
p3356
sI39
S'    print'
p3357
sI40
S'    print'
p3358
sI41
S''
sI42
S'    return dict(title = title, info = info)'
p3359
ssg3343
S'()'
p3360
sg3345
S'<module>'
p3361
sa(dp3362
g3322
S'/home/ian/Web Pages/web2py/gluon/globals.py'
p3363
sg3324
(dp3364
S'self'
p3365
S'undefined'
p3366
sS'f'
S'<function test>'
p3367
ssg3330
I172
sg3331
(dp3368
I167
S'        self.meta = Storage()      # used by web2py_ajax.html'
p3369
sI168
S'        self.menu = []             # used by the default view layout'
p3370
sI169
S'        self.files = []            # used by web2py_ajax.html'
p3371
sI170
S'        self.generic_patterns = [] # patterns to allow generic views'
p3372
sI171
S'        self._vars = None'
p3373
sI172
S'        self._caller = lambda f: f()'
p3374
sI173
S'        self._view_environment = None'
p3375
sI174
S'        self._custom_commit = None'
p3376
sI175
S'        self._custom_rollback = None'
p3377
sI176
S''
ssg3343
S'(f=<function test>)'
p3378
sg3345
S'<lambda>'
p3379
sa(dp3380
g3322
S'/home/ian/Web Pages/web2py/applications/grammateus3/controllers/docs.py'
p3381
sg3324
(dp3382
S'info'
p3383
g3366
sS'p'
S'<applications.grammateus3.modules.parse.BookParser object>'
p3384
sS'p.book_info'
p3385
S'<bound method BookParser.book_info of <applications.grammateus3.modules.parse.BookParser object>>'
p3386
ssg3330
I24
sg3331
(dp3387
I19
S''
sI20
S'def test():'
p3388
sI21
S'    filename = request.args[0]'
p3389
sI22
S"    book_file = 'applications/grammateus3/static/docs/%s.xml' % filename"
p3390
sI23
S'    p = BookParser(book_file)'
p3391
sI24
S'    info = p.book_info()'
p3392
sI25
S''
sI26
S"    title = info['title']"
p3393
sI27
S"    for version in info['versions']:"
p3394
sI28
S'        for key, value in version.items():'
p3395
ssg3343
S'()'
p3396
sg3345
S'test'
p3397
sa(dp3398
g3322
S'/home/ian/Web Pages/web2py/applications/grammateus3/modules/parse.py'
p3399
sg3324
(dp3400
S'ms_dict'
p3401
S"OrderedDict([('abbrev', 'Jude'), ('language', 'Greek'), ('name', 'Jude 14-15')])"
p3402
sS'].text'
p3403
g3366
sS'ms.xpath'
p3404
S'<built-in method xpath of lxml.etree._Element object>'
p3405
sS'ms'
p3406
S'<Element ms>'
p3407
ssg3330
I68
sg3331
(dp3408
I64
S"            for ms in version.xpath('manuscripts/ms'):"
p3409
sI65
S'                ms_dict = OrderedDict()'
p3410
sI66
S"                ms_dict= OrderedDict((attr, ms.xpath('@%s' % attr)[0]) for attr in ('abbrev', 'language'))"
p3411
sI67
S"                ms_dict['name'] = ms.xpath('name')[0].text"
p3412
sI68
S"                ms_dict['bibliography'] = ms.xpath('bibliography')[0].text"
p3413
sI69
S''
sI70
S"                mss[ms_dict['abbrev']] = ms_dict"
p3414
sI71
S''
sI72
S"            version_dict['manuscript'] = mss"
p3415
sI63
S'            mss = OrderedDict()'
p3416
ssg3343
S'(self=<applications.grammateus3.modules.parse.BookParser object>)'
p3417
sg3345
S'book_info'
p3418
sasS'pyver'
p3419
S'Python 2.7.2+: /usr/bin/python2.7'
p3420
sS'session'
p3421
g57
(g58
g59
NtRp3422
(dp3423
g62
(dp3424
sg64
(lp3425
g57
(g66
g59
NtRp3426
(dp3427
g62
(dp3428
g70
I5
ssg71
Nsg64
(lp3429
sbasbsS'etype'
p3430
S"<type 'exceptions.IndexError'>"
p3431
sS'date'
p3432
S'Fri Feb 10 15:58:21 2012'
p3433
sS'response'
p3434
g57
(g58
g59
NtRp3435
(dp3436
g62
(dp3437
sg64
(lp3438
g57
(g66
g59
NtRp3439
(dp3440
g62
(dp3441
g70
I5
ssg71
Nsg64
(lp3442
g57
(g73
g59
NtRp3443
(dp3444
g62
(dp3445
sg71
g3439
sg64
(lp3446
g57
(g78
g59
NtRp3447
(dp3448
g62
(dp3449
g82
g83
ssg71
g3443
sg64
(lp3450
g168
asbag57
(g78
g59
NtRp3451
(dp3452
g62
(dp3453
g89
g90
ssg71
g3443
sg64
(lp3454
S':'
asbag57
(g78
g59
NtRp3455
(dp3456
g62
(dp3457
sg71
g3443
sg64
(lp3458
g57
(g58
g59
NtRp3459
(dp3460
g62
(dp3461
g70
I5
ssg71
g3455
sg64
(lp3462
S'<cStringIO.StringO object at 0x2f5f068>'
p3463
asbasbasbag57
(g73
g59
NtRp3464
(dp3465
g62
(dp3466
sg71
g3439
sg64
(lp3467
g57
(g78
g59
NtRp3468
(dp3469
g62
(dp3470
g82
g83
ssg71
g3464
sg64
(lp3471
g234
asbag57
(g78
g59
NtRp3472
(dp3473
g62
(dp3474
g89
g90
ssg71
g3464
sg64
(lp3475
S':'
asbag57
(g78
g59
NtRp3476
(dp3477
g62
(dp3478
sg71
g3464
sg64
(lp3479
g57
(g58
g59
NtRp3480
(dp3481
g62
(dp3482
g70
I5
ssg71
g3476
sg64
(lp3483
g57
(g66
g59
NtRp3484
(dp3485
g62
(dp3486
g70
I4
ssg71
Nsg64
(lp3487
g57
(g73
g59
NtRp3488
(dp3489
g62
(dp3490
sg71
g3484
sg64
(lp3491
g57
(g78
g59
NtRp3492
(dp3493
g62
(dp3494
g82
g83
ssg71
g3488
sg64
(lp3495
S'session_id_grammateus3'
p3496
asbag57
(g78
g59
NtRp3497
(dp3498
g62
(dp3499
g89
g90
ssg71
g3488
sg64
(lp3500
S':'
asbag57
(g78
g59
NtRp3501
(dp3502
g62
(dp3503
sg71
g3488
sg64
(lp3504
g57
(g58
g59
NtRp3505
(dp3506
g62
(dp3507
g70
I4
ssg71
g3501
sg64
(lp3508
g57
(g66
g59
NtRp3509
(dp3510
g62
(dp3511
g70
I3
ssg71
Nsg64
(lp3512
g57
(g73
g59
NtRp3513
(dp3514
g62
(dp3515
sg71
g3509
sg64
(lp3516
g57
(g78
g59
NtRp3517
(dp3518
g62
(dp3519
g82
g83
ssg71
g3513
sg64
(lp3520
g284
asbag57
(g78
g59
NtRp3521
(dp3522
g62
(dp3523
g89
g90
ssg71
g3513
sg64
(lp3524
S':'
asbag57
(g78
g59
NtRp3525
(dp3526
g62
(dp3527
sg71
g3513
sg64
(lp3528
g57
(g58
g59
NtRp3529
(dp3530
g62
(dp3531
g70
I3
ssg71
g3525
sg64
(lp3532
S''
asbasbasbag57
(g73
g59
NtRp3533
(dp3534
g62
(dp3535
sg71
g3509
sg64
(lp3536
g57
(g78
g59
NtRp3537
(dp3538
g62
(dp3539
g82
g83
ssg71
g3533
sg64
(lp3540
g305
asbag57
(g78
g59
NtRp3541
(dp3542
g62
(dp3543
g89
g90
ssg71
g3533
sg64
(lp3544
S':'
asbag57
(g78
g59
NtRp3545
(dp3546
g62
(dp3547
sg71
g3533
sg64
(lp3548
g57
(g58
g59
NtRp3549
(dp3550
g62
(dp3551
g70
I3
ssg71
g3545
sg64
(lp3552
S''
asbasbasbag57
(g73
g59
NtRp3553
(dp3554
g62
(dp3555
sg71
g3509
sg64
(lp3556
g57
(g78
g59
NtRp3557
(dp3558
g62
(dp3559
g82
g83
ssg71
g3553
sg64
(lp3560
g326
asbag57
(g78
g59
NtRp3561
(dp3562
g62
(dp3563
g89
g90
ssg71
g3553
sg64
(lp3564
S':'
asbag57
(g78
g59
NtRp3565
(dp3566
g62
(dp3567
sg71
g3553
sg64
(lp3568
g57
(g58
g59
NtRp3569
(dp3570
g62
(dp3571
g70
I3
ssg71
g3565
sg64
(lp3572
S''
asbasbasbag57
(g73
g59
NtRp3573
(dp3574
g62
(dp3575
sg71
g3509
sg64
(lp3576
g57
(g78
g59
NtRp3577
(dp3578
g62
(dp3579
g82
g83
ssg71
g3573
sg64
(lp3580
g347
asbag57
(g78
g59
NtRp3581
(dp3582
g62
(dp3583
g89
g90
ssg71
g3573
sg64
(lp3584
S':'
asbag57
(g78
g59
NtRp3585
(dp3586
g62
(dp3587
sg71
g3573
sg64
(lp3588
g57
(g58
g59
NtRp3589
(dp3590
g62
(dp3591
g70
I3
ssg71
g3585
sg64
(lp3592
S''
asbasbasbag57
(g73
g59
NtRp3593
(dp3594
g62
(dp3595
sg71
g3509
sg64
(lp3596
g57
(g78
g59
NtRp3597
(dp3598
g62
(dp3599
g82
g83
ssg71
g3593
sg64
(lp3600
g368
asbag57
(g78
g59
NtRp3601
(dp3602
g62
(dp3603
g89
g90
ssg71
g3593
sg64
(lp3604
S':'
asbag57
(g78
g59
NtRp3605
(dp3606
g62
(dp3607
sg71
g3593
sg64
(lp3608
g57
(g58
g59
NtRp3609
(dp3610
g62
(dp3611
g70
I3
ssg71
g3605
sg64
(lp3612
S''
asbasbasbag57
(g73
g59
NtRp3613
(dp3614
g62
(dp3615
sg71
g3509
sg64
(lp3616
g57
(g78
g59
NtRp3617
(dp3618
g62
(dp3619
g82
g83
ssg71
g3613
sg64
(lp3620
g389
asbag57
(g78
g59
NtRp3621
(dp3622
g62
(dp3623
g89
g90
ssg71
g3613
sg64
(lp3624
S':'
asbag57
(g78
g59
NtRp3625
(dp3626
g62
(dp3627
sg71
g3613
sg64
(lp3628
g57
(g58
g59
NtRp3629
(dp3630
g62
(dp3631
g70
I3
ssg71
g3625
sg64
(lp3632
S'/'
asbasbasbag57
(g73
g59
NtRp3633
(dp3634
g62
(dp3635
sg71
g3509
sg64
(lp3636
g57
(g78
g59
NtRp3637
(dp3638
g62
(dp3639
g82
g83
ssg71
g3633
sg64
(lp3640
g410
asbag57
(g78
g59
NtRp3641
(dp3642
g62
(dp3643
g89
g90
ssg71
g3633
sg64
(lp3644
S':'
asbag57
(g78
g59
NtRp3645
(dp3646
g62
(dp3647
sg71
g3633
sg64
(lp3648
g57
(g58
g59
NtRp3649
(dp3650
g62
(dp3651
g70
I3
ssg71
g3645
sg64
(lp3652
S''
asbasbasbag57
(g73
g59
NtRp3653
(dp3654
g62
(dp3655
sg71
g3509
sg64
(lp3656
g57
(g78
g59
NtRp3657
(dp3658
g62
(dp3659
g82
g83
ssg71
g3653
sg64
(lp3660
g431
asbag57
(g78
g59
NtRp3661
(dp3662
g62
(dp3663
g89
g90
ssg71
g3653
sg64
(lp3664
S':'
asbag57
(g78
g59
NtRp3665
(dp3666
g62
(dp3667
sg71
g3653
sg64
(lp3668
g57
(g58
g59
NtRp3669
(dp3670
g62
(dp3671
g70
I3
ssg71
g3665
sg64
(lp3672
S''
asbasbasbasbasbasbasbasbasbasbasbag57
(g73
g59
NtRp3673
(dp3674
g62
(dp3675
sg71
g3439
sg64
(lp3676
g57
(g78
g59
NtRp3677
(dp3678
g62
(dp3679
g82
g83
ssg71
g3673
sg64
(lp3680
S'files'
p3681
asbag57
(g78
g59
NtRp3682
(dp3683
g62
(dp3684
g89
g90
ssg71
g3673
sg64
(lp3685
S':'
asbag57
(g78
g59
NtRp3686
(dp3687
g62
(dp3688
sg71
g3673
sg64
(lp3689
g57
(g58
g59
NtRp3690
(dp3691
g62
(dp3692
g70
I5
ssg71
g3686
sg64
(lp3693
g57
(g66
g59
NtRp3694
(dp3695
g62
(dp3696
g70
I4
ssg71
Nsg64
(lp3697
sbasbasbasbag57
(g73
g59
NtRp3698
(dp3699
g62
(dp3700
sg71
g3439
sg64
(lp3701
g57
(g78
g59
NtRp3702
(dp3703
g62
(dp3704
g82
g83
ssg71
g3698
sg64
(lp3705
S'flash'
p3706
asbag57
(g78
g59
NtRp3707
(dp3708
g62
(dp3709
g89
g90
ssg71
g3698
sg64
(lp3710
S':'
asbag57
(g78
g59
NtRp3711
(dp3712
g62
(dp3713
sg71
g3698
sg64
(lp3714
g57
(g58
g59
NtRp3715
(dp3716
g62
(dp3717
g70
I5
ssg71
g3711
sg64
(lp3718
S''
asbasbasbag57
(g73
g59
NtRp3719
(dp3720
g62
(dp3721
sg71
g3439
sg64
(lp3722
g57
(g78
g59
NtRp3723
(dp3724
g62
(dp3725
g82
g83
ssg71
g3719
sg64
(lp3726
S'generic_patterns'
p3727
asbag57
(g78
g59
NtRp3728
(dp3729
g62
(dp3730
g89
g90
ssg71
g3719
sg64
(lp3731
S':'
asbag57
(g78
g59
NtRp3732
(dp3733
g62
(dp3734
sg71
g3719
sg64
(lp3735
g57
(g58
g59
NtRp3736
(dp3737
g62
(dp3738
g70
I5
ssg71
g3732
sg64
(lp3739
g57
(g66
g59
NtRp3740
(dp3741
g62
(dp3742
g70
I4
ssg71
Nsg64
(lp3743
g57
(g73
g59
NtRp3744
(dp3745
g62
(dp3746
sg71
g3740
sg64
(lp3747
g57
(g78
g59
NtRp3748
(dp3749
g62
(dp3750
sg71
g3744
sg64
(lp3751
g57
(g58
g59
NtRp3752
(dp3753
g62
(dp3754
g70
I4
ssg71
g3748
sg64
(lp3755
S'*'
asbasbasbasbasbasbasbag57
(g73
g59
NtRp3756
(dp3757
g62
(dp3758
sg71
g3439
sg64
(lp3759
g57
(g78
g59
NtRp3760
(dp3761
g62
(dp3762
g82
g83
ssg71
g3756
sg64
(lp3763
S'headers'
p3764
asbag57
(g78
g59
NtRp3765
(dp3766
g62
(dp3767
g89
g90
ssg71
g3756
sg64
(lp3768
S':'
asbag57
(g78
g59
NtRp3769
(dp3770
g62
(dp3771
sg71
g3756
sg64
(lp3772
g57
(g58
g59
NtRp3773
(dp3774
g62
(dp3775
g70
I5
ssg71
g3769
sg64
(lp3776
g57
(g66
g59
NtRp3777
(dp3778
g62
(dp3779
g70
I4
ssg71
Nsg64
(lp3780
g57
(g73
g59
NtRp3781
(dp3782
g62
(dp3783
sg71
g3777
sg64
(lp3784
g57
(g78
g59
NtRp3785
(dp3786
g62
(dp3787
g82
g83
ssg71
g3781
sg64
(lp3788
S'Cache-Control'
p3789
asbag57
(g78
g59
NtRp3790
(dp3791
g62
(dp3792
g89
g90
ssg71
g3781
sg64
(lp3793
S':'
asbag57
(g78
g59
NtRp3794
(dp3795
g62
(dp3796
sg71
g3781
sg64
(lp3797
g57
(g58
g59
NtRp3798
(dp3799
g62
(dp3800
g70
I4
ssg71
g3794
sg64
(lp3801
S'no-store, no-cache, must-revalidate, post-check=0, pre-check=0'
p3802
asbasbasbag57
(g73
g59
NtRp3803
(dp3804
g62
(dp3805
sg71
g3777
sg64
(lp3806
g57
(g78
g59
NtRp3807
(dp3808
g62
(dp3809
g82
g83
ssg71
g3803
sg64
(lp3810
S'Content-Type'
p3811
asbag57
(g78
g59
NtRp3812
(dp3813
g62
(dp3814
g89
g90
ssg71
g3803
sg64
(lp3815
S':'
asbag57
(g78
g59
NtRp3816
(dp3817
g62
(dp3818
sg71
g3803
sg64
(lp3819
g57
(g58
g59
NtRp3820
(dp3821
g62
(dp3822
g70
I4
ssg71
g3816
sg64
(lp3823
S'text/html; charset=utf-8'
p3824
asbasbasbag57
(g73
g59
NtRp3825
(dp3826
g62
(dp3827
sg71
g3777
sg64
(lp3828
g57
(g78
g59
NtRp3829
(dp3830
g62
(dp3831
g82
g83
ssg71
g3825
sg64
(lp3832
S'Expires'
p3833
asbag57
(g78
g59
NtRp3834
(dp3835
g62
(dp3836
g89
g90
ssg71
g3825
sg64
(lp3837
S':'
asbag57
(g78
g59
NtRp3838
(dp3839
g62
(dp3840
sg71
g3825
sg64
(lp3841
g57
(g58
g59
NtRp3842
(dp3843
g62
(dp3844
g70
I4
ssg71
g3838
sg64
(lp3845
S'Fri, 10 Feb 2012 20:58:21 GMT'
p3846
asbasbasbag57
(g73
g59
NtRp3847
(dp3848
g62
(dp3849
sg71
g3777
sg64
(lp3850
g57
(g78
g59
NtRp3851
(dp3852
g62
(dp3853
g82
g83
ssg71
g3847
sg64
(lp3854
S'Pragma'
p3855
asbag57
(g78
g59
NtRp3856
(dp3857
g62
(dp3858
g89
g90
ssg71
g3847
sg64
(lp3859
S':'
asbag57
(g78
g59
NtRp3860
(dp3861
g62
(dp3862
sg71
g3847
sg64
(lp3863
g57
(g58
g59
NtRp3864
(dp3865
g62
(dp3866
g70
I4
ssg71
g3860
sg64
(lp3867
S'no-cache'
p3868
asbasbasbag57
(g73
g59
NtRp3869
(dp3870
g62
(dp3871
sg71
g3777
sg64
(lp3872
g57
(g78
g59
NtRp3873
(dp3874
g62
(dp3875
g82
g83
ssg71
g3869
sg64
(lp3876
S'X-Powered-By'
p3877
asbag57
(g78
g59
NtRp3878
(dp3879
g62
(dp3880
g89
g90
ssg71
g3869
sg64
(lp3881
S':'
asbag57
(g78
g59
NtRp3882
(dp3883
g62
(dp3884
sg71
g3869
sg64
(lp3885
g57
(g58
g59
NtRp3886
(dp3887
g62
(dp3888
g70
I4
ssg71
g3882
sg64
(lp3889
S'web2py'
p3890
asbasbasbasbasbasbasbag57
(g73
g59
NtRp3891
(dp3892
g62
(dp3893
sg71
g3439
sg64
(lp3894
g57
(g78
g59
NtRp3895
(dp3896
g62
(dp3897
g82
g83
ssg71
g3891
sg64
(lp3898
S'menu'
p3899
asbag57
(g78
g59
NtRp3900
(dp3901
g62
(dp3902
g89
g90
ssg71
g3891
sg64
(lp3903
S':'
asbag57
(g78
g59
NtRp3904
(dp3905
g62
(dp3906
sg71
g3891
sg64
(lp3907
g57
(g58
g59
NtRp3908
(dp3909
g62
(dp3910
g70
I5
ssg71
g3904
sg64
(lp3911
g57
(g66
g59
NtRp3912
(dp3913
g62
(dp3914
g70
I4
ssg71
Nsg64
(lp3915
g57
(g73
g59
NtRp3916
(dp3917
g62
(dp3918
sg71
g3912
sg64
(lp3919
g57
(g78
g59
NtRp3920
(dp3921
g62
(dp3922
sg71
g3916
sg64
(lp3923
g57
(g58
g59
NtRp3924
(dp3925
g62
(dp3926
g70
I4
ssg71
g3920
sg64
(lp3927
g57
(g66
g59
NtRp3928
(dp3929
g62
(dp3930
g70
I3
ssg71
Nsg64
(lp3931
g57
(g73
g59
NtRp3932
(dp3933
g62
(dp3934
sg71
g3928
sg64
(lp3935
g57
(g78
g59
NtRp3936
(dp3937
g62
(dp3938
sg71
g3932
sg64
(lp3939
g57
(g58
g59
NtRp3940
(dp3941
g62
(dp3942
g70
I3
ssg71
g3936
sg64
(lp3943
cgluon.languages
lazyT_unpickle
p3944
(S't\x04\x00\x00\x00Home'
tRp3945
asbasbasbag57
(g73
g59
NtRp3946
(dp3947
g62
(dp3948
sg71
g3928
sg64
(lp3949
g57
(g78
g59
NtRp3950
(dp3951
g62
(dp3952
sg71
g3946
sg64
(lp3953
g57
(g58
g59
NtRp3954
(dp3955
g62
(dp3956
g70
I3
ssg71
g3950
sg64
(lp3957
g100
asbasbasbag57
(g73
g59
NtRp3958
(dp3959
g62
(dp3960
sg71
g3928
sg64
(lp3961
g57
(g78
g59
NtRp3962
(dp3963
g62
(dp3964
sg71
g3958
sg64
(lp3965
g57
(g58
g59
NtRp3966
(dp3967
g62
(dp3968
g70
I3
ssg71
g3962
sg64
(lp3969
S'/grammateus3/default/index'
p3970
asbasbasbag57
(g73
g59
NtRp3971
(dp3972
g62
(dp3973
sg71
g3928
sg64
(lp3974
g57
(g78
g59
NtRp3975
(dp3976
g62
(dp3977
sg71
g3971
sg64
(lp3978
g57
(g58
g59
NtRp3979
(dp3980
g62
(dp3981
g70
I3
ssg71
g3975
sg64
(lp3982
g57
(g66
g59
NtRp3983
(dp3984
g62
(dp3985
g70
I2
ssg71
Nsg64
(lp3986
sbasbasbasbasbasbasbasbag57
(g73
g59
NtRp3987
(dp3988
g62
(dp3989
sg71
g3912
sg64
(lp3990
g57
(g78
g59
NtRp3991
(dp3992
g62
(dp3993
sg71
g3987
sg64
(lp3994
g57
(g58
g59
NtRp3995
(dp3996
g62
(dp3997
g70
I4
ssg71
g3991
sg64
(lp3998
g57
(g66
g59
NtRp3999
(dp4000
g62
(dp4001
g70
I3
ssg71
Nsg64
(lp4002
g57
(g73
g59
NtRp4003
(dp4004
g62
(dp4005
sg71
g3999
sg64
(lp4006
g57
(g78
g59
NtRp4007
(dp4008
g62
(dp4009
sg71
g4003
sg64
(lp4010
g57
(g58
g59
NtRp4011
(dp4012
g62
(dp4013
g70
I3
ssg71
g4007
sg64
(lp4014
g57
(cgluon.html
SPAN
p4015
g59
NtRp4016
(dp4017
g62
(dp4018
g82
S'color:yellow'
p4019
ssg71
Nsg64
(lp4020
g3890
asbasbasbasbag57
(g73
g59
NtRp4021
(dp4022
g62
(dp4023
sg71
g3999
sg64
(lp4024
g57
(g78
g59
NtRp4025
(dp4026
g62
(dp4027
sg71
g4021
sg64
(lp4028
g57
(g58
g59
NtRp4029
(dp4030
g62
(dp4031
g70
I3
ssg71
g4025
sg64
(lp4032
g100
asbasbasbag57
(g73
g59
NtRp4033
(dp4034
g62
(dp4035
sg71
g3999
sg64
(lp4036
g57
(g78
g59
NtRp4037
(dp4038
g62
(dp4039
sg71
g4033
sg64
(lp4040
g57
(g58
g59
NtRp4041
(dp4042
g62
(dp4043
g70
I3
ssg71
g4037
sg64
(lp4044
S'None'
p4045
asbasbasbag57
(g73
g59
NtRp4046
(dp4047
g62
(dp4048
sg71
g3999
sg64
(lp4049
g57
(g78
g59
NtRp4050
(dp4051
g62
(dp4052
sg71
g4046
sg64
(lp4053
g57
(g58
g59
NtRp4054
(dp4055
g62
(dp4056
g70
I3
ssg71
g4050
sg64
(lp4057
g57
(g66
g59
NtRp4058
(dp4059
g62
(dp4060
g70
I2
ssg71
Nsg64
(lp4061
g57
(g73
g59
NtRp4062
(dp4063
g62
(dp4064
sg71
g4058
sg64
(lp4065
g57
(g78
g59
NtRp4066
(dp4067
g62
(dp4068
sg71
g4062
sg64
(lp4069
g57
(g58
g59
NtRp4070
(dp4071
g62
(dp4072
g70
I2
ssg71
g4066
sg64
(lp4073
g57
(g66
g59
NtRp4074
(dp4075
g62
(dp4076
g70
I1
ssg71
Nsg64
(lp4077
g57
(g73
g59
NtRp4078
(dp4079
g62
(dp4080
sg71
g4074
sg64
(lp4081
g57
(g78
g59
NtRp4082
(dp4083
g62
(dp4084
sg71
g4078
sg64
(lp4085
g57
(g58
g59
NtRp4086
(dp4087
g62
(dp4088
g70
I1
ssg71
g4082
sg64
(lp4089
g3944
(S's\x08\x00\x00\x00My Sites'
tRp4090
asbasbasbag57
(g73
g59
NtRp4091
(dp4092
g62
(dp4093
sg71
g4074
sg64
(lp4094
g57
(g78
g59
NtRp4095
(dp4096
g62
(dp4097
sg71
g4091
sg64
(lp4098
g57
(g58
g59
NtRp4099
(dp4100
g62
(dp4101
g70
I1
ssg71
g4095
sg64
(lp4102
I00
asbasbasbag57
(g73
g59
NtRp4103
(dp4104
g62
(dp4105
sg71
g4074
sg64
(lp4106
g57
(g78
g59
NtRp4107
(dp4108
g62
(dp4109
sg71
g4103
sg64
(lp4110
g57
(g58
g59
NtRp4111
(dp4112
g62
(dp4113
g70
I1
ssg71
g4107
sg64
(lp4114
S'/admin/default/site'
p4115
asbasbasbasbasbasbasbag57
(g73
g59
NtRp4116
(dp4117
g62
(dp4118
sg71
g4058
sg64
(lp4119
g57
(g78
g59
NtRp4120
(dp4121
g62
(dp4122
sg71
g4116
sg64
(lp4123
g57
(g58
g59
NtRp4124
(dp4125
g62
(dp4126
g70
I2
ssg71
g4120
sg64
(lp4127
g57
(g66
g59
NtRp4128
(dp4129
g62
(dp4130
g70
I1
ssg71
Nsg64
(lp4131
g57
(g73
g59
NtRp4132
(dp4133
g62
(dp4134
sg71
g4128
sg64
(lp4135
g57
(g78
g59
NtRp4136
(dp4137
g62
(dp4138
sg71
g4132
sg64
(lp4139
g57
(g58
g59
NtRp4140
(dp4141
g62
(dp4142
g70
I1
ssg71
g4136
sg64
(lp4143
g3944
(S's\x08\x00\x00\x00This App'
tRp4144
asbasbasbag57
(g73
g59
NtRp4145
(dp4146
g62
(dp4147
sg71
g4128
sg64
(lp4148
g57
(g78
g59
NtRp4149
(dp4150
g62
(dp4151
sg71
g4145
sg64
(lp4152
g57
(g58
g59
NtRp4153
(dp4154
g62
(dp4155
g70
I1
ssg71
g4149
sg64
(lp4156
I00
asbasbasbag57
(g73
g59
NtRp4157
(dp4158
g62
(dp4159
sg71
g4128
sg64
(lp4160
g57
(g78
g59
NtRp4161
(dp4162
g62
(dp4163
sg71
g4157
sg64
(lp4164
g57
(g58
g59
NtRp4165
(dp4166
g62
(dp4167
g70
I1
ssg71
g4161
sg64
(lp4168
S'/admin/default/design/grammateus3'
p4169
asbasbasbag57
(g73
g59
NtRp4170
(dp4171
g62
(dp4172
sg71
g4128
sg64
(lp4173
g57
(g78
g59
NtRp4174
(dp4175
g62
(dp4176
sg71
g4170
sg64
(lp4177
g57
(g58
g59
NtRp4178
(dp4179
g62
(dp4180
g70
I1
ssg71
g4174
sg64
(lp4181
(lp4182
(g3944
(S't\n\x00\x00\x00Controller'
tRp4183
I00
S'/admin/default/edit/grammateus3/controllers/docs.py'
tp4184
a(g3944
(S't\x04\x00\x00\x00View'
tRp4185
I00
S'/admin/default/edit/grammateus3/views/docs/test.html'
tp4186
a(g3944
(S't\x06\x00\x00\x00Layout'
tRp4187
I00
S'/admin/default/edit/grammateus3/views/layout.html'
tp4188
a(g3944
(S't\n\x00\x00\x00Stylesheet'
tRp4189
I00
S'/admin/default/edit/grammateus3/static/css/web2py.css'
tp4190
a(g3944
(S's\x08\x00\x00\x00DB Model'
tRp4191
I00
S'/admin/default/edit/grammateus3/models/db.py'
tp4192
a(g3944
(S's\n\x00\x00\x00Menu Model'
tRp4193
I00
S'/admin/default/edit/grammateus3/models/menu.py'
tp4194
a(g3944
(S't\x08\x00\x00\x00Database'
tRp4195
I00
S'/grammateus3/appadmin/index'
tp4196
a(g3944
(S't\x06\x00\x00\x00Errors'
tRp4197
I00
S'/admin/default/errors/grammateus3'
tp4198
a(g3944
(S't\x05\x00\x00\x00About'
tRp4199
I00
S'/admin/default/about/grammateus3'
tp4200
aasbasbasbasbasbasbasbag57
(g73
g59
NtRp4201
(dp4202
g62
(dp4203
sg71
g4058
sg64
(lp4204
g57
(g78
g59
NtRp4205
(dp4206
g62
(dp4207
sg71
g4201
sg64
(lp4208
g57
(g58
g59
NtRp4209
(dp4210
g62
(dp4211
g70
I2
ssg71
g4205
sg64
(lp4212
g57
(g66
g59
NtRp4213
(dp4214
g62
(dp4215
g70
I1
ssg71
Nsg64
(lp4216
g57
(g73
g59
NtRp4217
(dp4218
g62
(dp4219
sg71
g4213
sg64
(lp4220
g57
(g78
g59
NtRp4221
(dp4222
g62
(dp4223
sg71
g4217
sg64
(lp4224
g57
(g58
g59
NtRp4225
(dp4226
g62
(dp4227
g70
I1
ssg71
g4221
sg64
(lp4228
S'web2py.com'
p4229
asbasbasbag57
(g73
g59
NtRp4230
(dp4231
g62
(dp4232
sg71
g4213
sg64
(lp4233
g57
(g78
g59
NtRp4234
(dp4235
g62
(dp4236
sg71
g4230
sg64
(lp4237
g57
(g58
g59
NtRp4238
(dp4239
g62
(dp4240
g70
I1
ssg71
g4234
sg64
(lp4241
I00
asbasbasbag57
(g73
g59
NtRp4242
(dp4243
g62
(dp4244
sg71
g4213
sg64
(lp4245
g57
(g78
g59
NtRp4246
(dp4247
g62
(dp4248
sg71
g4242
sg64
(lp4249
g57
(g58
g59
NtRp4250
(dp4251
g62
(dp4252
g70
I1
ssg71
g4246
sg64
(lp4253
S'http://www.web2py.com'
p4254
asbasbasbag57
(g73
g59
NtRp4255
(dp4256
g62
(dp4257
sg71
g4213
sg64
(lp4258
g57
(g78
g59
NtRp4259
(dp4260
g62
(dp4261
sg71
g4255
sg64
(lp4262
g57
(g58
g59
NtRp4263
(dp4264
g62
(dp4265
g70
I1
ssg71
g4259
sg64
(lp4266
(lp4267
(g3944
(S't\x08\x00\x00\x00Download'
tRp4268
I00
S'http://www.web2py.com/examples/default/download'
p4269
tp4270
a(g3944
(S't\x07\x00\x00\x00Support'
tRp4271
I00
S'http://www.web2py.com/examples/default/support'
p4272
tp4273
a(g3944
(S't\x04\x00\x00\x00Demo'
tRp4274
I00
S'http://web2py.com/demo_admin'
p4275
tp4276
a(g3944
(S's\x0e\x00\x00\x00Quick Examples'
tRp4277
I00
S'http://web2py.com/examples/default/examples'
p4278
tp4279
a(g3944
(S't\x03\x00\x00\x00FAQ'
tRp4280
I00
S'http://web2py.com/AlterEgo'
p4281
tp4282
a(g3944
(S't\x06\x00\x00\x00Videos'
tRp4283
I00
S'http://www.web2py.com/examples/default/videos/'
p4284
tp4285
a(g3944
(S's\x11\x00\x00\x00Free Applications'
tRp4286
I00
S'http://web2py.com/appliances'
p4287
tp4288
a(g3944
(S't\x07\x00\x00\x00Plugins'
tRp4289
I00
S'http://web2py.com/plugins'
p4290
tp4291
a(g3944
(S't\x07\x00\x00\x00Layouts'
tRp4292
I00
S'http://web2py.com/layouts'
p4293
tp4294
a(g3944
(S't\x07\x00\x00\x00Recipes'
tRp4295
I00
S'http://web2pyslices.com/'
p4296
tp4297
a(g3944
(S't\x08\x00\x00\x00Semantic'
tRp4298
I00
S'http://web2py.com/semantic'
p4299
tp4300
aasbasbasbasbasbasbasbag57
(g73
g59
NtRp4301
(dp4302
g62
(dp4303
sg71
g4058
sg64
(lp4304
g57
(g78
g59
NtRp4305
(dp4306
g62
(dp4307
sg71
g4301
sg64
(lp4308
g57
(g58
g59
NtRp4309
(dp4310
g62
(dp4311
g70
I2
ssg71
g4305
sg64
(lp4312
g57
(g66
g59
NtRp4313
(dp4314
g62
(dp4315
g70
I1
ssg71
Nsg64
(lp4316
g57
(g73
g59
NtRp4317
(dp4318
g62
(dp4319
sg71
g4313
sg64
(lp4320
g57
(g78
g59
NtRp4321
(dp4322
g62
(dp4323
sg71
g4317
sg64
(lp4324
g57
(g58
g59
NtRp4325
(dp4326
g62
(dp4327
g70
I1
ssg71
g4321
sg64
(lp4328
g3944
(S't\r\x00\x00\x00Documentation'
tRp4329
asbasbasbag57
(g73
g59
NtRp4330
(dp4331
g62
(dp4332
sg71
g4313
sg64
(lp4333
g57
(g78
g59
NtRp4334
(dp4335
g62
(dp4336
sg71
g4330
sg64
(lp4337
g57
(g58
g59
NtRp4338
(dp4339
g62
(dp4340
g70
I1
ssg71
g4334
sg64
(lp4341
I00
asbasbasbag57
(g73
g59
NtRp4342
(dp4343
g62
(dp4344
sg71
g4313
sg64
(lp4345
g57
(g78
g59
NtRp4346
(dp4347
g62
(dp4348
sg71
g4342
sg64
(lp4349
g57
(g58
g59
NtRp4350
(dp4351
g62
(dp4352
g70
I1
ssg71
g4346
sg64
(lp4353
S'http://www.web2py.com/book'
p4354
asbasbasbag57
(g73
g59
NtRp4355
(dp4356
g62
(dp4357
sg71
g4313
sg64
(lp4358
g57
(g78
g59
NtRp4359
(dp4360
g62
(dp4361
sg71
g4355
sg64
(lp4362
g57
(g58
g59
NtRp4363
(dp4364
g62
(dp4365
g70
I1
ssg71
g4359
sg64
(lp4366
(lp4367
(g3944
(S't\x07\x00\x00\x00Preface'
tRp4368
I00
S'http://www.web2py.com/book/default/chapter/00'
p4369
tp4370
a(g3944
(S't\x0c\x00\x00\x00Introduction'
tRp4371
I00
S'http://www.web2py.com/book/default/chapter/01'
p4372
tp4373
a(g3944
(S't\x06\x00\x00\x00Python'
tRp4374
I00
S'http://www.web2py.com/book/default/chapter/02'
p4375
tp4376
a(g3944
(S't\x08\x00\x00\x00Overview'
tRp4377
I00
S'http://www.web2py.com/book/default/chapter/03'
p4378
tp4379
a(g3944
(S's\x08\x00\x00\x00The Core'
tRp4380
I00
S'http://www.web2py.com/book/default/chapter/04'
p4381
tp4382
a(g3944
(S's\t\x00\x00\x00The Views'
tRp4383
I00
S'http://www.web2py.com/book/default/chapter/05'
p4384
tp4385
a(g3944
(S't\x08\x00\x00\x00Database'
tRp4386
I00
S'http://www.web2py.com/book/default/chapter/06'
p4387
tp4388
a(g3944
(S's\x14\x00\x00\x00Forms and Validators'
tRp4389
I00
S'http://www.web2py.com/book/default/chapter/07'
p4390
tp4391
a(g3944
(S's\r\x00\x00\x00Email and SMS'
tRp4392
I00
S'http://www.web2py.com/book/default/chapter/08'
p4393
tp4394
a(g3944
(S's\x0e\x00\x00\x00Access Control'
tRp4395
I00
S'http://www.web2py.com/book/default/chapter/09'
p4396
tp4397
a(g3944
(S't\x08\x00\x00\x00Services'
tRp4398
I00
S'http://www.web2py.com/book/default/chapter/10'
p4399
tp4400
a(g3944
(S's\x0c\x00\x00\x00Ajax Recipes'
tRp4401
I00
S'http://www.web2py.com/book/default/chapter/11'
p4402
tp4403
a(g3944
(S's\x16\x00\x00\x00Components and Plugins'
tRp4404
I00
S'http://www.web2py.com/book/default/chapter/12'
p4405
tp4406
a(g3944
(S's\x12\x00\x00\x00Deployment Recipes'
tRp4407
I00
S'http://www.web2py.com/book/default/chapter/13'
p4408
tp4409
a(g3944
(S's\r\x00\x00\x00Other Recipes'
tRp4410
I00
S'http://www.web2py.com/book/default/chapter/14'
p4411
tp4412
a(g3944
(S's\r\x00\x00\x00Buy this book'
tRp4413
I00
S'http://stores.lulu.com/web2py'
p4414
tp4415
aasbasbasbasbasbasbasbag57
(g73
g59
NtRp4416
(dp4417
g62
(dp4418
sg71
g4058
sg64
(lp4419
g57
(g78
g59
NtRp4420
(dp4421
g62
(dp4422
sg71
g4416
sg64
(lp4423
g57
(g58
g59
NtRp4424
(dp4425
g62
(dp4426
g70
I2
ssg71
g4420
sg64
(lp4427
g57
(g66
g59
NtRp4428
(dp4429
g62
(dp4430
g70
I1
ssg71
Nsg64
(lp4431
g57
(g73
g59
NtRp4432
(dp4433
g62
(dp4434
sg71
g4428
sg64
(lp4435
g57
(g78
g59
NtRp4436
(dp4437
g62
(dp4438
sg71
g4432
sg64
(lp4439
g57
(g58
g59
NtRp4440
(dp4441
g62
(dp4442
g70
I1
ssg71
g4436
sg64
(lp4443
g3944
(S't\t\x00\x00\x00Community'
tRp4444
asbasbasbag57
(g73
g59
NtRp4445
(dp4446
g62
(dp4447
sg71
g4428
sg64
(lp4448
g57
(g78
g59
NtRp4449
(dp4450
g62
(dp4451
sg71
g4445
sg64
(lp4452
g57
(g58
g59
NtRp4453
(dp4454
g62
(dp4455
g70
I1
ssg71
g4449
sg64
(lp4456
I00
asbasbasbag57
(g73
g59
NtRp4457
(dp4458
g62
(dp4459
sg71
g4428
sg64
(lp4460
g57
(g78
g59
NtRp4461
(dp4462
g62
(dp4463
sg71
g4457
sg64
(lp4464
g57
(g58
g59
NtRp4465
(dp4466
g62
(dp4467
g70
I1
ssg71
g4461
sg64
(lp4468
Nasbasbasbag57
(g73
g59
NtRp4469
(dp4470
g62
(dp4471
sg71
g4428
sg64
(lp4472
g57
(g78
g59
NtRp4473
(dp4474
g62
(dp4475
sg71
g4469
sg64
(lp4476
g57
(g58
g59
NtRp4477
(dp4478
g62
(dp4479
g70
I1
ssg71
g4473
sg64
(lp4480
(lp4481
(g3944
(S't\x06\x00\x00\x00Groups'
tRp4482
I00
S'http://www.web2py.com/examples/default/usergroups'
p4483
tp4484
a(g3944
(S't\x07\x00\x00\x00Twitter'
tRp4485
I00
S'http://twitter.com/web2py'
p4486
tp4487
a(g3944
(S's\t\x00\x00\x00Live Chat'
tRp4488
I00
S'http://webchat.freenode.net/?channels=web2py'
p4489
tp4490
aasbasbasbasbasbasbasbag57
(g73
g59
NtRp4491
(dp4492
g62
(dp4493
sg71
g4058
sg64
(lp4494
g57
(g78
g59
NtRp4495
(dp4496
g62
(dp4497
sg71
g4491
sg64
(lp4498
g57
(g58
g59
NtRp4499
(dp4500
g62
(dp4501
g70
I2
ssg71
g4495
sg64
(lp4502
g57
(g66
g59
NtRp4503
(dp4504
g62
(dp4505
g70
I1
ssg71
Nsg64
(lp4506
g57
(g73
g59
NtRp4507
(dp4508
g62
(dp4509
sg71
g4503
sg64
(lp4510
g57
(g78
g59
NtRp4511
(dp4512
g62
(dp4513
sg71
g4507
sg64
(lp4514
g57
(g58
g59
NtRp4515
(dp4516
g62
(dp4517
g70
I1
ssg71
g4511
sg64
(lp4518
g3944
(S't\x07\x00\x00\x00Plugins'
tRp4519
asbasbasbag57
(g73
g59
NtRp4520
(dp4521
g62
(dp4522
sg71
g4503
sg64
(lp4523
g57
(g78
g59
NtRp4524
(dp4525
g62
(dp4526
sg71
g4520
sg64
(lp4527
g57
(g58
g59
NtRp4528
(dp4529
g62
(dp4530
g70
I1
ssg71
g4524
sg64
(lp4531
I00
asbasbasbag57
(g73
g59
NtRp4532
(dp4533
g62
(dp4534
sg71
g4503
sg64
(lp4535
g57
(g78
g59
NtRp4536
(dp4537
g62
(dp4538
sg71
g4532
sg64
(lp4539
g57
(g58
g59
NtRp4540
(dp4541
g62
(dp4542
g70
I1
ssg71
g4536
sg64
(lp4543
Nasbasbasbag57
(g73
g59
NtRp4544
(dp4545
g62
(dp4546
sg71
g4503
sg64
(lp4547
g57
(g78
g59
NtRp4548
(dp4549
g62
(dp4550
sg71
g4544
sg64
(lp4551
g57
(g58
g59
NtRp4552
(dp4553
g62
(dp4554
g70
I1
ssg71
g4548
sg64
(lp4555
(lp4556
(S'plugin_wiki'
p4557
I00
S'http://web2py.com/examples/default/download'
p4558
tp4559
a(g3944
(S's\r\x00\x00\x00Other Plugins'
tRp4560
I00
g4290
tp4561
a(g3944
(S's\x0e\x00\x00\x00Layout Plugins'
tRp4562
I00
g4293
tp4563
aasbasbasbasbasbasbasbasbasbasbasbasbasbasbasbasbasbasbasbag57
(g73
g59
NtRp4564
(dp4565
g62
(dp4566
sg71
g3439
sg64
(lp4567
g57
(g78
g59
NtRp4568
(dp4569
g62
(dp4570
g82
g83
ssg71
g4564
sg64
(lp4571
S'meta'
p4572
asbag57
(g78
g59
NtRp4573
(dp4574
g62
(dp4575
g89
g90
ssg71
g4564
sg64
(lp4576
S':'
asbag57
(g78
g59
NtRp4577
(dp4578
g62
(dp4579
sg71
g4564
sg64
(lp4580
g57
(g58
g59
NtRp4581
(dp4582
g62
(dp4583
g70
I5
ssg71
g4577
sg64
(lp4584
g57
(g66
g59
NtRp4585
(dp4586
g62
(dp4587
g70
I4
ssg71
Nsg64
(lp4588
g57
(g73
g59
NtRp4589
(dp4590
g62
(dp4591
sg71
g4585
sg64
(lp4592
g57
(g78
g59
NtRp4593
(dp4594
g62
(dp4595
g82
g83
ssg71
g4589
sg64
(lp4596
S'author'
p4597
asbag57
(g78
g59
NtRp4598
(dp4599
g62
(dp4600
g89
g90
ssg71
g4589
sg64
(lp4601
S':'
asbag57
(g78
g59
NtRp4602
(dp4603
g62
(dp4604
sg71
g4589
sg64
(lp4605
g57
(g58
g59
NtRp4606
(dp4607
g62
(dp4608
g70
I4
ssg71
g4602
sg64
(lp4609
S'Your Name <you@example.com>'
p4610
asbasbasbag57
(g73
g59
NtRp4611
(dp4612
g62
(dp4613
sg71
g4585
sg64
(lp4614
g57
(g78
g59
NtRp4615
(dp4616
g62
(dp4617
g82
g83
ssg71
g4611
sg64
(lp4618
S'copyright'
p4619
asbag57
(g78
g59
NtRp4620
(dp4621
g62
(dp4622
g89
g90
ssg71
g4611
sg64
(lp4623
S':'
asbag57
(g78
g59
NtRp4624
(dp4625
g62
(dp4626
sg71
g4611
sg64
(lp4627
g57
(g58
g59
NtRp4628
(dp4629
g62
(dp4630
g70
I4
ssg71
g4624
sg64
(lp4631
S'Copyright 2011'
p4632
asbasbasbag57
(g73
g59
NtRp4633
(dp4634
g62
(dp4635
sg71
g4585
sg64
(lp4636
g57
(g78
g59
NtRp4637
(dp4638
g62
(dp4639
g82
g83
ssg71
g4633
sg64
(lp4640
S'description'
p4641
asbag57
(g78
g59
NtRp4642
(dp4643
g62
(dp4644
g89
g90
ssg71
g4633
sg64
(lp4645
S':'
asbag57
(g78
g59
NtRp4646
(dp4647
g62
(dp4648
sg71
g4633
sg64
(lp4649
g57
(g58
g59
NtRp4650
(dp4651
g62
(dp4652
g70
I4
ssg71
g4646
sg64
(lp4653
S'a cool new app'
p4654
asbasbasbag57
(g73
g59
NtRp4655
(dp4656
g62
(dp4657
sg71
g4585
sg64
(lp4658
g57
(g78
g59
NtRp4659
(dp4660
g62
(dp4661
g82
g83
ssg71
g4655
sg64
(lp4662
S'generator'
p4663
asbag57
(g78
g59
NtRp4664
(dp4665
g62
(dp4666
g89
g90
ssg71
g4655
sg64
(lp4667
S':'
asbag57
(g78
g59
NtRp4668
(dp4669
g62
(dp4670
sg71
g4655
sg64
(lp4671
g57
(g58
g59
NtRp4672
(dp4673
g62
(dp4674
g70
I4
ssg71
g4668
sg64
(lp4675
S'Web2py Web Framework'
p4676
asbasbasbag57
(g73
g59
NtRp4677
(dp4678
g62
(dp4679
sg71
g4585
sg64
(lp4680
g57
(g78
g59
NtRp4681
(dp4682
g62
(dp4683
g82
g83
ssg71
g4677
sg64
(lp4684
S'keywords'
p4685
asbag57
(g78
g59
NtRp4686
(dp4687
g62
(dp4688
g89
g90
ssg71
g4677
sg64
(lp4689
S':'
asbag57
(g78
g59
NtRp4690
(dp4691
g62
(dp4692
sg71
g4677
sg64
(lp4693
g57
(g58
g59
NtRp4694
(dp4695
g62
(dp4696
g70
I4
ssg71
g4690
sg64
(lp4697
S'web2py, python, framework'
p4698
asbasbasbasbasbasbasbag57
(g73
g59
NtRp4699
(dp4700
g62
(dp4701
sg71
g3439
sg64
(lp4702
g57
(g78
g59
NtRp4703
(dp4704
g62
(dp4705
g82
g83
ssg71
g4699
sg64
(lp4706
S'postprocessing'
p4707
asbag57
(g78
g59
NtRp4708
(dp4709
g62
(dp4710
g89
g90
ssg71
g4699
sg64
(lp4711
S':'
asbag57
(g78
g59
NtRp4712
(dp4713
g62
(dp4714
sg71
g4699
sg64
(lp4715
g57
(g58
g59
NtRp4716
(dp4717
g62
(dp4718
g70
I5
ssg71
g4712
sg64
(lp4719
g57
(g66
g59
NtRp4720
(dp4721
g62
(dp4722
g70
I4
ssg71
Nsg64
(lp4723
sbasbasbasbag57
(g73
g59
NtRp4724
(dp4725
g62
(dp4726
sg71
g3439
sg64
(lp4727
g57
(g78
g59
NtRp4728
(dp4729
g62
(dp4730
g82
g83
ssg71
g4724
sg64
(lp4731
S'session_file'
p4732
asbag57
(g78
g59
NtRp4733
(dp4734
g62
(dp4735
g89
g90
ssg71
g4724
sg64
(lp4736
S':'
asbag57
(g78
g59
NtRp4737
(dp4738
g62
(dp4739
sg71
g4724
sg64
(lp4740
g57
(g58
g59
NtRp4741
(dp4742
g62
(dp4743
g70
I5
ssg71
g4737
sg64
(lp4744
S"<open file '/home/ian/Web Pages/web2py/applications/grammateus3/sessions/127.0.0.1-8e7af26d-b962-466e-a7f6-ea35eeb09dc0', mode 'rb+' at 0x34b98a0>"
p4745
asbasbasbag57
(g73
g59
NtRp4746
(dp4747
g62
(dp4748
sg71
g3439
sg64
(lp4749
g57
(g78
g59
NtRp4750
(dp4751
g62
(dp4752
g82
g83
ssg71
g4746
sg64
(lp4753
S'session_filename'
p4754
asbag57
(g78
g59
NtRp4755
(dp4756
g62
(dp4757
g89
g90
ssg71
g4746
sg64
(lp4758
S':'
asbag57
(g78
g59
NtRp4759
(dp4760
g62
(dp4761
sg71
g4746
sg64
(lp4762
g57
(g58
g59
NtRp4763
(dp4764
g62
(dp4765
g70
I5
ssg71
g4759
sg64
(lp4766
S'/home/ian/Web Pages/web2py/applications/grammateus3/sessions/127.0.0.1-8e7af26d-b962-466e-a7f6-ea35eeb09dc0'
p4767
asbasbasbag57
(g73
g59
NtRp4768
(dp4769
g62
(dp4770
sg71
g3439
sg64
(lp4771
g57
(g78
g59
NtRp4772
(dp4773
g62
(dp4774
g82
g83
ssg71
g4768
sg64
(lp4775
S'session_id'
p4776
asbag57
(g78
g59
NtRp4777
(dp4778
g62
(dp4779
g89
g90
ssg71
g4768
sg64
(lp4780
S':'
asbag57
(g78
g59
NtRp4781
(dp4782
g62
(dp4783
sg71
g4768
sg64
(lp4784
g57
(g58
g59
NtRp4785
(dp4786
g62
(dp4787
g70
I5
ssg71
g4781
sg64
(lp4788
S'127.0.0.1-8e7af26d-b962-466e-a7f6-ea35eeb09dc0'
p4789
asbasbasbag57
(g73
g59
NtRp4790
(dp4791
g62
(dp4792
sg71
g3439
sg64
(lp4793
g57
(g78
g59
NtRp4794
(dp4795
g62
(dp4796
g82
g83
ssg71
g4790
sg64
(lp4797
S'session_id_name'
p4798
asbag57
(g78
g59
NtRp4799
(dp4800
g62
(dp4801
g89
g90
ssg71
g4790
sg64
(lp4802
S':'
asbag57
(g78
g59
NtRp4803
(dp4804
g62
(dp4805
sg71
g4790
sg64
(lp4806
g57
(g58
g59
NtRp4807
(dp4808
g62
(dp4809
g70
I5
ssg71
g4803
sg64
(lp4810
g3496
asbasbasbag57
(g73
g59
NtRp4811
(dp4812
g62
(dp4813
sg71
g3439
sg64
(lp4814
g57
(g78
g59
NtRp4815
(dp4816
g62
(dp4817
g82
g83
ssg71
g4811
sg64
(lp4818
S'session_locked'
p4819
asbag57
(g78
g59
NtRp4820
(dp4821
g62
(dp4822
g89
g90
ssg71
g4811
sg64
(lp4823
S':'
asbag57
(g78
g59
NtRp4824
(dp4825
g62
(dp4826
sg71
g4811
sg64
(lp4827
g57
(g58
g59
NtRp4828
(dp4829
g62
(dp4830
g70
I5
ssg71
g4824
sg64
(lp4831
g2017
asbasbasbag57
(g73
g59
NtRp4832
(dp4833
g62
(dp4834
sg71
g3439
sg64
(lp4835
g57
(g78
g59
NtRp4836
(dp4837
g62
(dp4838
g82
g83
ssg71
g4832
sg64
(lp4839
S'session_new'
p4840
asbag57
(g78
g59
NtRp4841
(dp4842
g62
(dp4843
g89
g90
ssg71
g4832
sg64
(lp4844
S':'
asbag57
(g78
g59
NtRp4845
(dp4846
g62
(dp4847
sg71
g4832
sg64
(lp4848
g57
(g58
g59
NtRp4849
(dp4850
g62
(dp4851
g70
I5
ssg71
g4845
sg64
(lp4852
g100
asbasbasbag57
(g73
g59
NtRp4853
(dp4854
g62
(dp4855
sg71
g3439
sg64
(lp4856
g57
(g78
g59
NtRp4857
(dp4858
g62
(dp4859
g82
g83
ssg71
g4853
sg64
(lp4860
S'status'
p4861
asbag57
(g78
g59
NtRp4862
(dp4863
g62
(dp4864
g89
g90
ssg71
g4853
sg64
(lp4865
S':'
asbag57
(g78
g59
NtRp4866
(dp4867
g62
(dp4868
sg71
g4853
sg64
(lp4869
g57
(g58
g59
NtRp4870
(dp4871
g62
(dp4872
g70
I5
ssg71
g4866
sg64
(lp4873
S'200'
p4874
asbasbasbag57
(g73
g59
NtRp4875
(dp4876
g62
(dp4877
sg71
g3439
sg64
(lp4878
g57
(g78
g59
NtRp4879
(dp4880
g62
(dp4881
g82
g83
ssg71
g4875
sg64
(lp4882
S'subtitle'
p4883
asbag57
(g78
g59
NtRp4884
(dp4885
g62
(dp4886
g89
g90
ssg71
g4875
sg64
(lp4887
S':'
asbag57
(g78
g59
NtRp4888
(dp4889
g62
(dp4890
sg71
g4875
sg64
(lp4891
g57
(g58
g59
NtRp4892
(dp4893
g62
(dp4894
g70
I5
ssg71
g4888
sg64
(lp4895
g3944
(S's\r\x00\x00\x00customize me!'
tRp4896
asbasbasbag57
(g73
g59
NtRp4897
(dp4898
g62
(dp4899
sg71
g3439
sg64
(lp4900
g57
(g78
g59
NtRp4901
(dp4902
g62
(dp4903
g82
g83
ssg71
g4897
sg64
(lp4904
S'title'
p4905
asbag57
(g78
g59
NtRp4906
(dp4907
g62
(dp4908
g89
g90
ssg71
g4897
sg64
(lp4909
S':'
asbag57
(g78
g59
NtRp4910
(dp4911
g62
(dp4912
sg71
g4897
sg64
(lp4913
g57
(g58
g59
NtRp4914
(dp4915
g62
(dp4916
g70
I5
ssg71
g4910
sg64
(lp4917
S'Grammateus3'
p4918
asbasbasbag57
(g73
g59
NtRp4919
(dp4920
g62
(dp4921
sg71
g3439
sg64
(lp4922
g57
(g78
g59
NtRp4923
(dp4924
g62
(dp4925
g82
g83
ssg71
g4919
sg64
(lp4926
g2702
asbag57
(g78
g59
NtRp4927
(dp4928
g62
(dp4929
g89
g90
ssg71
g4919
sg64
(lp4930
S':'
asbag57
(g78
g59
NtRp4931
(dp4932
g62
(dp4933
sg71
g4919
sg64
(lp4934
g57
(g58
g59
NtRp4935
(dp4936
g62
(dp4937
g70
I5
ssg71
g4931
sg64
(lp4938
g2715
asbasbasbag57
(g73
g59
NtRp4939
(dp4940
g62
(dp4941
sg71
g3439
sg64
(lp4942
g57
(g78
g59
NtRp4943
(dp4944
g62
(dp4945
g82
g83
ssg71
g4939
sg64
(lp4946
S'view'
p4947
asbag57
(g78
g59
NtRp4948
(dp4949
g62
(dp4950
g89
g90
ssg71
g4939
sg64
(lp4951
S':'
asbag57
(g78
g59
NtRp4952
(dp4953
g62
(dp4954
sg71
g4939
sg64
(lp4955
g57
(g58
g59
NtRp4956
(dp4957
g62
(dp4958
g70
I5
ssg71
g4952
sg64
(lp4959
S'docs/test.html'
p4960
asbasbasbasbasbsS'locals'
p4961
(dp4962
S'info'
p4963
S"{'structure': '', 'title': '1 Enoch', 'versions': [OrderedDict([('title', 'Ethiopic'), ('author', '...\\u200b\\u1208\\u12d3\\u1208\\u121d\\u1362')]))]))]))]), OrderedDict([('title', 'Qumran Aramaic'), ('auth...u05d5\\u05e7\\u05dc\\u05d0\\u05c4 \\u2026')]))]))]))]), OrderedDict([('title', 'Latin Fragments'), ('aut...es quia requiem prestabit in archam.')]))]))]))])]}"
p4964
sS'divisions'
p4965
S'[<Element division>, <Element division>]'
p4966
sS'version_dict'
p4967
S"OrderedDict([('title', 'Greek'), ('author', 'Ano...organisation_levels', 2), ('delimiters', [':'])])"
p4968
sS'd'
S'<Element division>'
p4969
sS'ms_dict'
p4970
S"OrderedDict([('abbrev', 'Jude'), ('language', 'Greek'), ('name', 'Jude 14-15')])"
p4971
sS'self'
p4972
S'<applications.grammateus3.modules.parse.BookParser object>'
p4973
sS'mss'
p4974
S"OrderedDict([('7QEnoch', OrderedDict([('abbrev',...ochi Graece (PVTG 3; Leiden: Brill, 1970) ')]))])"
p4975
sS'delimiters'
p4976
S"[':']"
p4977
sS'delimiter'
p4978
S"[':']"
p4979
sg431
S'<Element version>'
p4980
sS'ms'
p4981
S'<Element ms>'
p4982
sssS'traceback'
p4983
S'Traceback (most recent call last):\n  File "/home/ian/Web Pages/web2py/gluon/restricted.py", line 204, in restricted\n    exec ccode in environment\n  File "/home/ian/Web Pages/web2py/applications/grammateus3/controllers/docs.py", line 44, in <module>\n  File "/home/ian/Web Pages/web2py/gluon/globals.py", line 172, in <lambda>\n    self._caller = lambda f: f()\n  File "/home/ian/Web Pages/web2py/applications/grammateus3/controllers/docs.py", line 24, in test\n    info = p.book_info()\n  File "applications/grammateus3/modules/parse.py", line 68, in book_info\n    ms_dict[\'bibliography\'] = ms.xpath(\'bibliography\')[0].text\nIndexError: list index out of range\n'
p4984
s.