(dp1
S'output'
p2
S"<type 'exceptions.ValueError'> 'undefined' is not in list"
p3
sS'layer'
p4
S'/home/iscott/web/web2py/applications/grammateus3/controllers/docs.py'
p5
sS'code'
p6
S'# coding: utf8\nfrom lxml import etree\n\nfrom parse import BookParser\n\nimport pprint\n\nimport re\n\n"""\nList of session objects used in text display:\nsession.filename\nsession.info -- dict; parsed results of BookParser class for current doc\nsession.title -- string; title of current doc\nsession.versions -- list; names of all versions in current doc\n"""\n\ndef index():\n    filename = request.args[0]\n    return dict(filename = filename)\n\ndef text():\n    filename = request.args[0]\n    #TODO: provide fallback and prompt if no filename is given in url\n    \n    #url to pass to web2py load helper in view to load doc section via ajax\n    load_url = URL(\'docs\', \'section.load\', args=filename)\n\n    return dict(load_url = load_url, filename = filename)\n\ndef section():\n    """\n    populates a single text pane via the section.load view (refreshable via ajax)\n    """\n    #get filename from end of url and parse the file with BookParser class\n    filename = request.args[0]\n    print filename\n    book_file = \'applications/grammateus3/static/docs/%s.xml\' % filename\n    p = BookParser(book_file)\n    info = p.book_info()\n    #get title of document\n    title = info[\'title\']\n\n    #get names of all versions of current doc and select the version to display\n    versions = [version[\'title\'] for version in info[\'versions\']]     \n    if \'version\' in request.vars:\n        current_version = request.vars[\'version\'].replace(\'_\', \' \')\n        #move selected version to top of list for selectbox\n        i = versions.index(current_version)\n        versions.insert(0, versions.pop(i))\n    else:\n        current_version = versions[0]\n\n    #find selected version in parsed text\n    for version in info[\'versions\']:\n        for k, v in version.items():\n            if k == \'title\' and v == current_version:\n                curv = version\n                vlang = curv[\'language\']\n            else:\n                pass\n\n    #get list of mss\n    mslist = [k.strip() for k, v in curv[\'manuscript\'].items()]\n    print \'mslist\', mslist\n    #use the third url argument as manuscript name if present, otherwise default to first version\n    #check for \'newval\' value, indicating the version has changed\n    if \'type\' in request.vars and request.vars[\'type\'] != \'newval\':\n        current_ms = request.vars[\'type\'].replace(\'_\', \' \')\n        current_ms = current_ms.strip()\n        print \'current_ms\', current_ms\n        #move selected text type to top of list for ms selectbox\n        i = mslist.index(current_ms)\n        mslist.insert(0, mslist.pop(i))        \n    else:\n        current_ms = mslist[0]\n\n    #build tuple for starting ref\n    start_sel = (1, 1)\n    end_sel = (3, 2)\n\n    #gather text from units within the selected section of the doc\n    #filters the current version for only readings in the current\n    #text type\n    sel_text = []\n    for ref, units in curv[\'text_structure\'].items():\n        ref_parts = re.split(\'[:\\.,;_-]\', ref)\n        if int(ref_parts[0]) >= 1 and int(ref_parts[0]) <= end_sel[0]:\n                print ref\n                for unit_ref, unit_val in units.items():\n                    for mss, raw_text in unit_val.items():\n                        if current_ms[-1] != \' \':\n                            current_ms += \' \'\n                        if current_ms in (mss + \' \'):\n                            if len(units) > 1:\n                                sel_text.append(A(raw_text, _class = vlang, _href=unit_ref))\n                            else:\n                                sel_text.append(SPAN(raw_text, _class = vlang))\n                        else:\n                            pass\n\n    return dict(title = title, versions = versions, current_version = current_version, \n                info = info, filename = filename, mslist = mslist, sel_text = sel_text)\n\n\ndef test():\n    filename = request.args[0]\n    book_file = \'applications/grammateus3/static/docs/%s.xml\' % filename\n    p = BookParser(book_file)\n    info = p.book_info()\n\n    title = info[\'title\']\n    for version in info[\'versions\']:\n        for key, value in version.items():\n            if key != \'text_structure\':\n                print \'Version\', key, \'-->\', value\n\n            else:\n                print \'Version textstructure\'\n                for ref, ref_val in value.items():\n                    for unit, unit_val in ref_val.items():\n                        for mss, mss_val in unit_val.items():\n                            print \'\\t\', ref, \'-->\', unit, \'-->\', mss, \'-->\', mss_val\n        print \'************\'\n    print\n    print\n\n    return dict(title = title, info = info)\n\nresponse._vars=response._caller(section)\n'
p7
sS'snapshot'
p8
(dp9
S'exception'
p10
(dp11
S'__hash__'
p12
S"<method-wrapper '__hash__' of exceptions.ValueError object>"
p13
sS'__setattr__'
p14
S"<method-wrapper '__setattr__' of exceptions.ValueError object>"
p15
sS'__reduce_ex__'
p16
S'<built-in method __reduce_ex__ of exceptions.ValueError object>'
p17
sS'__getslice__'
p18
S"<method-wrapper '__getslice__' of exceptions.ValueError object>"
p19
sS'__getitem__'
p20
S"<method-wrapper '__getitem__' of exceptions.ValueError object>"
p21
sS'__setstate__'
p22
S'<built-in method __setstate__ of exceptions.ValueError object>'
p23
sS'__reduce__'
p24
S'<built-in method __reduce__ of exceptions.ValueError object>'
p25
sS'__str__'
p26
S"<method-wrapper '__str__' of exceptions.ValueError object>"
p27
sS'__format__'
p28
S'<built-in method __format__ of exceptions.ValueError object>'
p29
sS'__getattribute__'
p30
S"<method-wrapper '__getattribute__' of exceptions.ValueError object>"
p31
sS'__class__'
p32
S"<type 'exceptions.ValueError'>"
p33
sS'__unicode__'
p34
S'<built-in method __unicode__ of exceptions.ValueError object>'
p35
sS'__delattr__'
p36
S"<method-wrapper '__delattr__' of exceptions.ValueError object>"
p37
sS'__subclasshook__'
p38
S'<built-in method __subclasshook__ of type object>'
p39
sS'__repr__'
p40
S"<method-wrapper '__repr__' of exceptions.ValueError object>"
p41
sS'args'
p42
S'("\'undefined\' is not in list",)'
p43
sS'__dict__'
p44
S'{}'
p45
sS'__sizeof__'
p46
S'<built-in method __sizeof__ of exceptions.ValueError object>'
p47
sS'__doc__'
p48
S"'Inappropriate argument value (of correct type).'"
p49
sS'__init__'
p50
S"<method-wrapper '__init__' of exceptions.ValueError object>"
p51
sS'__new__'
p52
S'<built-in method __new__ of type object>'
p53
ssS'evalue'
p54
S"'undefined' is not in list"
p55
sS'request'
p56
ccopy_reg
_reconstructor
p57
(cgluon.html
BEAUTIFY
p58
c__builtin__
object
p59
NtRp60
(dp61
S'attributes'
p62
(dp63
sS'components'
p64
(lp65
g57
(cgluon.html
TABLE
p66
g59
NtRp67
(dp68
g62
(dp69
S'level'
p70
I5
ssS'parent'
p71
Nsg64
(lp72
g57
(cgluon.html
TR
p73
g59
NtRp74
(dp75
g62
(dp76
sg71
g67
sg64
(lp77
g57
(cgluon.html
TD
p78
g59
NtRp79
(dp80
g62
(dp81
S'_style'
p82
S'font-weight:bold;vertical-align:top'
p83
ssg71
g74
sg64
(lp84
S'ajax'
p85
asbag57
(g78
g59
NtRp86
(dp87
g62
(dp88
S'_valign'
p89
S'top'
p90
ssg71
g74
sg64
(lp91
S':'
asbag57
(g78
g59
NtRp92
(dp93
g62
(dp94
sg71
g74
sg64
(lp95
g57
(g58
g59
NtRp96
(dp97
g62
(dp98
g70
I5
ssg71
g92
sg64
(lp99
S'True'
p100
asbasbasbag57
(g73
g59
NtRp101
(dp102
g62
(dp103
sg71
g67
sg64
(lp104
g57
(g78
g59
NtRp105
(dp106
g62
(dp107
g82
g83
ssg71
g101
sg64
(lp108
S'application'
p109
asbag57
(g78
g59
NtRp110
(dp111
g62
(dp112
g89
g90
ssg71
g101
sg64
(lp113
S':'
asbag57
(g78
g59
NtRp114
(dp115
g62
(dp116
sg71
g101
sg64
(lp117
g57
(g58
g59
NtRp118
(dp119
g62
(dp120
g70
I5
ssg71
g114
sg64
(lp121
S'grammateus3'
p122
asbasbasbag57
(g73
g59
NtRp123
(dp124
g62
(dp125
sg71
g67
sg64
(lp126
g57
(g78
g59
NtRp127
(dp128
g62
(dp129
g82
g83
ssg71
g123
sg64
(lp130
g42
asbag57
(g78
g59
NtRp131
(dp132
g62
(dp133
g89
g90
ssg71
g123
sg64
(lp134
S':'
asbag57
(g78
g59
NtRp135
(dp136
g62
(dp137
sg71
g123
sg64
(lp138
g57
(g58
g59
NtRp139
(dp140
g62
(dp141
g70
I5
ssg71
g135
sg64
(lp142
g57
(g66
g59
NtRp143
(dp144
g62
(dp145
g70
I4
ssg71
Nsg64
(lp146
g57
(g73
g59
NtRp147
(dp148
g62
(dp149
sg71
g143
sg64
(lp150
g57
(g78
g59
NtRp151
(dp152
g62
(dp153
sg71
g147
sg64
(lp154
g57
(g58
g59
NtRp155
(dp156
g62
(dp157
g70
I4
ssg71
g151
sg64
(lp158
S'1En'
p159
asbasbasbasbasbasbasbag57
(g73
g59
NtRp160
(dp161
g62
(dp162
sg71
g67
sg64
(lp163
g57
(g78
g59
NtRp164
(dp165
g62
(dp166
g82
g83
ssg71
g160
sg64
(lp167
S'body'
p168
asbag57
(g78
g59
NtRp169
(dp170
g62
(dp171
g89
g90
ssg71
g160
sg64
(lp172
S':'
asbag57
(g78
g59
NtRp173
(dp174
g62
(dp175
sg71
g160
sg64
(lp176
g57
(g58
g59
NtRp177
(dp178
g62
(dp179
g70
I5
ssg71
g173
sg64
(lp180
S'<cStringIO.StringO object at 0xc31c400>'
p181
asbasbasbag57
(g73
g59
NtRp182
(dp183
g62
(dp184
sg71
g67
sg64
(lp185
g57
(g78
g59
NtRp186
(dp187
g62
(dp188
g82
g83
ssg71
g182
sg64
(lp189
S'client'
p190
asbag57
(g78
g59
NtRp191
(dp192
g62
(dp193
g89
g90
ssg71
g182
sg64
(lp194
S':'
asbag57
(g78
g59
NtRp195
(dp196
g62
(dp197
sg71
g182
sg64
(lp198
g57
(g58
g59
NtRp199
(dp200
g62
(dp201
g70
I5
ssg71
g195
sg64
(lp202
S'127.0.0.1'
p203
asbasbasbag57
(g73
g59
NtRp204
(dp205
g62
(dp206
sg71
g67
sg64
(lp207
g57
(g78
g59
NtRp208
(dp209
g62
(dp210
g82
g83
ssg71
g204
sg64
(lp211
S'controller'
p212
asbag57
(g78
g59
NtRp213
(dp214
g62
(dp215
g89
g90
ssg71
g204
sg64
(lp216
S':'
asbag57
(g78
g59
NtRp217
(dp218
g62
(dp219
sg71
g204
sg64
(lp220
g57
(g58
g59
NtRp221
(dp222
g62
(dp223
g70
I5
ssg71
g217
sg64
(lp224
S'docs'
p225
asbasbasbag57
(g73
g59
NtRp226
(dp227
g62
(dp228
sg71
g67
sg64
(lp229
g57
(g78
g59
NtRp230
(dp231
g62
(dp232
g82
g83
ssg71
g226
sg64
(lp233
S'cookies'
p234
asbag57
(g78
g59
NtRp235
(dp236
g62
(dp237
g89
g90
ssg71
g226
sg64
(lp238
S':'
asbag57
(g78
g59
NtRp239
(dp240
g62
(dp241
sg71
g226
sg64
(lp242
g57
(g58
g59
NtRp243
(dp244
g62
(dp245
g70
I5
ssg71
g239
sg64
(lp246
g57
(g66
g59
NtRp247
(dp248
g62
(dp249
g70
I4
ssg71
Nsg64
(lp250
g57
(g73
g59
NtRp251
(dp252
g62
(dp253
sg71
g247
sg64
(lp254
g57
(g78
g59
NtRp255
(dp256
g62
(dp257
g82
g83
ssg71
g251
sg64
(lp258
S'session_id_admin'
p259
asbag57
(g78
g59
NtRp260
(dp261
g62
(dp262
g89
g90
ssg71
g251
sg64
(lp263
S':'
asbag57
(g78
g59
NtRp264
(dp265
g62
(dp266
sg71
g251
sg64
(lp267
g57
(g58
g59
NtRp268
(dp269
g62
(dp270
g70
I4
ssg71
g264
sg64
(lp271
g57
(g66
g59
NtRp272
(dp273
g62
(dp274
g70
I3
ssg71
Nsg64
(lp275
g57
(g73
g59
NtRp276
(dp277
g62
(dp278
sg71
g272
sg64
(lp279
g57
(g78
g59
NtRp280
(dp281
g62
(dp282
g82
g83
ssg71
g276
sg64
(lp283
S'comment'
p284
asbag57
(g78
g59
NtRp285
(dp286
g62
(dp287
g89
g90
ssg71
g276
sg64
(lp288
S':'
asbag57
(g78
g59
NtRp289
(dp290
g62
(dp291
sg71
g276
sg64
(lp292
g57
(g58
g59
NtRp293
(dp294
g62
(dp295
g70
I3
ssg71
g289
sg64
(lp296
S''
asbasbasbag57
(g73
g59
NtRp297
(dp298
g62
(dp299
sg71
g272
sg64
(lp300
g57
(g78
g59
NtRp301
(dp302
g62
(dp303
g82
g83
ssg71
g297
sg64
(lp304
S'domain'
p305
asbag57
(g78
g59
NtRp306
(dp307
g62
(dp308
g89
g90
ssg71
g297
sg64
(lp309
S':'
asbag57
(g78
g59
NtRp310
(dp311
g62
(dp312
sg71
g297
sg64
(lp313
g57
(g58
g59
NtRp314
(dp315
g62
(dp316
g70
I3
ssg71
g310
sg64
(lp317
S''
asbasbasbag57
(g73
g59
NtRp318
(dp319
g62
(dp320
sg71
g272
sg64
(lp321
g57
(g78
g59
NtRp322
(dp323
g62
(dp324
g82
g83
ssg71
g318
sg64
(lp325
S'expires'
p326
asbag57
(g78
g59
NtRp327
(dp328
g62
(dp329
g89
g90
ssg71
g318
sg64
(lp330
S':'
asbag57
(g78
g59
NtRp331
(dp332
g62
(dp333
sg71
g318
sg64
(lp334
g57
(g58
g59
NtRp335
(dp336
g62
(dp337
g70
I3
ssg71
g331
sg64
(lp338
S''
asbasbasbag57
(g73
g59
NtRp339
(dp340
g62
(dp341
sg71
g272
sg64
(lp342
g57
(g78
g59
NtRp343
(dp344
g62
(dp345
g82
g83
ssg71
g339
sg64
(lp346
S'httponly'
p347
asbag57
(g78
g59
NtRp348
(dp349
g62
(dp350
g89
g90
ssg71
g339
sg64
(lp351
S':'
asbag57
(g78
g59
NtRp352
(dp353
g62
(dp354
sg71
g339
sg64
(lp355
g57
(g58
g59
NtRp356
(dp357
g62
(dp358
g70
I3
ssg71
g352
sg64
(lp359
S''
asbasbasbag57
(g73
g59
NtRp360
(dp361
g62
(dp362
sg71
g272
sg64
(lp363
g57
(g78
g59
NtRp364
(dp365
g62
(dp366
g82
g83
ssg71
g360
sg64
(lp367
S'max-age'
p368
asbag57
(g78
g59
NtRp369
(dp370
g62
(dp371
g89
g90
ssg71
g360
sg64
(lp372
S':'
asbag57
(g78
g59
NtRp373
(dp374
g62
(dp375
sg71
g360
sg64
(lp376
g57
(g58
g59
NtRp377
(dp378
g62
(dp379
g70
I3
ssg71
g373
sg64
(lp380
S''
asbasbasbag57
(g73
g59
NtRp381
(dp382
g62
(dp383
sg71
g272
sg64
(lp384
g57
(g78
g59
NtRp385
(dp386
g62
(dp387
g82
g83
ssg71
g381
sg64
(lp388
S'path'
p389
asbag57
(g78
g59
NtRp390
(dp391
g62
(dp392
g89
g90
ssg71
g381
sg64
(lp393
S':'
asbag57
(g78
g59
NtRp394
(dp395
g62
(dp396
sg71
g381
sg64
(lp397
g57
(g58
g59
NtRp398
(dp399
g62
(dp400
g70
I3
ssg71
g394
sg64
(lp401
S''
asbasbasbag57
(g73
g59
NtRp402
(dp403
g62
(dp404
sg71
g272
sg64
(lp405
g57
(g78
g59
NtRp406
(dp407
g62
(dp408
g82
g83
ssg71
g402
sg64
(lp409
S'secure'
p410
asbag57
(g78
g59
NtRp411
(dp412
g62
(dp413
g89
g90
ssg71
g402
sg64
(lp414
S':'
asbag57
(g78
g59
NtRp415
(dp416
g62
(dp417
sg71
g402
sg64
(lp418
g57
(g58
g59
NtRp419
(dp420
g62
(dp421
g70
I3
ssg71
g415
sg64
(lp422
S''
asbasbasbag57
(g73
g59
NtRp423
(dp424
g62
(dp425
sg71
g272
sg64
(lp426
g57
(g78
g59
NtRp427
(dp428
g62
(dp429
g82
g83
ssg71
g423
sg64
(lp430
S'version'
p431
asbag57
(g78
g59
NtRp432
(dp433
g62
(dp434
g89
g90
ssg71
g423
sg64
(lp435
S':'
asbag57
(g78
g59
NtRp436
(dp437
g62
(dp438
sg71
g423
sg64
(lp439
g57
(g58
g59
NtRp440
(dp441
g62
(dp442
g70
I3
ssg71
g436
sg64
(lp443
S''
asbasbasbasbasbasbasbag57
(g73
g59
NtRp444
(dp445
g62
(dp446
sg71
g247
sg64
(lp447
g57
(g78
g59
NtRp448
(dp449
g62
(dp450
g82
g83
ssg71
g444
sg64
(lp451
S'session_id_bloglet'
p452
asbag57
(g78
g59
NtRp453
(dp454
g62
(dp455
g89
g90
ssg71
g444
sg64
(lp456
S':'
asbag57
(g78
g59
NtRp457
(dp458
g62
(dp459
sg71
g444
sg64
(lp460
g57
(g58
g59
NtRp461
(dp462
g62
(dp463
g70
I4
ssg71
g457
sg64
(lp464
g57
(g66
g59
NtRp465
(dp466
g62
(dp467
g70
I3
ssg71
Nsg64
(lp468
g57
(g73
g59
NtRp469
(dp470
g62
(dp471
sg71
g465
sg64
(lp472
g57
(g78
g59
NtRp473
(dp474
g62
(dp475
g82
g83
ssg71
g469
sg64
(lp476
g284
asbag57
(g78
g59
NtRp477
(dp478
g62
(dp479
g89
g90
ssg71
g469
sg64
(lp480
S':'
asbag57
(g78
g59
NtRp481
(dp482
g62
(dp483
sg71
g469
sg64
(lp484
g57
(g58
g59
NtRp485
(dp486
g62
(dp487
g70
I3
ssg71
g481
sg64
(lp488
S''
asbasbasbag57
(g73
g59
NtRp489
(dp490
g62
(dp491
sg71
g465
sg64
(lp492
g57
(g78
g59
NtRp493
(dp494
g62
(dp495
g82
g83
ssg71
g489
sg64
(lp496
g305
asbag57
(g78
g59
NtRp497
(dp498
g62
(dp499
g89
g90
ssg71
g489
sg64
(lp500
S':'
asbag57
(g78
g59
NtRp501
(dp502
g62
(dp503
sg71
g489
sg64
(lp504
g57
(g58
g59
NtRp505
(dp506
g62
(dp507
g70
I3
ssg71
g501
sg64
(lp508
S''
asbasbasbag57
(g73
g59
NtRp509
(dp510
g62
(dp511
sg71
g465
sg64
(lp512
g57
(g78
g59
NtRp513
(dp514
g62
(dp515
g82
g83
ssg71
g509
sg64
(lp516
g326
asbag57
(g78
g59
NtRp517
(dp518
g62
(dp519
g89
g90
ssg71
g509
sg64
(lp520
S':'
asbag57
(g78
g59
NtRp521
(dp522
g62
(dp523
sg71
g509
sg64
(lp524
g57
(g58
g59
NtRp525
(dp526
g62
(dp527
g70
I3
ssg71
g521
sg64
(lp528
S''
asbasbasbag57
(g73
g59
NtRp529
(dp530
g62
(dp531
sg71
g465
sg64
(lp532
g57
(g78
g59
NtRp533
(dp534
g62
(dp535
g82
g83
ssg71
g529
sg64
(lp536
g347
asbag57
(g78
g59
NtRp537
(dp538
g62
(dp539
g89
g90
ssg71
g529
sg64
(lp540
S':'
asbag57
(g78
g59
NtRp541
(dp542
g62
(dp543
sg71
g529
sg64
(lp544
g57
(g58
g59
NtRp545
(dp546
g62
(dp547
g70
I3
ssg71
g541
sg64
(lp548
S''
asbasbasbag57
(g73
g59
NtRp549
(dp550
g62
(dp551
sg71
g465
sg64
(lp552
g57
(g78
g59
NtRp553
(dp554
g62
(dp555
g82
g83
ssg71
g549
sg64
(lp556
g368
asbag57
(g78
g59
NtRp557
(dp558
g62
(dp559
g89
g90
ssg71
g549
sg64
(lp560
S':'
asbag57
(g78
g59
NtRp561
(dp562
g62
(dp563
sg71
g549
sg64
(lp564
g57
(g58
g59
NtRp565
(dp566
g62
(dp567
g70
I3
ssg71
g561
sg64
(lp568
S''
asbasbasbag57
(g73
g59
NtRp569
(dp570
g62
(dp571
sg71
g465
sg64
(lp572
g57
(g78
g59
NtRp573
(dp574
g62
(dp575
g82
g83
ssg71
g569
sg64
(lp576
g389
asbag57
(g78
g59
NtRp577
(dp578
g62
(dp579
g89
g90
ssg71
g569
sg64
(lp580
S':'
asbag57
(g78
g59
NtRp581
(dp582
g62
(dp583
sg71
g569
sg64
(lp584
g57
(g58
g59
NtRp585
(dp586
g62
(dp587
g70
I3
ssg71
g581
sg64
(lp588
S''
asbasbasbag57
(g73
g59
NtRp589
(dp590
g62
(dp591
sg71
g465
sg64
(lp592
g57
(g78
g59
NtRp593
(dp594
g62
(dp595
g82
g83
ssg71
g589
sg64
(lp596
g410
asbag57
(g78
g59
NtRp597
(dp598
g62
(dp599
g89
g90
ssg71
g589
sg64
(lp600
S':'
asbag57
(g78
g59
NtRp601
(dp602
g62
(dp603
sg71
g589
sg64
(lp604
g57
(g58
g59
NtRp605
(dp606
g62
(dp607
g70
I3
ssg71
g601
sg64
(lp608
S''
asbasbasbag57
(g73
g59
NtRp609
(dp610
g62
(dp611
sg71
g465
sg64
(lp612
g57
(g78
g59
NtRp613
(dp614
g62
(dp615
g82
g83
ssg71
g609
sg64
(lp616
g431
asbag57
(g78
g59
NtRp617
(dp618
g62
(dp619
g89
g90
ssg71
g609
sg64
(lp620
S':'
asbag57
(g78
g59
NtRp621
(dp622
g62
(dp623
sg71
g609
sg64
(lp624
g57
(g58
g59
NtRp625
(dp626
g62
(dp627
g70
I3
ssg71
g621
sg64
(lp628
S''
asbasbasbasbasbasbasbag57
(g73
g59
NtRp629
(dp630
g62
(dp631
sg71
g247
sg64
(lp632
g57
(g78
g59
NtRp633
(dp634
g62
(dp635
g82
g83
ssg71
g629
sg64
(lp636
S'session_id_grammateus3'
p637
asbag57
(g78
g59
NtRp638
(dp639
g62
(dp640
g89
g90
ssg71
g629
sg64
(lp641
S':'
asbag57
(g78
g59
NtRp642
(dp643
g62
(dp644
sg71
g629
sg64
(lp645
g57
(g58
g59
NtRp646
(dp647
g62
(dp648
g70
I4
ssg71
g642
sg64
(lp649
g57
(g66
g59
NtRp650
(dp651
g62
(dp652
g70
I3
ssg71
Nsg64
(lp653
g57
(g73
g59
NtRp654
(dp655
g62
(dp656
sg71
g650
sg64
(lp657
g57
(g78
g59
NtRp658
(dp659
g62
(dp660
g82
g83
ssg71
g654
sg64
(lp661
g284
asbag57
(g78
g59
NtRp662
(dp663
g62
(dp664
g89
g90
ssg71
g654
sg64
(lp665
S':'
asbag57
(g78
g59
NtRp666
(dp667
g62
(dp668
sg71
g654
sg64
(lp669
g57
(g58
g59
NtRp670
(dp671
g62
(dp672
g70
I3
ssg71
g666
sg64
(lp673
S''
asbasbasbag57
(g73
g59
NtRp674
(dp675
g62
(dp676
sg71
g650
sg64
(lp677
g57
(g78
g59
NtRp678
(dp679
g62
(dp680
g82
g83
ssg71
g674
sg64
(lp681
g305
asbag57
(g78
g59
NtRp682
(dp683
g62
(dp684
g89
g90
ssg71
g674
sg64
(lp685
S':'
asbag57
(g78
g59
NtRp686
(dp687
g62
(dp688
sg71
g674
sg64
(lp689
g57
(g58
g59
NtRp690
(dp691
g62
(dp692
g70
I3
ssg71
g686
sg64
(lp693
S''
asbasbasbag57
(g73
g59
NtRp694
(dp695
g62
(dp696
sg71
g650
sg64
(lp697
g57
(g78
g59
NtRp698
(dp699
g62
(dp700
g82
g83
ssg71
g694
sg64
(lp701
g326
asbag57
(g78
g59
NtRp702
(dp703
g62
(dp704
g89
g90
ssg71
g694
sg64
(lp705
S':'
asbag57
(g78
g59
NtRp706
(dp707
g62
(dp708
sg71
g694
sg64
(lp709
g57
(g58
g59
NtRp710
(dp711
g62
(dp712
g70
I3
ssg71
g706
sg64
(lp713
S''
asbasbasbag57
(g73
g59
NtRp714
(dp715
g62
(dp716
sg71
g650
sg64
(lp717
g57
(g78
g59
NtRp718
(dp719
g62
(dp720
g82
g83
ssg71
g714
sg64
(lp721
g347
asbag57
(g78
g59
NtRp722
(dp723
g62
(dp724
g89
g90
ssg71
g714
sg64
(lp725
S':'
asbag57
(g78
g59
NtRp726
(dp727
g62
(dp728
sg71
g714
sg64
(lp729
g57
(g58
g59
NtRp730
(dp731
g62
(dp732
g70
I3
ssg71
g726
sg64
(lp733
S''
asbasbasbag57
(g73
g59
NtRp734
(dp735
g62
(dp736
sg71
g650
sg64
(lp737
g57
(g78
g59
NtRp738
(dp739
g62
(dp740
g82
g83
ssg71
g734
sg64
(lp741
g368
asbag57
(g78
g59
NtRp742
(dp743
g62
(dp744
g89
g90
ssg71
g734
sg64
(lp745
S':'
asbag57
(g78
g59
NtRp746
(dp747
g62
(dp748
sg71
g734
sg64
(lp749
g57
(g58
g59
NtRp750
(dp751
g62
(dp752
g70
I3
ssg71
g746
sg64
(lp753
S''
asbasbasbag57
(g73
g59
NtRp754
(dp755
g62
(dp756
sg71
g650
sg64
(lp757
g57
(g78
g59
NtRp758
(dp759
g62
(dp760
g82
g83
ssg71
g754
sg64
(lp761
g389
asbag57
(g78
g59
NtRp762
(dp763
g62
(dp764
g89
g90
ssg71
g754
sg64
(lp765
S':'
asbag57
(g78
g59
NtRp766
(dp767
g62
(dp768
sg71
g754
sg64
(lp769
g57
(g58
g59
NtRp770
(dp771
g62
(dp772
g70
I3
ssg71
g766
sg64
(lp773
S''
asbasbasbag57
(g73
g59
NtRp774
(dp775
g62
(dp776
sg71
g650
sg64
(lp777
g57
(g78
g59
NtRp778
(dp779
g62
(dp780
g82
g83
ssg71
g774
sg64
(lp781
g410
asbag57
(g78
g59
NtRp782
(dp783
g62
(dp784
g89
g90
ssg71
g774
sg64
(lp785
S':'
asbag57
(g78
g59
NtRp786
(dp787
g62
(dp788
sg71
g774
sg64
(lp789
g57
(g58
g59
NtRp790
(dp791
g62
(dp792
g70
I3
ssg71
g786
sg64
(lp793
S''
asbasbasbag57
(g73
g59
NtRp794
(dp795
g62
(dp796
sg71
g650
sg64
(lp797
g57
(g78
g59
NtRp798
(dp799
g62
(dp800
g82
g83
ssg71
g794
sg64
(lp801
g431
asbag57
(g78
g59
NtRp802
(dp803
g62
(dp804
g89
g90
ssg71
g794
sg64
(lp805
S':'
asbag57
(g78
g59
NtRp806
(dp807
g62
(dp808
sg71
g794
sg64
(lp809
g57
(g58
g59
NtRp810
(dp811
g62
(dp812
g70
I3
ssg71
g806
sg64
(lp813
S''
asbasbasbasbasbasbasbag57
(g73
g59
NtRp814
(dp815
g62
(dp816
sg71
g247
sg64
(lp817
g57
(g78
g59
NtRp818
(dp819
g62
(dp820
g82
g83
ssg71
g814
sg64
(lp821
S'session_id_paideia'
p822
asbag57
(g78
g59
NtRp823
(dp824
g62
(dp825
g89
g90
ssg71
g814
sg64
(lp826
S':'
asbag57
(g78
g59
NtRp827
(dp828
g62
(dp829
sg71
g814
sg64
(lp830
g57
(g58
g59
NtRp831
(dp832
g62
(dp833
g70
I4
ssg71
g827
sg64
(lp834
g57
(g66
g59
NtRp835
(dp836
g62
(dp837
g70
I3
ssg71
Nsg64
(lp838
g57
(g73
g59
NtRp839
(dp840
g62
(dp841
sg71
g835
sg64
(lp842
g57
(g78
g59
NtRp843
(dp844
g62
(dp845
g82
g83
ssg71
g839
sg64
(lp846
g284
asbag57
(g78
g59
NtRp847
(dp848
g62
(dp849
g89
g90
ssg71
g839
sg64
(lp850
S':'
asbag57
(g78
g59
NtRp851
(dp852
g62
(dp853
sg71
g839
sg64
(lp854
g57
(g58
g59
NtRp855
(dp856
g62
(dp857
g70
I3
ssg71
g851
sg64
(lp858
S''
asbasbasbag57
(g73
g59
NtRp859
(dp860
g62
(dp861
sg71
g835
sg64
(lp862
g57
(g78
g59
NtRp863
(dp864
g62
(dp865
g82
g83
ssg71
g859
sg64
(lp866
g305
asbag57
(g78
g59
NtRp867
(dp868
g62
(dp869
g89
g90
ssg71
g859
sg64
(lp870
S':'
asbag57
(g78
g59
NtRp871
(dp872
g62
(dp873
sg71
g859
sg64
(lp874
g57
(g58
g59
NtRp875
(dp876
g62
(dp877
g70
I3
ssg71
g871
sg64
(lp878
S''
asbasbasbag57
(g73
g59
NtRp879
(dp880
g62
(dp881
sg71
g835
sg64
(lp882
g57
(g78
g59
NtRp883
(dp884
g62
(dp885
g82
g83
ssg71
g879
sg64
(lp886
g326
asbag57
(g78
g59
NtRp887
(dp888
g62
(dp889
g89
g90
ssg71
g879
sg64
(lp890
S':'
asbag57
(g78
g59
NtRp891
(dp892
g62
(dp893
sg71
g879
sg64
(lp894
g57
(g58
g59
NtRp895
(dp896
g62
(dp897
g70
I3
ssg71
g891
sg64
(lp898
S''
asbasbasbag57
(g73
g59
NtRp899
(dp900
g62
(dp901
sg71
g835
sg64
(lp902
g57
(g78
g59
NtRp903
(dp904
g62
(dp905
g82
g83
ssg71
g899
sg64
(lp906
g347
asbag57
(g78
g59
NtRp907
(dp908
g62
(dp909
g89
g90
ssg71
g899
sg64
(lp910
S':'
asbag57
(g78
g59
NtRp911
(dp912
g62
(dp913
sg71
g899
sg64
(lp914
g57
(g58
g59
NtRp915
(dp916
g62
(dp917
g70
I3
ssg71
g911
sg64
(lp918
S''
asbasbasbag57
(g73
g59
NtRp919
(dp920
g62
(dp921
sg71
g835
sg64
(lp922
g57
(g78
g59
NtRp923
(dp924
g62
(dp925
g82
g83
ssg71
g919
sg64
(lp926
g368
asbag57
(g78
g59
NtRp927
(dp928
g62
(dp929
g89
g90
ssg71
g919
sg64
(lp930
S':'
asbag57
(g78
g59
NtRp931
(dp932
g62
(dp933
sg71
g919
sg64
(lp934
g57
(g58
g59
NtRp935
(dp936
g62
(dp937
g70
I3
ssg71
g931
sg64
(lp938
S''
asbasbasbag57
(g73
g59
NtRp939
(dp940
g62
(dp941
sg71
g835
sg64
(lp942
g57
(g78
g59
NtRp943
(dp944
g62
(dp945
g82
g83
ssg71
g939
sg64
(lp946
g389
asbag57
(g78
g59
NtRp947
(dp948
g62
(dp949
g89
g90
ssg71
g939
sg64
(lp950
S':'
asbag57
(g78
g59
NtRp951
(dp952
g62
(dp953
sg71
g939
sg64
(lp954
g57
(g58
g59
NtRp955
(dp956
g62
(dp957
g70
I3
ssg71
g951
sg64
(lp958
S''
asbasbasbag57
(g73
g59
NtRp959
(dp960
g62
(dp961
sg71
g835
sg64
(lp962
g57
(g78
g59
NtRp963
(dp964
g62
(dp965
g82
g83
ssg71
g959
sg64
(lp966
g410
asbag57
(g78
g59
NtRp967
(dp968
g62
(dp969
g89
g90
ssg71
g959
sg64
(lp970
S':'
asbag57
(g78
g59
NtRp971
(dp972
g62
(dp973
sg71
g959
sg64
(lp974
g57
(g58
g59
NtRp975
(dp976
g62
(dp977
g70
I3
ssg71
g971
sg64
(lp978
S''
asbasbasbag57
(g73
g59
NtRp979
(dp980
g62
(dp981
sg71
g835
sg64
(lp982
g57
(g78
g59
NtRp983
(dp984
g62
(dp985
g82
g83
ssg71
g979
sg64
(lp986
g431
asbag57
(g78
g59
NtRp987
(dp988
g62
(dp989
g89
g90
ssg71
g979
sg64
(lp990
S':'
asbag57
(g78
g59
NtRp991
(dp992
g62
(dp993
sg71
g979
sg64
(lp994
g57
(g58
g59
NtRp995
(dp996
g62
(dp997
g70
I3
ssg71
g991
sg64
(lp998
S''
asbasbasbasbasbasbasbag57
(g73
g59
NtRp999
(dp1000
g62
(dp1001
sg71
g247
sg64
(lp1002
g57
(g78
g59
NtRp1003
(dp1004
g62
(dp1005
g82
g83
ssg71
g999
sg64
(lp1006
S'session_id_welcome'
p1007
asbag57
(g78
g59
NtRp1008
(dp1009
g62
(dp1010
g89
g90
ssg71
g999
sg64
(lp1011
S':'
asbag57
(g78
g59
NtRp1012
(dp1013
g62
(dp1014
sg71
g999
sg64
(lp1015
g57
(g58
g59
NtRp1016
(dp1017
g62
(dp1018
g70
I4
ssg71
g1012
sg64
(lp1019
g57
(g66
g59
NtRp1020
(dp1021
g62
(dp1022
g70
I3
ssg71
Nsg64
(lp1023
g57
(g73
g59
NtRp1024
(dp1025
g62
(dp1026
sg71
g1020
sg64
(lp1027
g57
(g78
g59
NtRp1028
(dp1029
g62
(dp1030
g82
g83
ssg71
g1024
sg64
(lp1031
g284
asbag57
(g78
g59
NtRp1032
(dp1033
g62
(dp1034
g89
g90
ssg71
g1024
sg64
(lp1035
S':'
asbag57
(g78
g59
NtRp1036
(dp1037
g62
(dp1038
sg71
g1024
sg64
(lp1039
g57
(g58
g59
NtRp1040
(dp1041
g62
(dp1042
g70
I3
ssg71
g1036
sg64
(lp1043
S''
asbasbasbag57
(g73
g59
NtRp1044
(dp1045
g62
(dp1046
sg71
g1020
sg64
(lp1047
g57
(g78
g59
NtRp1048
(dp1049
g62
(dp1050
g82
g83
ssg71
g1044
sg64
(lp1051
g305
asbag57
(g78
g59
NtRp1052
(dp1053
g62
(dp1054
g89
g90
ssg71
g1044
sg64
(lp1055
S':'
asbag57
(g78
g59
NtRp1056
(dp1057
g62
(dp1058
sg71
g1044
sg64
(lp1059
g57
(g58
g59
NtRp1060
(dp1061
g62
(dp1062
g70
I3
ssg71
g1056
sg64
(lp1063
S''
asbasbasbag57
(g73
g59
NtRp1064
(dp1065
g62
(dp1066
sg71
g1020
sg64
(lp1067
g57
(g78
g59
NtRp1068
(dp1069
g62
(dp1070
g82
g83
ssg71
g1064
sg64
(lp1071
g326
asbag57
(g78
g59
NtRp1072
(dp1073
g62
(dp1074
g89
g90
ssg71
g1064
sg64
(lp1075
S':'
asbag57
(g78
g59
NtRp1076
(dp1077
g62
(dp1078
sg71
g1064
sg64
(lp1079
g57
(g58
g59
NtRp1080
(dp1081
g62
(dp1082
g70
I3
ssg71
g1076
sg64
(lp1083
S''
asbasbasbag57
(g73
g59
NtRp1084
(dp1085
g62
(dp1086
sg71
g1020
sg64
(lp1087
g57
(g78
g59
NtRp1088
(dp1089
g62
(dp1090
g82
g83
ssg71
g1084
sg64
(lp1091
g347
asbag57
(g78
g59
NtRp1092
(dp1093
g62
(dp1094
g89
g90
ssg71
g1084
sg64
(lp1095
S':'
asbag57
(g78
g59
NtRp1096
(dp1097
g62
(dp1098
sg71
g1084
sg64
(lp1099
g57
(g58
g59
NtRp1100
(dp1101
g62
(dp1102
g70
I3
ssg71
g1096
sg64
(lp1103
S''
asbasbasbag57
(g73
g59
NtRp1104
(dp1105
g62
(dp1106
sg71
g1020
sg64
(lp1107
g57
(g78
g59
NtRp1108
(dp1109
g62
(dp1110
g82
g83
ssg71
g1104
sg64
(lp1111
g368
asbag57
(g78
g59
NtRp1112
(dp1113
g62
(dp1114
g89
g90
ssg71
g1104
sg64
(lp1115
S':'
asbag57
(g78
g59
NtRp1116
(dp1117
g62
(dp1118
sg71
g1104
sg64
(lp1119
g57
(g58
g59
NtRp1120
(dp1121
g62
(dp1122
g70
I3
ssg71
g1116
sg64
(lp1123
S''
asbasbasbag57
(g73
g59
NtRp1124
(dp1125
g62
(dp1126
sg71
g1020
sg64
(lp1127
g57
(g78
g59
NtRp1128
(dp1129
g62
(dp1130
g82
g83
ssg71
g1124
sg64
(lp1131
g389
asbag57
(g78
g59
NtRp1132
(dp1133
g62
(dp1134
g89
g90
ssg71
g1124
sg64
(lp1135
S':'
asbag57
(g78
g59
NtRp1136
(dp1137
g62
(dp1138
sg71
g1124
sg64
(lp1139
g57
(g58
g59
NtRp1140
(dp1141
g62
(dp1142
g70
I3
ssg71
g1136
sg64
(lp1143
S''
asbasbasbag57
(g73
g59
NtRp1144
(dp1145
g62
(dp1146
sg71
g1020
sg64
(lp1147
g57
(g78
g59
NtRp1148
(dp1149
g62
(dp1150
g82
g83
ssg71
g1144
sg64
(lp1151
g410
asbag57
(g78
g59
NtRp1152
(dp1153
g62
(dp1154
g89
g90
ssg71
g1144
sg64
(lp1155
S':'
asbag57
(g78
g59
NtRp1156
(dp1157
g62
(dp1158
sg71
g1144
sg64
(lp1159
g57
(g58
g59
NtRp1160
(dp1161
g62
(dp1162
g70
I3
ssg71
g1156
sg64
(lp1163
S''
asbasbasbag57
(g73
g59
NtRp1164
(dp1165
g62
(dp1166
sg71
g1020
sg64
(lp1167
g57
(g78
g59
NtRp1168
(dp1169
g62
(dp1170
g82
g83
ssg71
g1164
sg64
(lp1171
g431
asbag57
(g78
g59
NtRp1172
(dp1173
g62
(dp1174
g89
g90
ssg71
g1164
sg64
(lp1175
S':'
asbag57
(g78
g59
NtRp1176
(dp1177
g62
(dp1178
sg71
g1164
sg64
(lp1179
g57
(g58
g59
NtRp1180
(dp1181
g62
(dp1182
g70
I3
ssg71
g1176
sg64
(lp1183
S''
asbasbasbasbasbasbasbasbasbasbasbag57
(g73
g59
NtRp1184
(dp1185
g62
(dp1186
sg71
g67
sg64
(lp1187
g57
(g78
g59
NtRp1188
(dp1189
g62
(dp1190
g82
g83
ssg71
g1184
sg64
(lp1191
S'env'
p1192
asbag57
(g78
g59
NtRp1193
(dp1194
g62
(dp1195
g89
g90
ssg71
g1184
sg64
(lp1196
S':'
asbag57
(g78
g59
NtRp1197
(dp1198
g62
(dp1199
sg71
g1184
sg64
(lp1200
g57
(g58
g59
NtRp1201
(dp1202
g62
(dp1203
g70
I5
ssg71
g1197
sg64
(lp1204
g57
(g66
g59
NtRp1205
(dp1206
g62
(dp1207
g70
I4
ssg71
Nsg64
(lp1208
g57
(g73
g59
NtRp1209
(dp1210
g62
(dp1211
sg71
g1205
sg64
(lp1212
g57
(g78
g59
NtRp1213
(dp1214
g62
(dp1215
g82
g83
ssg71
g1209
sg64
(lp1216
S'app_folders'
p1217
asbag57
(g78
g59
NtRp1218
(dp1219
g62
(dp1220
g89
g90
ssg71
g1209
sg64
(lp1221
S':'
asbag57
(g78
g59
NtRp1222
(dp1223
g62
(dp1224
sg71
g1209
sg64
(lp1225
g57
(g58
g59
NtRp1226
(dp1227
g62
(dp1228
g70
I4
ssg71
g1222
sg64
(lp1229
S"set(['/home/iscott/web/web2py/applications/grammateus3/', '/home/iscott/web/web2py/applications/admin/', '/home/iscott/web/web2py/applications/welcome/'])"
p1230
asbasbasbag57
(g73
g59
NtRp1231
(dp1232
g62
(dp1233
sg71
g1205
sg64
(lp1234
g57
(g78
g59
NtRp1235
(dp1236
g62
(dp1237
g82
g83
ssg71
g1231
sg64
(lp1238
S'applications_parent'
p1239
asbag57
(g78
g59
NtRp1240
(dp1241
g62
(dp1242
g89
g90
ssg71
g1231
sg64
(lp1243
S':'
asbag57
(g78
g59
NtRp1244
(dp1245
g62
(dp1246
sg71
g1231
sg64
(lp1247
g57
(g58
g59
NtRp1248
(dp1249
g62
(dp1250
g70
I4
ssg71
g1244
sg64
(lp1251
S'/home/iscott/web/web2py'
p1252
asbasbasbag57
(g73
g59
NtRp1253
(dp1254
g62
(dp1255
sg71
g1205
sg64
(lp1256
g57
(g78
g59
NtRp1257
(dp1258
g62
(dp1259
g82
g83
ssg71
g1253
sg64
(lp1260
S'cmd_args'
p1261
asbag57
(g78
g59
NtRp1262
(dp1263
g62
(dp1264
g89
g90
ssg71
g1253
sg64
(lp1265
S':'
asbag57
(g78
g59
NtRp1266
(dp1267
g62
(dp1268
sg71
g1253
sg64
(lp1269
g57
(g58
g59
NtRp1270
(dp1271
g62
(dp1272
g70
I4
ssg71
g1266
sg64
(lp1273
g57
(g66
g59
NtRp1274
(dp1275
g62
(dp1276
g70
I3
ssg71
Nsg64
(lp1277
sbasbasbasbag57
(g73
g59
NtRp1278
(dp1279
g62
(dp1280
sg71
g1205
sg64
(lp1281
g57
(g78
g59
NtRp1282
(dp1283
g62
(dp1284
g82
g83
ssg71
g1278
sg64
(lp1285
S'cmd_options'
p1286
asbag57
(g78
g59
NtRp1287
(dp1288
g62
(dp1289
g89
g90
ssg71
g1278
sg64
(lp1290
S':'
asbag57
(g78
g59
NtRp1291
(dp1292
g62
(dp1293
sg71
g1278
sg64
(lp1294
g57
(g58
g59
NtRp1295
(dp1296
g62
(dp1297
g70
I4
ssg71
g1291
sg64
(lp1298
S"<Values at 0x911db8c: {'verbose': False, 'ip': '127.0.0.1', 'shutdown_timeout': 5, 'taskbar': False, 'nocron': False, 'pid_filename': 'httpserver.pid', 'maxthreads': None, 'softcron': False, 'server_name': 'ubuntu', 'bpython': False, 'nogui': False, 'port': 8000, 'extcron': False, 'debuglevel': 30, 'test': None, 'folder': '/home/iscott/web/web2py', 'config': '', 'import_models': False, 'winservice': '', 'shell': None, 'run': '', 'log_filename': 'httpserver.log', 'args': [''], 'socket_timeout': 1, 'ssl_ca_certificate': None, 'scheduler': None, 'profiler_filename': None, 'ssl_private_key': '', 'password': '<ask>', 'request_queue_size': 5, 'ssl_certificate': '', 'cronjob': False, 'numthreads': None, 'quiet': False, 'interfaces': None, 'minthreads': None, 'timeout': 10, 'plain': False, 'nobanner': False}>"
p1299
asbasbasbag57
(g73
g59
NtRp1300
(dp1301
g62
(dp1302
sg71
g1205
sg64
(lp1303
g57
(g78
g59
NtRp1304
(dp1305
g62
(dp1306
g82
g83
ssg71
g1300
sg64
(lp1307
S'db_sessions'
p1308
asbag57
(g78
g59
NtRp1309
(dp1310
g62
(dp1311
g89
g90
ssg71
g1300
sg64
(lp1312
S':'
asbag57
(g78
g59
NtRp1313
(dp1314
g62
(dp1315
sg71
g1300
sg64
(lp1316
g57
(g58
g59
NtRp1317
(dp1318
g62
(dp1319
g70
I4
ssg71
g1313
sg64
(lp1320
S'set([])'
p1321
asbasbasbag57
(g73
g59
NtRp1322
(dp1323
g62
(dp1324
sg71
g1205
sg64
(lp1325
g57
(g78
g59
NtRp1326
(dp1327
g62
(dp1328
g82
g83
ssg71
g1322
sg64
(lp1329
S'debugging'
p1330
asbag57
(g78
g59
NtRp1331
(dp1332
g62
(dp1333
g89
g90
ssg71
g1322
sg64
(lp1334
S':'
asbag57
(g78
g59
NtRp1335
(dp1336
g62
(dp1337
sg71
g1322
sg64
(lp1338
g57
(g58
g59
NtRp1339
(dp1340
g62
(dp1341
g70
I4
ssg71
g1335
sg64
(lp1342
S'False'
p1343
asbasbasbag57
(g73
g59
NtRp1344
(dp1345
g62
(dp1346
sg71
g1205
sg64
(lp1347
g57
(g78
g59
NtRp1348
(dp1349
g62
(dp1350
g82
g83
ssg71
g1344
sg64
(lp1351
S'gluon_parent'
p1352
asbag57
(g78
g59
NtRp1353
(dp1354
g62
(dp1355
g89
g90
ssg71
g1344
sg64
(lp1356
S':'
asbag57
(g78
g59
NtRp1357
(dp1358
g62
(dp1359
sg71
g1344
sg64
(lp1360
g57
(g58
g59
NtRp1361
(dp1362
g62
(dp1363
g70
I4
ssg71
g1357
sg64
(lp1364
S'/home/iscott/web/web2py'
p1365
asbasbasbag57
(g73
g59
NtRp1366
(dp1367
g62
(dp1368
sg71
g1205
sg64
(lp1369
g57
(g78
g59
NtRp1370
(dp1371
g62
(dp1372
g82
g83
ssg71
g1366
sg64
(lp1373
S'http_accept'
p1374
asbag57
(g78
g59
NtRp1375
(dp1376
g62
(dp1377
g89
g90
ssg71
g1366
sg64
(lp1378
S':'
asbag57
(g78
g59
NtRp1379
(dp1380
g62
(dp1381
sg71
g1366
sg64
(lp1382
g57
(g58
g59
NtRp1383
(dp1384
g62
(dp1385
g70
I4
ssg71
g1379
sg64
(lp1386
S'*/*'
p1387
asbasbasbag57
(g73
g59
NtRp1388
(dp1389
g62
(dp1390
sg71
g1205
sg64
(lp1391
g57
(g78
g59
NtRp1392
(dp1393
g62
(dp1394
g82
g83
ssg71
g1388
sg64
(lp1395
S'http_accept_encoding'
p1396
asbag57
(g78
g59
NtRp1397
(dp1398
g62
(dp1399
g89
g90
ssg71
g1388
sg64
(lp1400
S':'
asbag57
(g78
g59
NtRp1401
(dp1402
g62
(dp1403
sg71
g1388
sg64
(lp1404
g57
(g58
g59
NtRp1405
(dp1406
g62
(dp1407
g70
I4
ssg71
g1401
sg64
(lp1408
S'gzip, deflate'
p1409
asbasbasbag57
(g73
g59
NtRp1410
(dp1411
g62
(dp1412
sg71
g1205
sg64
(lp1413
g57
(g78
g59
NtRp1414
(dp1415
g62
(dp1416
g82
g83
ssg71
g1410
sg64
(lp1417
S'http_accept_language'
p1418
asbag57
(g78
g59
NtRp1419
(dp1420
g62
(dp1421
g89
g90
ssg71
g1410
sg64
(lp1422
S':'
asbag57
(g78
g59
NtRp1423
(dp1424
g62
(dp1425
sg71
g1410
sg64
(lp1426
g57
(g58
g59
NtRp1427
(dp1428
g62
(dp1429
g70
I4
ssg71
g1423
sg64
(lp1430
S'en-us,en;q=0.5'
p1431
asbasbasbag57
(g73
g59
NtRp1432
(dp1433
g62
(dp1434
sg71
g1205
sg64
(lp1435
g57
(g78
g59
NtRp1436
(dp1437
g62
(dp1438
g82
g83
ssg71
g1432
sg64
(lp1439
S'http_connection'
p1440
asbag57
(g78
g59
NtRp1441
(dp1442
g62
(dp1443
g89
g90
ssg71
g1432
sg64
(lp1444
S':'
asbag57
(g78
g59
NtRp1445
(dp1446
g62
(dp1447
sg71
g1432
sg64
(lp1448
g57
(g58
g59
NtRp1449
(dp1450
g62
(dp1451
g70
I4
ssg71
g1445
sg64
(lp1452
S'keep-alive'
p1453
asbasbasbag57
(g73
g59
NtRp1454
(dp1455
g62
(dp1456
sg71
g1205
sg64
(lp1457
g57
(g78
g59
NtRp1458
(dp1459
g62
(dp1460
g82
g83
ssg71
g1454
sg64
(lp1461
S'http_cookie'
p1462
asbag57
(g78
g59
NtRp1463
(dp1464
g62
(dp1465
g89
g90
ssg71
g1454
sg64
(lp1466
S':'
asbag57
(g78
g59
NtRp1467
(dp1468
g62
(dp1469
sg71
g1454
sg64
(lp1470
g57
(g58
g59
NtRp1471
(dp1472
g62
(dp1473
g70
I4
ssg71
g1467
sg64
(lp1474
S'session_id_paideia=127.0.0.1-2edda130-d654-4b0f-a819-06652e443aa6; session_id_bloglet=127.0.0.1-e84b0934-9abc-4375-99c8-24980b610007; session_id_welcome=127.0.0.1-875183c3-33d3-41d0-8035-815b0ac6dec9; session_id_admin=127.0.0.1-7161103b-6e62-408c-a4af-c9de7c3a1a30; session_id_grammateus3=127.0.0.1-03d15d8e-e891-4307-a6bf-5717208181cd'
p1475
asbasbasbag57
(g73
g59
NtRp1476
(dp1477
g62
(dp1478
sg71
g1205
sg64
(lp1479
g57
(g78
g59
NtRp1480
(dp1481
g62
(dp1482
g82
g83
ssg71
g1476
sg64
(lp1483
S'http_host'
p1484
asbag57
(g78
g59
NtRp1485
(dp1486
g62
(dp1487
g89
g90
ssg71
g1476
sg64
(lp1488
S':'
asbag57
(g78
g59
NtRp1489
(dp1490
g62
(dp1491
sg71
g1476
sg64
(lp1492
g57
(g58
g59
NtRp1493
(dp1494
g62
(dp1495
g70
I4
ssg71
g1489
sg64
(lp1496
S'127.0.0.1:8000'
p1497
asbasbasbag57
(g73
g59
NtRp1498
(dp1499
g62
(dp1500
sg71
g1205
sg64
(lp1501
g57
(g78
g59
NtRp1502
(dp1503
g62
(dp1504
g82
g83
ssg71
g1498
sg64
(lp1505
S'http_referer'
p1506
asbag57
(g78
g59
NtRp1507
(dp1508
g62
(dp1509
g89
g90
ssg71
g1498
sg64
(lp1510
S':'
asbag57
(g78
g59
NtRp1511
(dp1512
g62
(dp1513
sg71
g1498
sg64
(lp1514
g57
(g58
g59
NtRp1515
(dp1516
g62
(dp1517
g70
I4
ssg71
g1511
sg64
(lp1518
S'http://127.0.0.1:8000/grammateus3/docs/text/1En'
p1519
asbasbasbag57
(g73
g59
NtRp1520
(dp1521
g62
(dp1522
sg71
g1205
sg64
(lp1523
g57
(g78
g59
NtRp1524
(dp1525
g62
(dp1526
g82
g83
ssg71
g1520
sg64
(lp1527
S'http_user_agent'
p1528
asbag57
(g78
g59
NtRp1529
(dp1530
g62
(dp1531
g89
g90
ssg71
g1520
sg64
(lp1532
S':'
asbag57
(g78
g59
NtRp1533
(dp1534
g62
(dp1535
sg71
g1520
sg64
(lp1536
g57
(g58
g59
NtRp1537
(dp1538
g62
(dp1539
g70
I4
ssg71
g1533
sg64
(lp1540
S'Mozilla/5.0 (X11; Ubuntu; Linux i686; rv:10.0.2) Gecko/20100101 Firefox/10.0.2'
p1541
asbasbasbag57
(g73
g59
NtRp1542
(dp1543
g62
(dp1544
sg71
g1205
sg64
(lp1545
g57
(g78
g59
NtRp1546
(dp1547
g62
(dp1548
g82
g83
ssg71
g1542
sg64
(lp1549
S'http_web2py_component_location'
p1550
asbag57
(g78
g59
NtRp1551
(dp1552
g62
(dp1553
g89
g90
ssg71
g1542
sg64
(lp1554
S':'
asbag57
(g78
g59
NtRp1555
(dp1556
g62
(dp1557
sg71
g1542
sg64
(lp1558
g57
(g58
g59
NtRp1559
(dp1560
g62
(dp1561
g70
I4
ssg71
g1555
sg64
(lp1562
S'http://127.0.0.1:8000/grammateus3/docs/text/1En'
p1563
asbasbasbag57
(g73
g59
NtRp1564
(dp1565
g62
(dp1566
sg71
g1205
sg64
(lp1567
g57
(g78
g59
NtRp1568
(dp1569
g62
(dp1570
g82
g83
ssg71
g1564
sg64
(lp1571
S'http_x_requested_with'
p1572
asbag57
(g78
g59
NtRp1573
(dp1574
g62
(dp1575
g89
g90
ssg71
g1564
sg64
(lp1576
S':'
asbag57
(g78
g59
NtRp1577
(dp1578
g62
(dp1579
sg71
g1564
sg64
(lp1580
g57
(g58
g59
NtRp1581
(dp1582
g62
(dp1583
g70
I4
ssg71
g1577
sg64
(lp1584
S'XMLHttpRequest'
p1585
asbasbasbag57
(g73
g59
NtRp1586
(dp1587
g62
(dp1588
sg71
g1205
sg64
(lp1589
g57
(g78
g59
NtRp1590
(dp1591
g62
(dp1592
g82
g83
ssg71
g1586
sg64
(lp1593
S'is_jython'
p1594
asbag57
(g78
g59
NtRp1595
(dp1596
g62
(dp1597
g89
g90
ssg71
g1586
sg64
(lp1598
S':'
asbag57
(g78
g59
NtRp1599
(dp1600
g62
(dp1601
sg71
g1586
sg64
(lp1602
g57
(g58
g59
NtRp1603
(dp1604
g62
(dp1605
g70
I4
ssg71
g1599
sg64
(lp1606
g1343
asbasbasbag57
(g73
g59
NtRp1607
(dp1608
g62
(dp1609
sg71
g1205
sg64
(lp1610
g57
(g78
g59
NtRp1611
(dp1612
g62
(dp1613
g82
g83
ssg71
g1607
sg64
(lp1614
S'is_pypy'
p1615
asbag57
(g78
g59
NtRp1616
(dp1617
g62
(dp1618
g89
g90
ssg71
g1607
sg64
(lp1619
S':'
asbag57
(g78
g59
NtRp1620
(dp1621
g62
(dp1622
sg71
g1607
sg64
(lp1623
g57
(g58
g59
NtRp1624
(dp1625
g62
(dp1626
g70
I4
ssg71
g1620
sg64
(lp1627
g1343
asbasbasbag57
(g73
g59
NtRp1628
(dp1629
g62
(dp1630
sg71
g1205
sg64
(lp1631
g57
(g78
g59
NtRp1632
(dp1633
g62
(dp1634
g82
g83
ssg71
g1628
sg64
(lp1635
S'path_info'
p1636
asbag57
(g78
g59
NtRp1637
(dp1638
g62
(dp1639
g89
g90
ssg71
g1628
sg64
(lp1640
S':'
asbag57
(g78
g59
NtRp1641
(dp1642
g62
(dp1643
sg71
g1628
sg64
(lp1644
g57
(g58
g59
NtRp1645
(dp1646
g62
(dp1647
g70
I4
ssg71
g1641
sg64
(lp1648
S'/grammateus3/docs/section.load/1En'
p1649
asbasbasbag57
(g73
g59
NtRp1650
(dp1651
g62
(dp1652
sg71
g1205
sg64
(lp1653
g57
(g78
g59
NtRp1654
(dp1655
g62
(dp1656
g82
g83
ssg71
g1650
sg64
(lp1657
S'query_string'
p1658
asbag57
(g78
g59
NtRp1659
(dp1660
g62
(dp1661
g89
g90
ssg71
g1650
sg64
(lp1662
S':'
asbag57
(g78
g59
NtRp1663
(dp1664
g62
(dp1665
sg71
g1650
sg64
(lp1666
g57
(g58
g59
NtRp1667
(dp1668
g62
(dp1669
g70
I4
ssg71
g1663
sg64
(lp1670
S'version=undefined&type=Bertalotto'
p1671
asbasbasbag57
(g73
g59
NtRp1672
(dp1673
g62
(dp1674
sg71
g1205
sg64
(lp1675
g57
(g78
g59
NtRp1676
(dp1677
g62
(dp1678
g82
g83
ssg71
g1672
sg64
(lp1679
S'remote_addr'
p1680
asbag57
(g78
g59
NtRp1681
(dp1682
g62
(dp1683
g89
g90
ssg71
g1672
sg64
(lp1684
S':'
asbag57
(g78
g59
NtRp1685
(dp1686
g62
(dp1687
sg71
g1672
sg64
(lp1688
g57
(g58
g59
NtRp1689
(dp1690
g62
(dp1691
g70
I4
ssg71
g1685
sg64
(lp1692
g203
asbasbasbag57
(g73
g59
NtRp1693
(dp1694
g62
(dp1695
sg71
g1205
sg64
(lp1696
g57
(g78
g59
NtRp1697
(dp1698
g62
(dp1699
g82
g83
ssg71
g1693
sg64
(lp1700
S'remote_port'
p1701
asbag57
(g78
g59
NtRp1702
(dp1703
g62
(dp1704
g89
g90
ssg71
g1693
sg64
(lp1705
S':'
asbag57
(g78
g59
NtRp1706
(dp1707
g62
(dp1708
sg71
g1693
sg64
(lp1709
g57
(g58
g59
NtRp1710
(dp1711
g62
(dp1712
g70
I4
ssg71
g1706
sg64
(lp1713
S'52417'
p1714
asbasbasbag57
(g73
g59
NtRp1715
(dp1716
g62
(dp1717
sg71
g1205
sg64
(lp1718
g57
(g78
g59
NtRp1719
(dp1720
g62
(dp1721
g82
g83
ssg71
g1715
sg64
(lp1722
S'request_method'
p1723
asbag57
(g78
g59
NtRp1724
(dp1725
g62
(dp1726
g89
g90
ssg71
g1715
sg64
(lp1727
S':'
asbag57
(g78
g59
NtRp1728
(dp1729
g62
(dp1730
sg71
g1715
sg64
(lp1731
g57
(g58
g59
NtRp1732
(dp1733
g62
(dp1734
g70
I4
ssg71
g1728
sg64
(lp1735
S'GET'
p1736
asbasbasbag57
(g73
g59
NtRp1737
(dp1738
g62
(dp1739
sg71
g1205
sg64
(lp1740
g57
(g78
g59
NtRp1741
(dp1742
g62
(dp1743
g82
g83
ssg71
g1737
sg64
(lp1744
S'script_name'
p1745
asbag57
(g78
g59
NtRp1746
(dp1747
g62
(dp1748
g89
g90
ssg71
g1737
sg64
(lp1749
S':'
asbag57
(g78
g59
NtRp1750
(dp1751
g62
(dp1752
sg71
g1737
sg64
(lp1753
g57
(g58
g59
NtRp1754
(dp1755
g62
(dp1756
g70
I4
ssg71
g1750
sg64
(lp1757
S''
asbasbasbag57
(g73
g59
NtRp1758
(dp1759
g62
(dp1760
sg71
g1205
sg64
(lp1761
g57
(g78
g59
NtRp1762
(dp1763
g62
(dp1764
g82
g83
ssg71
g1758
sg64
(lp1765
S'server_name'
p1766
asbag57
(g78
g59
NtRp1767
(dp1768
g62
(dp1769
g89
g90
ssg71
g1758
sg64
(lp1770
S':'
asbag57
(g78
g59
NtRp1771
(dp1772
g62
(dp1773
sg71
g1758
sg64
(lp1774
g57
(g58
g59
NtRp1775
(dp1776
g62
(dp1777
g70
I4
ssg71
g1771
sg64
(lp1778
S'ubuntu'
p1779
asbasbasbag57
(g73
g59
NtRp1780
(dp1781
g62
(dp1782
sg71
g1205
sg64
(lp1783
g57
(g78
g59
NtRp1784
(dp1785
g62
(dp1786
g82
g83
ssg71
g1780
sg64
(lp1787
S'server_port'
p1788
asbag57
(g78
g59
NtRp1789
(dp1790
g62
(dp1791
g89
g90
ssg71
g1780
sg64
(lp1792
S':'
asbag57
(g78
g59
NtRp1793
(dp1794
g62
(dp1795
sg71
g1780
sg64
(lp1796
g57
(g58
g59
NtRp1797
(dp1798
g62
(dp1799
g70
I4
ssg71
g1793
sg64
(lp1800
S'8000'
p1801
asbasbasbag57
(g73
g59
NtRp1802
(dp1803
g62
(dp1804
sg71
g1205
sg64
(lp1805
g57
(g78
g59
NtRp1806
(dp1807
g62
(dp1808
g82
g83
ssg71
g1802
sg64
(lp1809
S'server_protocol'
p1810
asbag57
(g78
g59
NtRp1811
(dp1812
g62
(dp1813
g89
g90
ssg71
g1802
sg64
(lp1814
S':'
asbag57
(g78
g59
NtRp1815
(dp1816
g62
(dp1817
sg71
g1802
sg64
(lp1818
g57
(g58
g59
NtRp1819
(dp1820
g62
(dp1821
g70
I4
ssg71
g1815
sg64
(lp1822
S'HTTP/1.1'
p1823
asbasbasbag57
(g73
g59
NtRp1824
(dp1825
g62
(dp1826
sg71
g1205
sg64
(lp1827
g57
(g78
g59
NtRp1828
(dp1829
g62
(dp1830
g82
g83
ssg71
g1824
sg64
(lp1831
S'server_software'
p1832
asbag57
(g78
g59
NtRp1833
(dp1834
g62
(dp1835
g89
g90
ssg71
g1824
sg64
(lp1836
S':'
asbag57
(g78
g59
NtRp1837
(dp1838
g62
(dp1839
sg71
g1824
sg64
(lp1840
g57
(g58
g59
NtRp1841
(dp1842
g62
(dp1843
g70
I4
ssg71
g1837
sg64
(lp1844
S'Rocket 1.2.4'
p1845
asbasbasbag57
(g73
g59
NtRp1846
(dp1847
g62
(dp1848
sg71
g1205
sg64
(lp1849
g57
(g78
g59
NtRp1850
(dp1851
g62
(dp1852
g82
g83
ssg71
g1846
sg64
(lp1853
S'web2py_crontype'
p1854
asbag57
(g78
g59
NtRp1855
(dp1856
g62
(dp1857
g89
g90
ssg71
g1846
sg64
(lp1858
S':'
asbag57
(g78
g59
NtRp1859
(dp1860
g62
(dp1861
sg71
g1846
sg64
(lp1862
g57
(g58
g59
NtRp1863
(dp1864
g62
(dp1865
g70
I4
ssg71
g1859
sg64
(lp1866
S'hard'
p1867
asbasbasbag57
(g73
g59
NtRp1868
(dp1869
g62
(dp1870
sg71
g1205
sg64
(lp1871
g57
(g78
g59
NtRp1872
(dp1873
g62
(dp1874
g82
g83
ssg71
g1868
sg64
(lp1875
S'web2py_path'
p1876
asbag57
(g78
g59
NtRp1877
(dp1878
g62
(dp1879
g89
g90
ssg71
g1868
sg64
(lp1880
S':'
asbag57
(g78
g59
NtRp1881
(dp1882
g62
(dp1883
sg71
g1868
sg64
(lp1884
g57
(g58
g59
NtRp1885
(dp1886
g62
(dp1887
g70
I4
ssg71
g1881
sg64
(lp1888
g1252
asbasbasbag57
(g73
g59
NtRp1889
(dp1890
g62
(dp1891
sg71
g1205
sg64
(lp1892
g57
(g78
g59
NtRp1893
(dp1894
g62
(dp1895
g82
g83
ssg71
g1889
sg64
(lp1896
S'web2py_version'
p1897
asbag57
(g78
g59
NtRp1898
(dp1899
g62
(dp1900
g89
g90
ssg71
g1889
sg64
(lp1901
S':'
asbag57
(g78
g59
NtRp1902
(dp1903
g62
(dp1904
sg71
g1889
sg64
(lp1905
g57
(g58
g59
NtRp1906
(dp1907
g62
(dp1908
g70
I4
ssg71
g1902
sg64
(lp1909
g57
(g66
g59
NtRp1910
(dp1911
g62
(dp1912
g70
I3
ssg71
Nsg64
(lp1913
g57
(g73
g59
NtRp1914
(dp1915
g62
(dp1916
sg71
g1910
sg64
(lp1917
g57
(g78
g59
NtRp1918
(dp1919
g62
(dp1920
sg71
g1914
sg64
(lp1921
g57
(g58
g59
NtRp1922
(dp1923
g62
(dp1924
g70
I3
ssg71
g1918
sg64
(lp1925
S'1'
asbasbasbag57
(g73
g59
NtRp1926
(dp1927
g62
(dp1928
sg71
g1910
sg64
(lp1929
g57
(g78
g59
NtRp1930
(dp1931
g62
(dp1932
sg71
g1926
sg64
(lp1933
g57
(g58
g59
NtRp1934
(dp1935
g62
(dp1936
g70
I3
ssg71
g1930
sg64
(lp1937
S'99'
p1938
asbasbasbag57
(g73
g59
NtRp1939
(dp1940
g62
(dp1941
sg71
g1910
sg64
(lp1942
g57
(g78
g59
NtRp1943
(dp1944
g62
(dp1945
sg71
g1939
sg64
(lp1946
g57
(g58
g59
NtRp1947
(dp1948
g62
(dp1949
g70
I3
ssg71
g1943
sg64
(lp1950
S'4'
asbasbasbag57
(g73
g59
NtRp1951
(dp1952
g62
(dp1953
sg71
g1910
sg64
(lp1954
g57
(g78
g59
NtRp1955
(dp1956
g62
(dp1957
sg71
g1951
sg64
(lp1958
g57
(g58
g59
NtRp1959
(dp1960
g62
(dp1961
g70
I3
ssg71
g1955
sg64
(lp1962
S'datetime.datetime(2011, 12, 14, 14, 46, 14)'
p1963
asbasbasbag57
(g73
g59
NtRp1964
(dp1965
g62
(dp1966
sg71
g1910
sg64
(lp1967
g57
(g78
g59
NtRp1968
(dp1969
g62
(dp1970
sg71
g1964
sg64
(lp1971
g57
(g58
g59
NtRp1972
(dp1973
g62
(dp1974
g70
I3
ssg71
g1968
sg64
(lp1975
S'stable'
p1976
asbasbasbasbasbasbasbag57
(g73
g59
NtRp1977
(dp1978
g62
(dp1979
sg71
g1205
sg64
(lp1980
g57
(g78
g59
NtRp1981
(dp1982
g62
(dp1983
g82
g83
ssg71
g1977
sg64
(lp1984
S'wsgi_errors'
p1985
asbag57
(g78
g59
NtRp1986
(dp1987
g62
(dp1988
g89
g90
ssg71
g1977
sg64
(lp1989
S':'
asbag57
(g78
g59
NtRp1990
(dp1991
g62
(dp1992
sg71
g1977
sg64
(lp1993
g57
(g58
g59
NtRp1994
(dp1995
g62
(dp1996
g70
I4
ssg71
g1990
sg64
(lp1997
S"<open file '<stderr>', mode 'w' at 0xb76f00d0>"
p1998
asbasbasbag57
(g73
g59
NtRp1999
(dp2000
g62
(dp2001
sg71
g1205
sg64
(lp2002
g57
(g78
g59
NtRp2003
(dp2004
g62
(dp2005
g82
g83
ssg71
g1999
sg64
(lp2006
S'wsgi_file_wrapper'
p2007
asbag57
(g78
g59
NtRp2008
(dp2009
g62
(dp2010
g89
g90
ssg71
g1999
sg64
(lp2011
S':'
asbag57
(g78
g59
NtRp2012
(dp2013
g62
(dp2014
sg71
g1999
sg64
(lp2015
g57
(g58
g59
NtRp2016
(dp2017
g62
(dp2018
g70
I4
ssg71
g2012
sg64
(lp2019
S'<class wsgiref.util.FileWrapper at 0x906620c>'
p2020
asbasbasbag57
(g73
g59
NtRp2021
(dp2022
g62
(dp2023
sg71
g1205
sg64
(lp2024
g57
(g78
g59
NtRp2025
(dp2026
g62
(dp2027
g82
g83
ssg71
g2021
sg64
(lp2028
S'wsgi_input'
p2029
asbag57
(g78
g59
NtRp2030
(dp2031
g62
(dp2032
g89
g90
ssg71
g2021
sg64
(lp2033
S':'
asbag57
(g78
g59
NtRp2034
(dp2035
g62
(dp2036
sg71
g2021
sg64
(lp2037
g57
(g58
g59
NtRp2038
(dp2039
g62
(dp2040
g70
I4
ssg71
g2034
sg64
(lp2041
S'<socket._fileobject object at 0xb65fe6c>'
p2042
asbasbasbag57
(g73
g59
NtRp2043
(dp2044
g62
(dp2045
sg71
g1205
sg64
(lp2046
g57
(g78
g59
NtRp2047
(dp2048
g62
(dp2049
g82
g83
ssg71
g2043
sg64
(lp2050
S'wsgi_multiprocess'
p2051
asbag57
(g78
g59
NtRp2052
(dp2053
g62
(dp2054
g89
g90
ssg71
g2043
sg64
(lp2055
S':'
asbag57
(g78
g59
NtRp2056
(dp2057
g62
(dp2058
sg71
g2043
sg64
(lp2059
g57
(g58
g59
NtRp2060
(dp2061
g62
(dp2062
g70
I4
ssg71
g2056
sg64
(lp2063
g1343
asbasbasbag57
(g73
g59
NtRp2064
(dp2065
g62
(dp2066
sg71
g1205
sg64
(lp2067
g57
(g78
g59
NtRp2068
(dp2069
g62
(dp2070
g82
g83
ssg71
g2064
sg64
(lp2071
S'wsgi_multithread'
p2072
asbag57
(g78
g59
NtRp2073
(dp2074
g62
(dp2075
g89
g90
ssg71
g2064
sg64
(lp2076
S':'
asbag57
(g78
g59
NtRp2077
(dp2078
g62
(dp2079
sg71
g2064
sg64
(lp2080
g57
(g58
g59
NtRp2081
(dp2082
g62
(dp2083
g70
I4
ssg71
g2077
sg64
(lp2084
g100
asbasbasbag57
(g73
g59
NtRp2085
(dp2086
g62
(dp2087
sg71
g1205
sg64
(lp2088
g57
(g78
g59
NtRp2089
(dp2090
g62
(dp2091
g82
g83
ssg71
g2085
sg64
(lp2092
S'wsgi_run_once'
p2093
asbag57
(g78
g59
NtRp2094
(dp2095
g62
(dp2096
g89
g90
ssg71
g2085
sg64
(lp2097
S':'
asbag57
(g78
g59
NtRp2098
(dp2099
g62
(dp2100
sg71
g2085
sg64
(lp2101
g57
(g58
g59
NtRp2102
(dp2103
g62
(dp2104
g70
I4
ssg71
g2098
sg64
(lp2105
g1343
asbasbasbag57
(g73
g59
NtRp2106
(dp2107
g62
(dp2108
sg71
g1205
sg64
(lp2109
g57
(g78
g59
NtRp2110
(dp2111
g62
(dp2112
g82
g83
ssg71
g2106
sg64
(lp2113
S'wsgi_url_scheme'
p2114
asbag57
(g78
g59
NtRp2115
(dp2116
g62
(dp2117
g89
g90
ssg71
g2106
sg64
(lp2118
S':'
asbag57
(g78
g59
NtRp2119
(dp2120
g62
(dp2121
sg71
g2106
sg64
(lp2122
g57
(g58
g59
NtRp2123
(dp2124
g62
(dp2125
g70
I4
ssg71
g2119
sg64
(lp2126
S'http'
p2127
asbasbasbag57
(g73
g59
NtRp2128
(dp2129
g62
(dp2130
sg71
g1205
sg64
(lp2131
g57
(g78
g59
NtRp2132
(dp2133
g62
(dp2134
g82
g83
ssg71
g2128
sg64
(lp2135
S'wsgi_version'
p2136
asbag57
(g78
g59
NtRp2137
(dp2138
g62
(dp2139
g89
g90
ssg71
g2128
sg64
(lp2140
S':'
asbag57
(g78
g59
NtRp2141
(dp2142
g62
(dp2143
sg71
g2128
sg64
(lp2144
g57
(g58
g59
NtRp2145
(dp2146
g62
(dp2147
g70
I4
ssg71
g2141
sg64
(lp2148
g57
(g66
g59
NtRp2149
(dp2150
g62
(dp2151
g70
I3
ssg71
Nsg64
(lp2152
g57
(g73
g59
NtRp2153
(dp2154
g62
(dp2155
sg71
g2149
sg64
(lp2156
g57
(g78
g59
NtRp2157
(dp2158
g62
(dp2159
sg71
g2153
sg64
(lp2160
g57
(g58
g59
NtRp2161
(dp2162
g62
(dp2163
g70
I3
ssg71
g2157
sg64
(lp2164
S'1'
asbasbasbag57
(g73
g59
NtRp2165
(dp2166
g62
(dp2167
sg71
g2149
sg64
(lp2168
g57
(g78
g59
NtRp2169
(dp2170
g62
(dp2171
sg71
g2165
sg64
(lp2172
g57
(g58
g59
NtRp2173
(dp2174
g62
(dp2175
g70
I3
ssg71
g2169
sg64
(lp2176
S'0'
asbasbasbasbasbasbasbasbasbasbasbag57
(g73
g59
NtRp2177
(dp2178
g62
(dp2179
sg71
g67
sg64
(lp2180
g57
(g78
g59
NtRp2181
(dp2182
g62
(dp2183
g82
g83
ssg71
g2177
sg64
(lp2184
S'extension'
p2185
asbag57
(g78
g59
NtRp2186
(dp2187
g62
(dp2188
g89
g90
ssg71
g2177
sg64
(lp2189
S':'
asbag57
(g78
g59
NtRp2190
(dp2191
g62
(dp2192
sg71
g2177
sg64
(lp2193
g57
(g58
g59
NtRp2194
(dp2195
g62
(dp2196
g70
I5
ssg71
g2190
sg64
(lp2197
S'load'
p2198
asbasbasbag57
(g73
g59
NtRp2199
(dp2200
g62
(dp2201
sg71
g67
sg64
(lp2202
g57
(g78
g59
NtRp2203
(dp2204
g62
(dp2205
g82
g83
ssg71
g2199
sg64
(lp2206
S'folder'
p2207
asbag57
(g78
g59
NtRp2208
(dp2209
g62
(dp2210
g89
g90
ssg71
g2199
sg64
(lp2211
S':'
asbag57
(g78
g59
NtRp2212
(dp2213
g62
(dp2214
sg71
g2199
sg64
(lp2215
g57
(g58
g59
NtRp2216
(dp2217
g62
(dp2218
g70
I5
ssg71
g2212
sg64
(lp2219
S'/home/iscott/web/web2py/applications/grammateus3/'
p2220
asbasbasbag57
(g73
g59
NtRp2221
(dp2222
g62
(dp2223
sg71
g67
sg64
(lp2224
g57
(g78
g59
NtRp2225
(dp2226
g62
(dp2227
g82
g83
ssg71
g2221
sg64
(lp2228
S'function'
p2229
asbag57
(g78
g59
NtRp2230
(dp2231
g62
(dp2232
g89
g90
ssg71
g2221
sg64
(lp2233
S':'
asbag57
(g78
g59
NtRp2234
(dp2235
g62
(dp2236
sg71
g2221
sg64
(lp2237
g57
(g58
g59
NtRp2238
(dp2239
g62
(dp2240
g70
I5
ssg71
g2234
sg64
(lp2241
S'section'
p2242
asbasbasbag57
(g73
g59
NtRp2243
(dp2244
g62
(dp2245
sg71
g67
sg64
(lp2246
g57
(g78
g59
NtRp2247
(dp2248
g62
(dp2249
g82
g83
ssg71
g2243
sg64
(lp2250
S'get_vars'
p2251
asbag57
(g78
g59
NtRp2252
(dp2253
g62
(dp2254
g89
g90
ssg71
g2243
sg64
(lp2255
S':'
asbag57
(g78
g59
NtRp2256
(dp2257
g62
(dp2258
sg71
g2243
sg64
(lp2259
g57
(g58
g59
NtRp2260
(dp2261
g62
(dp2262
g70
I5
ssg71
g2256
sg64
(lp2263
g57
(g66
g59
NtRp2264
(dp2265
g62
(dp2266
g70
I4
ssg71
Nsg64
(lp2267
g57
(g73
g59
NtRp2268
(dp2269
g62
(dp2270
sg71
g2264
sg64
(lp2271
g57
(g78
g59
NtRp2272
(dp2273
g62
(dp2274
g82
g83
ssg71
g2268
sg64
(lp2275
S'type'
p2276
asbag57
(g78
g59
NtRp2277
(dp2278
g62
(dp2279
g89
g90
ssg71
g2268
sg64
(lp2280
S':'
asbag57
(g78
g59
NtRp2281
(dp2282
g62
(dp2283
sg71
g2268
sg64
(lp2284
g57
(g58
g59
NtRp2285
(dp2286
g62
(dp2287
g70
I4
ssg71
g2281
sg64
(lp2288
S'Bertalotto'
p2289
asbasbasbag57
(g73
g59
NtRp2290
(dp2291
g62
(dp2292
sg71
g2264
sg64
(lp2293
g57
(g78
g59
NtRp2294
(dp2295
g62
(dp2296
g82
g83
ssg71
g2290
sg64
(lp2297
S'version'
p2298
asbag57
(g78
g59
NtRp2299
(dp2300
g62
(dp2301
g89
g90
ssg71
g2290
sg64
(lp2302
S':'
asbag57
(g78
g59
NtRp2303
(dp2304
g62
(dp2305
sg71
g2290
sg64
(lp2306
g57
(g58
g59
NtRp2307
(dp2308
g62
(dp2309
g70
I4
ssg71
g2303
sg64
(lp2310
S'undefined'
p2311
asbasbasbasbasbasbasbag57
(g73
g59
NtRp2312
(dp2313
g62
(dp2314
sg71
g67
sg64
(lp2315
g57
(g78
g59
NtRp2316
(dp2317
g62
(dp2318
g82
g83
ssg71
g2312
sg64
(lp2319
S'global_settings'
p2320
asbag57
(g78
g59
NtRp2321
(dp2322
g62
(dp2323
g89
g90
ssg71
g2312
sg64
(lp2324
S':'
asbag57
(g78
g59
NtRp2325
(dp2326
g62
(dp2327
sg71
g2312
sg64
(lp2328
g57
(g58
g59
NtRp2329
(dp2330
g62
(dp2331
g70
I5
ssg71
g2325
sg64
(lp2332
g57
(g66
g59
NtRp2333
(dp2334
g62
(dp2335
g70
I4
ssg71
Nsg64
(lp2336
g57
(g73
g59
NtRp2337
(dp2338
g62
(dp2339
sg71
g2333
sg64
(lp2340
g57
(g78
g59
NtRp2341
(dp2342
g62
(dp2343
g82
g83
ssg71
g2337
sg64
(lp2344
g1217
asbag57
(g78
g59
NtRp2345
(dp2346
g62
(dp2347
g89
g90
ssg71
g2337
sg64
(lp2348
S':'
asbag57
(g78
g59
NtRp2349
(dp2350
g62
(dp2351
sg71
g2337
sg64
(lp2352
g57
(g58
g59
NtRp2353
(dp2354
g62
(dp2355
g70
I4
ssg71
g2349
sg64
(lp2356
S"set(['/home/iscott/web/web2py/applications/grammateus3/', '/home/iscott/web/web2py/applications/admin/', '/home/iscott/web/web2py/applications/welcome/'])"
p2357
asbasbasbag57
(g73
g59
NtRp2358
(dp2359
g62
(dp2360
sg71
g2333
sg64
(lp2361
g57
(g78
g59
NtRp2362
(dp2363
g62
(dp2364
g82
g83
ssg71
g2358
sg64
(lp2365
g1239
asbag57
(g78
g59
NtRp2366
(dp2367
g62
(dp2368
g89
g90
ssg71
g2358
sg64
(lp2369
S':'
asbag57
(g78
g59
NtRp2370
(dp2371
g62
(dp2372
sg71
g2358
sg64
(lp2373
g57
(g58
g59
NtRp2374
(dp2375
g62
(dp2376
g70
I4
ssg71
g2370
sg64
(lp2377
g1252
asbasbasbag57
(g73
g59
NtRp2378
(dp2379
g62
(dp2380
sg71
g2333
sg64
(lp2381
g57
(g78
g59
NtRp2382
(dp2383
g62
(dp2384
g82
g83
ssg71
g2378
sg64
(lp2385
g1261
asbag57
(g78
g59
NtRp2386
(dp2387
g62
(dp2388
g89
g90
ssg71
g2378
sg64
(lp2389
S':'
asbag57
(g78
g59
NtRp2390
(dp2391
g62
(dp2392
sg71
g2378
sg64
(lp2393
g57
(g58
g59
NtRp2394
(dp2395
g62
(dp2396
g70
I4
ssg71
g2390
sg64
(lp2397
g57
(g66
g59
NtRp2398
(dp2399
g62
(dp2400
g70
I3
ssg71
Nsg64
(lp2401
sbasbasbasbag57
(g73
g59
NtRp2402
(dp2403
g62
(dp2404
sg71
g2333
sg64
(lp2405
g57
(g78
g59
NtRp2406
(dp2407
g62
(dp2408
g82
g83
ssg71
g2402
sg64
(lp2409
g1286
asbag57
(g78
g59
NtRp2410
(dp2411
g62
(dp2412
g89
g90
ssg71
g2402
sg64
(lp2413
S':'
asbag57
(g78
g59
NtRp2414
(dp2415
g62
(dp2416
sg71
g2402
sg64
(lp2417
g57
(g58
g59
NtRp2418
(dp2419
g62
(dp2420
g70
I4
ssg71
g2414
sg64
(lp2421
S"<Values at 0x911db8c: {'verbose': False, 'ip': '127.0.0.1', 'shutdown_timeout': 5, 'taskbar': False, 'nocron': False, 'pid_filename': 'httpserver.pid', 'maxthreads': None, 'softcron': False, 'server_name': 'ubuntu', 'bpython': False, 'nogui': False, 'port': 8000, 'extcron': False, 'debuglevel': 30, 'test': None, 'folder': '/home/iscott/web/web2py', 'config': '', 'import_models': False, 'winservice': '', 'shell': None, 'run': '', 'log_filename': 'httpserver.log', 'args': [''], 'socket_timeout': 1, 'ssl_ca_certificate': None, 'scheduler': None, 'profiler_filename': None, 'ssl_private_key': '', 'password': '<ask>', 'request_queue_size': 5, 'ssl_certificate': '', 'cronjob': False, 'numthreads': None, 'quiet': False, 'interfaces': None, 'minthreads': None, 'timeout': 10, 'plain': False, 'nobanner': False}>"
p2422
asbasbasbag57
(g73
g59
NtRp2423
(dp2424
g62
(dp2425
sg71
g2333
sg64
(lp2426
g57
(g78
g59
NtRp2427
(dp2428
g62
(dp2429
g82
g83
ssg71
g2423
sg64
(lp2430
g1308
asbag57
(g78
g59
NtRp2431
(dp2432
g62
(dp2433
g89
g90
ssg71
g2423
sg64
(lp2434
S':'
asbag57
(g78
g59
NtRp2435
(dp2436
g62
(dp2437
sg71
g2423
sg64
(lp2438
g57
(g58
g59
NtRp2439
(dp2440
g62
(dp2441
g70
I4
ssg71
g2435
sg64
(lp2442
S'set([])'
p2443
asbasbasbag57
(g73
g59
NtRp2444
(dp2445
g62
(dp2446
sg71
g2333
sg64
(lp2447
g57
(g78
g59
NtRp2448
(dp2449
g62
(dp2450
g82
g83
ssg71
g2444
sg64
(lp2451
g1330
asbag57
(g78
g59
NtRp2452
(dp2453
g62
(dp2454
g89
g90
ssg71
g2444
sg64
(lp2455
S':'
asbag57
(g78
g59
NtRp2456
(dp2457
g62
(dp2458
sg71
g2444
sg64
(lp2459
g57
(g58
g59
NtRp2460
(dp2461
g62
(dp2462
g70
I4
ssg71
g2456
sg64
(lp2463
g1343
asbasbasbag57
(g73
g59
NtRp2464
(dp2465
g62
(dp2466
sg71
g2333
sg64
(lp2467
g57
(g78
g59
NtRp2468
(dp2469
g62
(dp2470
g82
g83
ssg71
g2464
sg64
(lp2471
g1352
asbag57
(g78
g59
NtRp2472
(dp2473
g62
(dp2474
g89
g90
ssg71
g2464
sg64
(lp2475
S':'
asbag57
(g78
g59
NtRp2476
(dp2477
g62
(dp2478
sg71
g2464
sg64
(lp2479
g57
(g58
g59
NtRp2480
(dp2481
g62
(dp2482
g70
I4
ssg71
g2476
sg64
(lp2483
g1365
asbasbasbag57
(g73
g59
NtRp2484
(dp2485
g62
(dp2486
sg71
g2333
sg64
(lp2487
g57
(g78
g59
NtRp2488
(dp2489
g62
(dp2490
g82
g83
ssg71
g2484
sg64
(lp2491
g1594
asbag57
(g78
g59
NtRp2492
(dp2493
g62
(dp2494
g89
g90
ssg71
g2484
sg64
(lp2495
S':'
asbag57
(g78
g59
NtRp2496
(dp2497
g62
(dp2498
sg71
g2484
sg64
(lp2499
g57
(g58
g59
NtRp2500
(dp2501
g62
(dp2502
g70
I4
ssg71
g2496
sg64
(lp2503
g1343
asbasbasbag57
(g73
g59
NtRp2504
(dp2505
g62
(dp2506
sg71
g2333
sg64
(lp2507
g57
(g78
g59
NtRp2508
(dp2509
g62
(dp2510
g82
g83
ssg71
g2504
sg64
(lp2511
g1615
asbag57
(g78
g59
NtRp2512
(dp2513
g62
(dp2514
g89
g90
ssg71
g2504
sg64
(lp2515
S':'
asbag57
(g78
g59
NtRp2516
(dp2517
g62
(dp2518
sg71
g2504
sg64
(lp2519
g57
(g58
g59
NtRp2520
(dp2521
g62
(dp2522
g70
I4
ssg71
g2516
sg64
(lp2523
g1343
asbasbasbag57
(g73
g59
NtRp2524
(dp2525
g62
(dp2526
sg71
g2333
sg64
(lp2527
g57
(g78
g59
NtRp2528
(dp2529
g62
(dp2530
g82
g83
ssg71
g2524
sg64
(lp2531
g1854
asbag57
(g78
g59
NtRp2532
(dp2533
g62
(dp2534
g89
g90
ssg71
g2524
sg64
(lp2535
S':'
asbag57
(g78
g59
NtRp2536
(dp2537
g62
(dp2538
sg71
g2524
sg64
(lp2539
g57
(g58
g59
NtRp2540
(dp2541
g62
(dp2542
g70
I4
ssg71
g2536
sg64
(lp2543
g1867
asbasbasbag57
(g73
g59
NtRp2544
(dp2545
g62
(dp2546
sg71
g2333
sg64
(lp2547
g57
(g78
g59
NtRp2548
(dp2549
g62
(dp2550
g82
g83
ssg71
g2544
sg64
(lp2551
g1897
asbag57
(g78
g59
NtRp2552
(dp2553
g62
(dp2554
g89
g90
ssg71
g2544
sg64
(lp2555
S':'
asbag57
(g78
g59
NtRp2556
(dp2557
g62
(dp2558
sg71
g2544
sg64
(lp2559
g57
(g58
g59
NtRp2560
(dp2561
g62
(dp2562
g70
I4
ssg71
g2556
sg64
(lp2563
g57
(g66
g59
NtRp2564
(dp2565
g62
(dp2566
g70
I3
ssg71
Nsg64
(lp2567
g57
(g73
g59
NtRp2568
(dp2569
g62
(dp2570
sg71
g2564
sg64
(lp2571
g57
(g78
g59
NtRp2572
(dp2573
g62
(dp2574
sg71
g2568
sg64
(lp2575
g57
(g58
g59
NtRp2576
(dp2577
g62
(dp2578
g70
I3
ssg71
g2572
sg64
(lp2579
S'1'
asbasbasbag57
(g73
g59
NtRp2580
(dp2581
g62
(dp2582
sg71
g2564
sg64
(lp2583
g57
(g78
g59
NtRp2584
(dp2585
g62
(dp2586
sg71
g2580
sg64
(lp2587
g57
(g58
g59
NtRp2588
(dp2589
g62
(dp2590
g70
I3
ssg71
g2584
sg64
(lp2591
S'99'
p2592
asbasbasbag57
(g73
g59
NtRp2593
(dp2594
g62
(dp2595
sg71
g2564
sg64
(lp2596
g57
(g78
g59
NtRp2597
(dp2598
g62
(dp2599
sg71
g2593
sg64
(lp2600
g57
(g58
g59
NtRp2601
(dp2602
g62
(dp2603
g70
I3
ssg71
g2597
sg64
(lp2604
S'4'
asbasbasbag57
(g73
g59
NtRp2605
(dp2606
g62
(dp2607
sg71
g2564
sg64
(lp2608
g57
(g78
g59
NtRp2609
(dp2610
g62
(dp2611
sg71
g2605
sg64
(lp2612
g57
(g58
g59
NtRp2613
(dp2614
g62
(dp2615
g70
I3
ssg71
g2609
sg64
(lp2616
S'datetime.datetime(2011, 12, 14, 14, 46, 14)'
p2617
asbasbasbag57
(g73
g59
NtRp2618
(dp2619
g62
(dp2620
sg71
g2564
sg64
(lp2621
g57
(g78
g59
NtRp2622
(dp2623
g62
(dp2624
sg71
g2618
sg64
(lp2625
g57
(g58
g59
NtRp2626
(dp2627
g62
(dp2628
g70
I3
ssg71
g2622
sg64
(lp2629
g1976
asbasbasbasbasbasbasbasbasbasbasbag57
(g73
g59
NtRp2630
(dp2631
g62
(dp2632
sg71
g67
sg64
(lp2633
g57
(g78
g59
NtRp2634
(dp2635
g62
(dp2636
g82
g83
ssg71
g2630
sg64
(lp2637
S'is_https'
p2638
asbag57
(g78
g59
NtRp2639
(dp2640
g62
(dp2641
g89
g90
ssg71
g2630
sg64
(lp2642
S':'
asbag57
(g78
g59
NtRp2643
(dp2644
g62
(dp2645
sg71
g2630
sg64
(lp2646
g57
(g58
g59
NtRp2647
(dp2648
g62
(dp2649
g70
I5
ssg71
g2643
sg64
(lp2650
g1343
asbasbasbag57
(g73
g59
NtRp2651
(dp2652
g62
(dp2653
sg71
g67
sg64
(lp2654
g57
(g78
g59
NtRp2655
(dp2656
g62
(dp2657
g82
g83
ssg71
g2651
sg64
(lp2658
S'is_local'
p2659
asbag57
(g78
g59
NtRp2660
(dp2661
g62
(dp2662
g89
g90
ssg71
g2651
sg64
(lp2663
S':'
asbag57
(g78
g59
NtRp2664
(dp2665
g62
(dp2666
sg71
g2651
sg64
(lp2667
g57
(g58
g59
NtRp2668
(dp2669
g62
(dp2670
g70
I5
ssg71
g2664
sg64
(lp2671
g100
asbasbasbag57
(g73
g59
NtRp2672
(dp2673
g62
(dp2674
sg71
g67
sg64
(lp2675
g57
(g78
g59
NtRp2676
(dp2677
g62
(dp2678
g82
g83
ssg71
g2672
sg64
(lp2679
S'is_restful'
p2680
asbag57
(g78
g59
NtRp2681
(dp2682
g62
(dp2683
g89
g90
ssg71
g2672
sg64
(lp2684
S':'
asbag57
(g78
g59
NtRp2685
(dp2686
g62
(dp2687
sg71
g2672
sg64
(lp2688
g57
(g58
g59
NtRp2689
(dp2690
g62
(dp2691
g70
I5
ssg71
g2685
sg64
(lp2692
g1343
asbasbasbag57
(g73
g59
NtRp2693
(dp2694
g62
(dp2695
sg71
g67
sg64
(lp2696
g57
(g78
g59
NtRp2697
(dp2698
g62
(dp2699
g82
g83
ssg71
g2693
sg64
(lp2700
S'now'
p2701
asbag57
(g78
g59
NtRp2702
(dp2703
g62
(dp2704
g89
g90
ssg71
g2693
sg64
(lp2705
S':'
asbag57
(g78
g59
NtRp2706
(dp2707
g62
(dp2708
sg71
g2693
sg64
(lp2709
g57
(g58
g59
NtRp2710
(dp2711
g62
(dp2712
g70
I5
ssg71
g2706
sg64
(lp2713
S'datetime.datetime(2012, 3, 7, 13, 45, 25, 13486)'
p2714
asbasbasbag57
(g73
g59
NtRp2715
(dp2716
g62
(dp2717
sg71
g67
sg64
(lp2718
g57
(g78
g59
NtRp2719
(dp2720
g62
(dp2721
g82
g83
ssg71
g2715
sg64
(lp2722
S'post_vars'
p2723
asbag57
(g78
g59
NtRp2724
(dp2725
g62
(dp2726
g89
g90
ssg71
g2715
sg64
(lp2727
S':'
asbag57
(g78
g59
NtRp2728
(dp2729
g62
(dp2730
sg71
g2715
sg64
(lp2731
g57
(g58
g59
NtRp2732
(dp2733
g62
(dp2734
g70
I5
ssg71
g2728
sg64
(lp2735
g57
(g66
g59
NtRp2736
(dp2737
g62
(dp2738
g70
I4
ssg71
Nsg64
(lp2739
sbasbasbasbag57
(g73
g59
NtRp2740
(dp2741
g62
(dp2742
sg71
g67
sg64
(lp2743
g57
(g78
g59
NtRp2744
(dp2745
g62
(dp2746
g82
g83
ssg71
g2740
sg64
(lp2747
S'raw_args'
p2748
asbag57
(g78
g59
NtRp2749
(dp2750
g62
(dp2751
g89
g90
ssg71
g2740
sg64
(lp2752
S':'
asbag57
(g78
g59
NtRp2753
(dp2754
g62
(dp2755
sg71
g2740
sg64
(lp2756
g57
(g58
g59
NtRp2757
(dp2758
g62
(dp2759
g70
I5
ssg71
g2753
sg64
(lp2760
g159
asbasbasbag57
(g73
g59
NtRp2761
(dp2762
g62
(dp2763
sg71
g67
sg64
(lp2764
g57
(g78
g59
NtRp2765
(dp2766
g62
(dp2767
g82
g83
ssg71
g2761
sg64
(lp2768
S'raw_extension'
p2769
asbag57
(g78
g59
NtRp2770
(dp2771
g62
(dp2772
g89
g90
ssg71
g2761
sg64
(lp2773
S':'
asbag57
(g78
g59
NtRp2774
(dp2775
g62
(dp2776
sg71
g2761
sg64
(lp2777
g57
(g58
g59
NtRp2778
(dp2779
g62
(dp2780
g70
I5
ssg71
g2774
sg64
(lp2781
g2198
asbasbasbag57
(g73
g59
NtRp2782
(dp2783
g62
(dp2784
sg71
g67
sg64
(lp2785
g57
(g78
g59
NtRp2786
(dp2787
g62
(dp2788
g82
g83
ssg71
g2782
sg64
(lp2789
S'url'
p2790
asbag57
(g78
g59
NtRp2791
(dp2792
g62
(dp2793
g89
g90
ssg71
g2782
sg64
(lp2794
S':'
asbag57
(g78
g59
NtRp2795
(dp2796
g62
(dp2797
sg71
g2782
sg64
(lp2798
g57
(g58
g59
NtRp2799
(dp2800
g62
(dp2801
g70
I5
ssg71
g2795
sg64
(lp2802
S'/grammateus3/docs/section.load/1En'
p2803
asbasbasbag57
(g73
g59
NtRp2804
(dp2805
g62
(dp2806
sg71
g67
sg64
(lp2807
g57
(g78
g59
NtRp2808
(dp2809
g62
(dp2810
g82
g83
ssg71
g2804
sg64
(lp2811
S'utcnow'
p2812
asbag57
(g78
g59
NtRp2813
(dp2814
g62
(dp2815
g89
g90
ssg71
g2804
sg64
(lp2816
S':'
asbag57
(g78
g59
NtRp2817
(dp2818
g62
(dp2819
sg71
g2804
sg64
(lp2820
g57
(g58
g59
NtRp2821
(dp2822
g62
(dp2823
g70
I5
ssg71
g2817
sg64
(lp2824
S'datetime.datetime(2012, 3, 7, 18, 45, 25, 13548)'
p2825
asbasbasbag57
(g73
g59
NtRp2826
(dp2827
g62
(dp2828
sg71
g67
sg64
(lp2829
g57
(g78
g59
NtRp2830
(dp2831
g62
(dp2832
g82
g83
ssg71
g2826
sg64
(lp2833
S'uuid'
p2834
asbag57
(g78
g59
NtRp2835
(dp2836
g62
(dp2837
g89
g90
ssg71
g2826
sg64
(lp2838
S':'
asbag57
(g78
g59
NtRp2839
(dp2840
g62
(dp2841
sg71
g2826
sg64
(lp2842
g57
(g58
g59
NtRp2843
(dp2844
g62
(dp2845
g70
I5
ssg71
g2839
sg64
(lp2846
S'grammateus3/127.0.0.1.2012-03-07.13-45-25.e0f6c3da-f2bb-468b-a301-d6e6c1072f24'
p2847
asbasbasbag57
(g73
g59
NtRp2848
(dp2849
g62
(dp2850
sg71
g67
sg64
(lp2851
g57
(g78
g59
NtRp2852
(dp2853
g62
(dp2854
g82
g83
ssg71
g2848
sg64
(lp2855
S'vars'
p2856
asbag57
(g78
g59
NtRp2857
(dp2858
g62
(dp2859
g89
g90
ssg71
g2848
sg64
(lp2860
S':'
asbag57
(g78
g59
NtRp2861
(dp2862
g62
(dp2863
sg71
g2848
sg64
(lp2864
g57
(g58
g59
NtRp2865
(dp2866
g62
(dp2867
g70
I5
ssg71
g2861
sg64
(lp2868
g57
(g66
g59
NtRp2869
(dp2870
g62
(dp2871
g70
I4
ssg71
Nsg64
(lp2872
g57
(g73
g59
NtRp2873
(dp2874
g62
(dp2875
sg71
g2869
sg64
(lp2876
g57
(g78
g59
NtRp2877
(dp2878
g62
(dp2879
g82
g83
ssg71
g2873
sg64
(lp2880
g2276
asbag57
(g78
g59
NtRp2881
(dp2882
g62
(dp2883
g89
g90
ssg71
g2873
sg64
(lp2884
S':'
asbag57
(g78
g59
NtRp2885
(dp2886
g62
(dp2887
sg71
g2873
sg64
(lp2888
g57
(g58
g59
NtRp2889
(dp2890
g62
(dp2891
g70
I4
ssg71
g2885
sg64
(lp2892
g2289
asbasbasbag57
(g73
g59
NtRp2893
(dp2894
g62
(dp2895
sg71
g2869
sg64
(lp2896
g57
(g78
g59
NtRp2897
(dp2898
g62
(dp2899
g82
g83
ssg71
g2893
sg64
(lp2900
g2298
asbag57
(g78
g59
NtRp2901
(dp2902
g62
(dp2903
g89
g90
ssg71
g2893
sg64
(lp2904
S':'
asbag57
(g78
g59
NtRp2905
(dp2906
g62
(dp2907
sg71
g2893
sg64
(lp2908
g57
(g58
g59
NtRp2909
(dp2910
g62
(dp2911
g70
I4
ssg71
g2905
sg64
(lp2912
g2311
asbasbasbasbasbasbasbag57
(g73
g59
NtRp2913
(dp2914
g62
(dp2915
sg71
g67
sg64
(lp2916
g57
(g78
g59
NtRp2917
(dp2918
g62
(dp2919
g82
g83
ssg71
g2913
sg64
(lp2920
S'wsgi'
p2921
asbag57
(g78
g59
NtRp2922
(dp2923
g62
(dp2924
g89
g90
ssg71
g2913
sg64
(lp2925
S':'
asbag57
(g78
g59
NtRp2926
(dp2927
g62
(dp2928
sg71
g2913
sg64
(lp2929
g57
(g58
g59
NtRp2930
(dp2931
g62
(dp2932
g70
I5
ssg71
g2926
sg64
(lp2933
g57
(g66
g59
NtRp2934
(dp2935
g62
(dp2936
g70
I4
ssg71
Nsg64
(lp2937
g57
(g73
g59
NtRp2938
(dp2939
g62
(dp2940
sg71
g2934
sg64
(lp2941
g57
(g78
g59
NtRp2942
(dp2943
g62
(dp2944
g82
g83
ssg71
g2938
sg64
(lp2945
S'environ'
p2946
asbag57
(g78
g59
NtRp2947
(dp2948
g62
(dp2949
g89
g90
ssg71
g2938
sg64
(lp2950
S':'
asbag57
(g78
g59
NtRp2951
(dp2952
g62
(dp2953
sg71
g2938
sg64
(lp2954
g57
(g58
g59
NtRp2955
(dp2956
g62
(dp2957
g70
I4
ssg71
g2951
sg64
(lp2958
g57
(g66
g59
NtRp2959
(dp2960
g62
(dp2961
g70
I3
ssg71
Nsg64
(lp2962
g57
(g73
g59
NtRp2963
(dp2964
g62
(dp2965
sg71
g2959
sg64
(lp2966
g57
(g78
g59
NtRp2967
(dp2968
g62
(dp2969
g82
g83
ssg71
g2963
sg64
(lp2970
S'HTTP_ACCEPT'
p2971
asbag57
(g78
g59
NtRp2972
(dp2973
g62
(dp2974
g89
g90
ssg71
g2963
sg64
(lp2975
S':'
asbag57
(g78
g59
NtRp2976
(dp2977
g62
(dp2978
sg71
g2963
sg64
(lp2979
g57
(g58
g59
NtRp2980
(dp2981
g62
(dp2982
g70
I3
ssg71
g2976
sg64
(lp2983
g1387
asbasbasbag57
(g73
g59
NtRp2984
(dp2985
g62
(dp2986
sg71
g2959
sg64
(lp2987
g57
(g78
g59
NtRp2988
(dp2989
g62
(dp2990
g82
g83
ssg71
g2984
sg64
(lp2991
S'HTTP_ACCEPT_ENCODING'
p2992
asbag57
(g78
g59
NtRp2993
(dp2994
g62
(dp2995
g89
g90
ssg71
g2984
sg64
(lp2996
S':'
asbag57
(g78
g59
NtRp2997
(dp2998
g62
(dp2999
sg71
g2984
sg64
(lp3000
g57
(g58
g59
NtRp3001
(dp3002
g62
(dp3003
g70
I3
ssg71
g2997
sg64
(lp3004
g1409
asbasbasbag57
(g73
g59
NtRp3005
(dp3006
g62
(dp3007
sg71
g2959
sg64
(lp3008
g57
(g78
g59
NtRp3009
(dp3010
g62
(dp3011
g82
g83
ssg71
g3005
sg64
(lp3012
S'HTTP_ACCEPT_LANGUAGE'
p3013
asbag57
(g78
g59
NtRp3014
(dp3015
g62
(dp3016
g89
g90
ssg71
g3005
sg64
(lp3017
S':'
asbag57
(g78
g59
NtRp3018
(dp3019
g62
(dp3020
sg71
g3005
sg64
(lp3021
g57
(g58
g59
NtRp3022
(dp3023
g62
(dp3024
g70
I3
ssg71
g3018
sg64
(lp3025
g1431
asbasbasbag57
(g73
g59
NtRp3026
(dp3027
g62
(dp3028
sg71
g2959
sg64
(lp3029
g57
(g78
g59
NtRp3030
(dp3031
g62
(dp3032
g82
g83
ssg71
g3026
sg64
(lp3033
S'HTTP_CONNECTION'
p3034
asbag57
(g78
g59
NtRp3035
(dp3036
g62
(dp3037
g89
g90
ssg71
g3026
sg64
(lp3038
S':'
asbag57
(g78
g59
NtRp3039
(dp3040
g62
(dp3041
sg71
g3026
sg64
(lp3042
g57
(g58
g59
NtRp3043
(dp3044
g62
(dp3045
g70
I3
ssg71
g3039
sg64
(lp3046
g1453
asbasbasbag57
(g73
g59
NtRp3047
(dp3048
g62
(dp3049
sg71
g2959
sg64
(lp3050
g57
(g78
g59
NtRp3051
(dp3052
g62
(dp3053
g82
g83
ssg71
g3047
sg64
(lp3054
S'HTTP_COOKIE'
p3055
asbag57
(g78
g59
NtRp3056
(dp3057
g62
(dp3058
g89
g90
ssg71
g3047
sg64
(lp3059
S':'
asbag57
(g78
g59
NtRp3060
(dp3061
g62
(dp3062
sg71
g3047
sg64
(lp3063
g57
(g58
g59
NtRp3064
(dp3065
g62
(dp3066
g70
I3
ssg71
g3060
sg64
(lp3067
g1475
asbasbasbag57
(g73
g59
NtRp3068
(dp3069
g62
(dp3070
sg71
g2959
sg64
(lp3071
g57
(g78
g59
NtRp3072
(dp3073
g62
(dp3074
g82
g83
ssg71
g3068
sg64
(lp3075
S'HTTP_HOST'
p3076
asbag57
(g78
g59
NtRp3077
(dp3078
g62
(dp3079
g89
g90
ssg71
g3068
sg64
(lp3080
S':'
asbag57
(g78
g59
NtRp3081
(dp3082
g62
(dp3083
sg71
g3068
sg64
(lp3084
g57
(g58
g59
NtRp3085
(dp3086
g62
(dp3087
g70
I3
ssg71
g3081
sg64
(lp3088
g1497
asbasbasbag57
(g73
g59
NtRp3089
(dp3090
g62
(dp3091
sg71
g2959
sg64
(lp3092
g57
(g78
g59
NtRp3093
(dp3094
g62
(dp3095
g82
g83
ssg71
g3089
sg64
(lp3096
S'HTTP_REFERER'
p3097
asbag57
(g78
g59
NtRp3098
(dp3099
g62
(dp3100
g89
g90
ssg71
g3089
sg64
(lp3101
S':'
asbag57
(g78
g59
NtRp3102
(dp3103
g62
(dp3104
sg71
g3089
sg64
(lp3105
g57
(g58
g59
NtRp3106
(dp3107
g62
(dp3108
g70
I3
ssg71
g3102
sg64
(lp3109
g1519
asbasbasbag57
(g73
g59
NtRp3110
(dp3111
g62
(dp3112
sg71
g2959
sg64
(lp3113
g57
(g78
g59
NtRp3114
(dp3115
g62
(dp3116
g82
g83
ssg71
g3110
sg64
(lp3117
S'HTTP_USER_AGENT'
p3118
asbag57
(g78
g59
NtRp3119
(dp3120
g62
(dp3121
g89
g90
ssg71
g3110
sg64
(lp3122
S':'
asbag57
(g78
g59
NtRp3123
(dp3124
g62
(dp3125
sg71
g3110
sg64
(lp3126
g57
(g58
g59
NtRp3127
(dp3128
g62
(dp3129
g70
I3
ssg71
g3123
sg64
(lp3130
g1541
asbasbasbag57
(g73
g59
NtRp3131
(dp3132
g62
(dp3133
sg71
g2959
sg64
(lp3134
g57
(g78
g59
NtRp3135
(dp3136
g62
(dp3137
g82
g83
ssg71
g3131
sg64
(lp3138
S'HTTP_WEB2PY_COMPONENT_LOCATION'
p3139
asbag57
(g78
g59
NtRp3140
(dp3141
g62
(dp3142
g89
g90
ssg71
g3131
sg64
(lp3143
S':'
asbag57
(g78
g59
NtRp3144
(dp3145
g62
(dp3146
sg71
g3131
sg64
(lp3147
g57
(g58
g59
NtRp3148
(dp3149
g62
(dp3150
g70
I3
ssg71
g3144
sg64
(lp3151
g1563
asbasbasbag57
(g73
g59
NtRp3152
(dp3153
g62
(dp3154
sg71
g2959
sg64
(lp3155
g57
(g78
g59
NtRp3156
(dp3157
g62
(dp3158
g82
g83
ssg71
g3152
sg64
(lp3159
S'HTTP_X_REQUESTED_WITH'
p3160
asbag57
(g78
g59
NtRp3161
(dp3162
g62
(dp3163
g89
g90
ssg71
g3152
sg64
(lp3164
S':'
asbag57
(g78
g59
NtRp3165
(dp3166
g62
(dp3167
sg71
g3152
sg64
(lp3168
g57
(g58
g59
NtRp3169
(dp3170
g62
(dp3171
g70
I3
ssg71
g3165
sg64
(lp3172
g1585
asbasbasbag57
(g73
g59
NtRp3173
(dp3174
g62
(dp3175
sg71
g2959
sg64
(lp3176
g57
(g78
g59
NtRp3177
(dp3178
g62
(dp3179
g82
g83
ssg71
g3173
sg64
(lp3180
S'PATH_INFO'
p3181
asbag57
(g78
g59
NtRp3182
(dp3183
g62
(dp3184
g89
g90
ssg71
g3173
sg64
(lp3185
S':'
asbag57
(g78
g59
NtRp3186
(dp3187
g62
(dp3188
sg71
g3173
sg64
(lp3189
g57
(g58
g59
NtRp3190
(dp3191
g62
(dp3192
g70
I3
ssg71
g3186
sg64
(lp3193
g1649
asbasbasbag57
(g73
g59
NtRp3194
(dp3195
g62
(dp3196
sg71
g2959
sg64
(lp3197
g57
(g78
g59
NtRp3198
(dp3199
g62
(dp3200
g82
g83
ssg71
g3194
sg64
(lp3201
S'QUERY_STRING'
p3202
asbag57
(g78
g59
NtRp3203
(dp3204
g62
(dp3205
g89
g90
ssg71
g3194
sg64
(lp3206
S':'
asbag57
(g78
g59
NtRp3207
(dp3208
g62
(dp3209
sg71
g3194
sg64
(lp3210
g57
(g58
g59
NtRp3211
(dp3212
g62
(dp3213
g70
I3
ssg71
g3207
sg64
(lp3214
g1671
asbasbasbag57
(g73
g59
NtRp3215
(dp3216
g62
(dp3217
sg71
g2959
sg64
(lp3218
g57
(g78
g59
NtRp3219
(dp3220
g62
(dp3221
g82
g83
ssg71
g3215
sg64
(lp3222
S'REMOTE_ADDR'
p3223
asbag57
(g78
g59
NtRp3224
(dp3225
g62
(dp3226
g89
g90
ssg71
g3215
sg64
(lp3227
S':'
asbag57
(g78
g59
NtRp3228
(dp3229
g62
(dp3230
sg71
g3215
sg64
(lp3231
g57
(g58
g59
NtRp3232
(dp3233
g62
(dp3234
g70
I3
ssg71
g3228
sg64
(lp3235
g203
asbasbasbag57
(g73
g59
NtRp3236
(dp3237
g62
(dp3238
sg71
g2959
sg64
(lp3239
g57
(g78
g59
NtRp3240
(dp3241
g62
(dp3242
g82
g83
ssg71
g3236
sg64
(lp3243
S'REMOTE_PORT'
p3244
asbag57
(g78
g59
NtRp3245
(dp3246
g62
(dp3247
g89
g90
ssg71
g3236
sg64
(lp3248
S':'
asbag57
(g78
g59
NtRp3249
(dp3250
g62
(dp3251
sg71
g3236
sg64
(lp3252
g57
(g58
g59
NtRp3253
(dp3254
g62
(dp3255
g70
I3
ssg71
g3249
sg64
(lp3256
g1714
asbasbasbag57
(g73
g59
NtRp3257
(dp3258
g62
(dp3259
sg71
g2959
sg64
(lp3260
g57
(g78
g59
NtRp3261
(dp3262
g62
(dp3263
g82
g83
ssg71
g3257
sg64
(lp3264
S'REQUEST_METHOD'
p3265
asbag57
(g78
g59
NtRp3266
(dp3267
g62
(dp3268
g89
g90
ssg71
g3257
sg64
(lp3269
S':'
asbag57
(g78
g59
NtRp3270
(dp3271
g62
(dp3272
sg71
g3257
sg64
(lp3273
g57
(g58
g59
NtRp3274
(dp3275
g62
(dp3276
g70
I3
ssg71
g3270
sg64
(lp3277
g1736
asbasbasbag57
(g73
g59
NtRp3278
(dp3279
g62
(dp3280
sg71
g2959
sg64
(lp3281
g57
(g78
g59
NtRp3282
(dp3283
g62
(dp3284
g82
g83
ssg71
g3278
sg64
(lp3285
S'SCRIPT_NAME'
p3286
asbag57
(g78
g59
NtRp3287
(dp3288
g62
(dp3289
g89
g90
ssg71
g3278
sg64
(lp3290
S':'
asbag57
(g78
g59
NtRp3291
(dp3292
g62
(dp3293
sg71
g3278
sg64
(lp3294
g57
(g58
g59
NtRp3295
(dp3296
g62
(dp3297
g70
I3
ssg71
g3291
sg64
(lp3298
S''
asbasbasbag57
(g73
g59
NtRp3299
(dp3300
g62
(dp3301
sg71
g2959
sg64
(lp3302
g57
(g78
g59
NtRp3303
(dp3304
g62
(dp3305
g82
g83
ssg71
g3299
sg64
(lp3306
S'SERVER_NAME'
p3307
asbag57
(g78
g59
NtRp3308
(dp3309
g62
(dp3310
g89
g90
ssg71
g3299
sg64
(lp3311
S':'
asbag57
(g78
g59
NtRp3312
(dp3313
g62
(dp3314
sg71
g3299
sg64
(lp3315
g57
(g58
g59
NtRp3316
(dp3317
g62
(dp3318
g70
I3
ssg71
g3312
sg64
(lp3319
g1779
asbasbasbag57
(g73
g59
NtRp3320
(dp3321
g62
(dp3322
sg71
g2959
sg64
(lp3323
g57
(g78
g59
NtRp3324
(dp3325
g62
(dp3326
g82
g83
ssg71
g3320
sg64
(lp3327
S'SERVER_PORT'
p3328
asbag57
(g78
g59
NtRp3329
(dp3330
g62
(dp3331
g89
g90
ssg71
g3320
sg64
(lp3332
S':'
asbag57
(g78
g59
NtRp3333
(dp3334
g62
(dp3335
sg71
g3320
sg64
(lp3336
g57
(g58
g59
NtRp3337
(dp3338
g62
(dp3339
g70
I3
ssg71
g3333
sg64
(lp3340
g1801
asbasbasbag57
(g73
g59
NtRp3341
(dp3342
g62
(dp3343
sg71
g2959
sg64
(lp3344
g57
(g78
g59
NtRp3345
(dp3346
g62
(dp3347
g82
g83
ssg71
g3341
sg64
(lp3348
S'SERVER_PROTOCOL'
p3349
asbag57
(g78
g59
NtRp3350
(dp3351
g62
(dp3352
g89
g90
ssg71
g3341
sg64
(lp3353
S':'
asbag57
(g78
g59
NtRp3354
(dp3355
g62
(dp3356
sg71
g3341
sg64
(lp3357
g57
(g58
g59
NtRp3358
(dp3359
g62
(dp3360
g70
I3
ssg71
g3354
sg64
(lp3361
g1823
asbasbasbag57
(g73
g59
NtRp3362
(dp3363
g62
(dp3364
sg71
g2959
sg64
(lp3365
g57
(g78
g59
NtRp3366
(dp3367
g62
(dp3368
g82
g83
ssg71
g3362
sg64
(lp3369
S'SERVER_SOFTWARE'
p3370
asbag57
(g78
g59
NtRp3371
(dp3372
g62
(dp3373
g89
g90
ssg71
g3362
sg64
(lp3374
S':'
asbag57
(g78
g59
NtRp3375
(dp3376
g62
(dp3377
sg71
g3362
sg64
(lp3378
g57
(g58
g59
NtRp3379
(dp3380
g62
(dp3381
g70
I3
ssg71
g3375
sg64
(lp3382
g1845
asbasbasbag57
(g73
g59
NtRp3383
(dp3384
g62
(dp3385
sg71
g2959
sg64
(lp3386
g57
(g78
g59
NtRp3387
(dp3388
g62
(dp3389
g82
g83
ssg71
g3383
sg64
(lp3390
S'wsgi.errors'
p3391
asbag57
(g78
g59
NtRp3392
(dp3393
g62
(dp3394
g89
g90
ssg71
g3383
sg64
(lp3395
S':'
asbag57
(g78
g59
NtRp3396
(dp3397
g62
(dp3398
sg71
g3383
sg64
(lp3399
g57
(g58
g59
NtRp3400
(dp3401
g62
(dp3402
g70
I3
ssg71
g3396
sg64
(lp3403
S"<open file '<stderr>', mode 'w' at 0xb76f00d0>"
p3404
asbasbasbag57
(g73
g59
NtRp3405
(dp3406
g62
(dp3407
sg71
g2959
sg64
(lp3408
g57
(g78
g59
NtRp3409
(dp3410
g62
(dp3411
g82
g83
ssg71
g3405
sg64
(lp3412
S'wsgi.file_wrapper'
p3413
asbag57
(g78
g59
NtRp3414
(dp3415
g62
(dp3416
g89
g90
ssg71
g3405
sg64
(lp3417
S':'
asbag57
(g78
g59
NtRp3418
(dp3419
g62
(dp3420
sg71
g3405
sg64
(lp3421
g57
(g58
g59
NtRp3422
(dp3423
g62
(dp3424
g70
I3
ssg71
g3418
sg64
(lp3425
S'<class wsgiref.util.FileWrapper at 0x906620c>'
p3426
asbasbasbag57
(g73
g59
NtRp3427
(dp3428
g62
(dp3429
sg71
g2959
sg64
(lp3430
g57
(g78
g59
NtRp3431
(dp3432
g62
(dp3433
g82
g83
ssg71
g3427
sg64
(lp3434
S'wsgi.input'
p3435
asbag57
(g78
g59
NtRp3436
(dp3437
g62
(dp3438
g89
g90
ssg71
g3427
sg64
(lp3439
S':'
asbag57
(g78
g59
NtRp3440
(dp3441
g62
(dp3442
sg71
g3427
sg64
(lp3443
g57
(g58
g59
NtRp3444
(dp3445
g62
(dp3446
g70
I3
ssg71
g3440
sg64
(lp3447
S'<cStringIO.StringO object at 0xc31c400>'
p3448
asbasbasbag57
(g73
g59
NtRp3449
(dp3450
g62
(dp3451
sg71
g2959
sg64
(lp3452
g57
(g78
g59
NtRp3453
(dp3454
g62
(dp3455
g82
g83
ssg71
g3449
sg64
(lp3456
S'wsgi.multiprocess'
p3457
asbag57
(g78
g59
NtRp3458
(dp3459
g62
(dp3460
g89
g90
ssg71
g3449
sg64
(lp3461
S':'
asbag57
(g78
g59
NtRp3462
(dp3463
g62
(dp3464
sg71
g3449
sg64
(lp3465
g57
(g58
g59
NtRp3466
(dp3467
g62
(dp3468
g70
I3
ssg71
g3462
sg64
(lp3469
g1343
asbasbasbag57
(g73
g59
NtRp3470
(dp3471
g62
(dp3472
sg71
g2959
sg64
(lp3473
g57
(g78
g59
NtRp3474
(dp3475
g62
(dp3476
g82
g83
ssg71
g3470
sg64
(lp3477
S'wsgi.multithread'
p3478
asbag57
(g78
g59
NtRp3479
(dp3480
g62
(dp3481
g89
g90
ssg71
g3470
sg64
(lp3482
S':'
asbag57
(g78
g59
NtRp3483
(dp3484
g62
(dp3485
sg71
g3470
sg64
(lp3486
g57
(g58
g59
NtRp3487
(dp3488
g62
(dp3489
g70
I3
ssg71
g3483
sg64
(lp3490
g100
asbasbasbag57
(g73
g59
NtRp3491
(dp3492
g62
(dp3493
sg71
g2959
sg64
(lp3494
g57
(g78
g59
NtRp3495
(dp3496
g62
(dp3497
g82
g83
ssg71
g3491
sg64
(lp3498
S'wsgi.run_once'
p3499
asbag57
(g78
g59
NtRp3500
(dp3501
g62
(dp3502
g89
g90
ssg71
g3491
sg64
(lp3503
S':'
asbag57
(g78
g59
NtRp3504
(dp3505
g62
(dp3506
sg71
g3491
sg64
(lp3507
g57
(g58
g59
NtRp3508
(dp3509
g62
(dp3510
g70
I3
ssg71
g3504
sg64
(lp3511
g1343
asbasbasbag57
(g73
g59
NtRp3512
(dp3513
g62
(dp3514
sg71
g2959
sg64
(lp3515
g57
(g78
g59
NtRp3516
(dp3517
g62
(dp3518
g82
g83
ssg71
g3512
sg64
(lp3519
S'wsgi.url_scheme'
p3520
asbag57
(g78
g59
NtRp3521
(dp3522
g62
(dp3523
g89
g90
ssg71
g3512
sg64
(lp3524
S':'
asbag57
(g78
g59
NtRp3525
(dp3526
g62
(dp3527
sg71
g3512
sg64
(lp3528
g57
(g58
g59
NtRp3529
(dp3530
g62
(dp3531
g70
I3
ssg71
g3525
sg64
(lp3532
g2127
asbasbasbag57
(g73
g59
NtRp3533
(dp3534
g62
(dp3535
sg71
g2959
sg64
(lp3536
g57
(g78
g59
NtRp3537
(dp3538
g62
(dp3539
g82
g83
ssg71
g3533
sg64
(lp3540
S'wsgi.version'
p3541
asbag57
(g78
g59
NtRp3542
(dp3543
g62
(dp3544
g89
g90
ssg71
g3533
sg64
(lp3545
S':'
asbag57
(g78
g59
NtRp3546
(dp3547
g62
(dp3548
sg71
g3533
sg64
(lp3549
g57
(g58
g59
NtRp3550
(dp3551
g62
(dp3552
g70
I3
ssg71
g3546
sg64
(lp3553
S'1'
asbasbasbasbasbasbasbasbasbasbasbasbasbsS'frames'
p3554
(lp3555
(dp3556
S'file'
p3557
S'/home/iscott/web/web2py/gluon/restricted.py'
p3558
sS'dump'
p3559
(dp3560
S'environment'
p3561
S"{'A': <class 'gluon.html.A'>, 'Auth': <class 'gluon.tools.Auth'>, 'B': <class 'gluon.html.B'>, 'BEAUTIFY': <class 'gluon.html.BEAUTIFY'>, 'BODY': <class 'gluon.html.BODY'>, 'BR': <class 'gluon.html.BR'>, 'BUTTON': <class 'gluon.html.BUTTON'>, 'BookParser': <class 'applications.grammateus3.modules.parse.BookParser'>, 'CAT': <class 'gluon.html.CAT'>, 'CENTER': <class 'gluon.html.CENTER'>, ...}"
p3562
sS'ccode'
p3563
S'<code object <module> at 0xc594ba8, file "/home/...cations/grammateus3/controllers/docs.py", line 2>'
p3564
ssS'lnum'
p3565
I204
sS'lines'
p3566
(dp3567
I199
S'    try:'
p3568
sI200
S'        if type(code) == types.CodeType:'
p3569
sI201
S'            ccode = code'
p3570
sI202
S'        else:'
p3571
sI203
S'            ccode = compile2(code,layer)'
p3572
sI204
S'        exec ccode in environment'
p3573
sI205
S'    except HTTP:'
p3574
sI206
S'        raise'
p3575
sI207
S'    except RestrictedError:'
p3576
sI208
S'        # do not encapsulate (obfuscate) the original RestrictedError'
p3577
ssS'call'
p3578
S"(code='# coding: utf8\\nfrom lxml import etree\\n\\nfrom pars... info)\\n\\nresponse._vars=response._caller(section)\\n', environment={'A': <class 'gluon.html.A'>, 'Auth': <class 'gluon.tools.Auth'>, 'B': <class 'gluon.html.B'>, 'BEAUTIFY': <class 'gluon.html.BEAUTIFY'>, 'BODY': <class 'gluon.html.BODY'>, 'BR': <class 'gluon.html.BR'>, 'BUTTON': <class 'gluon.html.BUTTON'>, 'BookParser': <class 'applications.grammateus3.modules.parse.BookParser'>, 'CAT': <class 'gluon.html.CAT'>, 'CENTER': <class 'gluon.html.CENTER'>, ...}, layer='/home/iscott/web/web2py/applications/grammateus3/controllers/docs.py')"
p3579
sS'func'
p3580
S'restricted'
p3581
sa(dp3582
g3557
S'/home/iscott/web/web2py/applications/grammateus3/controllers/docs.py'
p3583
sg3559
(dp3584
sg3565
I130
sg3566
(dp3585
I128
S'    return dict(title = title, info = info)'
p3586
sI119
S"                print 'Version textstructure'"
p3587
sI120
S'                for ref, ref_val in value.items():'
p3588
sI121
S'                    for unit, unit_val in ref_val.items():'
p3589
sI122
S'                        for mss, mss_val in unit_val.items():'
p3590
sI123
S"                            print '\\t', ref, '-->', unit, '-->', mss, '-->', mss_val"
p3591
sI124
S"        print '************'"
p3592
sI125
S'    print'
p3593
sI126
S'    print'
p3594
sI127
S''
ssg3578
S'()'
p3595
sg3580
S'<module>'
p3596
sa(dp3597
g3557
S'/home/iscott/web/web2py/gluon/globals.py'
p3598
sg3559
(dp3599
S'self'
p3600
S'undefined'
p3601
sS'f'
S'<function section>'
p3602
ssg3565
I172
sg3566
(dp3603
I167
S'        self.meta = Storage()      # used by web2py_ajax.html'
p3604
sI168
S'        self.menu = []             # used by the default view layout'
p3605
sI169
S'        self.files = []            # used by web2py_ajax.html'
p3606
sI170
S'        self.generic_patterns = [] # patterns to allow generic views'
p3607
sI171
S'        self._vars = None'
p3608
sI172
S'        self._caller = lambda f: f()'
p3609
sI173
S'        self._view_environment = None'
p3610
sI174
S'        self._custom_commit = None'
p3611
sI175
S'        self._custom_rollback = None'
p3612
sI176
S''
ssg3578
S'(f=<function section>)'
p3613
sg3580
S'<lambda>'
p3614
sa(dp3615
g3557
S'/home/iscott/web/web2py/applications/grammateus3/controllers/docs.py'
p3616
sg3559
(dp3617
S'i'
g3601
sS'current_version'
p3618
S"'undefined'"
p3619
sS'versions.index'
p3620
S'<built-in method index of list object>'
p3621
sS'versions'
p3622
S"['Ethiopic', 'Qumran Aramaic', 'Latin Fragments', 'Greek']"
p3623
ssg3565
I49
sg3566
(dp3624
I44
S'    #get names of all versions of current doc and select the version to display'
p3625
sI45
S"    versions = [version['title'] for version in info['versions']]"
p3626
sI46
S"    if 'version' in request.vars:"
p3627
sI47
S"        current_version = request.vars['version'].replace('_', ' ')"
p3628
sI48
S'        #move selected version to top of list for selectbox'
p3629
sI49
S'        i = versions.index(current_version)'
p3630
sI50
S'        versions.insert(0, versions.pop(i))'
p3631
sI51
S'    else:'
p3632
sI52
S'        current_version = versions[0]'
p3633
sI53
S''
ssg3578
S'()'
p3634
sg3580
S'section'
p3635
sasS'pyver'
p3636
S'Python 2.7.2+: /usr/bin/python2.7'
p3637
sS'session'
p3638
g57
(g58
g59
NtRp3639
(dp3640
g62
(dp3641
sg64
(lp3642
g57
(g66
g59
NtRp3643
(dp3644
g62
(dp3645
g70
I5
ssg71
Nsg64
(lp3646
sbasbsS'etype'
p3647
S"<type 'exceptions.ValueError'>"
p3648
sS'date'
p3649
S'Wed Mar  7 13:45:25 2012'
p3650
sS'response'
p3651
g57
(g58
g59
NtRp3652
(dp3653
g62
(dp3654
sg64
(lp3655
g57
(g66
g59
NtRp3656
(dp3657
g62
(dp3658
g70
I5
ssg71
Nsg64
(lp3659
g57
(g73
g59
NtRp3660
(dp3661
g62
(dp3662
sg71
g3656
sg64
(lp3663
g57
(g78
g59
NtRp3664
(dp3665
g62
(dp3666
g82
g83
ssg71
g3660
sg64
(lp3667
g168
asbag57
(g78
g59
NtRp3668
(dp3669
g62
(dp3670
g89
g90
ssg71
g3660
sg64
(lp3671
S':'
asbag57
(g78
g59
NtRp3672
(dp3673
g62
(dp3674
sg71
g3660
sg64
(lp3675
g57
(g58
g59
NtRp3676
(dp3677
g62
(dp3678
g70
I5
ssg71
g3672
sg64
(lp3679
S'<cStringIO.StringO object at 0xac720e0>'
p3680
asbasbasbag57
(g73
g59
NtRp3681
(dp3682
g62
(dp3683
sg71
g3656
sg64
(lp3684
g57
(g78
g59
NtRp3685
(dp3686
g62
(dp3687
g82
g83
ssg71
g3681
sg64
(lp3688
g234
asbag57
(g78
g59
NtRp3689
(dp3690
g62
(dp3691
g89
g90
ssg71
g3681
sg64
(lp3692
S':'
asbag57
(g78
g59
NtRp3693
(dp3694
g62
(dp3695
sg71
g3681
sg64
(lp3696
g57
(g58
g59
NtRp3697
(dp3698
g62
(dp3699
g70
I5
ssg71
g3693
sg64
(lp3700
g57
(g66
g59
NtRp3701
(dp3702
g62
(dp3703
g70
I4
ssg71
Nsg64
(lp3704
g57
(g73
g59
NtRp3705
(dp3706
g62
(dp3707
sg71
g3701
sg64
(lp3708
g57
(g78
g59
NtRp3709
(dp3710
g62
(dp3711
g82
g83
ssg71
g3705
sg64
(lp3712
S'session_id_grammateus3'
p3713
asbag57
(g78
g59
NtRp3714
(dp3715
g62
(dp3716
g89
g90
ssg71
g3705
sg64
(lp3717
S':'
asbag57
(g78
g59
NtRp3718
(dp3719
g62
(dp3720
sg71
g3705
sg64
(lp3721
g57
(g58
g59
NtRp3722
(dp3723
g62
(dp3724
g70
I4
ssg71
g3718
sg64
(lp3725
g57
(g66
g59
NtRp3726
(dp3727
g62
(dp3728
g70
I3
ssg71
Nsg64
(lp3729
g57
(g73
g59
NtRp3730
(dp3731
g62
(dp3732
sg71
g3726
sg64
(lp3733
g57
(g78
g59
NtRp3734
(dp3735
g62
(dp3736
g82
g83
ssg71
g3730
sg64
(lp3737
g284
asbag57
(g78
g59
NtRp3738
(dp3739
g62
(dp3740
g89
g90
ssg71
g3730
sg64
(lp3741
S':'
asbag57
(g78
g59
NtRp3742
(dp3743
g62
(dp3744
sg71
g3730
sg64
(lp3745
g57
(g58
g59
NtRp3746
(dp3747
g62
(dp3748
g70
I3
ssg71
g3742
sg64
(lp3749
S''
asbasbasbag57
(g73
g59
NtRp3750
(dp3751
g62
(dp3752
sg71
g3726
sg64
(lp3753
g57
(g78
g59
NtRp3754
(dp3755
g62
(dp3756
g82
g83
ssg71
g3750
sg64
(lp3757
g305
asbag57
(g78
g59
NtRp3758
(dp3759
g62
(dp3760
g89
g90
ssg71
g3750
sg64
(lp3761
S':'
asbag57
(g78
g59
NtRp3762
(dp3763
g62
(dp3764
sg71
g3750
sg64
(lp3765
g57
(g58
g59
NtRp3766
(dp3767
g62
(dp3768
g70
I3
ssg71
g3762
sg64
(lp3769
S''
asbasbasbag57
(g73
g59
NtRp3770
(dp3771
g62
(dp3772
sg71
g3726
sg64
(lp3773
g57
(g78
g59
NtRp3774
(dp3775
g62
(dp3776
g82
g83
ssg71
g3770
sg64
(lp3777
g326
asbag57
(g78
g59
NtRp3778
(dp3779
g62
(dp3780
g89
g90
ssg71
g3770
sg64
(lp3781
S':'
asbag57
(g78
g59
NtRp3782
(dp3783
g62
(dp3784
sg71
g3770
sg64
(lp3785
g57
(g58
g59
NtRp3786
(dp3787
g62
(dp3788
g70
I3
ssg71
g3782
sg64
(lp3789
S''
asbasbasbag57
(g73
g59
NtRp3790
(dp3791
g62
(dp3792
sg71
g3726
sg64
(lp3793
g57
(g78
g59
NtRp3794
(dp3795
g62
(dp3796
g82
g83
ssg71
g3790
sg64
(lp3797
g347
asbag57
(g78
g59
NtRp3798
(dp3799
g62
(dp3800
g89
g90
ssg71
g3790
sg64
(lp3801
S':'
asbag57
(g78
g59
NtRp3802
(dp3803
g62
(dp3804
sg71
g3790
sg64
(lp3805
g57
(g58
g59
NtRp3806
(dp3807
g62
(dp3808
g70
I3
ssg71
g3802
sg64
(lp3809
S''
asbasbasbag57
(g73
g59
NtRp3810
(dp3811
g62
(dp3812
sg71
g3726
sg64
(lp3813
g57
(g78
g59
NtRp3814
(dp3815
g62
(dp3816
g82
g83
ssg71
g3810
sg64
(lp3817
g368
asbag57
(g78
g59
NtRp3818
(dp3819
g62
(dp3820
g89
g90
ssg71
g3810
sg64
(lp3821
S':'
asbag57
(g78
g59
NtRp3822
(dp3823
g62
(dp3824
sg71
g3810
sg64
(lp3825
g57
(g58
g59
NtRp3826
(dp3827
g62
(dp3828
g70
I3
ssg71
g3822
sg64
(lp3829
S''
asbasbasbag57
(g73
g59
NtRp3830
(dp3831
g62
(dp3832
sg71
g3726
sg64
(lp3833
g57
(g78
g59
NtRp3834
(dp3835
g62
(dp3836
g82
g83
ssg71
g3830
sg64
(lp3837
g389
asbag57
(g78
g59
NtRp3838
(dp3839
g62
(dp3840
g89
g90
ssg71
g3830
sg64
(lp3841
S':'
asbag57
(g78
g59
NtRp3842
(dp3843
g62
(dp3844
sg71
g3830
sg64
(lp3845
g57
(g58
g59
NtRp3846
(dp3847
g62
(dp3848
g70
I3
ssg71
g3842
sg64
(lp3849
S'/'
asbasbasbag57
(g73
g59
NtRp3850
(dp3851
g62
(dp3852
sg71
g3726
sg64
(lp3853
g57
(g78
g59
NtRp3854
(dp3855
g62
(dp3856
g82
g83
ssg71
g3850
sg64
(lp3857
g410
asbag57
(g78
g59
NtRp3858
(dp3859
g62
(dp3860
g89
g90
ssg71
g3850
sg64
(lp3861
S':'
asbag57
(g78
g59
NtRp3862
(dp3863
g62
(dp3864
sg71
g3850
sg64
(lp3865
g57
(g58
g59
NtRp3866
(dp3867
g62
(dp3868
g70
I3
ssg71
g3862
sg64
(lp3869
S''
asbasbasbag57
(g73
g59
NtRp3870
(dp3871
g62
(dp3872
sg71
g3726
sg64
(lp3873
g57
(g78
g59
NtRp3874
(dp3875
g62
(dp3876
g82
g83
ssg71
g3870
sg64
(lp3877
g431
asbag57
(g78
g59
NtRp3878
(dp3879
g62
(dp3880
g89
g90
ssg71
g3870
sg64
(lp3881
S':'
asbag57
(g78
g59
NtRp3882
(dp3883
g62
(dp3884
sg71
g3870
sg64
(lp3885
g57
(g58
g59
NtRp3886
(dp3887
g62
(dp3888
g70
I3
ssg71
g3882
sg64
(lp3889
S''
asbasbasbasbasbasbasbasbasbasbasbag57
(g73
g59
NtRp3890
(dp3891
g62
(dp3892
sg71
g3656
sg64
(lp3893
g57
(g78
g59
NtRp3894
(dp3895
g62
(dp3896
g82
g83
ssg71
g3890
sg64
(lp3897
S'files'
p3898
asbag57
(g78
g59
NtRp3899
(dp3900
g62
(dp3901
g89
g90
ssg71
g3890
sg64
(lp3902
S':'
asbag57
(g78
g59
NtRp3903
(dp3904
g62
(dp3905
sg71
g3890
sg64
(lp3906
g57
(g58
g59
NtRp3907
(dp3908
g62
(dp3909
g70
I5
ssg71
g3903
sg64
(lp3910
g57
(g66
g59
NtRp3911
(dp3912
g62
(dp3913
g70
I4
ssg71
Nsg64
(lp3914
sbasbasbasbag57
(g73
g59
NtRp3915
(dp3916
g62
(dp3917
sg71
g3656
sg64
(lp3918
g57
(g78
g59
NtRp3919
(dp3920
g62
(dp3921
g82
g83
ssg71
g3915
sg64
(lp3922
S'flash'
p3923
asbag57
(g78
g59
NtRp3924
(dp3925
g62
(dp3926
g89
g90
ssg71
g3915
sg64
(lp3927
S':'
asbag57
(g78
g59
NtRp3928
(dp3929
g62
(dp3930
sg71
g3915
sg64
(lp3931
g57
(g58
g59
NtRp3932
(dp3933
g62
(dp3934
g70
I5
ssg71
g3928
sg64
(lp3935
S''
asbasbasbag57
(g73
g59
NtRp3936
(dp3937
g62
(dp3938
sg71
g3656
sg64
(lp3939
g57
(g78
g59
NtRp3940
(dp3941
g62
(dp3942
g82
g83
ssg71
g3936
sg64
(lp3943
S'generic_patterns'
p3944
asbag57
(g78
g59
NtRp3945
(dp3946
g62
(dp3947
g89
g90
ssg71
g3936
sg64
(lp3948
S':'
asbag57
(g78
g59
NtRp3949
(dp3950
g62
(dp3951
sg71
g3936
sg64
(lp3952
g57
(g58
g59
NtRp3953
(dp3954
g62
(dp3955
g70
I5
ssg71
g3949
sg64
(lp3956
g57
(g66
g59
NtRp3957
(dp3958
g62
(dp3959
g70
I4
ssg71
Nsg64
(lp3960
g57
(g73
g59
NtRp3961
(dp3962
g62
(dp3963
sg71
g3957
sg64
(lp3964
g57
(g78
g59
NtRp3965
(dp3966
g62
(dp3967
sg71
g3961
sg64
(lp3968
g57
(g58
g59
NtRp3969
(dp3970
g62
(dp3971
g70
I4
ssg71
g3965
sg64
(lp3972
S'*'
asbasbasbasbasbasbasbag57
(g73
g59
NtRp3973
(dp3974
g62
(dp3975
sg71
g3656
sg64
(lp3976
g57
(g78
g59
NtRp3977
(dp3978
g62
(dp3979
g82
g83
ssg71
g3973
sg64
(lp3980
S'headers'
p3981
asbag57
(g78
g59
NtRp3982
(dp3983
g62
(dp3984
g89
g90
ssg71
g3973
sg64
(lp3985
S':'
asbag57
(g78
g59
NtRp3986
(dp3987
g62
(dp3988
sg71
g3973
sg64
(lp3989
g57
(g58
g59
NtRp3990
(dp3991
g62
(dp3992
g70
I5
ssg71
g3986
sg64
(lp3993
g57
(g66
g59
NtRp3994
(dp3995
g62
(dp3996
g70
I4
ssg71
Nsg64
(lp3997
g57
(g73
g59
NtRp3998
(dp3999
g62
(dp4000
sg71
g3994
sg64
(lp4001
g57
(g78
g59
NtRp4002
(dp4003
g62
(dp4004
g82
g83
ssg71
g3998
sg64
(lp4005
S'Cache-Control'
p4006
asbag57
(g78
g59
NtRp4007
(dp4008
g62
(dp4009
g89
g90
ssg71
g3998
sg64
(lp4010
S':'
asbag57
(g78
g59
NtRp4011
(dp4012
g62
(dp4013
sg71
g3998
sg64
(lp4014
g57
(g58
g59
NtRp4015
(dp4016
g62
(dp4017
g70
I4
ssg71
g4011
sg64
(lp4018
S'no-store, no-cache, must-revalidate, post-check=0, pre-check=0'
p4019
asbasbasbag57
(g73
g59
NtRp4020
(dp4021
g62
(dp4022
sg71
g3994
sg64
(lp4023
g57
(g78
g59
NtRp4024
(dp4025
g62
(dp4026
g82
g83
ssg71
g4020
sg64
(lp4027
S'Content-Type'
p4028
asbag57
(g78
g59
NtRp4029
(dp4030
g62
(dp4031
g89
g90
ssg71
g4020
sg64
(lp4032
S':'
asbag57
(g78
g59
NtRp4033
(dp4034
g62
(dp4035
sg71
g4020
sg64
(lp4036
g57
(g58
g59
NtRp4037
(dp4038
g62
(dp4039
g70
I4
ssg71
g4033
sg64
(lp4040
S'text/html; charset=utf-8'
p4041
asbasbasbag57
(g73
g59
NtRp4042
(dp4043
g62
(dp4044
sg71
g3994
sg64
(lp4045
g57
(g78
g59
NtRp4046
(dp4047
g62
(dp4048
g82
g83
ssg71
g4042
sg64
(lp4049
S'Expires'
p4050
asbag57
(g78
g59
NtRp4051
(dp4052
g62
(dp4053
g89
g90
ssg71
g4042
sg64
(lp4054
S':'
asbag57
(g78
g59
NtRp4055
(dp4056
g62
(dp4057
sg71
g4042
sg64
(lp4058
g57
(g58
g59
NtRp4059
(dp4060
g62
(dp4061
g70
I4
ssg71
g4055
sg64
(lp4062
S'Wed, 07 Mar 2012 18:45:25 GMT'
p4063
asbasbasbag57
(g73
g59
NtRp4064
(dp4065
g62
(dp4066
sg71
g3994
sg64
(lp4067
g57
(g78
g59
NtRp4068
(dp4069
g62
(dp4070
g82
g83
ssg71
g4064
sg64
(lp4071
S'Pragma'
p4072
asbag57
(g78
g59
NtRp4073
(dp4074
g62
(dp4075
g89
g90
ssg71
g4064
sg64
(lp4076
S':'
asbag57
(g78
g59
NtRp4077
(dp4078
g62
(dp4079
sg71
g4064
sg64
(lp4080
g57
(g58
g59
NtRp4081
(dp4082
g62
(dp4083
g70
I4
ssg71
g4077
sg64
(lp4084
S'no-cache'
p4085
asbasbasbag57
(g73
g59
NtRp4086
(dp4087
g62
(dp4088
sg71
g3994
sg64
(lp4089
g57
(g78
g59
NtRp4090
(dp4091
g62
(dp4092
g82
g83
ssg71
g4086
sg64
(lp4093
S'X-Powered-By'
p4094
asbag57
(g78
g59
NtRp4095
(dp4096
g62
(dp4097
g89
g90
ssg71
g4086
sg64
(lp4098
S':'
asbag57
(g78
g59
NtRp4099
(dp4100
g62
(dp4101
sg71
g4086
sg64
(lp4102
g57
(g58
g59
NtRp4103
(dp4104
g62
(dp4105
g70
I4
ssg71
g4099
sg64
(lp4106
S'web2py'
p4107
asbasbasbasbasbasbasbag57
(g73
g59
NtRp4108
(dp4109
g62
(dp4110
sg71
g3656
sg64
(lp4111
g57
(g78
g59
NtRp4112
(dp4113
g62
(dp4114
g82
g83
ssg71
g4108
sg64
(lp4115
S'menu'
p4116
asbag57
(g78
g59
NtRp4117
(dp4118
g62
(dp4119
g89
g90
ssg71
g4108
sg64
(lp4120
S':'
asbag57
(g78
g59
NtRp4121
(dp4122
g62
(dp4123
sg71
g4108
sg64
(lp4124
g57
(g58
g59
NtRp4125
(dp4126
g62
(dp4127
g70
I5
ssg71
g4121
sg64
(lp4128
g57
(g66
g59
NtRp4129
(dp4130
g62
(dp4131
g70
I4
ssg71
Nsg64
(lp4132
g57
(g73
g59
NtRp4133
(dp4134
g62
(dp4135
sg71
g4129
sg64
(lp4136
g57
(g78
g59
NtRp4137
(dp4138
g62
(dp4139
sg71
g4133
sg64
(lp4140
g57
(g58
g59
NtRp4141
(dp4142
g62
(dp4143
g70
I4
ssg71
g4137
sg64
(lp4144
g57
(g66
g59
NtRp4145
(dp4146
g62
(dp4147
g70
I3
ssg71
Nsg64
(lp4148
g57
(g73
g59
NtRp4149
(dp4150
g62
(dp4151
sg71
g4145
sg64
(lp4152
g57
(g78
g59
NtRp4153
(dp4154
g62
(dp4155
sg71
g4149
sg64
(lp4156
g57
(g58
g59
NtRp4157
(dp4158
g62
(dp4159
g70
I3
ssg71
g4153
sg64
(lp4160
cgluon.languages
lazyT_unpickle
p4161
(S't\x04\x00\x00\x00Home'
tRp4162
asbasbasbag57
(g73
g59
NtRp4163
(dp4164
g62
(dp4165
sg71
g4145
sg64
(lp4166
g57
(g78
g59
NtRp4167
(dp4168
g62
(dp4169
sg71
g4163
sg64
(lp4170
g57
(g58
g59
NtRp4171
(dp4172
g62
(dp4173
g70
I3
ssg71
g4167
sg64
(lp4174
g1343
asbasbasbag57
(g73
g59
NtRp4175
(dp4176
g62
(dp4177
sg71
g4145
sg64
(lp4178
g57
(g78
g59
NtRp4179
(dp4180
g62
(dp4181
sg71
g4175
sg64
(lp4182
g57
(g58
g59
NtRp4183
(dp4184
g62
(dp4185
g70
I3
ssg71
g4179
sg64
(lp4186
S'/grammateus3/default/index.load'
p4187
asbasbasbag57
(g73
g59
NtRp4188
(dp4189
g62
(dp4190
sg71
g4145
sg64
(lp4191
g57
(g78
g59
NtRp4192
(dp4193
g62
(dp4194
sg71
g4188
sg64
(lp4195
g57
(g58
g59
NtRp4196
(dp4197
g62
(dp4198
g70
I3
ssg71
g4192
sg64
(lp4199
g57
(g66
g59
NtRp4200
(dp4201
g62
(dp4202
g70
I2
ssg71
Nsg64
(lp4203
sbasbasbasbasbasbasbasbag57
(g73
g59
NtRp4204
(dp4205
g62
(dp4206
sg71
g4129
sg64
(lp4207
g57
(g78
g59
NtRp4208
(dp4209
g62
(dp4210
sg71
g4204
sg64
(lp4211
g57
(g58
g59
NtRp4212
(dp4213
g62
(dp4214
g70
I4
ssg71
g4208
sg64
(lp4215
g57
(g66
g59
NtRp4216
(dp4217
g62
(dp4218
g70
I3
ssg71
Nsg64
(lp4219
g57
(g73
g59
NtRp4220
(dp4221
g62
(dp4222
sg71
g4216
sg64
(lp4223
g57
(g78
g59
NtRp4224
(dp4225
g62
(dp4226
sg71
g4220
sg64
(lp4227
g57
(g58
g59
NtRp4228
(dp4229
g62
(dp4230
g70
I3
ssg71
g4224
sg64
(lp4231
g57
(cgluon.html
SPAN
p4232
g59
NtRp4233
(dp4234
g62
(dp4235
g82
S'color:yellow'
p4236
ssg71
Nsg64
(lp4237
g4107
asbasbasbasbag57
(g73
g59
NtRp4238
(dp4239
g62
(dp4240
sg71
g4216
sg64
(lp4241
g57
(g78
g59
NtRp4242
(dp4243
g62
(dp4244
sg71
g4238
sg64
(lp4245
g57
(g58
g59
NtRp4246
(dp4247
g62
(dp4248
g70
I3
ssg71
g4242
sg64
(lp4249
g1343
asbasbasbag57
(g73
g59
NtRp4250
(dp4251
g62
(dp4252
sg71
g4216
sg64
(lp4253
g57
(g78
g59
NtRp4254
(dp4255
g62
(dp4256
sg71
g4250
sg64
(lp4257
g57
(g58
g59
NtRp4258
(dp4259
g62
(dp4260
g70
I3
ssg71
g4254
sg64
(lp4261
S'None'
p4262
asbasbasbag57
(g73
g59
NtRp4263
(dp4264
g62
(dp4265
sg71
g4216
sg64
(lp4266
g57
(g78
g59
NtRp4267
(dp4268
g62
(dp4269
sg71
g4263
sg64
(lp4270
g57
(g58
g59
NtRp4271
(dp4272
g62
(dp4273
g70
I3
ssg71
g4267
sg64
(lp4274
g57
(g66
g59
NtRp4275
(dp4276
g62
(dp4277
g70
I2
ssg71
Nsg64
(lp4278
g57
(g73
g59
NtRp4279
(dp4280
g62
(dp4281
sg71
g4275
sg64
(lp4282
g57
(g78
g59
NtRp4283
(dp4284
g62
(dp4285
sg71
g4279
sg64
(lp4286
g57
(g58
g59
NtRp4287
(dp4288
g62
(dp4289
g70
I2
ssg71
g4283
sg64
(lp4290
g57
(g66
g59
NtRp4291
(dp4292
g62
(dp4293
g70
I1
ssg71
Nsg64
(lp4294
g57
(g73
g59
NtRp4295
(dp4296
g62
(dp4297
sg71
g4291
sg64
(lp4298
g57
(g78
g59
NtRp4299
(dp4300
g62
(dp4301
sg71
g4295
sg64
(lp4302
g57
(g58
g59
NtRp4303
(dp4304
g62
(dp4305
g70
I1
ssg71
g4299
sg64
(lp4306
g4161
(S's\x08\x00\x00\x00My Sites'
tRp4307
asbasbasbag57
(g73
g59
NtRp4308
(dp4309
g62
(dp4310
sg71
g4291
sg64
(lp4311
g57
(g78
g59
NtRp4312
(dp4313
g62
(dp4314
sg71
g4308
sg64
(lp4315
g57
(g58
g59
NtRp4316
(dp4317
g62
(dp4318
g70
I1
ssg71
g4312
sg64
(lp4319
I00
asbasbasbag57
(g73
g59
NtRp4320
(dp4321
g62
(dp4322
sg71
g4291
sg64
(lp4323
g57
(g78
g59
NtRp4324
(dp4325
g62
(dp4326
sg71
g4320
sg64
(lp4327
g57
(g58
g59
NtRp4328
(dp4329
g62
(dp4330
g70
I1
ssg71
g4324
sg64
(lp4331
S'/admin/default/site.load'
p4332
asbasbasbasbasbasbasbag57
(g73
g59
NtRp4333
(dp4334
g62
(dp4335
sg71
g4275
sg64
(lp4336
g57
(g78
g59
NtRp4337
(dp4338
g62
(dp4339
sg71
g4333
sg64
(lp4340
g57
(g58
g59
NtRp4341
(dp4342
g62
(dp4343
g70
I2
ssg71
g4337
sg64
(lp4344
g57
(g66
g59
NtRp4345
(dp4346
g62
(dp4347
g70
I1
ssg71
Nsg64
(lp4348
g57
(g73
g59
NtRp4349
(dp4350
g62
(dp4351
sg71
g4345
sg64
(lp4352
g57
(g78
g59
NtRp4353
(dp4354
g62
(dp4355
sg71
g4349
sg64
(lp4356
g57
(g58
g59
NtRp4357
(dp4358
g62
(dp4359
g70
I1
ssg71
g4353
sg64
(lp4360
g4161
(S's\x08\x00\x00\x00This App'
tRp4361
asbasbasbag57
(g73
g59
NtRp4362
(dp4363
g62
(dp4364
sg71
g4345
sg64
(lp4365
g57
(g78
g59
NtRp4366
(dp4367
g62
(dp4368
sg71
g4362
sg64
(lp4369
g57
(g58
g59
NtRp4370
(dp4371
g62
(dp4372
g70
I1
ssg71
g4366
sg64
(lp4373
I00
asbasbasbag57
(g73
g59
NtRp4374
(dp4375
g62
(dp4376
sg71
g4345
sg64
(lp4377
g57
(g78
g59
NtRp4378
(dp4379
g62
(dp4380
sg71
g4374
sg64
(lp4381
g57
(g58
g59
NtRp4382
(dp4383
g62
(dp4384
g70
I1
ssg71
g4378
sg64
(lp4385
S'/admin/default/design/grammateus3.load'
p4386
asbasbasbag57
(g73
g59
NtRp4387
(dp4388
g62
(dp4389
sg71
g4345
sg64
(lp4390
g57
(g78
g59
NtRp4391
(dp4392
g62
(dp4393
sg71
g4387
sg64
(lp4394
g57
(g58
g59
NtRp4395
(dp4396
g62
(dp4397
g70
I1
ssg71
g4391
sg64
(lp4398
(lp4399
(g4161
(S't\n\x00\x00\x00Controller'
tRp4400
I00
S'/admin/default/edit/grammateus3/controllers/docs.py'
tp4401
a(g4161
(S't\x04\x00\x00\x00View'
tRp4402
I00
S'/admin/default/edit/grammateus3/views/docs/section.load'
tp4403
a(g4161
(S't\x06\x00\x00\x00Layout'
tRp4404
I00
S'/admin/default/edit/grammateus3/views/layout.html'
tp4405
a(g4161
(S't\n\x00\x00\x00Stylesheet'
tRp4406
I00
S'/admin/default/edit/grammateus3/static/css/web2py.css'
tp4407
a(g4161
(S's\x08\x00\x00\x00DB Model'
tRp4408
I00
S'/admin/default/edit/grammateus3/models/db.py'
tp4409
a(g4161
(S's\n\x00\x00\x00Menu Model'
tRp4410
I00
S'/admin/default/edit/grammateus3/models/menu.py'
tp4411
a(g4161
(S't\x08\x00\x00\x00Database'
tRp4412
I00
S'/grammateus3/appadmin/index.load'
tp4413
a(g4161
(S't\x06\x00\x00\x00Errors'
tRp4414
I00
S'/admin/default/errors/grammateus3.load'
tp4415
a(g4161
(S't\x05\x00\x00\x00About'
tRp4416
I00
S'/admin/default/about/grammateus3.load'
tp4417
aasbasbasbasbasbasbasbag57
(g73
g59
NtRp4418
(dp4419
g62
(dp4420
sg71
g4275
sg64
(lp4421
g57
(g78
g59
NtRp4422
(dp4423
g62
(dp4424
sg71
g4418
sg64
(lp4425
g57
(g58
g59
NtRp4426
(dp4427
g62
(dp4428
g70
I2
ssg71
g4422
sg64
(lp4429
g57
(g66
g59
NtRp4430
(dp4431
g62
(dp4432
g70
I1
ssg71
Nsg64
(lp4433
g57
(g73
g59
NtRp4434
(dp4435
g62
(dp4436
sg71
g4430
sg64
(lp4437
g57
(g78
g59
NtRp4438
(dp4439
g62
(dp4440
sg71
g4434
sg64
(lp4441
g57
(g58
g59
NtRp4442
(dp4443
g62
(dp4444
g70
I1
ssg71
g4438
sg64
(lp4445
S'web2py.com'
p4446
asbasbasbag57
(g73
g59
NtRp4447
(dp4448
g62
(dp4449
sg71
g4430
sg64
(lp4450
g57
(g78
g59
NtRp4451
(dp4452
g62
(dp4453
sg71
g4447
sg64
(lp4454
g57
(g58
g59
NtRp4455
(dp4456
g62
(dp4457
g70
I1
ssg71
g4451
sg64
(lp4458
I00
asbasbasbag57
(g73
g59
NtRp4459
(dp4460
g62
(dp4461
sg71
g4430
sg64
(lp4462
g57
(g78
g59
NtRp4463
(dp4464
g62
(dp4465
sg71
g4459
sg64
(lp4466
g57
(g58
g59
NtRp4467
(dp4468
g62
(dp4469
g70
I1
ssg71
g4463
sg64
(lp4470
S'http://www.web2py.com'
p4471
asbasbasbag57
(g73
g59
NtRp4472
(dp4473
g62
(dp4474
sg71
g4430
sg64
(lp4475
g57
(g78
g59
NtRp4476
(dp4477
g62
(dp4478
sg71
g4472
sg64
(lp4479
g57
(g58
g59
NtRp4480
(dp4481
g62
(dp4482
g70
I1
ssg71
g4476
sg64
(lp4483
(lp4484
(g4161
(S't\x08\x00\x00\x00Download'
tRp4485
I00
S'http://www.web2py.com/examples/default/download'
p4486
tp4487
a(g4161
(S't\x07\x00\x00\x00Support'
tRp4488
I00
S'http://www.web2py.com/examples/default/support'
p4489
tp4490
a(g4161
(S't\x04\x00\x00\x00Demo'
tRp4491
I00
S'http://web2py.com/demo_admin'
p4492
tp4493
a(g4161
(S's\x0e\x00\x00\x00Quick Examples'
tRp4494
I00
S'http://web2py.com/examples/default/examples'
p4495
tp4496
a(g4161
(S't\x03\x00\x00\x00FAQ'
tRp4497
I00
S'http://web2py.com/AlterEgo'
p4498
tp4499
a(g4161
(S't\x06\x00\x00\x00Videos'
tRp4500
I00
S'http://www.web2py.com/examples/default/videos/'
p4501
tp4502
a(g4161
(S's\x11\x00\x00\x00Free Applications'
tRp4503
I00
S'http://web2py.com/appliances'
p4504
tp4505
a(g4161
(S't\x07\x00\x00\x00Plugins'
tRp4506
I00
S'http://web2py.com/plugins'
p4507
tp4508
a(g4161
(S't\x07\x00\x00\x00Layouts'
tRp4509
I00
S'http://web2py.com/layouts'
p4510
tp4511
a(g4161
(S't\x07\x00\x00\x00Recipes'
tRp4512
I00
S'http://web2pyslices.com/'
p4513
tp4514
a(g4161
(S't\x08\x00\x00\x00Semantic'
tRp4515
I00
S'http://web2py.com/semantic'
p4516
tp4517
aasbasbasbasbasbasbasbag57
(g73
g59
NtRp4518
(dp4519
g62
(dp4520
sg71
g4275
sg64
(lp4521
g57
(g78
g59
NtRp4522
(dp4523
g62
(dp4524
sg71
g4518
sg64
(lp4525
g57
(g58
g59
NtRp4526
(dp4527
g62
(dp4528
g70
I2
ssg71
g4522
sg64
(lp4529
g57
(g66
g59
NtRp4530
(dp4531
g62
(dp4532
g70
I1
ssg71
Nsg64
(lp4533
g57
(g73
g59
NtRp4534
(dp4535
g62
(dp4536
sg71
g4530
sg64
(lp4537
g57
(g78
g59
NtRp4538
(dp4539
g62
(dp4540
sg71
g4534
sg64
(lp4541
g57
(g58
g59
NtRp4542
(dp4543
g62
(dp4544
g70
I1
ssg71
g4538
sg64
(lp4545
g4161
(S't\r\x00\x00\x00Documentation'
tRp4546
asbasbasbag57
(g73
g59
NtRp4547
(dp4548
g62
(dp4549
sg71
g4530
sg64
(lp4550
g57
(g78
g59
NtRp4551
(dp4552
g62
(dp4553
sg71
g4547
sg64
(lp4554
g57
(g58
g59
NtRp4555
(dp4556
g62
(dp4557
g70
I1
ssg71
g4551
sg64
(lp4558
I00
asbasbasbag57
(g73
g59
NtRp4559
(dp4560
g62
(dp4561
sg71
g4530
sg64
(lp4562
g57
(g78
g59
NtRp4563
(dp4564
g62
(dp4565
sg71
g4559
sg64
(lp4566
g57
(g58
g59
NtRp4567
(dp4568
g62
(dp4569
g70
I1
ssg71
g4563
sg64
(lp4570
S'http://www.web2py.com/book'
p4571
asbasbasbag57
(g73
g59
NtRp4572
(dp4573
g62
(dp4574
sg71
g4530
sg64
(lp4575
g57
(g78
g59
NtRp4576
(dp4577
g62
(dp4578
sg71
g4572
sg64
(lp4579
g57
(g58
g59
NtRp4580
(dp4581
g62
(dp4582
g70
I1
ssg71
g4576
sg64
(lp4583
(lp4584
(g4161
(S't\x07\x00\x00\x00Preface'
tRp4585
I00
S'http://www.web2py.com/book/default/chapter/00'
p4586
tp4587
a(g4161
(S't\x0c\x00\x00\x00Introduction'
tRp4588
I00
S'http://www.web2py.com/book/default/chapter/01'
p4589
tp4590
a(g4161
(S't\x06\x00\x00\x00Python'
tRp4591
I00
S'http://www.web2py.com/book/default/chapter/02'
p4592
tp4593
a(g4161
(S't\x08\x00\x00\x00Overview'
tRp4594
I00
S'http://www.web2py.com/book/default/chapter/03'
p4595
tp4596
a(g4161
(S's\x08\x00\x00\x00The Core'
tRp4597
I00
S'http://www.web2py.com/book/default/chapter/04'
p4598
tp4599
a(g4161
(S's\t\x00\x00\x00The Views'
tRp4600
I00
S'http://www.web2py.com/book/default/chapter/05'
p4601
tp4602
a(g4161
(S't\x08\x00\x00\x00Database'
tRp4603
I00
S'http://www.web2py.com/book/default/chapter/06'
p4604
tp4605
a(g4161
(S's\x14\x00\x00\x00Forms and Validators'
tRp4606
I00
S'http://www.web2py.com/book/default/chapter/07'
p4607
tp4608
a(g4161
(S's\r\x00\x00\x00Email and SMS'
tRp4609
I00
S'http://www.web2py.com/book/default/chapter/08'
p4610
tp4611
a(g4161
(S's\x0e\x00\x00\x00Access Control'
tRp4612
I00
S'http://www.web2py.com/book/default/chapter/09'
p4613
tp4614
a(g4161
(S't\x08\x00\x00\x00Services'
tRp4615
I00
S'http://www.web2py.com/book/default/chapter/10'
p4616
tp4617
a(g4161
(S's\x0c\x00\x00\x00Ajax Recipes'
tRp4618
I00
S'http://www.web2py.com/book/default/chapter/11'
p4619
tp4620
a(g4161
(S's\x16\x00\x00\x00Components and Plugins'
tRp4621
I00
S'http://www.web2py.com/book/default/chapter/12'
p4622
tp4623
a(g4161
(S's\x12\x00\x00\x00Deployment Recipes'
tRp4624
I00
S'http://www.web2py.com/book/default/chapter/13'
p4625
tp4626
a(g4161
(S's\r\x00\x00\x00Other Recipes'
tRp4627
I00
S'http://www.web2py.com/book/default/chapter/14'
p4628
tp4629
a(g4161
(S's\r\x00\x00\x00Buy this book'
tRp4630
I00
S'http://stores.lulu.com/web2py'
p4631
tp4632
aasbasbasbasbasbasbasbag57
(g73
g59
NtRp4633
(dp4634
g62
(dp4635
sg71
g4275
sg64
(lp4636
g57
(g78
g59
NtRp4637
(dp4638
g62
(dp4639
sg71
g4633
sg64
(lp4640
g57
(g58
g59
NtRp4641
(dp4642
g62
(dp4643
g70
I2
ssg71
g4637
sg64
(lp4644
g57
(g66
g59
NtRp4645
(dp4646
g62
(dp4647
g70
I1
ssg71
Nsg64
(lp4648
g57
(g73
g59
NtRp4649
(dp4650
g62
(dp4651
sg71
g4645
sg64
(lp4652
g57
(g78
g59
NtRp4653
(dp4654
g62
(dp4655
sg71
g4649
sg64
(lp4656
g57
(g58
g59
NtRp4657
(dp4658
g62
(dp4659
g70
I1
ssg71
g4653
sg64
(lp4660
g4161
(S't\t\x00\x00\x00Community'
tRp4661
asbasbasbag57
(g73
g59
NtRp4662
(dp4663
g62
(dp4664
sg71
g4645
sg64
(lp4665
g57
(g78
g59
NtRp4666
(dp4667
g62
(dp4668
sg71
g4662
sg64
(lp4669
g57
(g58
g59
NtRp4670
(dp4671
g62
(dp4672
g70
I1
ssg71
g4666
sg64
(lp4673
I00
asbasbasbag57
(g73
g59
NtRp4674
(dp4675
g62
(dp4676
sg71
g4645
sg64
(lp4677
g57
(g78
g59
NtRp4678
(dp4679
g62
(dp4680
sg71
g4674
sg64
(lp4681
g57
(g58
g59
NtRp4682
(dp4683
g62
(dp4684
g70
I1
ssg71
g4678
sg64
(lp4685
Nasbasbasbag57
(g73
g59
NtRp4686
(dp4687
g62
(dp4688
sg71
g4645
sg64
(lp4689
g57
(g78
g59
NtRp4690
(dp4691
g62
(dp4692
sg71
g4686
sg64
(lp4693
g57
(g58
g59
NtRp4694
(dp4695
g62
(dp4696
g70
I1
ssg71
g4690
sg64
(lp4697
(lp4698
(g4161
(S't\x06\x00\x00\x00Groups'
tRp4699
I00
S'http://www.web2py.com/examples/default/usergroups'
p4700
tp4701
a(g4161
(S't\x07\x00\x00\x00Twitter'
tRp4702
I00
S'http://twitter.com/web2py'
p4703
tp4704
a(g4161
(S's\t\x00\x00\x00Live Chat'
tRp4705
I00
S'http://webchat.freenode.net/?channels=web2py'
p4706
tp4707
aasbasbasbasbasbasbasbag57
(g73
g59
NtRp4708
(dp4709
g62
(dp4710
sg71
g4275
sg64
(lp4711
g57
(g78
g59
NtRp4712
(dp4713
g62
(dp4714
sg71
g4708
sg64
(lp4715
g57
(g58
g59
NtRp4716
(dp4717
g62
(dp4718
g70
I2
ssg71
g4712
sg64
(lp4719
g57
(g66
g59
NtRp4720
(dp4721
g62
(dp4722
g70
I1
ssg71
Nsg64
(lp4723
g57
(g73
g59
NtRp4724
(dp4725
g62
(dp4726
sg71
g4720
sg64
(lp4727
g57
(g78
g59
NtRp4728
(dp4729
g62
(dp4730
sg71
g4724
sg64
(lp4731
g57
(g58
g59
NtRp4732
(dp4733
g62
(dp4734
g70
I1
ssg71
g4728
sg64
(lp4735
g4161
(S't\x07\x00\x00\x00Plugins'
tRp4736
asbasbasbag57
(g73
g59
NtRp4737
(dp4738
g62
(dp4739
sg71
g4720
sg64
(lp4740
g57
(g78
g59
NtRp4741
(dp4742
g62
(dp4743
sg71
g4737
sg64
(lp4744
g57
(g58
g59
NtRp4745
(dp4746
g62
(dp4747
g70
I1
ssg71
g4741
sg64
(lp4748
I00
asbasbasbag57
(g73
g59
NtRp4749
(dp4750
g62
(dp4751
sg71
g4720
sg64
(lp4752
g57
(g78
g59
NtRp4753
(dp4754
g62
(dp4755
sg71
g4749
sg64
(lp4756
g57
(g58
g59
NtRp4757
(dp4758
g62
(dp4759
g70
I1
ssg71
g4753
sg64
(lp4760
Nasbasbasbag57
(g73
g59
NtRp4761
(dp4762
g62
(dp4763
sg71
g4720
sg64
(lp4764
g57
(g78
g59
NtRp4765
(dp4766
g62
(dp4767
sg71
g4761
sg64
(lp4768
g57
(g58
g59
NtRp4769
(dp4770
g62
(dp4771
g70
I1
ssg71
g4765
sg64
(lp4772
(lp4773
(S'plugin_wiki'
p4774
I00
S'http://web2py.com/examples/default/download'
p4775
tp4776
a(g4161
(S's\r\x00\x00\x00Other Plugins'
tRp4777
I00
g4507
tp4778
a(g4161
(S's\x0e\x00\x00\x00Layout Plugins'
tRp4779
I00
g4510
tp4780
aasbasbasbasbasbasbasbasbasbasbasbasbasbasbasbasbasbasbasbag57
(g73
g59
NtRp4781
(dp4782
g62
(dp4783
sg71
g3656
sg64
(lp4784
g57
(g78
g59
NtRp4785
(dp4786
g62
(dp4787
g82
g83
ssg71
g4781
sg64
(lp4788
S'meta'
p4789
asbag57
(g78
g59
NtRp4790
(dp4791
g62
(dp4792
g89
g90
ssg71
g4781
sg64
(lp4793
S':'
asbag57
(g78
g59
NtRp4794
(dp4795
g62
(dp4796
sg71
g4781
sg64
(lp4797
g57
(g58
g59
NtRp4798
(dp4799
g62
(dp4800
g70
I5
ssg71
g4794
sg64
(lp4801
g57
(g66
g59
NtRp4802
(dp4803
g62
(dp4804
g70
I4
ssg71
Nsg64
(lp4805
g57
(g73
g59
NtRp4806
(dp4807
g62
(dp4808
sg71
g4802
sg64
(lp4809
g57
(g78
g59
NtRp4810
(dp4811
g62
(dp4812
g82
g83
ssg71
g4806
sg64
(lp4813
S'author'
p4814
asbag57
(g78
g59
NtRp4815
(dp4816
g62
(dp4817
g89
g90
ssg71
g4806
sg64
(lp4818
S':'
asbag57
(g78
g59
NtRp4819
(dp4820
g62
(dp4821
sg71
g4806
sg64
(lp4822
g57
(g58
g59
NtRp4823
(dp4824
g62
(dp4825
g70
I4
ssg71
g4819
sg64
(lp4826
S'Your Name <you@example.com>'
p4827
asbasbasbag57
(g73
g59
NtRp4828
(dp4829
g62
(dp4830
sg71
g4802
sg64
(lp4831
g57
(g78
g59
NtRp4832
(dp4833
g62
(dp4834
g82
g83
ssg71
g4828
sg64
(lp4835
S'copyright'
p4836
asbag57
(g78
g59
NtRp4837
(dp4838
g62
(dp4839
g89
g90
ssg71
g4828
sg64
(lp4840
S':'
asbag57
(g78
g59
NtRp4841
(dp4842
g62
(dp4843
sg71
g4828
sg64
(lp4844
g57
(g58
g59
NtRp4845
(dp4846
g62
(dp4847
g70
I4
ssg71
g4841
sg64
(lp4848
S'Copyright 2011'
p4849
asbasbasbag57
(g73
g59
NtRp4850
(dp4851
g62
(dp4852
sg71
g4802
sg64
(lp4853
g57
(g78
g59
NtRp4854
(dp4855
g62
(dp4856
g82
g83
ssg71
g4850
sg64
(lp4857
S'description'
p4858
asbag57
(g78
g59
NtRp4859
(dp4860
g62
(dp4861
g89
g90
ssg71
g4850
sg64
(lp4862
S':'
asbag57
(g78
g59
NtRp4863
(dp4864
g62
(dp4865
sg71
g4850
sg64
(lp4866
g57
(g58
g59
NtRp4867
(dp4868
g62
(dp4869
g70
I4
ssg71
g4863
sg64
(lp4870
S'a cool new app'
p4871
asbasbasbag57
(g73
g59
NtRp4872
(dp4873
g62
(dp4874
sg71
g4802
sg64
(lp4875
g57
(g78
g59
NtRp4876
(dp4877
g62
(dp4878
g82
g83
ssg71
g4872
sg64
(lp4879
S'generator'
p4880
asbag57
(g78
g59
NtRp4881
(dp4882
g62
(dp4883
g89
g90
ssg71
g4872
sg64
(lp4884
S':'
asbag57
(g78
g59
NtRp4885
(dp4886
g62
(dp4887
sg71
g4872
sg64
(lp4888
g57
(g58
g59
NtRp4889
(dp4890
g62
(dp4891
g70
I4
ssg71
g4885
sg64
(lp4892
S'Web2py Web Framework'
p4893
asbasbasbag57
(g73
g59
NtRp4894
(dp4895
g62
(dp4896
sg71
g4802
sg64
(lp4897
g57
(g78
g59
NtRp4898
(dp4899
g62
(dp4900
g82
g83
ssg71
g4894
sg64
(lp4901
S'keywords'
p4902
asbag57
(g78
g59
NtRp4903
(dp4904
g62
(dp4905
g89
g90
ssg71
g4894
sg64
(lp4906
S':'
asbag57
(g78
g59
NtRp4907
(dp4908
g62
(dp4909
sg71
g4894
sg64
(lp4910
g57
(g58
g59
NtRp4911
(dp4912
g62
(dp4913
g70
I4
ssg71
g4907
sg64
(lp4914
S'web2py, python, framework'
p4915
asbasbasbasbasbasbasbag57
(g73
g59
NtRp4916
(dp4917
g62
(dp4918
sg71
g3656
sg64
(lp4919
g57
(g78
g59
NtRp4920
(dp4921
g62
(dp4922
g82
g83
ssg71
g4916
sg64
(lp4923
S'postprocessing'
p4924
asbag57
(g78
g59
NtRp4925
(dp4926
g62
(dp4927
g89
g90
ssg71
g4916
sg64
(lp4928
S':'
asbag57
(g78
g59
NtRp4929
(dp4930
g62
(dp4931
sg71
g4916
sg64
(lp4932
g57
(g58
g59
NtRp4933
(dp4934
g62
(dp4935
g70
I5
ssg71
g4929
sg64
(lp4936
g57
(g66
g59
NtRp4937
(dp4938
g62
(dp4939
g70
I4
ssg71
Nsg64
(lp4940
sbasbasbasbag57
(g73
g59
NtRp4941
(dp4942
g62
(dp4943
sg71
g3656
sg64
(lp4944
g57
(g78
g59
NtRp4945
(dp4946
g62
(dp4947
g82
g83
ssg71
g4941
sg64
(lp4948
S'session_file'
p4949
asbag57
(g78
g59
NtRp4950
(dp4951
g62
(dp4952
g89
g90
ssg71
g4941
sg64
(lp4953
S':'
asbag57
(g78
g59
NtRp4954
(dp4955
g62
(dp4956
sg71
g4941
sg64
(lp4957
g57
(g58
g59
NtRp4958
(dp4959
g62
(dp4960
g70
I5
ssg71
g4954
sg64
(lp4961
S"<open file '/home/iscott/web/web2py/applications/grammateus3/sessions/127.0.0.1-03d15d8e-e891-4307-a6bf-5717208181cd', mode 'rb+' at 0xb252548>"
p4962
asbasbasbag57
(g73
g59
NtRp4963
(dp4964
g62
(dp4965
sg71
g3656
sg64
(lp4966
g57
(g78
g59
NtRp4967
(dp4968
g62
(dp4969
g82
g83
ssg71
g4963
sg64
(lp4970
S'session_filename'
p4971
asbag57
(g78
g59
NtRp4972
(dp4973
g62
(dp4974
g89
g90
ssg71
g4963
sg64
(lp4975
S':'
asbag57
(g78
g59
NtRp4976
(dp4977
g62
(dp4978
sg71
g4963
sg64
(lp4979
g57
(g58
g59
NtRp4980
(dp4981
g62
(dp4982
g70
I5
ssg71
g4976
sg64
(lp4983
S'/home/iscott/web/web2py/applications/grammateus3/sessions/127.0.0.1-03d15d8e-e891-4307-a6bf-5717208181cd'
p4984
asbasbasbag57
(g73
g59
NtRp4985
(dp4986
g62
(dp4987
sg71
g3656
sg64
(lp4988
g57
(g78
g59
NtRp4989
(dp4990
g62
(dp4991
g82
g83
ssg71
g4985
sg64
(lp4992
S'session_id'
p4993
asbag57
(g78
g59
NtRp4994
(dp4995
g62
(dp4996
g89
g90
ssg71
g4985
sg64
(lp4997
S':'
asbag57
(g78
g59
NtRp4998
(dp4999
g62
(dp5000
sg71
g4985
sg64
(lp5001
g57
(g58
g59
NtRp5002
(dp5003
g62
(dp5004
g70
I5
ssg71
g4998
sg64
(lp5005
S'127.0.0.1-03d15d8e-e891-4307-a6bf-5717208181cd'
p5006
asbasbasbag57
(g73
g59
NtRp5007
(dp5008
g62
(dp5009
sg71
g3656
sg64
(lp5010
g57
(g78
g59
NtRp5011
(dp5012
g62
(dp5013
g82
g83
ssg71
g5007
sg64
(lp5014
S'session_id_name'
p5015
asbag57
(g78
g59
NtRp5016
(dp5017
g62
(dp5018
g89
g90
ssg71
g5007
sg64
(lp5019
S':'
asbag57
(g78
g59
NtRp5020
(dp5021
g62
(dp5022
sg71
g5007
sg64
(lp5023
g57
(g58
g59
NtRp5024
(dp5025
g62
(dp5026
g70
I5
ssg71
g5020
sg64
(lp5027
g3713
asbasbasbag57
(g73
g59
NtRp5028
(dp5029
g62
(dp5030
sg71
g3656
sg64
(lp5031
g57
(g78
g59
NtRp5032
(dp5033
g62
(dp5034
g82
g83
ssg71
g5028
sg64
(lp5035
S'session_locked'
p5036
asbag57
(g78
g59
NtRp5037
(dp5038
g62
(dp5039
g89
g90
ssg71
g5028
sg64
(lp5040
S':'
asbag57
(g78
g59
NtRp5041
(dp5042
g62
(dp5043
sg71
g5028
sg64
(lp5044
g57
(g58
g59
NtRp5045
(dp5046
g62
(dp5047
g70
I5
ssg71
g5041
sg64
(lp5048
g100
asbasbasbag57
(g73
g59
NtRp5049
(dp5050
g62
(dp5051
sg71
g3656
sg64
(lp5052
g57
(g78
g59
NtRp5053
(dp5054
g62
(dp5055
g82
g83
ssg71
g5049
sg64
(lp5056
S'session_new'
p5057
asbag57
(g78
g59
NtRp5058
(dp5059
g62
(dp5060
g89
g90
ssg71
g5049
sg64
(lp5061
S':'
asbag57
(g78
g59
NtRp5062
(dp5063
g62
(dp5064
sg71
g5049
sg64
(lp5065
g57
(g58
g59
NtRp5066
(dp5067
g62
(dp5068
g70
I5
ssg71
g5062
sg64
(lp5069
g1343
asbasbasbag57
(g73
g59
NtRp5070
(dp5071
g62
(dp5072
sg71
g3656
sg64
(lp5073
g57
(g78
g59
NtRp5074
(dp5075
g62
(dp5076
g82
g83
ssg71
g5070
sg64
(lp5077
S'status'
p5078
asbag57
(g78
g59
NtRp5079
(dp5080
g62
(dp5081
g89
g90
ssg71
g5070
sg64
(lp5082
S':'
asbag57
(g78
g59
NtRp5083
(dp5084
g62
(dp5085
sg71
g5070
sg64
(lp5086
g57
(g58
g59
NtRp5087
(dp5088
g62
(dp5089
g70
I5
ssg71
g5083
sg64
(lp5090
S'200'
p5091
asbasbasbag57
(g73
g59
NtRp5092
(dp5093
g62
(dp5094
sg71
g3656
sg64
(lp5095
g57
(g78
g59
NtRp5096
(dp5097
g62
(dp5098
g82
g83
ssg71
g5092
sg64
(lp5099
S'subtitle'
p5100
asbag57
(g78
g59
NtRp5101
(dp5102
g62
(dp5103
g89
g90
ssg71
g5092
sg64
(lp5104
S':'
asbag57
(g78
g59
NtRp5105
(dp5106
g62
(dp5107
sg71
g5092
sg64
(lp5108
g57
(g58
g59
NtRp5109
(dp5110
g62
(dp5111
g70
I5
ssg71
g5105
sg64
(lp5112
g4161
(S's\r\x00\x00\x00customize me!'
tRp5113
asbasbasbag57
(g73
g59
NtRp5114
(dp5115
g62
(dp5116
sg71
g3656
sg64
(lp5117
g57
(g78
g59
NtRp5118
(dp5119
g62
(dp5120
g82
g83
ssg71
g5114
sg64
(lp5121
S'title'
p5122
asbag57
(g78
g59
NtRp5123
(dp5124
g62
(dp5125
g89
g90
ssg71
g5114
sg64
(lp5126
S':'
asbag57
(g78
g59
NtRp5127
(dp5128
g62
(dp5129
sg71
g5114
sg64
(lp5130
g57
(g58
g59
NtRp5131
(dp5132
g62
(dp5133
g70
I5
ssg71
g5127
sg64
(lp5134
S'Grammateus3'
p5135
asbasbasbag57
(g73
g59
NtRp5136
(dp5137
g62
(dp5138
sg71
g3656
sg64
(lp5139
g57
(g78
g59
NtRp5140
(dp5141
g62
(dp5142
g82
g83
ssg71
g5136
sg64
(lp5143
g2834
asbag57
(g78
g59
NtRp5144
(dp5145
g62
(dp5146
g89
g90
ssg71
g5136
sg64
(lp5147
S':'
asbag57
(g78
g59
NtRp5148
(dp5149
g62
(dp5150
sg71
g5136
sg64
(lp5151
g57
(g58
g59
NtRp5152
(dp5153
g62
(dp5154
g70
I5
ssg71
g5148
sg64
(lp5155
g2847
asbasbasbag57
(g73
g59
NtRp5156
(dp5157
g62
(dp5158
sg71
g3656
sg64
(lp5159
g57
(g78
g59
NtRp5160
(dp5161
g62
(dp5162
g82
g83
ssg71
g5156
sg64
(lp5163
S'view'
p5164
asbag57
(g78
g59
NtRp5165
(dp5166
g62
(dp5167
g89
g90
ssg71
g5156
sg64
(lp5168
S':'
asbag57
(g78
g59
NtRp5169
(dp5170
g62
(dp5171
sg71
g5156
sg64
(lp5172
g57
(g58
g59
NtRp5173
(dp5174
g62
(dp5175
g70
I5
ssg71
g5169
sg64
(lp5176
S'docs/section.load'
p5177
asbasbasbasbasbsS'locals'
p5178
(dp5179
S'info'
p5180
S"{'structure': '', 'title': '1 Enoch', 'versions': [OrderedDict([('title', 'Ethiopic'), ('author', '...\\u200b\\u1208\\u12d3\\u1208\\u121d\\u1362')]))]))]))]), OrderedDict([('title', 'Qumran Aramaic'), ('auth...u05d5\\u05e7\\u05dc\\u05d0\\u05c4 \\u2026')]))]))]))]), OrderedDict([('title', 'Latin Fragments'), ('aut...es quia requiem prestabit in archam.')]))]))]))]), OrderedDict([('title', 'Greek'), ('author', 'Ano...03c9\\u03bb\\u03b5\\u1f77\\u03b1\\u03c2. ')]))]))]))])]}"
p5181
sS'versions'
p5182
S"['Ethiopic', 'Qumran Aramaic', 'Latin Fragments', 'Greek']"
p5183
sg5122
S"'1 Enoch'"
p5184
sS'filename'
p5185
S"'1En'"
p5186
sS'p'
S'<applications.grammateus3.modules.parse.BookParser object>'
p5187
sg431
S"OrderedDict([('title', 'Greek'), ('author', 'Ano...03c9\\u03bb\\u03b5\\u1f77\\u03b1\\u03c2. ')]))]))]))])"
p5188
sS'current_version'
p5189
S"'undefined'"
p5190
sS'book_file'
p5191
S"'applications/grammateus3/static/docs/1En.xml'"
p5192
sssS'traceback'
p5193
S'Traceback (most recent call last):\n  File "/home/iscott/web/web2py/gluon/restricted.py", line 204, in restricted\n    exec ccode in environment\n  File "/home/iscott/web/web2py/applications/grammateus3/controllers/docs.py", line 130, in <module>\n  File "/home/iscott/web/web2py/gluon/globals.py", line 172, in <lambda>\n    self._caller = lambda f: f()\n  File "/home/iscott/web/web2py/applications/grammateus3/controllers/docs.py", line 49, in section\n    i = versions.index(current_version)\nValueError: \'undefined\' is not in list\n'
p5194
s.