(dp1
S'output'
p2
S"<class 'lxml.etree.XMLSyntaxError'> Document is empty, line 1, column 1"
p3
sS'layer'
p4
S'/home/iscott/web/web2py/applications/grammateus3/controllers/docs.py'
p5
sS'code'
p6
S'# coding: utf8\nfrom lxml import etree\n\nfrom parse import BookParser\n\nimport pprint\nimport inspect\n\nimport re\n\n"""\nList of session objects used in text display:\nsession.filename\nsession.info -- dict; parsed results of BookParser class for current doc\nsession.title -- string; title of current doc\nsession.versions -- list; names of all versions in current doc\n"""\n\ndef index():\n    filename = request.args[0]\n    return dict(filename = filename)\n\ndef text():\n    filename = request.args[0]\n    #TODO: provide fallback and prompt if no filename is given in url\n    \n    #url to pass to web2py load helper in view to load doc section via ajax\n    load_url = URL(\'docs\', \'section.load\', args=filename)\n\n    return dict(load_url = load_url, filename = filename)\n\ndef section():\n    """\n    populates a single text pane via the section.load view (refreshable via ajax)\n    """\n    #print url input for debugging purposes\n    varlist = [(str(k) + \':\' + str(v)) for k, v in request.vars.items()]\n    print \'start of section() method with url \', request.url, varlist\n    #get filename from end of url and parse the file with BookParser class\n    filename = request.args[0]\n    print \'filename: \', filename\n    book_file = \'applications/grammateus3/static/docs/%s.xml\' % filename\n    p = BookParser(book_file)\n    info = p.book_info()\n    #get title of document\n    title = info[\'title\']\n\n    #get names of all versions of current doc and select the version to display\n    versions = [version[\'title\'] for version in info[\'versions\']]     \n    if \'version\' in request.vars:\n        current_version = request.vars[\'version\'].replace(\'_\', \' \')\n        #move selected version to top of list for selectbox\n        i = versions.index(current_version)\n        versions.insert(0, versions.pop(i))\n        print \'current version: \', current_version.replace(\' \', \'&nbsp;\')\n    else:\n        current_version = versions[0]\n        print \'current version: \', current_version.replace(\' \', \'&nbsp;\')\n\n    #find selected version in parsed text\n    for version in info[\'versions\']:\n        for k, v in version.items():\n            if k == \'title\' and v == current_version:\n                curv = version\n                vlang = curv[\'language\']\n                levels = curv[\'organisation_levels\']\n            else:\n                pass\n\n    #get list of mss\n    mslist = [k.strip() for k, v in curv[\'manuscript\'].items()]\n    print \'mslist for this version: \', mslist\n    #use the third url argument as manuscript name if present, otherwise default to first version\n    #check for \'newval\' value, indicating the version has changed\n    if \'type\' in request.vars and request.vars[\'type\'] != \'newval\':\n        current_ms = request.vars[\'type\'].replace(\'_\', \' \')\n        current_ms = current_ms.strip()\n        print \'current_ms: \', current_ms\n        #move selected text type to top of list for ms selectbox\n        i = mslist.index(current_ms)\n        mslist.insert(0, mslist.pop(i))        \n    else:\n        current_ms = mslist[0]\n        print \'current_ms: \', current_ms\n\n    #build hierarchical dict of references\n    reflist = [ref for ref, units in curv[\'text_structure\'].items()]\n\n    #build list for starting ref\n    if \'from\' in request.vars:\n        from_input = request.vars[\'from\']\n        start_sel = from_input.split(\'-\')\n        del start_sel[-1]\n        print \'using url ref\'\n    else:\n        firstref = reflist[0]\n        firstref_parts = re.split(\'[:\\.,;_-]\', firstref)\n        start_sel = [firstref_parts[l-1] for l in range(levels)]\n        print \'using default first ref\'\n\n    #build list for ending ref\n    if \'to\' in request.vars:                \n        to_input = request.vars[\'to\']\n        end_sel = to_input.split(\'-\')\n        del end_sel[-1]\n    else:\n        end_sel = start_sel\n    print \'start_sel\', start_sel\n    print \'end_sel\', end_sel\n    #gather text from units within the selected section of the doc\n    #filters the current version for only readings in the current\n    #text type\n    sel_text = []\n    print \'matching text in: \'\n    for ref, units in curv[\'text_structure\'].items():\n        ref_parts = re.split(\'[:\\.,;_-]\', ref)\n        if int(ref_parts[0]) >= int(start_sel[0]) and int(ref_parts[0]) <= int(end_sel[0]):\n                print ref_parts\n                sel_text.append(SPAN(ref, _class = \'ref\'))\n                for unit_ref, unit_val in units.items():\n                    for mss, raw_text in unit_val.items():\n                        if current_ms[-1] != \' \':\n                            current_ms += \' \'\n                        if current_ms in (mss + \' \'):\n                            if len(units) > 1:\n                                sel_text.append(A(raw_text, _class = vlang, _href=unit_ref))\n                            else:\n                                sel_text.append(SPAN(raw_text, _class = vlang))\n                        else:\n                            pass\n    for s in sel_text:\n        print s[0]\n\n    return dict(title = title, versions = versions, current_version = current_version, info = info, filename = filename, mslist = mslist, sel_text = sel_text, levels = levels, start_sel = start_sel, end_sel = end_sel)\n\n\ndef test():\n    filename = request.args[0]\n    book_file = \'applications/grammateus3/static/docs/%s.xml\' % filename\n    p = BookParser(book_file)\n    info = p.book_info()\n\n    title = info[\'title\']\n    for version in info[\'versions\']:\n        for key, value in version.items():\n            if key != \'text_structure\':\n                print \'Version\', key, \'-->\', value\n\n            else:\n                print \'Version textstructure\'\n                for ref, ref_val in value.items():\n                    for unit, unit_val in ref_val.items():\n                        for mss, mss_val in unit_val.items():\n                            print \'\\t\', ref, \'-->\', unit, \'-->\', mss, \'-->\', mss_val\n        print \'************\'\n    print\n    print\n\n    return dict(title = title, info = info)\n\nresponse._vars=response._caller(section)\n'
p7
sS'snapshot'
p8
(dp9
S'exception'
p10
(dp11
S'__module__'
p12
S"'lxml.etree'"
p13
sg6
S'4'
sS'__getslice__'
p14
S"<method-wrapper '__getslice__' of XMLSyntaxError object>"
p15
sS'text'
p16
S'None'
p17
sS'__str__'
p18
S"<method-wrapper '__str__' of XMLSyntaxError object>"
p19
sS'__reduce__'
p20
S'<built-in method __reduce__ of XMLSyntaxError object>'
p21
sS'__dict__'
p22
S"{'code': 4, 'error_log': applications/grammateus3/static/docs/3Macc.xml:1...DOCUMENT_EMPTY: Start tag expected, '<' not found, 'position': (1, 1)}"
p23
sS'__sizeof__'
p24
S'<built-in method __sizeof__ of XMLSyntaxError object>'
p25
sS'__weakref__'
p26
S'None'
p27
sS'__init__'
p28
S"<bound method XMLSyntaxError.__init__ of XMLSyntaxError(u'Document is empty, line 1, column 1',)>"
p29
sS'__setattr__'
p30
S"<method-wrapper '__setattr__' of XMLSyntaxError object>"
p31
sS'__reduce_ex__'
p32
S'<built-in method __reduce_ex__ of XMLSyntaxError object>'
p33
sS'__new__'
p34
S'<built-in method __new__ of type object>'
p35
sS'__format__'
p36
S'<built-in method __format__ of XMLSyntaxError object>'
p37
sS'__class__'
p38
S"<class 'lxml.etree.XMLSyntaxError'>"
p39
sS'filename'
p40
S'None'
p41
sS'lineno'
p42
S'None'
p43
sS'msg'
p44
S"u'Document is empty, line 1, column 1'"
p45
sS'__doc__'
p46
S"'Syntax error while parsing an XML document.\\n    '"
p47
sS'__getitem__'
p48
S"<method-wrapper '__getitem__' of XMLSyntaxError object>"
p49
sS'__setstate__'
p50
S'<built-in method __setstate__ of XMLSyntaxError object>'
p51
sS'__getattribute__'
p52
S"<method-wrapper '__getattribute__' of XMLSyntaxError object>"
p53
sS'print_file_and_line'
p54
S'None'
p55
sS'args'
p56
S"(u'Document is empty, line 1, column 1',)"
p57
sS'__subclasshook__'
p58
S'<built-in method __subclasshook__ of type object>'
p59
sS'offset'
p60
S'None'
p61
sS'__unicode__'
p62
S'<built-in method __unicode__ of XMLSyntaxError object>'
p63
sS'error_log'
p64
S"applications/grammateus3/static/docs/3Macc.xml:1...DOCUMENT_EMPTY: Start tag expected, '<' not found"
p65
sS'__delattr__'
p66
S"<method-wrapper '__delattr__' of XMLSyntaxError object>"
p67
sS'__repr__'
p68
S"<method-wrapper '__repr__' of XMLSyntaxError object>"
p69
sS'__hash__'
p70
S"<method-wrapper '__hash__' of XMLSyntaxError object>"
p71
sS'position'
p72
S'(1, 1)'
p73
ssS'evalue'
p74
S'Document is empty, line 1, column 1'
p75
sS'request'
p76
ccopy_reg
_reconstructor
p77
(cgluon.html
BEAUTIFY
p78
c__builtin__
object
p79
NtRp80
(dp81
S'attributes'
p82
(dp83
sS'components'
p84
(lp85
g77
(cgluon.html
TABLE
p86
g79
NtRp87
(dp88
g82
(dp89
S'level'
p90
I5
ssS'parent'
p91
Nsg84
(lp92
g77
(cgluon.html
TR
p93
g79
NtRp94
(dp95
g82
(dp96
sg91
g87
sg84
(lp97
g77
(cgluon.html
TD
p98
g79
NtRp99
(dp100
g82
(dp101
S'_style'
p102
S'font-weight:bold;vertical-align:top'
p103
ssg91
g94
sg84
(lp104
S'ajax'
p105
asbag77
(g98
g79
NtRp106
(dp107
g82
(dp108
S'_valign'
p109
S'top'
p110
ssg91
g94
sg84
(lp111
S':'
asbag77
(g98
g79
NtRp112
(dp113
g82
(dp114
sg91
g94
sg84
(lp115
g77
(g78
g79
NtRp116
(dp117
g82
(dp118
g90
I5
ssg91
g112
sg84
(lp119
S'True'
p120
asbasbasbag77
(g93
g79
NtRp121
(dp122
g82
(dp123
sg91
g87
sg84
(lp124
g77
(g98
g79
NtRp125
(dp126
g82
(dp127
g102
g103
ssg91
g121
sg84
(lp128
S'application'
p129
asbag77
(g98
g79
NtRp130
(dp131
g82
(dp132
g109
g110
ssg91
g121
sg84
(lp133
S':'
asbag77
(g98
g79
NtRp134
(dp135
g82
(dp136
sg91
g121
sg84
(lp137
g77
(g78
g79
NtRp138
(dp139
g82
(dp140
g90
I5
ssg91
g134
sg84
(lp141
S'grammateus3'
p142
asbasbasbag77
(g93
g79
NtRp143
(dp144
g82
(dp145
sg91
g87
sg84
(lp146
g77
(g98
g79
NtRp147
(dp148
g82
(dp149
g102
g103
ssg91
g143
sg84
(lp150
g56
asbag77
(g98
g79
NtRp151
(dp152
g82
(dp153
g109
g110
ssg91
g143
sg84
(lp154
S':'
asbag77
(g98
g79
NtRp155
(dp156
g82
(dp157
sg91
g143
sg84
(lp158
g77
(g78
g79
NtRp159
(dp160
g82
(dp161
g90
I5
ssg91
g155
sg84
(lp162
g77
(g86
g79
NtRp163
(dp164
g82
(dp165
g90
I4
ssg91
Nsg84
(lp166
g77
(g93
g79
NtRp167
(dp168
g82
(dp169
sg91
g163
sg84
(lp170
g77
(g98
g79
NtRp171
(dp172
g82
(dp173
sg91
g167
sg84
(lp174
g77
(g78
g79
NtRp175
(dp176
g82
(dp177
g90
I4
ssg91
g171
sg84
(lp178
S'3Macc'
p179
asbasbasbasbasbasbasbag77
(g93
g79
NtRp180
(dp181
g82
(dp182
sg91
g87
sg84
(lp183
g77
(g98
g79
NtRp184
(dp185
g82
(dp186
g102
g103
ssg91
g180
sg84
(lp187
S'body'
p188
asbag77
(g98
g79
NtRp189
(dp190
g82
(dp191
g109
g110
ssg91
g180
sg84
(lp192
S':'
asbag77
(g98
g79
NtRp193
(dp194
g82
(dp195
sg91
g180
sg84
(lp196
g77
(g78
g79
NtRp197
(dp198
g82
(dp199
g90
I5
ssg91
g193
sg84
(lp200
S'<cStringIO.StringO object at 0xb3dbda0>'
p201
asbasbasbag77
(g93
g79
NtRp202
(dp203
g82
(dp204
sg91
g87
sg84
(lp205
g77
(g98
g79
NtRp206
(dp207
g82
(dp208
g102
g103
ssg91
g202
sg84
(lp209
S'cid'
p210
asbag77
(g98
g79
NtRp211
(dp212
g82
(dp213
g109
g110
ssg91
g202
sg84
(lp214
S':'
asbag77
(g98
g79
NtRp215
(dp216
g82
(dp217
sg91
g202
sg84
(lp218
g77
(g78
g79
NtRp219
(dp220
g82
(dp221
g90
I5
ssg91
g215
sg84
(lp222
S'c788688368476'
p223
asbasbasbag77
(g93
g79
NtRp224
(dp225
g82
(dp226
sg91
g87
sg84
(lp227
g77
(g98
g79
NtRp228
(dp229
g82
(dp230
g102
g103
ssg91
g224
sg84
(lp231
S'client'
p232
asbag77
(g98
g79
NtRp233
(dp234
g82
(dp235
g109
g110
ssg91
g224
sg84
(lp236
S':'
asbag77
(g98
g79
NtRp237
(dp238
g82
(dp239
sg91
g224
sg84
(lp240
g77
(g78
g79
NtRp241
(dp242
g82
(dp243
g90
I5
ssg91
g237
sg84
(lp244
S'127.0.0.1'
p245
asbasbasbag77
(g93
g79
NtRp246
(dp247
g82
(dp248
sg91
g87
sg84
(lp249
g77
(g98
g79
NtRp250
(dp251
g82
(dp252
g102
g103
ssg91
g246
sg84
(lp253
S'controller'
p254
asbag77
(g98
g79
NtRp255
(dp256
g82
(dp257
g109
g110
ssg91
g246
sg84
(lp258
S':'
asbag77
(g98
g79
NtRp259
(dp260
g82
(dp261
sg91
g246
sg84
(lp262
g77
(g78
g79
NtRp263
(dp264
g82
(dp265
g90
I5
ssg91
g259
sg84
(lp266
S'docs'
p267
asbasbasbag77
(g93
g79
NtRp268
(dp269
g82
(dp270
sg91
g87
sg84
(lp271
g77
(g98
g79
NtRp272
(dp273
g82
(dp274
g102
g103
ssg91
g268
sg84
(lp275
S'cookies'
p276
asbag77
(g98
g79
NtRp277
(dp278
g82
(dp279
g109
g110
ssg91
g268
sg84
(lp280
S':'
asbag77
(g98
g79
NtRp281
(dp282
g82
(dp283
sg91
g268
sg84
(lp284
g77
(g78
g79
NtRp285
(dp286
g82
(dp287
g90
I5
ssg91
g281
sg84
(lp288
g77
(g86
g79
NtRp289
(dp290
g82
(dp291
g90
I4
ssg91
Nsg84
(lp292
g77
(g93
g79
NtRp293
(dp294
g82
(dp295
sg91
g289
sg84
(lp296
g77
(g98
g79
NtRp297
(dp298
g82
(dp299
g102
g103
ssg91
g293
sg84
(lp300
S'session_id_admin'
p301
asbag77
(g98
g79
NtRp302
(dp303
g82
(dp304
g109
g110
ssg91
g293
sg84
(lp305
S':'
asbag77
(g98
g79
NtRp306
(dp307
g82
(dp308
sg91
g293
sg84
(lp309
g77
(g78
g79
NtRp310
(dp311
g82
(dp312
g90
I4
ssg91
g306
sg84
(lp313
g77
(g86
g79
NtRp314
(dp315
g82
(dp316
g90
I3
ssg91
Nsg84
(lp317
g77
(g93
g79
NtRp318
(dp319
g82
(dp320
sg91
g314
sg84
(lp321
g77
(g98
g79
NtRp322
(dp323
g82
(dp324
g102
g103
ssg91
g318
sg84
(lp325
S'comment'
p326
asbag77
(g98
g79
NtRp327
(dp328
g82
(dp329
g109
g110
ssg91
g318
sg84
(lp330
S':'
asbag77
(g98
g79
NtRp331
(dp332
g82
(dp333
sg91
g318
sg84
(lp334
g77
(g78
g79
NtRp335
(dp336
g82
(dp337
g90
I3
ssg91
g331
sg84
(lp338
S''
asbasbasbag77
(g93
g79
NtRp339
(dp340
g82
(dp341
sg91
g314
sg84
(lp342
g77
(g98
g79
NtRp343
(dp344
g82
(dp345
g102
g103
ssg91
g339
sg84
(lp346
S'domain'
p347
asbag77
(g98
g79
NtRp348
(dp349
g82
(dp350
g109
g110
ssg91
g339
sg84
(lp351
S':'
asbag77
(g98
g79
NtRp352
(dp353
g82
(dp354
sg91
g339
sg84
(lp355
g77
(g78
g79
NtRp356
(dp357
g82
(dp358
g90
I3
ssg91
g352
sg84
(lp359
S''
asbasbasbag77
(g93
g79
NtRp360
(dp361
g82
(dp362
sg91
g314
sg84
(lp363
g77
(g98
g79
NtRp364
(dp365
g82
(dp366
g102
g103
ssg91
g360
sg84
(lp367
S'expires'
p368
asbag77
(g98
g79
NtRp369
(dp370
g82
(dp371
g109
g110
ssg91
g360
sg84
(lp372
S':'
asbag77
(g98
g79
NtRp373
(dp374
g82
(dp375
sg91
g360
sg84
(lp376
g77
(g78
g79
NtRp377
(dp378
g82
(dp379
g90
I3
ssg91
g373
sg84
(lp380
S''
asbasbasbag77
(g93
g79
NtRp381
(dp382
g82
(dp383
sg91
g314
sg84
(lp384
g77
(g98
g79
NtRp385
(dp386
g82
(dp387
g102
g103
ssg91
g381
sg84
(lp388
S'httponly'
p389
asbag77
(g98
g79
NtRp390
(dp391
g82
(dp392
g109
g110
ssg91
g381
sg84
(lp393
S':'
asbag77
(g98
g79
NtRp394
(dp395
g82
(dp396
sg91
g381
sg84
(lp397
g77
(g78
g79
NtRp398
(dp399
g82
(dp400
g90
I3
ssg91
g394
sg84
(lp401
S''
asbasbasbag77
(g93
g79
NtRp402
(dp403
g82
(dp404
sg91
g314
sg84
(lp405
g77
(g98
g79
NtRp406
(dp407
g82
(dp408
g102
g103
ssg91
g402
sg84
(lp409
S'max-age'
p410
asbag77
(g98
g79
NtRp411
(dp412
g82
(dp413
g109
g110
ssg91
g402
sg84
(lp414
S':'
asbag77
(g98
g79
NtRp415
(dp416
g82
(dp417
sg91
g402
sg84
(lp418
g77
(g78
g79
NtRp419
(dp420
g82
(dp421
g90
I3
ssg91
g415
sg84
(lp422
S''
asbasbasbag77
(g93
g79
NtRp423
(dp424
g82
(dp425
sg91
g314
sg84
(lp426
g77
(g98
g79
NtRp427
(dp428
g82
(dp429
g102
g103
ssg91
g423
sg84
(lp430
S'path'
p431
asbag77
(g98
g79
NtRp432
(dp433
g82
(dp434
g109
g110
ssg91
g423
sg84
(lp435
S':'
asbag77
(g98
g79
NtRp436
(dp437
g82
(dp438
sg91
g423
sg84
(lp439
g77
(g78
g79
NtRp440
(dp441
g82
(dp442
g90
I3
ssg91
g436
sg84
(lp443
S''
asbasbasbag77
(g93
g79
NtRp444
(dp445
g82
(dp446
sg91
g314
sg84
(lp447
g77
(g98
g79
NtRp448
(dp449
g82
(dp450
g102
g103
ssg91
g444
sg84
(lp451
S'secure'
p452
asbag77
(g98
g79
NtRp453
(dp454
g82
(dp455
g109
g110
ssg91
g444
sg84
(lp456
S':'
asbag77
(g98
g79
NtRp457
(dp458
g82
(dp459
sg91
g444
sg84
(lp460
g77
(g78
g79
NtRp461
(dp462
g82
(dp463
g90
I3
ssg91
g457
sg84
(lp464
S''
asbasbasbag77
(g93
g79
NtRp465
(dp466
g82
(dp467
sg91
g314
sg84
(lp468
g77
(g98
g79
NtRp469
(dp470
g82
(dp471
g102
g103
ssg91
g465
sg84
(lp472
S'version'
p473
asbag77
(g98
g79
NtRp474
(dp475
g82
(dp476
g109
g110
ssg91
g465
sg84
(lp477
S':'
asbag77
(g98
g79
NtRp478
(dp479
g82
(dp480
sg91
g465
sg84
(lp481
g77
(g78
g79
NtRp482
(dp483
g82
(dp484
g90
I3
ssg91
g478
sg84
(lp485
S''
asbasbasbasbasbasbasbag77
(g93
g79
NtRp486
(dp487
g82
(dp488
sg91
g289
sg84
(lp489
g77
(g98
g79
NtRp490
(dp491
g82
(dp492
g102
g103
ssg91
g486
sg84
(lp493
S'session_id_bloglet'
p494
asbag77
(g98
g79
NtRp495
(dp496
g82
(dp497
g109
g110
ssg91
g486
sg84
(lp498
S':'
asbag77
(g98
g79
NtRp499
(dp500
g82
(dp501
sg91
g486
sg84
(lp502
g77
(g78
g79
NtRp503
(dp504
g82
(dp505
g90
I4
ssg91
g499
sg84
(lp506
g77
(g86
g79
NtRp507
(dp508
g82
(dp509
g90
I3
ssg91
Nsg84
(lp510
g77
(g93
g79
NtRp511
(dp512
g82
(dp513
sg91
g507
sg84
(lp514
g77
(g98
g79
NtRp515
(dp516
g82
(dp517
g102
g103
ssg91
g511
sg84
(lp518
g326
asbag77
(g98
g79
NtRp519
(dp520
g82
(dp521
g109
g110
ssg91
g511
sg84
(lp522
S':'
asbag77
(g98
g79
NtRp523
(dp524
g82
(dp525
sg91
g511
sg84
(lp526
g77
(g78
g79
NtRp527
(dp528
g82
(dp529
g90
I3
ssg91
g523
sg84
(lp530
S''
asbasbasbag77
(g93
g79
NtRp531
(dp532
g82
(dp533
sg91
g507
sg84
(lp534
g77
(g98
g79
NtRp535
(dp536
g82
(dp537
g102
g103
ssg91
g531
sg84
(lp538
g347
asbag77
(g98
g79
NtRp539
(dp540
g82
(dp541
g109
g110
ssg91
g531
sg84
(lp542
S':'
asbag77
(g98
g79
NtRp543
(dp544
g82
(dp545
sg91
g531
sg84
(lp546
g77
(g78
g79
NtRp547
(dp548
g82
(dp549
g90
I3
ssg91
g543
sg84
(lp550
S''
asbasbasbag77
(g93
g79
NtRp551
(dp552
g82
(dp553
sg91
g507
sg84
(lp554
g77
(g98
g79
NtRp555
(dp556
g82
(dp557
g102
g103
ssg91
g551
sg84
(lp558
g368
asbag77
(g98
g79
NtRp559
(dp560
g82
(dp561
g109
g110
ssg91
g551
sg84
(lp562
S':'
asbag77
(g98
g79
NtRp563
(dp564
g82
(dp565
sg91
g551
sg84
(lp566
g77
(g78
g79
NtRp567
(dp568
g82
(dp569
g90
I3
ssg91
g563
sg84
(lp570
S''
asbasbasbag77
(g93
g79
NtRp571
(dp572
g82
(dp573
sg91
g507
sg84
(lp574
g77
(g98
g79
NtRp575
(dp576
g82
(dp577
g102
g103
ssg91
g571
sg84
(lp578
g389
asbag77
(g98
g79
NtRp579
(dp580
g82
(dp581
g109
g110
ssg91
g571
sg84
(lp582
S':'
asbag77
(g98
g79
NtRp583
(dp584
g82
(dp585
sg91
g571
sg84
(lp586
g77
(g78
g79
NtRp587
(dp588
g82
(dp589
g90
I3
ssg91
g583
sg84
(lp590
S''
asbasbasbag77
(g93
g79
NtRp591
(dp592
g82
(dp593
sg91
g507
sg84
(lp594
g77
(g98
g79
NtRp595
(dp596
g82
(dp597
g102
g103
ssg91
g591
sg84
(lp598
g410
asbag77
(g98
g79
NtRp599
(dp600
g82
(dp601
g109
g110
ssg91
g591
sg84
(lp602
S':'
asbag77
(g98
g79
NtRp603
(dp604
g82
(dp605
sg91
g591
sg84
(lp606
g77
(g78
g79
NtRp607
(dp608
g82
(dp609
g90
I3
ssg91
g603
sg84
(lp610
S''
asbasbasbag77
(g93
g79
NtRp611
(dp612
g82
(dp613
sg91
g507
sg84
(lp614
g77
(g98
g79
NtRp615
(dp616
g82
(dp617
g102
g103
ssg91
g611
sg84
(lp618
g431
asbag77
(g98
g79
NtRp619
(dp620
g82
(dp621
g109
g110
ssg91
g611
sg84
(lp622
S':'
asbag77
(g98
g79
NtRp623
(dp624
g82
(dp625
sg91
g611
sg84
(lp626
g77
(g78
g79
NtRp627
(dp628
g82
(dp629
g90
I3
ssg91
g623
sg84
(lp630
S''
asbasbasbag77
(g93
g79
NtRp631
(dp632
g82
(dp633
sg91
g507
sg84
(lp634
g77
(g98
g79
NtRp635
(dp636
g82
(dp637
g102
g103
ssg91
g631
sg84
(lp638
g452
asbag77
(g98
g79
NtRp639
(dp640
g82
(dp641
g109
g110
ssg91
g631
sg84
(lp642
S':'
asbag77
(g98
g79
NtRp643
(dp644
g82
(dp645
sg91
g631
sg84
(lp646
g77
(g78
g79
NtRp647
(dp648
g82
(dp649
g90
I3
ssg91
g643
sg84
(lp650
S''
asbasbasbag77
(g93
g79
NtRp651
(dp652
g82
(dp653
sg91
g507
sg84
(lp654
g77
(g98
g79
NtRp655
(dp656
g82
(dp657
g102
g103
ssg91
g651
sg84
(lp658
g473
asbag77
(g98
g79
NtRp659
(dp660
g82
(dp661
g109
g110
ssg91
g651
sg84
(lp662
S':'
asbag77
(g98
g79
NtRp663
(dp664
g82
(dp665
sg91
g651
sg84
(lp666
g77
(g78
g79
NtRp667
(dp668
g82
(dp669
g90
I3
ssg91
g663
sg84
(lp670
S''
asbasbasbasbasbasbasbag77
(g93
g79
NtRp671
(dp672
g82
(dp673
sg91
g289
sg84
(lp674
g77
(g98
g79
NtRp675
(dp676
g82
(dp677
g102
g103
ssg91
g671
sg84
(lp678
S'session_id_grammateus3'
p679
asbag77
(g98
g79
NtRp680
(dp681
g82
(dp682
g109
g110
ssg91
g671
sg84
(lp683
S':'
asbag77
(g98
g79
NtRp684
(dp685
g82
(dp686
sg91
g671
sg84
(lp687
g77
(g78
g79
NtRp688
(dp689
g82
(dp690
g90
I4
ssg91
g684
sg84
(lp691
g77
(g86
g79
NtRp692
(dp693
g82
(dp694
g90
I3
ssg91
Nsg84
(lp695
g77
(g93
g79
NtRp696
(dp697
g82
(dp698
sg91
g692
sg84
(lp699
g77
(g98
g79
NtRp700
(dp701
g82
(dp702
g102
g103
ssg91
g696
sg84
(lp703
g326
asbag77
(g98
g79
NtRp704
(dp705
g82
(dp706
g109
g110
ssg91
g696
sg84
(lp707
S':'
asbag77
(g98
g79
NtRp708
(dp709
g82
(dp710
sg91
g696
sg84
(lp711
g77
(g78
g79
NtRp712
(dp713
g82
(dp714
g90
I3
ssg91
g708
sg84
(lp715
S''
asbasbasbag77
(g93
g79
NtRp716
(dp717
g82
(dp718
sg91
g692
sg84
(lp719
g77
(g98
g79
NtRp720
(dp721
g82
(dp722
g102
g103
ssg91
g716
sg84
(lp723
g347
asbag77
(g98
g79
NtRp724
(dp725
g82
(dp726
g109
g110
ssg91
g716
sg84
(lp727
S':'
asbag77
(g98
g79
NtRp728
(dp729
g82
(dp730
sg91
g716
sg84
(lp731
g77
(g78
g79
NtRp732
(dp733
g82
(dp734
g90
I3
ssg91
g728
sg84
(lp735
S''
asbasbasbag77
(g93
g79
NtRp736
(dp737
g82
(dp738
sg91
g692
sg84
(lp739
g77
(g98
g79
NtRp740
(dp741
g82
(dp742
g102
g103
ssg91
g736
sg84
(lp743
g368
asbag77
(g98
g79
NtRp744
(dp745
g82
(dp746
g109
g110
ssg91
g736
sg84
(lp747
S':'
asbag77
(g98
g79
NtRp748
(dp749
g82
(dp750
sg91
g736
sg84
(lp751
g77
(g78
g79
NtRp752
(dp753
g82
(dp754
g90
I3
ssg91
g748
sg84
(lp755
S''
asbasbasbag77
(g93
g79
NtRp756
(dp757
g82
(dp758
sg91
g692
sg84
(lp759
g77
(g98
g79
NtRp760
(dp761
g82
(dp762
g102
g103
ssg91
g756
sg84
(lp763
g389
asbag77
(g98
g79
NtRp764
(dp765
g82
(dp766
g109
g110
ssg91
g756
sg84
(lp767
S':'
asbag77
(g98
g79
NtRp768
(dp769
g82
(dp770
sg91
g756
sg84
(lp771
g77
(g78
g79
NtRp772
(dp773
g82
(dp774
g90
I3
ssg91
g768
sg84
(lp775
S''
asbasbasbag77
(g93
g79
NtRp776
(dp777
g82
(dp778
sg91
g692
sg84
(lp779
g77
(g98
g79
NtRp780
(dp781
g82
(dp782
g102
g103
ssg91
g776
sg84
(lp783
g410
asbag77
(g98
g79
NtRp784
(dp785
g82
(dp786
g109
g110
ssg91
g776
sg84
(lp787
S':'
asbag77
(g98
g79
NtRp788
(dp789
g82
(dp790
sg91
g776
sg84
(lp791
g77
(g78
g79
NtRp792
(dp793
g82
(dp794
g90
I3
ssg91
g788
sg84
(lp795
S''
asbasbasbag77
(g93
g79
NtRp796
(dp797
g82
(dp798
sg91
g692
sg84
(lp799
g77
(g98
g79
NtRp800
(dp801
g82
(dp802
g102
g103
ssg91
g796
sg84
(lp803
g431
asbag77
(g98
g79
NtRp804
(dp805
g82
(dp806
g109
g110
ssg91
g796
sg84
(lp807
S':'
asbag77
(g98
g79
NtRp808
(dp809
g82
(dp810
sg91
g796
sg84
(lp811
g77
(g78
g79
NtRp812
(dp813
g82
(dp814
g90
I3
ssg91
g808
sg84
(lp815
S''
asbasbasbag77
(g93
g79
NtRp816
(dp817
g82
(dp818
sg91
g692
sg84
(lp819
g77
(g98
g79
NtRp820
(dp821
g82
(dp822
g102
g103
ssg91
g816
sg84
(lp823
g452
asbag77
(g98
g79
NtRp824
(dp825
g82
(dp826
g109
g110
ssg91
g816
sg84
(lp827
S':'
asbag77
(g98
g79
NtRp828
(dp829
g82
(dp830
sg91
g816
sg84
(lp831
g77
(g78
g79
NtRp832
(dp833
g82
(dp834
g90
I3
ssg91
g828
sg84
(lp835
S''
asbasbasbag77
(g93
g79
NtRp836
(dp837
g82
(dp838
sg91
g692
sg84
(lp839
g77
(g98
g79
NtRp840
(dp841
g82
(dp842
g102
g103
ssg91
g836
sg84
(lp843
g473
asbag77
(g98
g79
NtRp844
(dp845
g82
(dp846
g109
g110
ssg91
g836
sg84
(lp847
S':'
asbag77
(g98
g79
NtRp848
(dp849
g82
(dp850
sg91
g836
sg84
(lp851
g77
(g78
g79
NtRp852
(dp853
g82
(dp854
g90
I3
ssg91
g848
sg84
(lp855
S''
asbasbasbasbasbasbasbag77
(g93
g79
NtRp856
(dp857
g82
(dp858
sg91
g289
sg84
(lp859
g77
(g98
g79
NtRp860
(dp861
g82
(dp862
g102
g103
ssg91
g856
sg84
(lp863
S'session_id_paideia'
p864
asbag77
(g98
g79
NtRp865
(dp866
g82
(dp867
g109
g110
ssg91
g856
sg84
(lp868
S':'
asbag77
(g98
g79
NtRp869
(dp870
g82
(dp871
sg91
g856
sg84
(lp872
g77
(g78
g79
NtRp873
(dp874
g82
(dp875
g90
I4
ssg91
g869
sg84
(lp876
g77
(g86
g79
NtRp877
(dp878
g82
(dp879
g90
I3
ssg91
Nsg84
(lp880
g77
(g93
g79
NtRp881
(dp882
g82
(dp883
sg91
g877
sg84
(lp884
g77
(g98
g79
NtRp885
(dp886
g82
(dp887
g102
g103
ssg91
g881
sg84
(lp888
g326
asbag77
(g98
g79
NtRp889
(dp890
g82
(dp891
g109
g110
ssg91
g881
sg84
(lp892
S':'
asbag77
(g98
g79
NtRp893
(dp894
g82
(dp895
sg91
g881
sg84
(lp896
g77
(g78
g79
NtRp897
(dp898
g82
(dp899
g90
I3
ssg91
g893
sg84
(lp900
S''
asbasbasbag77
(g93
g79
NtRp901
(dp902
g82
(dp903
sg91
g877
sg84
(lp904
g77
(g98
g79
NtRp905
(dp906
g82
(dp907
g102
g103
ssg91
g901
sg84
(lp908
g347
asbag77
(g98
g79
NtRp909
(dp910
g82
(dp911
g109
g110
ssg91
g901
sg84
(lp912
S':'
asbag77
(g98
g79
NtRp913
(dp914
g82
(dp915
sg91
g901
sg84
(lp916
g77
(g78
g79
NtRp917
(dp918
g82
(dp919
g90
I3
ssg91
g913
sg84
(lp920
S''
asbasbasbag77
(g93
g79
NtRp921
(dp922
g82
(dp923
sg91
g877
sg84
(lp924
g77
(g98
g79
NtRp925
(dp926
g82
(dp927
g102
g103
ssg91
g921
sg84
(lp928
g368
asbag77
(g98
g79
NtRp929
(dp930
g82
(dp931
g109
g110
ssg91
g921
sg84
(lp932
S':'
asbag77
(g98
g79
NtRp933
(dp934
g82
(dp935
sg91
g921
sg84
(lp936
g77
(g78
g79
NtRp937
(dp938
g82
(dp939
g90
I3
ssg91
g933
sg84
(lp940
S''
asbasbasbag77
(g93
g79
NtRp941
(dp942
g82
(dp943
sg91
g877
sg84
(lp944
g77
(g98
g79
NtRp945
(dp946
g82
(dp947
g102
g103
ssg91
g941
sg84
(lp948
g389
asbag77
(g98
g79
NtRp949
(dp950
g82
(dp951
g109
g110
ssg91
g941
sg84
(lp952
S':'
asbag77
(g98
g79
NtRp953
(dp954
g82
(dp955
sg91
g941
sg84
(lp956
g77
(g78
g79
NtRp957
(dp958
g82
(dp959
g90
I3
ssg91
g953
sg84
(lp960
S''
asbasbasbag77
(g93
g79
NtRp961
(dp962
g82
(dp963
sg91
g877
sg84
(lp964
g77
(g98
g79
NtRp965
(dp966
g82
(dp967
g102
g103
ssg91
g961
sg84
(lp968
g410
asbag77
(g98
g79
NtRp969
(dp970
g82
(dp971
g109
g110
ssg91
g961
sg84
(lp972
S':'
asbag77
(g98
g79
NtRp973
(dp974
g82
(dp975
sg91
g961
sg84
(lp976
g77
(g78
g79
NtRp977
(dp978
g82
(dp979
g90
I3
ssg91
g973
sg84
(lp980
S''
asbasbasbag77
(g93
g79
NtRp981
(dp982
g82
(dp983
sg91
g877
sg84
(lp984
g77
(g98
g79
NtRp985
(dp986
g82
(dp987
g102
g103
ssg91
g981
sg84
(lp988
g431
asbag77
(g98
g79
NtRp989
(dp990
g82
(dp991
g109
g110
ssg91
g981
sg84
(lp992
S':'
asbag77
(g98
g79
NtRp993
(dp994
g82
(dp995
sg91
g981
sg84
(lp996
g77
(g78
g79
NtRp997
(dp998
g82
(dp999
g90
I3
ssg91
g993
sg84
(lp1000
S''
asbasbasbag77
(g93
g79
NtRp1001
(dp1002
g82
(dp1003
sg91
g877
sg84
(lp1004
g77
(g98
g79
NtRp1005
(dp1006
g82
(dp1007
g102
g103
ssg91
g1001
sg84
(lp1008
g452
asbag77
(g98
g79
NtRp1009
(dp1010
g82
(dp1011
g109
g110
ssg91
g1001
sg84
(lp1012
S':'
asbag77
(g98
g79
NtRp1013
(dp1014
g82
(dp1015
sg91
g1001
sg84
(lp1016
g77
(g78
g79
NtRp1017
(dp1018
g82
(dp1019
g90
I3
ssg91
g1013
sg84
(lp1020
S''
asbasbasbag77
(g93
g79
NtRp1021
(dp1022
g82
(dp1023
sg91
g877
sg84
(lp1024
g77
(g98
g79
NtRp1025
(dp1026
g82
(dp1027
g102
g103
ssg91
g1021
sg84
(lp1028
g473
asbag77
(g98
g79
NtRp1029
(dp1030
g82
(dp1031
g109
g110
ssg91
g1021
sg84
(lp1032
S':'
asbag77
(g98
g79
NtRp1033
(dp1034
g82
(dp1035
sg91
g1021
sg84
(lp1036
g77
(g78
g79
NtRp1037
(dp1038
g82
(dp1039
g90
I3
ssg91
g1033
sg84
(lp1040
S''
asbasbasbasbasbasbasbag77
(g93
g79
NtRp1041
(dp1042
g82
(dp1043
sg91
g289
sg84
(lp1044
g77
(g98
g79
NtRp1045
(dp1046
g82
(dp1047
g102
g103
ssg91
g1041
sg84
(lp1048
S'session_id_welcome'
p1049
asbag77
(g98
g79
NtRp1050
(dp1051
g82
(dp1052
g109
g110
ssg91
g1041
sg84
(lp1053
S':'
asbag77
(g98
g79
NtRp1054
(dp1055
g82
(dp1056
sg91
g1041
sg84
(lp1057
g77
(g78
g79
NtRp1058
(dp1059
g82
(dp1060
g90
I4
ssg91
g1054
sg84
(lp1061
g77
(g86
g79
NtRp1062
(dp1063
g82
(dp1064
g90
I3
ssg91
Nsg84
(lp1065
g77
(g93
g79
NtRp1066
(dp1067
g82
(dp1068
sg91
g1062
sg84
(lp1069
g77
(g98
g79
NtRp1070
(dp1071
g82
(dp1072
g102
g103
ssg91
g1066
sg84
(lp1073
g326
asbag77
(g98
g79
NtRp1074
(dp1075
g82
(dp1076
g109
g110
ssg91
g1066
sg84
(lp1077
S':'
asbag77
(g98
g79
NtRp1078
(dp1079
g82
(dp1080
sg91
g1066
sg84
(lp1081
g77
(g78
g79
NtRp1082
(dp1083
g82
(dp1084
g90
I3
ssg91
g1078
sg84
(lp1085
S''
asbasbasbag77
(g93
g79
NtRp1086
(dp1087
g82
(dp1088
sg91
g1062
sg84
(lp1089
g77
(g98
g79
NtRp1090
(dp1091
g82
(dp1092
g102
g103
ssg91
g1086
sg84
(lp1093
g347
asbag77
(g98
g79
NtRp1094
(dp1095
g82
(dp1096
g109
g110
ssg91
g1086
sg84
(lp1097
S':'
asbag77
(g98
g79
NtRp1098
(dp1099
g82
(dp1100
sg91
g1086
sg84
(lp1101
g77
(g78
g79
NtRp1102
(dp1103
g82
(dp1104
g90
I3
ssg91
g1098
sg84
(lp1105
S''
asbasbasbag77
(g93
g79
NtRp1106
(dp1107
g82
(dp1108
sg91
g1062
sg84
(lp1109
g77
(g98
g79
NtRp1110
(dp1111
g82
(dp1112
g102
g103
ssg91
g1106
sg84
(lp1113
g368
asbag77
(g98
g79
NtRp1114
(dp1115
g82
(dp1116
g109
g110
ssg91
g1106
sg84
(lp1117
S':'
asbag77
(g98
g79
NtRp1118
(dp1119
g82
(dp1120
sg91
g1106
sg84
(lp1121
g77
(g78
g79
NtRp1122
(dp1123
g82
(dp1124
g90
I3
ssg91
g1118
sg84
(lp1125
S''
asbasbasbag77
(g93
g79
NtRp1126
(dp1127
g82
(dp1128
sg91
g1062
sg84
(lp1129
g77
(g98
g79
NtRp1130
(dp1131
g82
(dp1132
g102
g103
ssg91
g1126
sg84
(lp1133
g389
asbag77
(g98
g79
NtRp1134
(dp1135
g82
(dp1136
g109
g110
ssg91
g1126
sg84
(lp1137
S':'
asbag77
(g98
g79
NtRp1138
(dp1139
g82
(dp1140
sg91
g1126
sg84
(lp1141
g77
(g78
g79
NtRp1142
(dp1143
g82
(dp1144
g90
I3
ssg91
g1138
sg84
(lp1145
S''
asbasbasbag77
(g93
g79
NtRp1146
(dp1147
g82
(dp1148
sg91
g1062
sg84
(lp1149
g77
(g98
g79
NtRp1150
(dp1151
g82
(dp1152
g102
g103
ssg91
g1146
sg84
(lp1153
g410
asbag77
(g98
g79
NtRp1154
(dp1155
g82
(dp1156
g109
g110
ssg91
g1146
sg84
(lp1157
S':'
asbag77
(g98
g79
NtRp1158
(dp1159
g82
(dp1160
sg91
g1146
sg84
(lp1161
g77
(g78
g79
NtRp1162
(dp1163
g82
(dp1164
g90
I3
ssg91
g1158
sg84
(lp1165
S''
asbasbasbag77
(g93
g79
NtRp1166
(dp1167
g82
(dp1168
sg91
g1062
sg84
(lp1169
g77
(g98
g79
NtRp1170
(dp1171
g82
(dp1172
g102
g103
ssg91
g1166
sg84
(lp1173
g431
asbag77
(g98
g79
NtRp1174
(dp1175
g82
(dp1176
g109
g110
ssg91
g1166
sg84
(lp1177
S':'
asbag77
(g98
g79
NtRp1178
(dp1179
g82
(dp1180
sg91
g1166
sg84
(lp1181
g77
(g78
g79
NtRp1182
(dp1183
g82
(dp1184
g90
I3
ssg91
g1178
sg84
(lp1185
S''
asbasbasbag77
(g93
g79
NtRp1186
(dp1187
g82
(dp1188
sg91
g1062
sg84
(lp1189
g77
(g98
g79
NtRp1190
(dp1191
g82
(dp1192
g102
g103
ssg91
g1186
sg84
(lp1193
g452
asbag77
(g98
g79
NtRp1194
(dp1195
g82
(dp1196
g109
g110
ssg91
g1186
sg84
(lp1197
S':'
asbag77
(g98
g79
NtRp1198
(dp1199
g82
(dp1200
sg91
g1186
sg84
(lp1201
g77
(g78
g79
NtRp1202
(dp1203
g82
(dp1204
g90
I3
ssg91
g1198
sg84
(lp1205
S''
asbasbasbag77
(g93
g79
NtRp1206
(dp1207
g82
(dp1208
sg91
g1062
sg84
(lp1209
g77
(g98
g79
NtRp1210
(dp1211
g82
(dp1212
g102
g103
ssg91
g1206
sg84
(lp1213
g473
asbag77
(g98
g79
NtRp1214
(dp1215
g82
(dp1216
g109
g110
ssg91
g1206
sg84
(lp1217
S':'
asbag77
(g98
g79
NtRp1218
(dp1219
g82
(dp1220
sg91
g1206
sg84
(lp1221
g77
(g78
g79
NtRp1222
(dp1223
g82
(dp1224
g90
I3
ssg91
g1218
sg84
(lp1225
S''
asbasbasbasbasbasbasbasbasbasbasbag77
(g93
g79
NtRp1226
(dp1227
g82
(dp1228
sg91
g87
sg84
(lp1229
g77
(g98
g79
NtRp1230
(dp1231
g82
(dp1232
g102
g103
ssg91
g1226
sg84
(lp1233
S'env'
p1234
asbag77
(g98
g79
NtRp1235
(dp1236
g82
(dp1237
g109
g110
ssg91
g1226
sg84
(lp1238
S':'
asbag77
(g98
g79
NtRp1239
(dp1240
g82
(dp1241
sg91
g1226
sg84
(lp1242
g77
(g78
g79
NtRp1243
(dp1244
g82
(dp1245
g90
I5
ssg91
g1239
sg84
(lp1246
g77
(g86
g79
NtRp1247
(dp1248
g82
(dp1249
g90
I4
ssg91
Nsg84
(lp1250
g77
(g93
g79
NtRp1251
(dp1252
g82
(dp1253
sg91
g1247
sg84
(lp1254
g77
(g98
g79
NtRp1255
(dp1256
g82
(dp1257
g102
g103
ssg91
g1251
sg84
(lp1258
S'app_folders'
p1259
asbag77
(g98
g79
NtRp1260
(dp1261
g82
(dp1262
g109
g110
ssg91
g1251
sg84
(lp1263
S':'
asbag77
(g98
g79
NtRp1264
(dp1265
g82
(dp1266
sg91
g1251
sg84
(lp1267
g77
(g78
g79
NtRp1268
(dp1269
g82
(dp1270
g90
I4
ssg91
g1264
sg84
(lp1271
S"set(['/home/iscott/web/web2py/applications/grammateus3/', '/home/iscott/web/web2py/applications/admin/', '/home/iscott/web/web2py/applications/welcome/'])"
p1272
asbasbasbag77
(g93
g79
NtRp1273
(dp1274
g82
(dp1275
sg91
g1247
sg84
(lp1276
g77
(g98
g79
NtRp1277
(dp1278
g82
(dp1279
g102
g103
ssg91
g1273
sg84
(lp1280
S'applications_parent'
p1281
asbag77
(g98
g79
NtRp1282
(dp1283
g82
(dp1284
g109
g110
ssg91
g1273
sg84
(lp1285
S':'
asbag77
(g98
g79
NtRp1286
(dp1287
g82
(dp1288
sg91
g1273
sg84
(lp1289
g77
(g78
g79
NtRp1290
(dp1291
g82
(dp1292
g90
I4
ssg91
g1286
sg84
(lp1293
S'/home/iscott/web/web2py'
p1294
asbasbasbag77
(g93
g79
NtRp1295
(dp1296
g82
(dp1297
sg91
g1247
sg84
(lp1298
g77
(g98
g79
NtRp1299
(dp1300
g82
(dp1301
g102
g103
ssg91
g1295
sg84
(lp1302
S'cmd_args'
p1303
asbag77
(g98
g79
NtRp1304
(dp1305
g82
(dp1306
g109
g110
ssg91
g1295
sg84
(lp1307
S':'
asbag77
(g98
g79
NtRp1308
(dp1309
g82
(dp1310
sg91
g1295
sg84
(lp1311
g77
(g78
g79
NtRp1312
(dp1313
g82
(dp1314
g90
I4
ssg91
g1308
sg84
(lp1315
g77
(g86
g79
NtRp1316
(dp1317
g82
(dp1318
g90
I3
ssg91
Nsg84
(lp1319
sbasbasbasbag77
(g93
g79
NtRp1320
(dp1321
g82
(dp1322
sg91
g1247
sg84
(lp1323
g77
(g98
g79
NtRp1324
(dp1325
g82
(dp1326
g102
g103
ssg91
g1320
sg84
(lp1327
S'cmd_options'
p1328
asbag77
(g98
g79
NtRp1329
(dp1330
g82
(dp1331
g109
g110
ssg91
g1320
sg84
(lp1332
S':'
asbag77
(g98
g79
NtRp1333
(dp1334
g82
(dp1335
sg91
g1320
sg84
(lp1336
g77
(g78
g79
NtRp1337
(dp1338
g82
(dp1339
g90
I4
ssg91
g1333
sg84
(lp1340
S"<Values at 0x9e62b8c: {'verbose': False, 'ip': '127.0.0.1', 'shutdown_timeout': 5, 'taskbar': False, 'nocron': False, 'pid_filename': 'httpserver.pid', 'maxthreads': None, 'softcron': False, 'server_name': 'ubuntu', 'bpython': False, 'nogui': False, 'port': 8000, 'extcron': False, 'debuglevel': 30, 'test': None, 'folder': '/home/iscott/web/web2py', 'config': '', 'import_models': False, 'winservice': '', 'shell': None, 'run': '', 'log_filename': 'httpserver.log', 'args': [''], 'socket_timeout': 1, 'ssl_ca_certificate': None, 'scheduler': None, 'profiler_filename': None, 'ssl_private_key': '', 'password': '<ask>', 'request_queue_size': 5, 'ssl_certificate': '', 'cronjob': False, 'numthreads': None, 'quiet': False, 'interfaces': None, 'minthreads': None, 'timeout': 10, 'plain': False, 'nobanner': False}>"
p1341
asbasbasbag77
(g93
g79
NtRp1342
(dp1343
g82
(dp1344
sg91
g1247
sg84
(lp1345
g77
(g98
g79
NtRp1346
(dp1347
g82
(dp1348
g102
g103
ssg91
g1342
sg84
(lp1349
S'db_sessions'
p1350
asbag77
(g98
g79
NtRp1351
(dp1352
g82
(dp1353
g109
g110
ssg91
g1342
sg84
(lp1354
S':'
asbag77
(g98
g79
NtRp1355
(dp1356
g82
(dp1357
sg91
g1342
sg84
(lp1358
g77
(g78
g79
NtRp1359
(dp1360
g82
(dp1361
g90
I4
ssg91
g1355
sg84
(lp1362
S'set([])'
p1363
asbasbasbag77
(g93
g79
NtRp1364
(dp1365
g82
(dp1366
sg91
g1247
sg84
(lp1367
g77
(g98
g79
NtRp1368
(dp1369
g82
(dp1370
g102
g103
ssg91
g1364
sg84
(lp1371
S'debugging'
p1372
asbag77
(g98
g79
NtRp1373
(dp1374
g82
(dp1375
g109
g110
ssg91
g1364
sg84
(lp1376
S':'
asbag77
(g98
g79
NtRp1377
(dp1378
g82
(dp1379
sg91
g1364
sg84
(lp1380
g77
(g78
g79
NtRp1381
(dp1382
g82
(dp1383
g90
I4
ssg91
g1377
sg84
(lp1384
S'False'
p1385
asbasbasbag77
(g93
g79
NtRp1386
(dp1387
g82
(dp1388
sg91
g1247
sg84
(lp1389
g77
(g98
g79
NtRp1390
(dp1391
g82
(dp1392
g102
g103
ssg91
g1386
sg84
(lp1393
S'gluon_parent'
p1394
asbag77
(g98
g79
NtRp1395
(dp1396
g82
(dp1397
g109
g110
ssg91
g1386
sg84
(lp1398
S':'
asbag77
(g98
g79
NtRp1399
(dp1400
g82
(dp1401
sg91
g1386
sg84
(lp1402
g77
(g78
g79
NtRp1403
(dp1404
g82
(dp1405
g90
I4
ssg91
g1399
sg84
(lp1406
S'/home/iscott/web/web2py'
p1407
asbasbasbag77
(g93
g79
NtRp1408
(dp1409
g82
(dp1410
sg91
g1247
sg84
(lp1411
g77
(g98
g79
NtRp1412
(dp1413
g82
(dp1414
g102
g103
ssg91
g1408
sg84
(lp1415
S'http_accept'
p1416
asbag77
(g98
g79
NtRp1417
(dp1418
g82
(dp1419
g109
g110
ssg91
g1408
sg84
(lp1420
S':'
asbag77
(g98
g79
NtRp1421
(dp1422
g82
(dp1423
sg91
g1408
sg84
(lp1424
g77
(g78
g79
NtRp1425
(dp1426
g82
(dp1427
g90
I4
ssg91
g1421
sg84
(lp1428
S'*/*'
p1429
asbasbasbag77
(g93
g79
NtRp1430
(dp1431
g82
(dp1432
sg91
g1247
sg84
(lp1433
g77
(g98
g79
NtRp1434
(dp1435
g82
(dp1436
g102
g103
ssg91
g1430
sg84
(lp1437
S'http_accept_encoding'
p1438
asbag77
(g98
g79
NtRp1439
(dp1440
g82
(dp1441
g109
g110
ssg91
g1430
sg84
(lp1442
S':'
asbag77
(g98
g79
NtRp1443
(dp1444
g82
(dp1445
sg91
g1430
sg84
(lp1446
g77
(g78
g79
NtRp1447
(dp1448
g82
(dp1449
g90
I4
ssg91
g1443
sg84
(lp1450
S'gzip, deflate'
p1451
asbasbasbag77
(g93
g79
NtRp1452
(dp1453
g82
(dp1454
sg91
g1247
sg84
(lp1455
g77
(g98
g79
NtRp1456
(dp1457
g82
(dp1458
g102
g103
ssg91
g1452
sg84
(lp1459
S'http_accept_language'
p1460
asbag77
(g98
g79
NtRp1461
(dp1462
g82
(dp1463
g109
g110
ssg91
g1452
sg84
(lp1464
S':'
asbag77
(g98
g79
NtRp1465
(dp1466
g82
(dp1467
sg91
g1452
sg84
(lp1468
g77
(g78
g79
NtRp1469
(dp1470
g82
(dp1471
g90
I4
ssg91
g1465
sg84
(lp1472
S'en-us,en;q=0.5'
p1473
asbasbasbag77
(g93
g79
NtRp1474
(dp1475
g82
(dp1476
sg91
g1247
sg84
(lp1477
g77
(g98
g79
NtRp1478
(dp1479
g82
(dp1480
g102
g103
ssg91
g1474
sg84
(lp1481
S'http_connection'
p1482
asbag77
(g98
g79
NtRp1483
(dp1484
g82
(dp1485
g109
g110
ssg91
g1474
sg84
(lp1486
S':'
asbag77
(g98
g79
NtRp1487
(dp1488
g82
(dp1489
sg91
g1474
sg84
(lp1490
g77
(g78
g79
NtRp1491
(dp1492
g82
(dp1493
g90
I4
ssg91
g1487
sg84
(lp1494
S'keep-alive'
p1495
asbasbasbag77
(g93
g79
NtRp1496
(dp1497
g82
(dp1498
sg91
g1247
sg84
(lp1499
g77
(g98
g79
NtRp1500
(dp1501
g82
(dp1502
g102
g103
ssg91
g1496
sg84
(lp1503
S'http_cookie'
p1504
asbag77
(g98
g79
NtRp1505
(dp1506
g82
(dp1507
g109
g110
ssg91
g1496
sg84
(lp1508
S':'
asbag77
(g98
g79
NtRp1509
(dp1510
g82
(dp1511
sg91
g1496
sg84
(lp1512
g77
(g78
g79
NtRp1513
(dp1514
g82
(dp1515
g90
I4
ssg91
g1509
sg84
(lp1516
S'session_id_paideia=127.0.0.1-2edda130-d654-4b0f-a819-06652e443aa6; session_id_bloglet=127.0.0.1-e84b0934-9abc-4375-99c8-24980b610007; session_id_welcome=127.0.0.1-875183c3-33d3-41d0-8035-815b0ac6dec9; session_id_admin=127.0.0.1-dfd1439a-7b97-4261-9a07-bb7d5507c55f; session_id_grammateus3=127.0.0.1-03d15d8e-e891-4307-a6bf-5717208181cd'
p1517
asbasbasbag77
(g93
g79
NtRp1518
(dp1519
g82
(dp1520
sg91
g1247
sg84
(lp1521
g77
(g98
g79
NtRp1522
(dp1523
g82
(dp1524
g102
g103
ssg91
g1518
sg84
(lp1525
S'http_host'
p1526
asbag77
(g98
g79
NtRp1527
(dp1528
g82
(dp1529
g109
g110
ssg91
g1518
sg84
(lp1530
S':'
asbag77
(g98
g79
NtRp1531
(dp1532
g82
(dp1533
sg91
g1518
sg84
(lp1534
g77
(g78
g79
NtRp1535
(dp1536
g82
(dp1537
g90
I4
ssg91
g1531
sg84
(lp1538
S'127.0.0.1:8000'
p1539
asbasbasbag77
(g93
g79
NtRp1540
(dp1541
g82
(dp1542
sg91
g1247
sg84
(lp1543
g77
(g98
g79
NtRp1544
(dp1545
g82
(dp1546
g102
g103
ssg91
g1540
sg84
(lp1547
S'http_referer'
p1548
asbag77
(g98
g79
NtRp1549
(dp1550
g82
(dp1551
g109
g110
ssg91
g1540
sg84
(lp1552
S':'
asbag77
(g98
g79
NtRp1553
(dp1554
g82
(dp1555
sg91
g1540
sg84
(lp1556
g77
(g78
g79
NtRp1557
(dp1558
g82
(dp1559
g90
I4
ssg91
g1553
sg84
(lp1560
S'http://127.0.0.1:8000/grammateus3/docs/text/3Macc'
p1561
asbasbasbag77
(g93
g79
NtRp1562
(dp1563
g82
(dp1564
sg91
g1247
sg84
(lp1565
g77
(g98
g79
NtRp1566
(dp1567
g82
(dp1568
g102
g103
ssg91
g1562
sg84
(lp1569
S'http_user_agent'
p1570
asbag77
(g98
g79
NtRp1571
(dp1572
g82
(dp1573
g109
g110
ssg91
g1562
sg84
(lp1574
S':'
asbag77
(g98
g79
NtRp1575
(dp1576
g82
(dp1577
sg91
g1562
sg84
(lp1578
g77
(g78
g79
NtRp1579
(dp1580
g82
(dp1581
g90
I4
ssg91
g1575
sg84
(lp1582
S'Mozilla/5.0 (X11; Ubuntu; Linux i686; rv:10.0.2) Gecko/20100101 Firefox/10.0.2'
p1583
asbasbasbag77
(g93
g79
NtRp1584
(dp1585
g82
(dp1586
sg91
g1247
sg84
(lp1587
g77
(g98
g79
NtRp1588
(dp1589
g82
(dp1590
g102
g103
ssg91
g1584
sg84
(lp1591
S'http_web2py_component_element'
p1592
asbag77
(g98
g79
NtRp1593
(dp1594
g82
(dp1595
g109
g110
ssg91
g1584
sg84
(lp1596
S':'
asbag77
(g98
g79
NtRp1597
(dp1598
g82
(dp1599
sg91
g1584
sg84
(lp1600
g77
(g78
g79
NtRp1601
(dp1602
g82
(dp1603
g90
I4
ssg91
g1597
sg84
(lp1604
g223
asbasbasbag77
(g93
g79
NtRp1605
(dp1606
g82
(dp1607
sg91
g1247
sg84
(lp1608
g77
(g98
g79
NtRp1609
(dp1610
g82
(dp1611
g102
g103
ssg91
g1605
sg84
(lp1612
S'http_web2py_component_location'
p1613
asbag77
(g98
g79
NtRp1614
(dp1615
g82
(dp1616
g109
g110
ssg91
g1605
sg84
(lp1617
S':'
asbag77
(g98
g79
NtRp1618
(dp1619
g82
(dp1620
sg91
g1605
sg84
(lp1621
g77
(g78
g79
NtRp1622
(dp1623
g82
(dp1624
g90
I4
ssg91
g1618
sg84
(lp1625
S'http://127.0.0.1:8000/grammateus3/docs/text/3Macc'
p1626
asbasbasbag77
(g93
g79
NtRp1627
(dp1628
g82
(dp1629
sg91
g1247
sg84
(lp1630
g77
(g98
g79
NtRp1631
(dp1632
g82
(dp1633
g102
g103
ssg91
g1627
sg84
(lp1634
S'http_x_requested_with'
p1635
asbag77
(g98
g79
NtRp1636
(dp1637
g82
(dp1638
g109
g110
ssg91
g1627
sg84
(lp1639
S':'
asbag77
(g98
g79
NtRp1640
(dp1641
g82
(dp1642
sg91
g1627
sg84
(lp1643
g77
(g78
g79
NtRp1644
(dp1645
g82
(dp1646
g90
I4
ssg91
g1640
sg84
(lp1647
S'XMLHttpRequest'
p1648
asbasbasbag77
(g93
g79
NtRp1649
(dp1650
g82
(dp1651
sg91
g1247
sg84
(lp1652
g77
(g98
g79
NtRp1653
(dp1654
g82
(dp1655
g102
g103
ssg91
g1649
sg84
(lp1656
S'is_jython'
p1657
asbag77
(g98
g79
NtRp1658
(dp1659
g82
(dp1660
g109
g110
ssg91
g1649
sg84
(lp1661
S':'
asbag77
(g98
g79
NtRp1662
(dp1663
g82
(dp1664
sg91
g1649
sg84
(lp1665
g77
(g78
g79
NtRp1666
(dp1667
g82
(dp1668
g90
I4
ssg91
g1662
sg84
(lp1669
g1385
asbasbasbag77
(g93
g79
NtRp1670
(dp1671
g82
(dp1672
sg91
g1247
sg84
(lp1673
g77
(g98
g79
NtRp1674
(dp1675
g82
(dp1676
g102
g103
ssg91
g1670
sg84
(lp1677
S'is_pypy'
p1678
asbag77
(g98
g79
NtRp1679
(dp1680
g82
(dp1681
g109
g110
ssg91
g1670
sg84
(lp1682
S':'
asbag77
(g98
g79
NtRp1683
(dp1684
g82
(dp1685
sg91
g1670
sg84
(lp1686
g77
(g78
g79
NtRp1687
(dp1688
g82
(dp1689
g90
I4
ssg91
g1683
sg84
(lp1690
g1385
asbasbasbag77
(g93
g79
NtRp1691
(dp1692
g82
(dp1693
sg91
g1247
sg84
(lp1694
g77
(g98
g79
NtRp1695
(dp1696
g82
(dp1697
g102
g103
ssg91
g1691
sg84
(lp1698
S'path_info'
p1699
asbag77
(g98
g79
NtRp1700
(dp1701
g82
(dp1702
g109
g110
ssg91
g1691
sg84
(lp1703
S':'
asbag77
(g98
g79
NtRp1704
(dp1705
g82
(dp1706
sg91
g1691
sg84
(lp1707
g77
(g78
g79
NtRp1708
(dp1709
g82
(dp1710
g90
I4
ssg91
g1704
sg84
(lp1711
S'/grammateus3/docs/section.load/3Macc'
p1712
asbasbasbag77
(g93
g79
NtRp1713
(dp1714
g82
(dp1715
sg91
g1247
sg84
(lp1716
g77
(g98
g79
NtRp1717
(dp1718
g82
(dp1719
g102
g103
ssg91
g1713
sg84
(lp1720
S'query_string'
p1721
asbag77
(g98
g79
NtRp1722
(dp1723
g82
(dp1724
g109
g110
ssg91
g1713
sg84
(lp1725
S':'
asbag77
(g98
g79
NtRp1726
(dp1727
g82
(dp1728
sg91
g1713
sg84
(lp1729
g77
(g78
g79
NtRp1730
(dp1731
g82
(dp1732
g90
I4
ssg91
g1726
sg84
(lp1733
S''
asbasbasbag77
(g93
g79
NtRp1734
(dp1735
g82
(dp1736
sg91
g1247
sg84
(lp1737
g77
(g98
g79
NtRp1738
(dp1739
g82
(dp1740
g102
g103
ssg91
g1734
sg84
(lp1741
S'remote_addr'
p1742
asbag77
(g98
g79
NtRp1743
(dp1744
g82
(dp1745
g109
g110
ssg91
g1734
sg84
(lp1746
S':'
asbag77
(g98
g79
NtRp1747
(dp1748
g82
(dp1749
sg91
g1734
sg84
(lp1750
g77
(g78
g79
NtRp1751
(dp1752
g82
(dp1753
g90
I4
ssg91
g1747
sg84
(lp1754
g245
asbasbasbag77
(g93
g79
NtRp1755
(dp1756
g82
(dp1757
sg91
g1247
sg84
(lp1758
g77
(g98
g79
NtRp1759
(dp1760
g82
(dp1761
g102
g103
ssg91
g1755
sg84
(lp1762
S'remote_port'
p1763
asbag77
(g98
g79
NtRp1764
(dp1765
g82
(dp1766
g109
g110
ssg91
g1755
sg84
(lp1767
S':'
asbag77
(g98
g79
NtRp1768
(dp1769
g82
(dp1770
sg91
g1755
sg84
(lp1771
g77
(g78
g79
NtRp1772
(dp1773
g82
(dp1774
g90
I4
ssg91
g1768
sg84
(lp1775
S'42358'
p1776
asbasbasbag77
(g93
g79
NtRp1777
(dp1778
g82
(dp1779
sg91
g1247
sg84
(lp1780
g77
(g98
g79
NtRp1781
(dp1782
g82
(dp1783
g102
g103
ssg91
g1777
sg84
(lp1784
S'request_method'
p1785
asbag77
(g98
g79
NtRp1786
(dp1787
g82
(dp1788
g109
g110
ssg91
g1777
sg84
(lp1789
S':'
asbag77
(g98
g79
NtRp1790
(dp1791
g82
(dp1792
sg91
g1777
sg84
(lp1793
g77
(g78
g79
NtRp1794
(dp1795
g82
(dp1796
g90
I4
ssg91
g1790
sg84
(lp1797
S'GET'
p1798
asbasbasbag77
(g93
g79
NtRp1799
(dp1800
g82
(dp1801
sg91
g1247
sg84
(lp1802
g77
(g98
g79
NtRp1803
(dp1804
g82
(dp1805
g102
g103
ssg91
g1799
sg84
(lp1806
S'script_name'
p1807
asbag77
(g98
g79
NtRp1808
(dp1809
g82
(dp1810
g109
g110
ssg91
g1799
sg84
(lp1811
S':'
asbag77
(g98
g79
NtRp1812
(dp1813
g82
(dp1814
sg91
g1799
sg84
(lp1815
g77
(g78
g79
NtRp1816
(dp1817
g82
(dp1818
g90
I4
ssg91
g1812
sg84
(lp1819
S''
asbasbasbag77
(g93
g79
NtRp1820
(dp1821
g82
(dp1822
sg91
g1247
sg84
(lp1823
g77
(g98
g79
NtRp1824
(dp1825
g82
(dp1826
g102
g103
ssg91
g1820
sg84
(lp1827
S'server_name'
p1828
asbag77
(g98
g79
NtRp1829
(dp1830
g82
(dp1831
g109
g110
ssg91
g1820
sg84
(lp1832
S':'
asbag77
(g98
g79
NtRp1833
(dp1834
g82
(dp1835
sg91
g1820
sg84
(lp1836
g77
(g78
g79
NtRp1837
(dp1838
g82
(dp1839
g90
I4
ssg91
g1833
sg84
(lp1840
S'ubuntu'
p1841
asbasbasbag77
(g93
g79
NtRp1842
(dp1843
g82
(dp1844
sg91
g1247
sg84
(lp1845
g77
(g98
g79
NtRp1846
(dp1847
g82
(dp1848
g102
g103
ssg91
g1842
sg84
(lp1849
S'server_port'
p1850
asbag77
(g98
g79
NtRp1851
(dp1852
g82
(dp1853
g109
g110
ssg91
g1842
sg84
(lp1854
S':'
asbag77
(g98
g79
NtRp1855
(dp1856
g82
(dp1857
sg91
g1842
sg84
(lp1858
g77
(g78
g79
NtRp1859
(dp1860
g82
(dp1861
g90
I4
ssg91
g1855
sg84
(lp1862
S'8000'
p1863
asbasbasbag77
(g93
g79
NtRp1864
(dp1865
g82
(dp1866
sg91
g1247
sg84
(lp1867
g77
(g98
g79
NtRp1868
(dp1869
g82
(dp1870
g102
g103
ssg91
g1864
sg84
(lp1871
S'server_protocol'
p1872
asbag77
(g98
g79
NtRp1873
(dp1874
g82
(dp1875
g109
g110
ssg91
g1864
sg84
(lp1876
S':'
asbag77
(g98
g79
NtRp1877
(dp1878
g82
(dp1879
sg91
g1864
sg84
(lp1880
g77
(g78
g79
NtRp1881
(dp1882
g82
(dp1883
g90
I4
ssg91
g1877
sg84
(lp1884
S'HTTP/1.1'
p1885
asbasbasbag77
(g93
g79
NtRp1886
(dp1887
g82
(dp1888
sg91
g1247
sg84
(lp1889
g77
(g98
g79
NtRp1890
(dp1891
g82
(dp1892
g102
g103
ssg91
g1886
sg84
(lp1893
S'server_software'
p1894
asbag77
(g98
g79
NtRp1895
(dp1896
g82
(dp1897
g109
g110
ssg91
g1886
sg84
(lp1898
S':'
asbag77
(g98
g79
NtRp1899
(dp1900
g82
(dp1901
sg91
g1886
sg84
(lp1902
g77
(g78
g79
NtRp1903
(dp1904
g82
(dp1905
g90
I4
ssg91
g1899
sg84
(lp1906
S'Rocket 1.2.4'
p1907
asbasbasbag77
(g93
g79
NtRp1908
(dp1909
g82
(dp1910
sg91
g1247
sg84
(lp1911
g77
(g98
g79
NtRp1912
(dp1913
g82
(dp1914
g102
g103
ssg91
g1908
sg84
(lp1915
S'web2py_crontype'
p1916
asbag77
(g98
g79
NtRp1917
(dp1918
g82
(dp1919
g109
g110
ssg91
g1908
sg84
(lp1920
S':'
asbag77
(g98
g79
NtRp1921
(dp1922
g82
(dp1923
sg91
g1908
sg84
(lp1924
g77
(g78
g79
NtRp1925
(dp1926
g82
(dp1927
g90
I4
ssg91
g1921
sg84
(lp1928
S'hard'
p1929
asbasbasbag77
(g93
g79
NtRp1930
(dp1931
g82
(dp1932
sg91
g1247
sg84
(lp1933
g77
(g98
g79
NtRp1934
(dp1935
g82
(dp1936
g102
g103
ssg91
g1930
sg84
(lp1937
S'web2py_path'
p1938
asbag77
(g98
g79
NtRp1939
(dp1940
g82
(dp1941
g109
g110
ssg91
g1930
sg84
(lp1942
S':'
asbag77
(g98
g79
NtRp1943
(dp1944
g82
(dp1945
sg91
g1930
sg84
(lp1946
g77
(g78
g79
NtRp1947
(dp1948
g82
(dp1949
g90
I4
ssg91
g1943
sg84
(lp1950
g1294
asbasbasbag77
(g93
g79
NtRp1951
(dp1952
g82
(dp1953
sg91
g1247
sg84
(lp1954
g77
(g98
g79
NtRp1955
(dp1956
g82
(dp1957
g102
g103
ssg91
g1951
sg84
(lp1958
S'web2py_version'
p1959
asbag77
(g98
g79
NtRp1960
(dp1961
g82
(dp1962
g109
g110
ssg91
g1951
sg84
(lp1963
S':'
asbag77
(g98
g79
NtRp1964
(dp1965
g82
(dp1966
sg91
g1951
sg84
(lp1967
g77
(g78
g79
NtRp1968
(dp1969
g82
(dp1970
g90
I4
ssg91
g1964
sg84
(lp1971
g77
(g86
g79
NtRp1972
(dp1973
g82
(dp1974
g90
I3
ssg91
Nsg84
(lp1975
g77
(g93
g79
NtRp1976
(dp1977
g82
(dp1978
sg91
g1972
sg84
(lp1979
g77
(g98
g79
NtRp1980
(dp1981
g82
(dp1982
sg91
g1976
sg84
(lp1983
g77
(g78
g79
NtRp1984
(dp1985
g82
(dp1986
g90
I3
ssg91
g1980
sg84
(lp1987
S'1'
asbasbasbag77
(g93
g79
NtRp1988
(dp1989
g82
(dp1990
sg91
g1972
sg84
(lp1991
g77
(g98
g79
NtRp1992
(dp1993
g82
(dp1994
sg91
g1988
sg84
(lp1995
g77
(g78
g79
NtRp1996
(dp1997
g82
(dp1998
g90
I3
ssg91
g1992
sg84
(lp1999
S'99'
p2000
asbasbasbag77
(g93
g79
NtRp2001
(dp2002
g82
(dp2003
sg91
g1972
sg84
(lp2004
g77
(g98
g79
NtRp2005
(dp2006
g82
(dp2007
sg91
g2001
sg84
(lp2008
g77
(g78
g79
NtRp2009
(dp2010
g82
(dp2011
g90
I3
ssg91
g2005
sg84
(lp2012
S'4'
asbasbasbag77
(g93
g79
NtRp2013
(dp2014
g82
(dp2015
sg91
g1972
sg84
(lp2016
g77
(g98
g79
NtRp2017
(dp2018
g82
(dp2019
sg91
g2013
sg84
(lp2020
g77
(g78
g79
NtRp2021
(dp2022
g82
(dp2023
g90
I3
ssg91
g2017
sg84
(lp2024
S'datetime.datetime(2011, 12, 14, 14, 46, 14)'
p2025
asbasbasbag77
(g93
g79
NtRp2026
(dp2027
g82
(dp2028
sg91
g1972
sg84
(lp2029
g77
(g98
g79
NtRp2030
(dp2031
g82
(dp2032
sg91
g2026
sg84
(lp2033
g77
(g78
g79
NtRp2034
(dp2035
g82
(dp2036
g90
I3
ssg91
g2030
sg84
(lp2037
S'stable'
p2038
asbasbasbasbasbasbasbag77
(g93
g79
NtRp2039
(dp2040
g82
(dp2041
sg91
g1247
sg84
(lp2042
g77
(g98
g79
NtRp2043
(dp2044
g82
(dp2045
g102
g103
ssg91
g2039
sg84
(lp2046
S'wsgi_errors'
p2047
asbag77
(g98
g79
NtRp2048
(dp2049
g82
(dp2050
g109
g110
ssg91
g2039
sg84
(lp2051
S':'
asbag77
(g98
g79
NtRp2052
(dp2053
g82
(dp2054
sg91
g2039
sg84
(lp2055
g77
(g78
g79
NtRp2056
(dp2057
g82
(dp2058
g90
I4
ssg91
g2052
sg84
(lp2059
S"<open file '<stderr>', mode 'w' at 0xb77770d0>"
p2060
asbasbasbag77
(g93
g79
NtRp2061
(dp2062
g82
(dp2063
sg91
g1247
sg84
(lp2064
g77
(g98
g79
NtRp2065
(dp2066
g82
(dp2067
g102
g103
ssg91
g2061
sg84
(lp2068
S'wsgi_file_wrapper'
p2069
asbag77
(g98
g79
NtRp2070
(dp2071
g82
(dp2072
g109
g110
ssg91
g2061
sg84
(lp2073
S':'
asbag77
(g98
g79
NtRp2074
(dp2075
g82
(dp2076
sg91
g2061
sg84
(lp2077
g77
(g78
g79
NtRp2078
(dp2079
g82
(dp2080
g90
I4
ssg91
g2074
sg84
(lp2081
S'<class wsgiref.util.FileWrapper at 0x9dab20c>'
p2082
asbasbasbag77
(g93
g79
NtRp2083
(dp2084
g82
(dp2085
sg91
g1247
sg84
(lp2086
g77
(g98
g79
NtRp2087
(dp2088
g82
(dp2089
g102
g103
ssg91
g2083
sg84
(lp2090
S'wsgi_input'
p2091
asbag77
(g98
g79
NtRp2092
(dp2093
g82
(dp2094
g109
g110
ssg91
g2083
sg84
(lp2095
S':'
asbag77
(g98
g79
NtRp2096
(dp2097
g82
(dp2098
sg91
g2083
sg84
(lp2099
g77
(g78
g79
NtRp2100
(dp2101
g82
(dp2102
g90
I4
ssg91
g2096
sg84
(lp2103
S'<socket._fileobject object at 0xae81cec>'
p2104
asbasbasbag77
(g93
g79
NtRp2105
(dp2106
g82
(dp2107
sg91
g1247
sg84
(lp2108
g77
(g98
g79
NtRp2109
(dp2110
g82
(dp2111
g102
g103
ssg91
g2105
sg84
(lp2112
S'wsgi_multiprocess'
p2113
asbag77
(g98
g79
NtRp2114
(dp2115
g82
(dp2116
g109
g110
ssg91
g2105
sg84
(lp2117
S':'
asbag77
(g98
g79
NtRp2118
(dp2119
g82
(dp2120
sg91
g2105
sg84
(lp2121
g77
(g78
g79
NtRp2122
(dp2123
g82
(dp2124
g90
I4
ssg91
g2118
sg84
(lp2125
g1385
asbasbasbag77
(g93
g79
NtRp2126
(dp2127
g82
(dp2128
sg91
g1247
sg84
(lp2129
g77
(g98
g79
NtRp2130
(dp2131
g82
(dp2132
g102
g103
ssg91
g2126
sg84
(lp2133
S'wsgi_multithread'
p2134
asbag77
(g98
g79
NtRp2135
(dp2136
g82
(dp2137
g109
g110
ssg91
g2126
sg84
(lp2138
S':'
asbag77
(g98
g79
NtRp2139
(dp2140
g82
(dp2141
sg91
g2126
sg84
(lp2142
g77
(g78
g79
NtRp2143
(dp2144
g82
(dp2145
g90
I4
ssg91
g2139
sg84
(lp2146
g120
asbasbasbag77
(g93
g79
NtRp2147
(dp2148
g82
(dp2149
sg91
g1247
sg84
(lp2150
g77
(g98
g79
NtRp2151
(dp2152
g82
(dp2153
g102
g103
ssg91
g2147
sg84
(lp2154
S'wsgi_run_once'
p2155
asbag77
(g98
g79
NtRp2156
(dp2157
g82
(dp2158
g109
g110
ssg91
g2147
sg84
(lp2159
S':'
asbag77
(g98
g79
NtRp2160
(dp2161
g82
(dp2162
sg91
g2147
sg84
(lp2163
g77
(g78
g79
NtRp2164
(dp2165
g82
(dp2166
g90
I4
ssg91
g2160
sg84
(lp2167
g1385
asbasbasbag77
(g93
g79
NtRp2168
(dp2169
g82
(dp2170
sg91
g1247
sg84
(lp2171
g77
(g98
g79
NtRp2172
(dp2173
g82
(dp2174
g102
g103
ssg91
g2168
sg84
(lp2175
S'wsgi_url_scheme'
p2176
asbag77
(g98
g79
NtRp2177
(dp2178
g82
(dp2179
g109
g110
ssg91
g2168
sg84
(lp2180
S':'
asbag77
(g98
g79
NtRp2181
(dp2182
g82
(dp2183
sg91
g2168
sg84
(lp2184
g77
(g78
g79
NtRp2185
(dp2186
g82
(dp2187
g90
I4
ssg91
g2181
sg84
(lp2188
S'http'
p2189
asbasbasbag77
(g93
g79
NtRp2190
(dp2191
g82
(dp2192
sg91
g1247
sg84
(lp2193
g77
(g98
g79
NtRp2194
(dp2195
g82
(dp2196
g102
g103
ssg91
g2190
sg84
(lp2197
S'wsgi_version'
p2198
asbag77
(g98
g79
NtRp2199
(dp2200
g82
(dp2201
g109
g110
ssg91
g2190
sg84
(lp2202
S':'
asbag77
(g98
g79
NtRp2203
(dp2204
g82
(dp2205
sg91
g2190
sg84
(lp2206
g77
(g78
g79
NtRp2207
(dp2208
g82
(dp2209
g90
I4
ssg91
g2203
sg84
(lp2210
g77
(g86
g79
NtRp2211
(dp2212
g82
(dp2213
g90
I3
ssg91
Nsg84
(lp2214
g77
(g93
g79
NtRp2215
(dp2216
g82
(dp2217
sg91
g2211
sg84
(lp2218
g77
(g98
g79
NtRp2219
(dp2220
g82
(dp2221
sg91
g2215
sg84
(lp2222
g77
(g78
g79
NtRp2223
(dp2224
g82
(dp2225
g90
I3
ssg91
g2219
sg84
(lp2226
S'1'
asbasbasbag77
(g93
g79
NtRp2227
(dp2228
g82
(dp2229
sg91
g2211
sg84
(lp2230
g77
(g98
g79
NtRp2231
(dp2232
g82
(dp2233
sg91
g2227
sg84
(lp2234
g77
(g78
g79
NtRp2235
(dp2236
g82
(dp2237
g90
I3
ssg91
g2231
sg84
(lp2238
S'0'
asbasbasbasbasbasbasbasbasbasbasbag77
(g93
g79
NtRp2239
(dp2240
g82
(dp2241
sg91
g87
sg84
(lp2242
g77
(g98
g79
NtRp2243
(dp2244
g82
(dp2245
g102
g103
ssg91
g2239
sg84
(lp2246
S'extension'
p2247
asbag77
(g98
g79
NtRp2248
(dp2249
g82
(dp2250
g109
g110
ssg91
g2239
sg84
(lp2251
S':'
asbag77
(g98
g79
NtRp2252
(dp2253
g82
(dp2254
sg91
g2239
sg84
(lp2255
g77
(g78
g79
NtRp2256
(dp2257
g82
(dp2258
g90
I5
ssg91
g2252
sg84
(lp2259
S'load'
p2260
asbasbasbag77
(g93
g79
NtRp2261
(dp2262
g82
(dp2263
sg91
g87
sg84
(lp2264
g77
(g98
g79
NtRp2265
(dp2266
g82
(dp2267
g102
g103
ssg91
g2261
sg84
(lp2268
S'folder'
p2269
asbag77
(g98
g79
NtRp2270
(dp2271
g82
(dp2272
g109
g110
ssg91
g2261
sg84
(lp2273
S':'
asbag77
(g98
g79
NtRp2274
(dp2275
g82
(dp2276
sg91
g2261
sg84
(lp2277
g77
(g78
g79
NtRp2278
(dp2279
g82
(dp2280
g90
I5
ssg91
g2274
sg84
(lp2281
S'/home/iscott/web/web2py/applications/grammateus3/'
p2282
asbasbasbag77
(g93
g79
NtRp2283
(dp2284
g82
(dp2285
sg91
g87
sg84
(lp2286
g77
(g98
g79
NtRp2287
(dp2288
g82
(dp2289
g102
g103
ssg91
g2283
sg84
(lp2290
S'function'
p2291
asbag77
(g98
g79
NtRp2292
(dp2293
g82
(dp2294
g109
g110
ssg91
g2283
sg84
(lp2295
S':'
asbag77
(g98
g79
NtRp2296
(dp2297
g82
(dp2298
sg91
g2283
sg84
(lp2299
g77
(g78
g79
NtRp2300
(dp2301
g82
(dp2302
g90
I5
ssg91
g2296
sg84
(lp2303
S'section'
p2304
asbasbasbag77
(g93
g79
NtRp2305
(dp2306
g82
(dp2307
sg91
g87
sg84
(lp2308
g77
(g98
g79
NtRp2309
(dp2310
g82
(dp2311
g102
g103
ssg91
g2305
sg84
(lp2312
S'get_vars'
p2313
asbag77
(g98
g79
NtRp2314
(dp2315
g82
(dp2316
g109
g110
ssg91
g2305
sg84
(lp2317
S':'
asbag77
(g98
g79
NtRp2318
(dp2319
g82
(dp2320
sg91
g2305
sg84
(lp2321
g77
(g78
g79
NtRp2322
(dp2323
g82
(dp2324
g90
I5
ssg91
g2318
sg84
(lp2325
g77
(g86
g79
NtRp2326
(dp2327
g82
(dp2328
g90
I4
ssg91
Nsg84
(lp2329
sbasbasbasbag77
(g93
g79
NtRp2330
(dp2331
g82
(dp2332
sg91
g87
sg84
(lp2333
g77
(g98
g79
NtRp2334
(dp2335
g82
(dp2336
g102
g103
ssg91
g2330
sg84
(lp2337
S'global_settings'
p2338
asbag77
(g98
g79
NtRp2339
(dp2340
g82
(dp2341
g109
g110
ssg91
g2330
sg84
(lp2342
S':'
asbag77
(g98
g79
NtRp2343
(dp2344
g82
(dp2345
sg91
g2330
sg84
(lp2346
g77
(g78
g79
NtRp2347
(dp2348
g82
(dp2349
g90
I5
ssg91
g2343
sg84
(lp2350
g77
(g86
g79
NtRp2351
(dp2352
g82
(dp2353
g90
I4
ssg91
Nsg84
(lp2354
g77
(g93
g79
NtRp2355
(dp2356
g82
(dp2357
sg91
g2351
sg84
(lp2358
g77
(g98
g79
NtRp2359
(dp2360
g82
(dp2361
g102
g103
ssg91
g2355
sg84
(lp2362
g1259
asbag77
(g98
g79
NtRp2363
(dp2364
g82
(dp2365
g109
g110
ssg91
g2355
sg84
(lp2366
S':'
asbag77
(g98
g79
NtRp2367
(dp2368
g82
(dp2369
sg91
g2355
sg84
(lp2370
g77
(g78
g79
NtRp2371
(dp2372
g82
(dp2373
g90
I4
ssg91
g2367
sg84
(lp2374
S"set(['/home/iscott/web/web2py/applications/grammateus3/', '/home/iscott/web/web2py/applications/admin/', '/home/iscott/web/web2py/applications/welcome/'])"
p2375
asbasbasbag77
(g93
g79
NtRp2376
(dp2377
g82
(dp2378
sg91
g2351
sg84
(lp2379
g77
(g98
g79
NtRp2380
(dp2381
g82
(dp2382
g102
g103
ssg91
g2376
sg84
(lp2383
g1281
asbag77
(g98
g79
NtRp2384
(dp2385
g82
(dp2386
g109
g110
ssg91
g2376
sg84
(lp2387
S':'
asbag77
(g98
g79
NtRp2388
(dp2389
g82
(dp2390
sg91
g2376
sg84
(lp2391
g77
(g78
g79
NtRp2392
(dp2393
g82
(dp2394
g90
I4
ssg91
g2388
sg84
(lp2395
g1294
asbasbasbag77
(g93
g79
NtRp2396
(dp2397
g82
(dp2398
sg91
g2351
sg84
(lp2399
g77
(g98
g79
NtRp2400
(dp2401
g82
(dp2402
g102
g103
ssg91
g2396
sg84
(lp2403
g1303
asbag77
(g98
g79
NtRp2404
(dp2405
g82
(dp2406
g109
g110
ssg91
g2396
sg84
(lp2407
S':'
asbag77
(g98
g79
NtRp2408
(dp2409
g82
(dp2410
sg91
g2396
sg84
(lp2411
g77
(g78
g79
NtRp2412
(dp2413
g82
(dp2414
g90
I4
ssg91
g2408
sg84
(lp2415
g77
(g86
g79
NtRp2416
(dp2417
g82
(dp2418
g90
I3
ssg91
Nsg84
(lp2419
sbasbasbasbag77
(g93
g79
NtRp2420
(dp2421
g82
(dp2422
sg91
g2351
sg84
(lp2423
g77
(g98
g79
NtRp2424
(dp2425
g82
(dp2426
g102
g103
ssg91
g2420
sg84
(lp2427
g1328
asbag77
(g98
g79
NtRp2428
(dp2429
g82
(dp2430
g109
g110
ssg91
g2420
sg84
(lp2431
S':'
asbag77
(g98
g79
NtRp2432
(dp2433
g82
(dp2434
sg91
g2420
sg84
(lp2435
g77
(g78
g79
NtRp2436
(dp2437
g82
(dp2438
g90
I4
ssg91
g2432
sg84
(lp2439
S"<Values at 0x9e62b8c: {'verbose': False, 'ip': '127.0.0.1', 'shutdown_timeout': 5, 'taskbar': False, 'nocron': False, 'pid_filename': 'httpserver.pid', 'maxthreads': None, 'softcron': False, 'server_name': 'ubuntu', 'bpython': False, 'nogui': False, 'port': 8000, 'extcron': False, 'debuglevel': 30, 'test': None, 'folder': '/home/iscott/web/web2py', 'config': '', 'import_models': False, 'winservice': '', 'shell': None, 'run': '', 'log_filename': 'httpserver.log', 'args': [''], 'socket_timeout': 1, 'ssl_ca_certificate': None, 'scheduler': None, 'profiler_filename': None, 'ssl_private_key': '', 'password': '<ask>', 'request_queue_size': 5, 'ssl_certificate': '', 'cronjob': False, 'numthreads': None, 'quiet': False, 'interfaces': None, 'minthreads': None, 'timeout': 10, 'plain': False, 'nobanner': False}>"
p2440
asbasbasbag77
(g93
g79
NtRp2441
(dp2442
g82
(dp2443
sg91
g2351
sg84
(lp2444
g77
(g98
g79
NtRp2445
(dp2446
g82
(dp2447
g102
g103
ssg91
g2441
sg84
(lp2448
g1350
asbag77
(g98
g79
NtRp2449
(dp2450
g82
(dp2451
g109
g110
ssg91
g2441
sg84
(lp2452
S':'
asbag77
(g98
g79
NtRp2453
(dp2454
g82
(dp2455
sg91
g2441
sg84
(lp2456
g77
(g78
g79
NtRp2457
(dp2458
g82
(dp2459
g90
I4
ssg91
g2453
sg84
(lp2460
S'set([])'
p2461
asbasbasbag77
(g93
g79
NtRp2462
(dp2463
g82
(dp2464
sg91
g2351
sg84
(lp2465
g77
(g98
g79
NtRp2466
(dp2467
g82
(dp2468
g102
g103
ssg91
g2462
sg84
(lp2469
g1372
asbag77
(g98
g79
NtRp2470
(dp2471
g82
(dp2472
g109
g110
ssg91
g2462
sg84
(lp2473
S':'
asbag77
(g98
g79
NtRp2474
(dp2475
g82
(dp2476
sg91
g2462
sg84
(lp2477
g77
(g78
g79
NtRp2478
(dp2479
g82
(dp2480
g90
I4
ssg91
g2474
sg84
(lp2481
g1385
asbasbasbag77
(g93
g79
NtRp2482
(dp2483
g82
(dp2484
sg91
g2351
sg84
(lp2485
g77
(g98
g79
NtRp2486
(dp2487
g82
(dp2488
g102
g103
ssg91
g2482
sg84
(lp2489
g1394
asbag77
(g98
g79
NtRp2490
(dp2491
g82
(dp2492
g109
g110
ssg91
g2482
sg84
(lp2493
S':'
asbag77
(g98
g79
NtRp2494
(dp2495
g82
(dp2496
sg91
g2482
sg84
(lp2497
g77
(g78
g79
NtRp2498
(dp2499
g82
(dp2500
g90
I4
ssg91
g2494
sg84
(lp2501
g1407
asbasbasbag77
(g93
g79
NtRp2502
(dp2503
g82
(dp2504
sg91
g2351
sg84
(lp2505
g77
(g98
g79
NtRp2506
(dp2507
g82
(dp2508
g102
g103
ssg91
g2502
sg84
(lp2509
g1657
asbag77
(g98
g79
NtRp2510
(dp2511
g82
(dp2512
g109
g110
ssg91
g2502
sg84
(lp2513
S':'
asbag77
(g98
g79
NtRp2514
(dp2515
g82
(dp2516
sg91
g2502
sg84
(lp2517
g77
(g78
g79
NtRp2518
(dp2519
g82
(dp2520
g90
I4
ssg91
g2514
sg84
(lp2521
g1385
asbasbasbag77
(g93
g79
NtRp2522
(dp2523
g82
(dp2524
sg91
g2351
sg84
(lp2525
g77
(g98
g79
NtRp2526
(dp2527
g82
(dp2528
g102
g103
ssg91
g2522
sg84
(lp2529
g1678
asbag77
(g98
g79
NtRp2530
(dp2531
g82
(dp2532
g109
g110
ssg91
g2522
sg84
(lp2533
S':'
asbag77
(g98
g79
NtRp2534
(dp2535
g82
(dp2536
sg91
g2522
sg84
(lp2537
g77
(g78
g79
NtRp2538
(dp2539
g82
(dp2540
g90
I4
ssg91
g2534
sg84
(lp2541
g1385
asbasbasbag77
(g93
g79
NtRp2542
(dp2543
g82
(dp2544
sg91
g2351
sg84
(lp2545
g77
(g98
g79
NtRp2546
(dp2547
g82
(dp2548
g102
g103
ssg91
g2542
sg84
(lp2549
g1916
asbag77
(g98
g79
NtRp2550
(dp2551
g82
(dp2552
g109
g110
ssg91
g2542
sg84
(lp2553
S':'
asbag77
(g98
g79
NtRp2554
(dp2555
g82
(dp2556
sg91
g2542
sg84
(lp2557
g77
(g78
g79
NtRp2558
(dp2559
g82
(dp2560
g90
I4
ssg91
g2554
sg84
(lp2561
g1929
asbasbasbag77
(g93
g79
NtRp2562
(dp2563
g82
(dp2564
sg91
g2351
sg84
(lp2565
g77
(g98
g79
NtRp2566
(dp2567
g82
(dp2568
g102
g103
ssg91
g2562
sg84
(lp2569
g1959
asbag77
(g98
g79
NtRp2570
(dp2571
g82
(dp2572
g109
g110
ssg91
g2562
sg84
(lp2573
S':'
asbag77
(g98
g79
NtRp2574
(dp2575
g82
(dp2576
sg91
g2562
sg84
(lp2577
g77
(g78
g79
NtRp2578
(dp2579
g82
(dp2580
g90
I4
ssg91
g2574
sg84
(lp2581
g77
(g86
g79
NtRp2582
(dp2583
g82
(dp2584
g90
I3
ssg91
Nsg84
(lp2585
g77
(g93
g79
NtRp2586
(dp2587
g82
(dp2588
sg91
g2582
sg84
(lp2589
g77
(g98
g79
NtRp2590
(dp2591
g82
(dp2592
sg91
g2586
sg84
(lp2593
g77
(g78
g79
NtRp2594
(dp2595
g82
(dp2596
g90
I3
ssg91
g2590
sg84
(lp2597
S'1'
asbasbasbag77
(g93
g79
NtRp2598
(dp2599
g82
(dp2600
sg91
g2582
sg84
(lp2601
g77
(g98
g79
NtRp2602
(dp2603
g82
(dp2604
sg91
g2598
sg84
(lp2605
g77
(g78
g79
NtRp2606
(dp2607
g82
(dp2608
g90
I3
ssg91
g2602
sg84
(lp2609
S'99'
p2610
asbasbasbag77
(g93
g79
NtRp2611
(dp2612
g82
(dp2613
sg91
g2582
sg84
(lp2614
g77
(g98
g79
NtRp2615
(dp2616
g82
(dp2617
sg91
g2611
sg84
(lp2618
g77
(g78
g79
NtRp2619
(dp2620
g82
(dp2621
g90
I3
ssg91
g2615
sg84
(lp2622
S'4'
asbasbasbag77
(g93
g79
NtRp2623
(dp2624
g82
(dp2625
sg91
g2582
sg84
(lp2626
g77
(g98
g79
NtRp2627
(dp2628
g82
(dp2629
sg91
g2623
sg84
(lp2630
g77
(g78
g79
NtRp2631
(dp2632
g82
(dp2633
g90
I3
ssg91
g2627
sg84
(lp2634
S'datetime.datetime(2011, 12, 14, 14, 46, 14)'
p2635
asbasbasbag77
(g93
g79
NtRp2636
(dp2637
g82
(dp2638
sg91
g2582
sg84
(lp2639
g77
(g98
g79
NtRp2640
(dp2641
g82
(dp2642
sg91
g2636
sg84
(lp2643
g77
(g78
g79
NtRp2644
(dp2645
g82
(dp2646
g90
I3
ssg91
g2640
sg84
(lp2647
g2038
asbasbasbasbasbasbasbasbasbasbasbag77
(g93
g79
NtRp2648
(dp2649
g82
(dp2650
sg91
g87
sg84
(lp2651
g77
(g98
g79
NtRp2652
(dp2653
g82
(dp2654
g102
g103
ssg91
g2648
sg84
(lp2655
S'is_https'
p2656
asbag77
(g98
g79
NtRp2657
(dp2658
g82
(dp2659
g109
g110
ssg91
g2648
sg84
(lp2660
S':'
asbag77
(g98
g79
NtRp2661
(dp2662
g82
(dp2663
sg91
g2648
sg84
(lp2664
g77
(g78
g79
NtRp2665
(dp2666
g82
(dp2667
g90
I5
ssg91
g2661
sg84
(lp2668
g1385
asbasbasbag77
(g93
g79
NtRp2669
(dp2670
g82
(dp2671
sg91
g87
sg84
(lp2672
g77
(g98
g79
NtRp2673
(dp2674
g82
(dp2675
g102
g103
ssg91
g2669
sg84
(lp2676
S'is_local'
p2677
asbag77
(g98
g79
NtRp2678
(dp2679
g82
(dp2680
g109
g110
ssg91
g2669
sg84
(lp2681
S':'
asbag77
(g98
g79
NtRp2682
(dp2683
g82
(dp2684
sg91
g2669
sg84
(lp2685
g77
(g78
g79
NtRp2686
(dp2687
g82
(dp2688
g90
I5
ssg91
g2682
sg84
(lp2689
g120
asbasbasbag77
(g93
g79
NtRp2690
(dp2691
g82
(dp2692
sg91
g87
sg84
(lp2693
g77
(g98
g79
NtRp2694
(dp2695
g82
(dp2696
g102
g103
ssg91
g2690
sg84
(lp2697
S'is_restful'
p2698
asbag77
(g98
g79
NtRp2699
(dp2700
g82
(dp2701
g109
g110
ssg91
g2690
sg84
(lp2702
S':'
asbag77
(g98
g79
NtRp2703
(dp2704
g82
(dp2705
sg91
g2690
sg84
(lp2706
g77
(g78
g79
NtRp2707
(dp2708
g82
(dp2709
g90
I5
ssg91
g2703
sg84
(lp2710
g1385
asbasbasbag77
(g93
g79
NtRp2711
(dp2712
g82
(dp2713
sg91
g87
sg84
(lp2714
g77
(g98
g79
NtRp2715
(dp2716
g82
(dp2717
g102
g103
ssg91
g2711
sg84
(lp2718
S'now'
p2719
asbag77
(g98
g79
NtRp2720
(dp2721
g82
(dp2722
g109
g110
ssg91
g2711
sg84
(lp2723
S':'
asbag77
(g98
g79
NtRp2724
(dp2725
g82
(dp2726
sg91
g2711
sg84
(lp2727
g77
(g78
g79
NtRp2728
(dp2729
g82
(dp2730
g90
I5
ssg91
g2724
sg84
(lp2731
S'datetime.datetime(2012, 3, 8, 11, 18, 34, 812516)'
p2732
asbasbasbag77
(g93
g79
NtRp2733
(dp2734
g82
(dp2735
sg91
g87
sg84
(lp2736
g77
(g98
g79
NtRp2737
(dp2738
g82
(dp2739
g102
g103
ssg91
g2733
sg84
(lp2740
S'post_vars'
p2741
asbag77
(g98
g79
NtRp2742
(dp2743
g82
(dp2744
g109
g110
ssg91
g2733
sg84
(lp2745
S':'
asbag77
(g98
g79
NtRp2746
(dp2747
g82
(dp2748
sg91
g2733
sg84
(lp2749
g77
(g78
g79
NtRp2750
(dp2751
g82
(dp2752
g90
I5
ssg91
g2746
sg84
(lp2753
g77
(g86
g79
NtRp2754
(dp2755
g82
(dp2756
g90
I4
ssg91
Nsg84
(lp2757
sbasbasbasbag77
(g93
g79
NtRp2758
(dp2759
g82
(dp2760
sg91
g87
sg84
(lp2761
g77
(g98
g79
NtRp2762
(dp2763
g82
(dp2764
g102
g103
ssg91
g2758
sg84
(lp2765
S'raw_args'
p2766
asbag77
(g98
g79
NtRp2767
(dp2768
g82
(dp2769
g109
g110
ssg91
g2758
sg84
(lp2770
S':'
asbag77
(g98
g79
NtRp2771
(dp2772
g82
(dp2773
sg91
g2758
sg84
(lp2774
g77
(g78
g79
NtRp2775
(dp2776
g82
(dp2777
g90
I5
ssg91
g2771
sg84
(lp2778
g179
asbasbasbag77
(g93
g79
NtRp2779
(dp2780
g82
(dp2781
sg91
g87
sg84
(lp2782
g77
(g98
g79
NtRp2783
(dp2784
g82
(dp2785
g102
g103
ssg91
g2779
sg84
(lp2786
S'raw_extension'
p2787
asbag77
(g98
g79
NtRp2788
(dp2789
g82
(dp2790
g109
g110
ssg91
g2779
sg84
(lp2791
S':'
asbag77
(g98
g79
NtRp2792
(dp2793
g82
(dp2794
sg91
g2779
sg84
(lp2795
g77
(g78
g79
NtRp2796
(dp2797
g82
(dp2798
g90
I5
ssg91
g2792
sg84
(lp2799
g2260
asbasbasbag77
(g93
g79
NtRp2800
(dp2801
g82
(dp2802
sg91
g87
sg84
(lp2803
g77
(g98
g79
NtRp2804
(dp2805
g82
(dp2806
g102
g103
ssg91
g2800
sg84
(lp2807
S'url'
p2808
asbag77
(g98
g79
NtRp2809
(dp2810
g82
(dp2811
g109
g110
ssg91
g2800
sg84
(lp2812
S':'
asbag77
(g98
g79
NtRp2813
(dp2814
g82
(dp2815
sg91
g2800
sg84
(lp2816
g77
(g78
g79
NtRp2817
(dp2818
g82
(dp2819
g90
I5
ssg91
g2813
sg84
(lp2820
S'/grammateus3/docs/section.load/3Macc'
p2821
asbasbasbag77
(g93
g79
NtRp2822
(dp2823
g82
(dp2824
sg91
g87
sg84
(lp2825
g77
(g98
g79
NtRp2826
(dp2827
g82
(dp2828
g102
g103
ssg91
g2822
sg84
(lp2829
S'utcnow'
p2830
asbag77
(g98
g79
NtRp2831
(dp2832
g82
(dp2833
g109
g110
ssg91
g2822
sg84
(lp2834
S':'
asbag77
(g98
g79
NtRp2835
(dp2836
g82
(dp2837
sg91
g2822
sg84
(lp2838
g77
(g78
g79
NtRp2839
(dp2840
g82
(dp2841
g90
I5
ssg91
g2835
sg84
(lp2842
S'datetime.datetime(2012, 3, 8, 16, 18, 34, 812543)'
p2843
asbasbasbag77
(g93
g79
NtRp2844
(dp2845
g82
(dp2846
sg91
g87
sg84
(lp2847
g77
(g98
g79
NtRp2848
(dp2849
g82
(dp2850
g102
g103
ssg91
g2844
sg84
(lp2851
S'uuid'
p2852
asbag77
(g98
g79
NtRp2853
(dp2854
g82
(dp2855
g109
g110
ssg91
g2844
sg84
(lp2856
S':'
asbag77
(g98
g79
NtRp2857
(dp2858
g82
(dp2859
sg91
g2844
sg84
(lp2860
g77
(g78
g79
NtRp2861
(dp2862
g82
(dp2863
g90
I5
ssg91
g2857
sg84
(lp2864
S'grammateus3/127.0.0.1.2012-03-08.11-18-34.afa55fa8-1387-4917-805a-313e0a59f223'
p2865
asbasbasbag77
(g93
g79
NtRp2866
(dp2867
g82
(dp2868
sg91
g87
sg84
(lp2869
g77
(g98
g79
NtRp2870
(dp2871
g82
(dp2872
g102
g103
ssg91
g2866
sg84
(lp2873
S'vars'
p2874
asbag77
(g98
g79
NtRp2875
(dp2876
g82
(dp2877
g109
g110
ssg91
g2866
sg84
(lp2878
S':'
asbag77
(g98
g79
NtRp2879
(dp2880
g82
(dp2881
sg91
g2866
sg84
(lp2882
g77
(g78
g79
NtRp2883
(dp2884
g82
(dp2885
g90
I5
ssg91
g2879
sg84
(lp2886
g77
(g86
g79
NtRp2887
(dp2888
g82
(dp2889
g90
I4
ssg91
Nsg84
(lp2890
sbasbasbasbag77
(g93
g79
NtRp2891
(dp2892
g82
(dp2893
sg91
g87
sg84
(lp2894
g77
(g98
g79
NtRp2895
(dp2896
g82
(dp2897
g102
g103
ssg91
g2891
sg84
(lp2898
S'wsgi'
p2899
asbag77
(g98
g79
NtRp2900
(dp2901
g82
(dp2902
g109
g110
ssg91
g2891
sg84
(lp2903
S':'
asbag77
(g98
g79
NtRp2904
(dp2905
g82
(dp2906
sg91
g2891
sg84
(lp2907
g77
(g78
g79
NtRp2908
(dp2909
g82
(dp2910
g90
I5
ssg91
g2904
sg84
(lp2911
g77
(g86
g79
NtRp2912
(dp2913
g82
(dp2914
g90
I4
ssg91
Nsg84
(lp2915
g77
(g93
g79
NtRp2916
(dp2917
g82
(dp2918
sg91
g2912
sg84
(lp2919
g77
(g98
g79
NtRp2920
(dp2921
g82
(dp2922
g102
g103
ssg91
g2916
sg84
(lp2923
S'environ'
p2924
asbag77
(g98
g79
NtRp2925
(dp2926
g82
(dp2927
g109
g110
ssg91
g2916
sg84
(lp2928
S':'
asbag77
(g98
g79
NtRp2929
(dp2930
g82
(dp2931
sg91
g2916
sg84
(lp2932
g77
(g78
g79
NtRp2933
(dp2934
g82
(dp2935
g90
I4
ssg91
g2929
sg84
(lp2936
g77
(g86
g79
NtRp2937
(dp2938
g82
(dp2939
g90
I3
ssg91
Nsg84
(lp2940
g77
(g93
g79
NtRp2941
(dp2942
g82
(dp2943
sg91
g2937
sg84
(lp2944
g77
(g98
g79
NtRp2945
(dp2946
g82
(dp2947
g102
g103
ssg91
g2941
sg84
(lp2948
S'HTTP_ACCEPT'
p2949
asbag77
(g98
g79
NtRp2950
(dp2951
g82
(dp2952
g109
g110
ssg91
g2941
sg84
(lp2953
S':'
asbag77
(g98
g79
NtRp2954
(dp2955
g82
(dp2956
sg91
g2941
sg84
(lp2957
g77
(g78
g79
NtRp2958
(dp2959
g82
(dp2960
g90
I3
ssg91
g2954
sg84
(lp2961
g1429
asbasbasbag77
(g93
g79
NtRp2962
(dp2963
g82
(dp2964
sg91
g2937
sg84
(lp2965
g77
(g98
g79
NtRp2966
(dp2967
g82
(dp2968
g102
g103
ssg91
g2962
sg84
(lp2969
S'HTTP_ACCEPT_ENCODING'
p2970
asbag77
(g98
g79
NtRp2971
(dp2972
g82
(dp2973
g109
g110
ssg91
g2962
sg84
(lp2974
S':'
asbag77
(g98
g79
NtRp2975
(dp2976
g82
(dp2977
sg91
g2962
sg84
(lp2978
g77
(g78
g79
NtRp2979
(dp2980
g82
(dp2981
g90
I3
ssg91
g2975
sg84
(lp2982
g1451
asbasbasbag77
(g93
g79
NtRp2983
(dp2984
g82
(dp2985
sg91
g2937
sg84
(lp2986
g77
(g98
g79
NtRp2987
(dp2988
g82
(dp2989
g102
g103
ssg91
g2983
sg84
(lp2990
S'HTTP_ACCEPT_LANGUAGE'
p2991
asbag77
(g98
g79
NtRp2992
(dp2993
g82
(dp2994
g109
g110
ssg91
g2983
sg84
(lp2995
S':'
asbag77
(g98
g79
NtRp2996
(dp2997
g82
(dp2998
sg91
g2983
sg84
(lp2999
g77
(g78
g79
NtRp3000
(dp3001
g82
(dp3002
g90
I3
ssg91
g2996
sg84
(lp3003
g1473
asbasbasbag77
(g93
g79
NtRp3004
(dp3005
g82
(dp3006
sg91
g2937
sg84
(lp3007
g77
(g98
g79
NtRp3008
(dp3009
g82
(dp3010
g102
g103
ssg91
g3004
sg84
(lp3011
S'HTTP_CONNECTION'
p3012
asbag77
(g98
g79
NtRp3013
(dp3014
g82
(dp3015
g109
g110
ssg91
g3004
sg84
(lp3016
S':'
asbag77
(g98
g79
NtRp3017
(dp3018
g82
(dp3019
sg91
g3004
sg84
(lp3020
g77
(g78
g79
NtRp3021
(dp3022
g82
(dp3023
g90
I3
ssg91
g3017
sg84
(lp3024
g1495
asbasbasbag77
(g93
g79
NtRp3025
(dp3026
g82
(dp3027
sg91
g2937
sg84
(lp3028
g77
(g98
g79
NtRp3029
(dp3030
g82
(dp3031
g102
g103
ssg91
g3025
sg84
(lp3032
S'HTTP_COOKIE'
p3033
asbag77
(g98
g79
NtRp3034
(dp3035
g82
(dp3036
g109
g110
ssg91
g3025
sg84
(lp3037
S':'
asbag77
(g98
g79
NtRp3038
(dp3039
g82
(dp3040
sg91
g3025
sg84
(lp3041
g77
(g78
g79
NtRp3042
(dp3043
g82
(dp3044
g90
I3
ssg91
g3038
sg84
(lp3045
g1517
asbasbasbag77
(g93
g79
NtRp3046
(dp3047
g82
(dp3048
sg91
g2937
sg84
(lp3049
g77
(g98
g79
NtRp3050
(dp3051
g82
(dp3052
g102
g103
ssg91
g3046
sg84
(lp3053
S'HTTP_HOST'
p3054
asbag77
(g98
g79
NtRp3055
(dp3056
g82
(dp3057
g109
g110
ssg91
g3046
sg84
(lp3058
S':'
asbag77
(g98
g79
NtRp3059
(dp3060
g82
(dp3061
sg91
g3046
sg84
(lp3062
g77
(g78
g79
NtRp3063
(dp3064
g82
(dp3065
g90
I3
ssg91
g3059
sg84
(lp3066
g1539
asbasbasbag77
(g93
g79
NtRp3067
(dp3068
g82
(dp3069
sg91
g2937
sg84
(lp3070
g77
(g98
g79
NtRp3071
(dp3072
g82
(dp3073
g102
g103
ssg91
g3067
sg84
(lp3074
S'HTTP_REFERER'
p3075
asbag77
(g98
g79
NtRp3076
(dp3077
g82
(dp3078
g109
g110
ssg91
g3067
sg84
(lp3079
S':'
asbag77
(g98
g79
NtRp3080
(dp3081
g82
(dp3082
sg91
g3067
sg84
(lp3083
g77
(g78
g79
NtRp3084
(dp3085
g82
(dp3086
g90
I3
ssg91
g3080
sg84
(lp3087
g1561
asbasbasbag77
(g93
g79
NtRp3088
(dp3089
g82
(dp3090
sg91
g2937
sg84
(lp3091
g77
(g98
g79
NtRp3092
(dp3093
g82
(dp3094
g102
g103
ssg91
g3088
sg84
(lp3095
S'HTTP_USER_AGENT'
p3096
asbag77
(g98
g79
NtRp3097
(dp3098
g82
(dp3099
g109
g110
ssg91
g3088
sg84
(lp3100
S':'
asbag77
(g98
g79
NtRp3101
(dp3102
g82
(dp3103
sg91
g3088
sg84
(lp3104
g77
(g78
g79
NtRp3105
(dp3106
g82
(dp3107
g90
I3
ssg91
g3101
sg84
(lp3108
g1583
asbasbasbag77
(g93
g79
NtRp3109
(dp3110
g82
(dp3111
sg91
g2937
sg84
(lp3112
g77
(g98
g79
NtRp3113
(dp3114
g82
(dp3115
g102
g103
ssg91
g3109
sg84
(lp3116
S'HTTP_WEB2PY_COMPONENT_ELEMENT'
p3117
asbag77
(g98
g79
NtRp3118
(dp3119
g82
(dp3120
g109
g110
ssg91
g3109
sg84
(lp3121
S':'
asbag77
(g98
g79
NtRp3122
(dp3123
g82
(dp3124
sg91
g3109
sg84
(lp3125
g77
(g78
g79
NtRp3126
(dp3127
g82
(dp3128
g90
I3
ssg91
g3122
sg84
(lp3129
g223
asbasbasbag77
(g93
g79
NtRp3130
(dp3131
g82
(dp3132
sg91
g2937
sg84
(lp3133
g77
(g98
g79
NtRp3134
(dp3135
g82
(dp3136
g102
g103
ssg91
g3130
sg84
(lp3137
S'HTTP_WEB2PY_COMPONENT_LOCATION'
p3138
asbag77
(g98
g79
NtRp3139
(dp3140
g82
(dp3141
g109
g110
ssg91
g3130
sg84
(lp3142
S':'
asbag77
(g98
g79
NtRp3143
(dp3144
g82
(dp3145
sg91
g3130
sg84
(lp3146
g77
(g78
g79
NtRp3147
(dp3148
g82
(dp3149
g90
I3
ssg91
g3143
sg84
(lp3150
g1626
asbasbasbag77
(g93
g79
NtRp3151
(dp3152
g82
(dp3153
sg91
g2937
sg84
(lp3154
g77
(g98
g79
NtRp3155
(dp3156
g82
(dp3157
g102
g103
ssg91
g3151
sg84
(lp3158
S'HTTP_X_REQUESTED_WITH'
p3159
asbag77
(g98
g79
NtRp3160
(dp3161
g82
(dp3162
g109
g110
ssg91
g3151
sg84
(lp3163
S':'
asbag77
(g98
g79
NtRp3164
(dp3165
g82
(dp3166
sg91
g3151
sg84
(lp3167
g77
(g78
g79
NtRp3168
(dp3169
g82
(dp3170
g90
I3
ssg91
g3164
sg84
(lp3171
g1648
asbasbasbag77
(g93
g79
NtRp3172
(dp3173
g82
(dp3174
sg91
g2937
sg84
(lp3175
g77
(g98
g79
NtRp3176
(dp3177
g82
(dp3178
g102
g103
ssg91
g3172
sg84
(lp3179
S'PATH_INFO'
p3180
asbag77
(g98
g79
NtRp3181
(dp3182
g82
(dp3183
g109
g110
ssg91
g3172
sg84
(lp3184
S':'
asbag77
(g98
g79
NtRp3185
(dp3186
g82
(dp3187
sg91
g3172
sg84
(lp3188
g77
(g78
g79
NtRp3189
(dp3190
g82
(dp3191
g90
I3
ssg91
g3185
sg84
(lp3192
g1712
asbasbasbag77
(g93
g79
NtRp3193
(dp3194
g82
(dp3195
sg91
g2937
sg84
(lp3196
g77
(g98
g79
NtRp3197
(dp3198
g82
(dp3199
g102
g103
ssg91
g3193
sg84
(lp3200
S'QUERY_STRING'
p3201
asbag77
(g98
g79
NtRp3202
(dp3203
g82
(dp3204
g109
g110
ssg91
g3193
sg84
(lp3205
S':'
asbag77
(g98
g79
NtRp3206
(dp3207
g82
(dp3208
sg91
g3193
sg84
(lp3209
g77
(g78
g79
NtRp3210
(dp3211
g82
(dp3212
g90
I3
ssg91
g3206
sg84
(lp3213
S''
asbasbasbag77
(g93
g79
NtRp3214
(dp3215
g82
(dp3216
sg91
g2937
sg84
(lp3217
g77
(g98
g79
NtRp3218
(dp3219
g82
(dp3220
g102
g103
ssg91
g3214
sg84
(lp3221
S'REMOTE_ADDR'
p3222
asbag77
(g98
g79
NtRp3223
(dp3224
g82
(dp3225
g109
g110
ssg91
g3214
sg84
(lp3226
S':'
asbag77
(g98
g79
NtRp3227
(dp3228
g82
(dp3229
sg91
g3214
sg84
(lp3230
g77
(g78
g79
NtRp3231
(dp3232
g82
(dp3233
g90
I3
ssg91
g3227
sg84
(lp3234
g245
asbasbasbag77
(g93
g79
NtRp3235
(dp3236
g82
(dp3237
sg91
g2937
sg84
(lp3238
g77
(g98
g79
NtRp3239
(dp3240
g82
(dp3241
g102
g103
ssg91
g3235
sg84
(lp3242
S'REMOTE_PORT'
p3243
asbag77
(g98
g79
NtRp3244
(dp3245
g82
(dp3246
g109
g110
ssg91
g3235
sg84
(lp3247
S':'
asbag77
(g98
g79
NtRp3248
(dp3249
g82
(dp3250
sg91
g3235
sg84
(lp3251
g77
(g78
g79
NtRp3252
(dp3253
g82
(dp3254
g90
I3
ssg91
g3248
sg84
(lp3255
g1776
asbasbasbag77
(g93
g79
NtRp3256
(dp3257
g82
(dp3258
sg91
g2937
sg84
(lp3259
g77
(g98
g79
NtRp3260
(dp3261
g82
(dp3262
g102
g103
ssg91
g3256
sg84
(lp3263
S'REQUEST_METHOD'
p3264
asbag77
(g98
g79
NtRp3265
(dp3266
g82
(dp3267
g109
g110
ssg91
g3256
sg84
(lp3268
S':'
asbag77
(g98
g79
NtRp3269
(dp3270
g82
(dp3271
sg91
g3256
sg84
(lp3272
g77
(g78
g79
NtRp3273
(dp3274
g82
(dp3275
g90
I3
ssg91
g3269
sg84
(lp3276
g1798
asbasbasbag77
(g93
g79
NtRp3277
(dp3278
g82
(dp3279
sg91
g2937
sg84
(lp3280
g77
(g98
g79
NtRp3281
(dp3282
g82
(dp3283
g102
g103
ssg91
g3277
sg84
(lp3284
S'SCRIPT_NAME'
p3285
asbag77
(g98
g79
NtRp3286
(dp3287
g82
(dp3288
g109
g110
ssg91
g3277
sg84
(lp3289
S':'
asbag77
(g98
g79
NtRp3290
(dp3291
g82
(dp3292
sg91
g3277
sg84
(lp3293
g77
(g78
g79
NtRp3294
(dp3295
g82
(dp3296
g90
I3
ssg91
g3290
sg84
(lp3297
S''
asbasbasbag77
(g93
g79
NtRp3298
(dp3299
g82
(dp3300
sg91
g2937
sg84
(lp3301
g77
(g98
g79
NtRp3302
(dp3303
g82
(dp3304
g102
g103
ssg91
g3298
sg84
(lp3305
S'SERVER_NAME'
p3306
asbag77
(g98
g79
NtRp3307
(dp3308
g82
(dp3309
g109
g110
ssg91
g3298
sg84
(lp3310
S':'
asbag77
(g98
g79
NtRp3311
(dp3312
g82
(dp3313
sg91
g3298
sg84
(lp3314
g77
(g78
g79
NtRp3315
(dp3316
g82
(dp3317
g90
I3
ssg91
g3311
sg84
(lp3318
g1841
asbasbasbag77
(g93
g79
NtRp3319
(dp3320
g82
(dp3321
sg91
g2937
sg84
(lp3322
g77
(g98
g79
NtRp3323
(dp3324
g82
(dp3325
g102
g103
ssg91
g3319
sg84
(lp3326
S'SERVER_PORT'
p3327
asbag77
(g98
g79
NtRp3328
(dp3329
g82
(dp3330
g109
g110
ssg91
g3319
sg84
(lp3331
S':'
asbag77
(g98
g79
NtRp3332
(dp3333
g82
(dp3334
sg91
g3319
sg84
(lp3335
g77
(g78
g79
NtRp3336
(dp3337
g82
(dp3338
g90
I3
ssg91
g3332
sg84
(lp3339
g1863
asbasbasbag77
(g93
g79
NtRp3340
(dp3341
g82
(dp3342
sg91
g2937
sg84
(lp3343
g77
(g98
g79
NtRp3344
(dp3345
g82
(dp3346
g102
g103
ssg91
g3340
sg84
(lp3347
S'SERVER_PROTOCOL'
p3348
asbag77
(g98
g79
NtRp3349
(dp3350
g82
(dp3351
g109
g110
ssg91
g3340
sg84
(lp3352
S':'
asbag77
(g98
g79
NtRp3353
(dp3354
g82
(dp3355
sg91
g3340
sg84
(lp3356
g77
(g78
g79
NtRp3357
(dp3358
g82
(dp3359
g90
I3
ssg91
g3353
sg84
(lp3360
g1885
asbasbasbag77
(g93
g79
NtRp3361
(dp3362
g82
(dp3363
sg91
g2937
sg84
(lp3364
g77
(g98
g79
NtRp3365
(dp3366
g82
(dp3367
g102
g103
ssg91
g3361
sg84
(lp3368
S'SERVER_SOFTWARE'
p3369
asbag77
(g98
g79
NtRp3370
(dp3371
g82
(dp3372
g109
g110
ssg91
g3361
sg84
(lp3373
S':'
asbag77
(g98
g79
NtRp3374
(dp3375
g82
(dp3376
sg91
g3361
sg84
(lp3377
g77
(g78
g79
NtRp3378
(dp3379
g82
(dp3380
g90
I3
ssg91
g3374
sg84
(lp3381
g1907
asbasbasbag77
(g93
g79
NtRp3382
(dp3383
g82
(dp3384
sg91
g2937
sg84
(lp3385
g77
(g98
g79
NtRp3386
(dp3387
g82
(dp3388
g102
g103
ssg91
g3382
sg84
(lp3389
S'wsgi.errors'
p3390
asbag77
(g98
g79
NtRp3391
(dp3392
g82
(dp3393
g109
g110
ssg91
g3382
sg84
(lp3394
S':'
asbag77
(g98
g79
NtRp3395
(dp3396
g82
(dp3397
sg91
g3382
sg84
(lp3398
g77
(g78
g79
NtRp3399
(dp3400
g82
(dp3401
g90
I3
ssg91
g3395
sg84
(lp3402
S"<open file '<stderr>', mode 'w' at 0xb77770d0>"
p3403
asbasbasbag77
(g93
g79
NtRp3404
(dp3405
g82
(dp3406
sg91
g2937
sg84
(lp3407
g77
(g98
g79
NtRp3408
(dp3409
g82
(dp3410
g102
g103
ssg91
g3404
sg84
(lp3411
S'wsgi.file_wrapper'
p3412
asbag77
(g98
g79
NtRp3413
(dp3414
g82
(dp3415
g109
g110
ssg91
g3404
sg84
(lp3416
S':'
asbag77
(g98
g79
NtRp3417
(dp3418
g82
(dp3419
sg91
g3404
sg84
(lp3420
g77
(g78
g79
NtRp3421
(dp3422
g82
(dp3423
g90
I3
ssg91
g3417
sg84
(lp3424
S'<class wsgiref.util.FileWrapper at 0x9dab20c>'
p3425
asbasbasbag77
(g93
g79
NtRp3426
(dp3427
g82
(dp3428
sg91
g2937
sg84
(lp3429
g77
(g98
g79
NtRp3430
(dp3431
g82
(dp3432
g102
g103
ssg91
g3426
sg84
(lp3433
S'wsgi.input'
p3434
asbag77
(g98
g79
NtRp3435
(dp3436
g82
(dp3437
g109
g110
ssg91
g3426
sg84
(lp3438
S':'
asbag77
(g98
g79
NtRp3439
(dp3440
g82
(dp3441
sg91
g3426
sg84
(lp3442
g77
(g78
g79
NtRp3443
(dp3444
g82
(dp3445
g90
I3
ssg91
g3439
sg84
(lp3446
S'<cStringIO.StringO object at 0xb3dbda0>'
p3447
asbasbasbag77
(g93
g79
NtRp3448
(dp3449
g82
(dp3450
sg91
g2937
sg84
(lp3451
g77
(g98
g79
NtRp3452
(dp3453
g82
(dp3454
g102
g103
ssg91
g3448
sg84
(lp3455
S'wsgi.multiprocess'
p3456
asbag77
(g98
g79
NtRp3457
(dp3458
g82
(dp3459
g109
g110
ssg91
g3448
sg84
(lp3460
S':'
asbag77
(g98
g79
NtRp3461
(dp3462
g82
(dp3463
sg91
g3448
sg84
(lp3464
g77
(g78
g79
NtRp3465
(dp3466
g82
(dp3467
g90
I3
ssg91
g3461
sg84
(lp3468
g1385
asbasbasbag77
(g93
g79
NtRp3469
(dp3470
g82
(dp3471
sg91
g2937
sg84
(lp3472
g77
(g98
g79
NtRp3473
(dp3474
g82
(dp3475
g102
g103
ssg91
g3469
sg84
(lp3476
S'wsgi.multithread'
p3477
asbag77
(g98
g79
NtRp3478
(dp3479
g82
(dp3480
g109
g110
ssg91
g3469
sg84
(lp3481
S':'
asbag77
(g98
g79
NtRp3482
(dp3483
g82
(dp3484
sg91
g3469
sg84
(lp3485
g77
(g78
g79
NtRp3486
(dp3487
g82
(dp3488
g90
I3
ssg91
g3482
sg84
(lp3489
g120
asbasbasbag77
(g93
g79
NtRp3490
(dp3491
g82
(dp3492
sg91
g2937
sg84
(lp3493
g77
(g98
g79
NtRp3494
(dp3495
g82
(dp3496
g102
g103
ssg91
g3490
sg84
(lp3497
S'wsgi.run_once'
p3498
asbag77
(g98
g79
NtRp3499
(dp3500
g82
(dp3501
g109
g110
ssg91
g3490
sg84
(lp3502
S':'
asbag77
(g98
g79
NtRp3503
(dp3504
g82
(dp3505
sg91
g3490
sg84
(lp3506
g77
(g78
g79
NtRp3507
(dp3508
g82
(dp3509
g90
I3
ssg91
g3503
sg84
(lp3510
g1385
asbasbasbag77
(g93
g79
NtRp3511
(dp3512
g82
(dp3513
sg91
g2937
sg84
(lp3514
g77
(g98
g79
NtRp3515
(dp3516
g82
(dp3517
g102
g103
ssg91
g3511
sg84
(lp3518
S'wsgi.url_scheme'
p3519
asbag77
(g98
g79
NtRp3520
(dp3521
g82
(dp3522
g109
g110
ssg91
g3511
sg84
(lp3523
S':'
asbag77
(g98
g79
NtRp3524
(dp3525
g82
(dp3526
sg91
g3511
sg84
(lp3527
g77
(g78
g79
NtRp3528
(dp3529
g82
(dp3530
g90
I3
ssg91
g3524
sg84
(lp3531
g2189
asbasbasbag77
(g93
g79
NtRp3532
(dp3533
g82
(dp3534
sg91
g2937
sg84
(lp3535
g77
(g98
g79
NtRp3536
(dp3537
g82
(dp3538
g102
g103
ssg91
g3532
sg84
(lp3539
S'wsgi.version'
p3540
asbag77
(g98
g79
NtRp3541
(dp3542
g82
(dp3543
g109
g110
ssg91
g3532
sg84
(lp3544
S':'
asbag77
(g98
g79
NtRp3545
(dp3546
g82
(dp3547
sg91
g3532
sg84
(lp3548
g77
(g78
g79
NtRp3549
(dp3550
g82
(dp3551
g90
I3
ssg91
g3545
sg84
(lp3552
S'1'
asbasbasbasbasbasbasbasbasbasbasbasbasbsS'frames'
p3553
(lp3554
(dp3555
S'file'
p3556
S'/home/iscott/web/web2py/gluon/restricted.py'
p3557
sS'dump'
p3558
(dp3559
S'environment'
p3560
S"{'A': <class 'gluon.html.A'>, 'Auth': <class 'gluon.tools.Auth'>, 'B': <class 'gluon.html.B'>, 'BEAUTIFY': <class 'gluon.html.BEAUTIFY'>, 'BODY': <class 'gluon.html.BODY'>, 'BR': <class 'gluon.html.BR'>, 'BUTTON': <class 'gluon.html.BUTTON'>, 'BookParser': <class 'applications.grammateus3.modules.parse.BookParser'>, 'CAT': <class 'gluon.html.CAT'>, 'CENTER': <class 'gluon.html.CENTER'>, ...}"
p3561
sS'ccode'
p3562
S'<code object <module> at 0xb37903c8, file "/home...cations/grammateus3/controllers/docs.py", line 2>'
p3563
ssS'lnum'
p3564
I204
sS'lines'
p3565
(dp3566
I199
S'    try:'
p3567
sI200
S'        if type(code) == types.CodeType:'
p3568
sI201
S'            ccode = code'
p3569
sI202
S'        else:'
p3570
sI203
S'            ccode = compile2(code,layer)'
p3571
sI204
S'        exec ccode in environment'
p3572
sI205
S'    except HTTP:'
p3573
sI206
S'        raise'
p3574
sI207
S'    except RestrictedError:'
p3575
sI208
S'        # do not encapsulate (obfuscate) the original RestrictedError'
p3576
ssS'call'
p3577
S"(code='# coding: utf8\\nfrom lxml import etree\\n\\nfrom pars... info)\\n\\nresponse._vars=response._caller(section)\\n', environment={'A': <class 'gluon.html.A'>, 'Auth': <class 'gluon.tools.Auth'>, 'B': <class 'gluon.html.B'>, 'BEAUTIFY': <class 'gluon.html.BEAUTIFY'>, 'BODY': <class 'gluon.html.BODY'>, 'BR': <class 'gluon.html.BR'>, 'BUTTON': <class 'gluon.html.BUTTON'>, 'BookParser': <class 'applications.grammateus3.modules.parse.BookParser'>, 'CAT': <class 'gluon.html.CAT'>, 'CENTER': <class 'gluon.html.CENTER'>, ...}, layer='/home/iscott/web/web2py/applications/grammateus3/controllers/docs.py')"
p3578
sS'func'
p3579
S'restricted'
p3580
sa(dp3581
g3556
S'/home/iscott/web/web2py/applications/grammateus3/controllers/docs.py'
p3582
sg3558
(dp3583
sg3564
I161
sg3565
(dp3584
I150
S"                print 'Version textstructure'"
p3585
sI151
S'                for ref, ref_val in value.items():'
p3586
sI152
S'                    for unit, unit_val in ref_val.items():'
p3587
sI153
S'                        for mss, mss_val in unit_val.items():'
p3588
sI154
S"                            print '\\t', ref, '-->', unit, '-->', mss, '-->', mss_val"
p3589
sI155
S"        print '************'"
p3590
sI156
S'    print'
p3591
sI157
S'    print'
p3592
sI158
S''
sI159
S'    return dict(title = title, info = info)'
p3593
ssg3577
S'()'
p3594
sg3579
S'<module>'
p3595
sa(dp3596
g3556
S'/home/iscott/web/web2py/gluon/globals.py'
p3597
sg3558
(dp3598
S'self'
p3599
S'undefined'
p3600
sS'f'
S'<function section>'
p3601
ssg3564
I172
sg3565
(dp3602
I167
S'        self.meta = Storage()      # used by web2py_ajax.html'
p3603
sI168
S'        self.menu = []             # used by the default view layout'
p3604
sI169
S'        self.files = []            # used by web2py_ajax.html'
p3605
sI170
S'        self.generic_patterns = [] # patterns to allow generic views'
p3606
sI171
S'        self._vars = None'
p3607
sI172
S'        self._caller = lambda f: f()'
p3608
sI173
S'        self._view_environment = None'
p3609
sI174
S'        self._custom_commit = None'
p3610
sI175
S'        self._custom_rollback = None'
p3611
sI176
S''
ssg3577
S'(f=<function section>)'
p3612
sg3579
S'<lambda>'
p3613
sa(dp3614
g3556
S'/home/iscott/web/web2py/applications/grammateus3/controllers/docs.py'
p3615
sg3558
(dp3616
S'p'
g3600
sS'global BookParser'
p3617
S"<class 'applications.grammateus3.modules.parse.BookParser'>"
p3618
sS'book_file'
p3619
S"'applications/grammateus3/static/docs/3Macc.xml'"
p3620
ssg3564
I43
sg3565
(dp3621
I38
S"    print 'start of section() method with url ', request.url, varlist"
p3622
sI39
S'    #get filename from end of url and parse the file with BookParser class'
p3623
sI40
S'    filename = request.args[0]'
p3624
sI41
S"    print 'filename: ', filename"
p3625
sI42
S"    book_file = 'applications/grammateus3/static/docs/%s.xml' % filename"
p3626
sI43
S'    p = BookParser(book_file)'
p3627
sI44
S'    info = p.book_info()'
p3628
sI45
S'    #get title of document'
p3629
sI46
S"    title = info['title']"
p3630
sI47
S''
ssg3577
S'()'
p3631
sg3579
S'section'
p3632
sa(dp3633
g3556
S'/home/iscott/web/web2py/applications/grammateus3/modules/parse.py'
p3634
sg3558
(dp3635
S'xml_file'
p3636
S"'applications/grammateus3/static/docs/3Macc.xml'"
p3637
sS'self'
p3638
S'<applications.grammateus3.modules.parse.BookParser object>'
p3639
sS'parser'
p3640
S'<lxml.etree.XMLParser object>'
p3641
sS'self.tree'
p3642
g3600
sS'global etree'
p3643
S"<module 'lxml.etree' from '/usr/lib/python2.7/dist-packages/lxml/etree.so'>"
p3644
sS'etree.parse'
p3645
S'<built-in function parse>'
p3646
ssg3564
I25
sg3565
(dp3647
I20
S'        self.xml_file = xml_file'
p3648
sI21
S''
sI22
S'        # Validate document against its schema'
p3649
sI23
S'        parser = etree.XMLParser(dtd_validation=True)'
p3650
sI24
S'        try:'
p3651
sI25
S'            self.tree = etree.parse(xml_file, parser)'
p3652
sI26
S'        except etree.XMLSyntaxError:'
p3653
sI27
S"            print 'Document does not validate against its schema: %s' % xml_file"
p3654
sI28
S'            raise   # Just reraise for now'
p3655
sI29
S''
ssg3577
S"(self=<applications.grammateus3.modules.parse.BookParser object>, xml_file='applications/grammateus3/static/docs/3Macc.xml')"
p3656
sg3579
g28
sa(dp3657
g3556
S'/home/iscott/web/web2py/lxml.etree.pyx'
p3658
sg3558
(dp3659
sg3564
I2942
sg3565
(dp3660
sg3577
S'()'
p3661
sg3579
S'lxml.etree.parse (src/lxml/lxml.etree.c:54187)'
p3662
sa(dp3663
g3556
S'/home/iscott/web/web2py/parser.pxi'
p3664
sg3558
(dp3665
sg3564
I1528
sg3565
(dp3666
sg3577
S'()'
p3667
sg3579
S'lxml.etree._parseDocument (src/lxml/lxml.etree.c:79485)'
p3668
sa(dp3669
g3556
S'/home/iscott/web/web2py/parser.pxi'
p3670
sg3558
(dp3671
sg3564
I1557
sg3565
(dp3672
sg3577
S'()'
p3673
sg3579
S'lxml.etree._parseDocumentFromURL (src/lxml/lxml.etree.c:79768)'
p3674
sa(dp3675
g3556
S'/home/iscott/web/web2py/parser.pxi'
p3676
sg3558
(dp3677
sg3564
I1457
sg3565
(dp3678
sg3577
S'()'
p3679
sg3579
S'lxml.etree._parseDocFromFile (src/lxml/lxml.etree.c:78843)'
p3680
sa(dp3681
g3556
S'/home/iscott/web/web2py/parser.pxi'
p3682
sg3558
(dp3683
sg3564
I997
sg3565
(dp3684
sg3577
S'()'
p3685
sg3579
S'lxml.etree._BaseParser._parseDocFromFile (src/lxml/lxml.etree.c:75698)'
p3686
sa(dp3687
g3556
S'/home/iscott/web/web2py/parser.pxi'
p3688
sg3558
(dp3689
sg3564
I564
sg3565
(dp3690
sg3577
S'()'
p3691
sg3579
S'lxml.etree._ParserContext._handleParseResultDoc (src/lxml/lxml.etree.c:71739)'
p3692
sa(dp3693
g3556
S'/home/iscott/web/web2py/parser.pxi'
p3694
sg3558
(dp3695
sg3564
I645
sg3565
(dp3696
sg3577
S'()'
p3697
sg3579
S'lxml.etree._handleParseResult (src/lxml/lxml.etree.c:72614)'
p3698
sa(dp3699
g3556
S'/home/iscott/web/web2py/parser.pxi'
p3700
sg3558
(dp3701
sg3564
I585
sg3565
(dp3702
sg3577
S'()'
p3703
sg3579
S'lxml.etree._raiseParseError (src/lxml/lxml.etree.c:71955)'
p3704
sasS'pyver'
p3705
S'Python 2.7.2+: /usr/bin/python2.7'
p3706
sS'session'
p3707
g77
(g78
g79
NtRp3708
(dp3709
g82
(dp3710
sg84
(lp3711
g77
(g86
g79
NtRp3712
(dp3713
g82
(dp3714
g90
I5
ssg91
Nsg84
(lp3715
sbasbsS'etype'
p3716
S"<class 'lxml.etree.XMLSyntaxError'>"
p3717
sS'date'
p3718
S'Thu Mar  8 11:18:35 2012'
p3719
sS'response'
p3720
g77
(g78
g79
NtRp3721
(dp3722
g82
(dp3723
sg84
(lp3724
g77
(g86
g79
NtRp3725
(dp3726
g82
(dp3727
g90
I5
ssg91
Nsg84
(lp3728
g77
(g93
g79
NtRp3729
(dp3730
g82
(dp3731
sg91
g3725
sg84
(lp3732
g77
(g98
g79
NtRp3733
(dp3734
g82
(dp3735
g102
g103
ssg91
g3729
sg84
(lp3736
g188
asbag77
(g98
g79
NtRp3737
(dp3738
g82
(dp3739
g109
g110
ssg91
g3729
sg84
(lp3740
S':'
asbag77
(g98
g79
NtRp3741
(dp3742
g82
(dp3743
sg91
g3729
sg84
(lp3744
g77
(g78
g79
NtRp3745
(dp3746
g82
(dp3747
g90
I5
ssg91
g3741
sg84
(lp3748
S'<cStringIO.StringO object at 0xb3e2940>'
p3749
asbasbasbag77
(g93
g79
NtRp3750
(dp3751
g82
(dp3752
sg91
g3725
sg84
(lp3753
g77
(g98
g79
NtRp3754
(dp3755
g82
(dp3756
g102
g103
ssg91
g3750
sg84
(lp3757
g276
asbag77
(g98
g79
NtRp3758
(dp3759
g82
(dp3760
g109
g110
ssg91
g3750
sg84
(lp3761
S':'
asbag77
(g98
g79
NtRp3762
(dp3763
g82
(dp3764
sg91
g3750
sg84
(lp3765
g77
(g78
g79
NtRp3766
(dp3767
g82
(dp3768
g90
I5
ssg91
g3762
sg84
(lp3769
g77
(g86
g79
NtRp3770
(dp3771
g82
(dp3772
g90
I4
ssg91
Nsg84
(lp3773
g77
(g93
g79
NtRp3774
(dp3775
g82
(dp3776
sg91
g3770
sg84
(lp3777
g77
(g98
g79
NtRp3778
(dp3779
g82
(dp3780
g102
g103
ssg91
g3774
sg84
(lp3781
S'session_id_grammateus3'
p3782
asbag77
(g98
g79
NtRp3783
(dp3784
g82
(dp3785
g109
g110
ssg91
g3774
sg84
(lp3786
S':'
asbag77
(g98
g79
NtRp3787
(dp3788
g82
(dp3789
sg91
g3774
sg84
(lp3790
g77
(g78
g79
NtRp3791
(dp3792
g82
(dp3793
g90
I4
ssg91
g3787
sg84
(lp3794
g77
(g86
g79
NtRp3795
(dp3796
g82
(dp3797
g90
I3
ssg91
Nsg84
(lp3798
g77
(g93
g79
NtRp3799
(dp3800
g82
(dp3801
sg91
g3795
sg84
(lp3802
g77
(g98
g79
NtRp3803
(dp3804
g82
(dp3805
g102
g103
ssg91
g3799
sg84
(lp3806
g326
asbag77
(g98
g79
NtRp3807
(dp3808
g82
(dp3809
g109
g110
ssg91
g3799
sg84
(lp3810
S':'
asbag77
(g98
g79
NtRp3811
(dp3812
g82
(dp3813
sg91
g3799
sg84
(lp3814
g77
(g78
g79
NtRp3815
(dp3816
g82
(dp3817
g90
I3
ssg91
g3811
sg84
(lp3818
S''
asbasbasbag77
(g93
g79
NtRp3819
(dp3820
g82
(dp3821
sg91
g3795
sg84
(lp3822
g77
(g98
g79
NtRp3823
(dp3824
g82
(dp3825
g102
g103
ssg91
g3819
sg84
(lp3826
g347
asbag77
(g98
g79
NtRp3827
(dp3828
g82
(dp3829
g109
g110
ssg91
g3819
sg84
(lp3830
S':'
asbag77
(g98
g79
NtRp3831
(dp3832
g82
(dp3833
sg91
g3819
sg84
(lp3834
g77
(g78
g79
NtRp3835
(dp3836
g82
(dp3837
g90
I3
ssg91
g3831
sg84
(lp3838
S''
asbasbasbag77
(g93
g79
NtRp3839
(dp3840
g82
(dp3841
sg91
g3795
sg84
(lp3842
g77
(g98
g79
NtRp3843
(dp3844
g82
(dp3845
g102
g103
ssg91
g3839
sg84
(lp3846
g368
asbag77
(g98
g79
NtRp3847
(dp3848
g82
(dp3849
g109
g110
ssg91
g3839
sg84
(lp3850
S':'
asbag77
(g98
g79
NtRp3851
(dp3852
g82
(dp3853
sg91
g3839
sg84
(lp3854
g77
(g78
g79
NtRp3855
(dp3856
g82
(dp3857
g90
I3
ssg91
g3851
sg84
(lp3858
S''
asbasbasbag77
(g93
g79
NtRp3859
(dp3860
g82
(dp3861
sg91
g3795
sg84
(lp3862
g77
(g98
g79
NtRp3863
(dp3864
g82
(dp3865
g102
g103
ssg91
g3859
sg84
(lp3866
g389
asbag77
(g98
g79
NtRp3867
(dp3868
g82
(dp3869
g109
g110
ssg91
g3859
sg84
(lp3870
S':'
asbag77
(g98
g79
NtRp3871
(dp3872
g82
(dp3873
sg91
g3859
sg84
(lp3874
g77
(g78
g79
NtRp3875
(dp3876
g82
(dp3877
g90
I3
ssg91
g3871
sg84
(lp3878
S''
asbasbasbag77
(g93
g79
NtRp3879
(dp3880
g82
(dp3881
sg91
g3795
sg84
(lp3882
g77
(g98
g79
NtRp3883
(dp3884
g82
(dp3885
g102
g103
ssg91
g3879
sg84
(lp3886
g410
asbag77
(g98
g79
NtRp3887
(dp3888
g82
(dp3889
g109
g110
ssg91
g3879
sg84
(lp3890
S':'
asbag77
(g98
g79
NtRp3891
(dp3892
g82
(dp3893
sg91
g3879
sg84
(lp3894
g77
(g78
g79
NtRp3895
(dp3896
g82
(dp3897
g90
I3
ssg91
g3891
sg84
(lp3898
S''
asbasbasbag77
(g93
g79
NtRp3899
(dp3900
g82
(dp3901
sg91
g3795
sg84
(lp3902
g77
(g98
g79
NtRp3903
(dp3904
g82
(dp3905
g102
g103
ssg91
g3899
sg84
(lp3906
g431
asbag77
(g98
g79
NtRp3907
(dp3908
g82
(dp3909
g109
g110
ssg91
g3899
sg84
(lp3910
S':'
asbag77
(g98
g79
NtRp3911
(dp3912
g82
(dp3913
sg91
g3899
sg84
(lp3914
g77
(g78
g79
NtRp3915
(dp3916
g82
(dp3917
g90
I3
ssg91
g3911
sg84
(lp3918
S'/'
asbasbasbag77
(g93
g79
NtRp3919
(dp3920
g82
(dp3921
sg91
g3795
sg84
(lp3922
g77
(g98
g79
NtRp3923
(dp3924
g82
(dp3925
g102
g103
ssg91
g3919
sg84
(lp3926
g452
asbag77
(g98
g79
NtRp3927
(dp3928
g82
(dp3929
g109
g110
ssg91
g3919
sg84
(lp3930
S':'
asbag77
(g98
g79
NtRp3931
(dp3932
g82
(dp3933
sg91
g3919
sg84
(lp3934
g77
(g78
g79
NtRp3935
(dp3936
g82
(dp3937
g90
I3
ssg91
g3931
sg84
(lp3938
S''
asbasbasbag77
(g93
g79
NtRp3939
(dp3940
g82
(dp3941
sg91
g3795
sg84
(lp3942
g77
(g98
g79
NtRp3943
(dp3944
g82
(dp3945
g102
g103
ssg91
g3939
sg84
(lp3946
g473
asbag77
(g98
g79
NtRp3947
(dp3948
g82
(dp3949
g109
g110
ssg91
g3939
sg84
(lp3950
S':'
asbag77
(g98
g79
NtRp3951
(dp3952
g82
(dp3953
sg91
g3939
sg84
(lp3954
g77
(g78
g79
NtRp3955
(dp3956
g82
(dp3957
g90
I3
ssg91
g3951
sg84
(lp3958
S''
asbasbasbasbasbasbasbasbasbasbasbag77
(g93
g79
NtRp3959
(dp3960
g82
(dp3961
sg91
g3725
sg84
(lp3962
g77
(g98
g79
NtRp3963
(dp3964
g82
(dp3965
g102
g103
ssg91
g3959
sg84
(lp3966
S'files'
p3967
asbag77
(g98
g79
NtRp3968
(dp3969
g82
(dp3970
g109
g110
ssg91
g3959
sg84
(lp3971
S':'
asbag77
(g98
g79
NtRp3972
(dp3973
g82
(dp3974
sg91
g3959
sg84
(lp3975
g77
(g78
g79
NtRp3976
(dp3977
g82
(dp3978
g90
I5
ssg91
g3972
sg84
(lp3979
g77
(g86
g79
NtRp3980
(dp3981
g82
(dp3982
g90
I4
ssg91
Nsg84
(lp3983
sbasbasbasbag77
(g93
g79
NtRp3984
(dp3985
g82
(dp3986
sg91
g3725
sg84
(lp3987
g77
(g98
g79
NtRp3988
(dp3989
g82
(dp3990
g102
g103
ssg91
g3984
sg84
(lp3991
S'flash'
p3992
asbag77
(g98
g79
NtRp3993
(dp3994
g82
(dp3995
g109
g110
ssg91
g3984
sg84
(lp3996
S':'
asbag77
(g98
g79
NtRp3997
(dp3998
g82
(dp3999
sg91
g3984
sg84
(lp4000
g77
(g78
g79
NtRp4001
(dp4002
g82
(dp4003
g90
I5
ssg91
g3997
sg84
(lp4004
S''
asbasbasbag77
(g93
g79
NtRp4005
(dp4006
g82
(dp4007
sg91
g3725
sg84
(lp4008
g77
(g98
g79
NtRp4009
(dp4010
g82
(dp4011
g102
g103
ssg91
g4005
sg84
(lp4012
S'generic_patterns'
p4013
asbag77
(g98
g79
NtRp4014
(dp4015
g82
(dp4016
g109
g110
ssg91
g4005
sg84
(lp4017
S':'
asbag77
(g98
g79
NtRp4018
(dp4019
g82
(dp4020
sg91
g4005
sg84
(lp4021
g77
(g78
g79
NtRp4022
(dp4023
g82
(dp4024
g90
I5
ssg91
g4018
sg84
(lp4025
g77
(g86
g79
NtRp4026
(dp4027
g82
(dp4028
g90
I4
ssg91
Nsg84
(lp4029
g77
(g93
g79
NtRp4030
(dp4031
g82
(dp4032
sg91
g4026
sg84
(lp4033
g77
(g98
g79
NtRp4034
(dp4035
g82
(dp4036
sg91
g4030
sg84
(lp4037
g77
(g78
g79
NtRp4038
(dp4039
g82
(dp4040
g90
I4
ssg91
g4034
sg84
(lp4041
S'*'
asbasbasbasbasbasbasbag77
(g93
g79
NtRp4042
(dp4043
g82
(dp4044
sg91
g3725
sg84
(lp4045
g77
(g98
g79
NtRp4046
(dp4047
g82
(dp4048
g102
g103
ssg91
g4042
sg84
(lp4049
S'headers'
p4050
asbag77
(g98
g79
NtRp4051
(dp4052
g82
(dp4053
g109
g110
ssg91
g4042
sg84
(lp4054
S':'
asbag77
(g98
g79
NtRp4055
(dp4056
g82
(dp4057
sg91
g4042
sg84
(lp4058
g77
(g78
g79
NtRp4059
(dp4060
g82
(dp4061
g90
I5
ssg91
g4055
sg84
(lp4062
g77
(g86
g79
NtRp4063
(dp4064
g82
(dp4065
g90
I4
ssg91
Nsg84
(lp4066
g77
(g93
g79
NtRp4067
(dp4068
g82
(dp4069
sg91
g4063
sg84
(lp4070
g77
(g98
g79
NtRp4071
(dp4072
g82
(dp4073
g102
g103
ssg91
g4067
sg84
(lp4074
S'Cache-Control'
p4075
asbag77
(g98
g79
NtRp4076
(dp4077
g82
(dp4078
g109
g110
ssg91
g4067
sg84
(lp4079
S':'
asbag77
(g98
g79
NtRp4080
(dp4081
g82
(dp4082
sg91
g4067
sg84
(lp4083
g77
(g78
g79
NtRp4084
(dp4085
g82
(dp4086
g90
I4
ssg91
g4080
sg84
(lp4087
S'no-store, no-cache, must-revalidate, post-check=0, pre-check=0'
p4088
asbasbasbag77
(g93
g79
NtRp4089
(dp4090
g82
(dp4091
sg91
g4063
sg84
(lp4092
g77
(g98
g79
NtRp4093
(dp4094
g82
(dp4095
g102
g103
ssg91
g4089
sg84
(lp4096
S'Content-Type'
p4097
asbag77
(g98
g79
NtRp4098
(dp4099
g82
(dp4100
g109
g110
ssg91
g4089
sg84
(lp4101
S':'
asbag77
(g98
g79
NtRp4102
(dp4103
g82
(dp4104
sg91
g4089
sg84
(lp4105
g77
(g78
g79
NtRp4106
(dp4107
g82
(dp4108
g90
I4
ssg91
g4102
sg84
(lp4109
S'text/html; charset=utf-8'
p4110
asbasbasbag77
(g93
g79
NtRp4111
(dp4112
g82
(dp4113
sg91
g4063
sg84
(lp4114
g77
(g98
g79
NtRp4115
(dp4116
g82
(dp4117
g102
g103
ssg91
g4111
sg84
(lp4118
S'Expires'
p4119
asbag77
(g98
g79
NtRp4120
(dp4121
g82
(dp4122
g109
g110
ssg91
g4111
sg84
(lp4123
S':'
asbag77
(g98
g79
NtRp4124
(dp4125
g82
(dp4126
sg91
g4111
sg84
(lp4127
g77
(g78
g79
NtRp4128
(dp4129
g82
(dp4130
g90
I4
ssg91
g4124
sg84
(lp4131
S'Thu, 08 Mar 2012 16:18:34 GMT'
p4132
asbasbasbag77
(g93
g79
NtRp4133
(dp4134
g82
(dp4135
sg91
g4063
sg84
(lp4136
g77
(g98
g79
NtRp4137
(dp4138
g82
(dp4139
g102
g103
ssg91
g4133
sg84
(lp4140
S'Pragma'
p4141
asbag77
(g98
g79
NtRp4142
(dp4143
g82
(dp4144
g109
g110
ssg91
g4133
sg84
(lp4145
S':'
asbag77
(g98
g79
NtRp4146
(dp4147
g82
(dp4148
sg91
g4133
sg84
(lp4149
g77
(g78
g79
NtRp4150
(dp4151
g82
(dp4152
g90
I4
ssg91
g4146
sg84
(lp4153
S'no-cache'
p4154
asbasbasbag77
(g93
g79
NtRp4155
(dp4156
g82
(dp4157
sg91
g4063
sg84
(lp4158
g77
(g98
g79
NtRp4159
(dp4160
g82
(dp4161
g102
g103
ssg91
g4155
sg84
(lp4162
S'X-Powered-By'
p4163
asbag77
(g98
g79
NtRp4164
(dp4165
g82
(dp4166
g109
g110
ssg91
g4155
sg84
(lp4167
S':'
asbag77
(g98
g79
NtRp4168
(dp4169
g82
(dp4170
sg91
g4155
sg84
(lp4171
g77
(g78
g79
NtRp4172
(dp4173
g82
(dp4174
g90
I4
ssg91
g4168
sg84
(lp4175
S'web2py'
p4176
asbasbasbasbasbasbasbag77
(g93
g79
NtRp4177
(dp4178
g82
(dp4179
sg91
g3725
sg84
(lp4180
g77
(g98
g79
NtRp4181
(dp4182
g82
(dp4183
g102
g103
ssg91
g4177
sg84
(lp4184
S'menu'
p4185
asbag77
(g98
g79
NtRp4186
(dp4187
g82
(dp4188
g109
g110
ssg91
g4177
sg84
(lp4189
S':'
asbag77
(g98
g79
NtRp4190
(dp4191
g82
(dp4192
sg91
g4177
sg84
(lp4193
g77
(g78
g79
NtRp4194
(dp4195
g82
(dp4196
g90
I5
ssg91
g4190
sg84
(lp4197
g77
(g86
g79
NtRp4198
(dp4199
g82
(dp4200
g90
I4
ssg91
Nsg84
(lp4201
g77
(g93
g79
NtRp4202
(dp4203
g82
(dp4204
sg91
g4198
sg84
(lp4205
g77
(g98
g79
NtRp4206
(dp4207
g82
(dp4208
sg91
g4202
sg84
(lp4209
g77
(g78
g79
NtRp4210
(dp4211
g82
(dp4212
g90
I4
ssg91
g4206
sg84
(lp4213
g77
(g86
g79
NtRp4214
(dp4215
g82
(dp4216
g90
I3
ssg91
Nsg84
(lp4217
g77
(g93
g79
NtRp4218
(dp4219
g82
(dp4220
sg91
g4214
sg84
(lp4221
g77
(g98
g79
NtRp4222
(dp4223
g82
(dp4224
sg91
g4218
sg84
(lp4225
g77
(g78
g79
NtRp4226
(dp4227
g82
(dp4228
g90
I3
ssg91
g4222
sg84
(lp4229
cgluon.languages
lazyT_unpickle
p4230
(S't\x04\x00\x00\x00Home'
tRp4231
asbasbasbag77
(g93
g79
NtRp4232
(dp4233
g82
(dp4234
sg91
g4214
sg84
(lp4235
g77
(g98
g79
NtRp4236
(dp4237
g82
(dp4238
sg91
g4232
sg84
(lp4239
g77
(g78
g79
NtRp4240
(dp4241
g82
(dp4242
g90
I3
ssg91
g4236
sg84
(lp4243
g1385
asbasbasbag77
(g93
g79
NtRp4244
(dp4245
g82
(dp4246
sg91
g4214
sg84
(lp4247
g77
(g98
g79
NtRp4248
(dp4249
g82
(dp4250
sg91
g4244
sg84
(lp4251
g77
(g78
g79
NtRp4252
(dp4253
g82
(dp4254
g90
I3
ssg91
g4248
sg84
(lp4255
S'/grammateus3/default/index.load'
p4256
asbasbasbag77
(g93
g79
NtRp4257
(dp4258
g82
(dp4259
sg91
g4214
sg84
(lp4260
g77
(g98
g79
NtRp4261
(dp4262
g82
(dp4263
sg91
g4257
sg84
(lp4264
g77
(g78
g79
NtRp4265
(dp4266
g82
(dp4267
g90
I3
ssg91
g4261
sg84
(lp4268
g77
(g86
g79
NtRp4269
(dp4270
g82
(dp4271
g90
I2
ssg91
Nsg84
(lp4272
sbasbasbasbasbasbasbasbag77
(g93
g79
NtRp4273
(dp4274
g82
(dp4275
sg91
g4198
sg84
(lp4276
g77
(g98
g79
NtRp4277
(dp4278
g82
(dp4279
sg91
g4273
sg84
(lp4280
g77
(g78
g79
NtRp4281
(dp4282
g82
(dp4283
g90
I4
ssg91
g4277
sg84
(lp4284
g77
(g86
g79
NtRp4285
(dp4286
g82
(dp4287
g90
I3
ssg91
Nsg84
(lp4288
g77
(g93
g79
NtRp4289
(dp4290
g82
(dp4291
sg91
g4285
sg84
(lp4292
g77
(g98
g79
NtRp4293
(dp4294
g82
(dp4295
sg91
g4289
sg84
(lp4296
g77
(g78
g79
NtRp4297
(dp4298
g82
(dp4299
g90
I3
ssg91
g4293
sg84
(lp4300
g77
(cgluon.html
SPAN
p4301
g79
NtRp4302
(dp4303
g82
(dp4304
g102
S'color:yellow'
p4305
ssg91
Nsg84
(lp4306
g4176
asbasbasbasbag77
(g93
g79
NtRp4307
(dp4308
g82
(dp4309
sg91
g4285
sg84
(lp4310
g77
(g98
g79
NtRp4311
(dp4312
g82
(dp4313
sg91
g4307
sg84
(lp4314
g77
(g78
g79
NtRp4315
(dp4316
g82
(dp4317
g90
I3
ssg91
g4311
sg84
(lp4318
g1385
asbasbasbag77
(g93
g79
NtRp4319
(dp4320
g82
(dp4321
sg91
g4285
sg84
(lp4322
g77
(g98
g79
NtRp4323
(dp4324
g82
(dp4325
sg91
g4319
sg84
(lp4326
g77
(g78
g79
NtRp4327
(dp4328
g82
(dp4329
g90
I3
ssg91
g4323
sg84
(lp4330
S'None'
p4331
asbasbasbag77
(g93
g79
NtRp4332
(dp4333
g82
(dp4334
sg91
g4285
sg84
(lp4335
g77
(g98
g79
NtRp4336
(dp4337
g82
(dp4338
sg91
g4332
sg84
(lp4339
g77
(g78
g79
NtRp4340
(dp4341
g82
(dp4342
g90
I3
ssg91
g4336
sg84
(lp4343
g77
(g86
g79
NtRp4344
(dp4345
g82
(dp4346
g90
I2
ssg91
Nsg84
(lp4347
g77
(g93
g79
NtRp4348
(dp4349
g82
(dp4350
sg91
g4344
sg84
(lp4351
g77
(g98
g79
NtRp4352
(dp4353
g82
(dp4354
sg91
g4348
sg84
(lp4355
g77
(g78
g79
NtRp4356
(dp4357
g82
(dp4358
g90
I2
ssg91
g4352
sg84
(lp4359
g77
(g86
g79
NtRp4360
(dp4361
g82
(dp4362
g90
I1
ssg91
Nsg84
(lp4363
g77
(g93
g79
NtRp4364
(dp4365
g82
(dp4366
sg91
g4360
sg84
(lp4367
g77
(g98
g79
NtRp4368
(dp4369
g82
(dp4370
sg91
g4364
sg84
(lp4371
g77
(g78
g79
NtRp4372
(dp4373
g82
(dp4374
g90
I1
ssg91
g4368
sg84
(lp4375
g4230
(S's\x08\x00\x00\x00My Sites'
tRp4376
asbasbasbag77
(g93
g79
NtRp4377
(dp4378
g82
(dp4379
sg91
g4360
sg84
(lp4380
g77
(g98
g79
NtRp4381
(dp4382
g82
(dp4383
sg91
g4377
sg84
(lp4384
g77
(g78
g79
NtRp4385
(dp4386
g82
(dp4387
g90
I1
ssg91
g4381
sg84
(lp4388
I00
asbasbasbag77
(g93
g79
NtRp4389
(dp4390
g82
(dp4391
sg91
g4360
sg84
(lp4392
g77
(g98
g79
NtRp4393
(dp4394
g82
(dp4395
sg91
g4389
sg84
(lp4396
g77
(g78
g79
NtRp4397
(dp4398
g82
(dp4399
g90
I1
ssg91
g4393
sg84
(lp4400
S'/admin/default/site.load'
p4401
asbasbasbasbasbasbasbag77
(g93
g79
NtRp4402
(dp4403
g82
(dp4404
sg91
g4344
sg84
(lp4405
g77
(g98
g79
NtRp4406
(dp4407
g82
(dp4408
sg91
g4402
sg84
(lp4409
g77
(g78
g79
NtRp4410
(dp4411
g82
(dp4412
g90
I2
ssg91
g4406
sg84
(lp4413
g77
(g86
g79
NtRp4414
(dp4415
g82
(dp4416
g90
I1
ssg91
Nsg84
(lp4417
g77
(g93
g79
NtRp4418
(dp4419
g82
(dp4420
sg91
g4414
sg84
(lp4421
g77
(g98
g79
NtRp4422
(dp4423
g82
(dp4424
sg91
g4418
sg84
(lp4425
g77
(g78
g79
NtRp4426
(dp4427
g82
(dp4428
g90
I1
ssg91
g4422
sg84
(lp4429
g4230
(S's\x08\x00\x00\x00This App'
tRp4430
asbasbasbag77
(g93
g79
NtRp4431
(dp4432
g82
(dp4433
sg91
g4414
sg84
(lp4434
g77
(g98
g79
NtRp4435
(dp4436
g82
(dp4437
sg91
g4431
sg84
(lp4438
g77
(g78
g79
NtRp4439
(dp4440
g82
(dp4441
g90
I1
ssg91
g4435
sg84
(lp4442
I00
asbasbasbag77
(g93
g79
NtRp4443
(dp4444
g82
(dp4445
sg91
g4414
sg84
(lp4446
g77
(g98
g79
NtRp4447
(dp4448
g82
(dp4449
sg91
g4443
sg84
(lp4450
g77
(g78
g79
NtRp4451
(dp4452
g82
(dp4453
g90
I1
ssg91
g4447
sg84
(lp4454
S'/admin/default/design/grammateus3.load'
p4455
asbasbasbag77
(g93
g79
NtRp4456
(dp4457
g82
(dp4458
sg91
g4414
sg84
(lp4459
g77
(g98
g79
NtRp4460
(dp4461
g82
(dp4462
sg91
g4456
sg84
(lp4463
g77
(g78
g79
NtRp4464
(dp4465
g82
(dp4466
g90
I1
ssg91
g4460
sg84
(lp4467
(lp4468
(g4230
(S't\n\x00\x00\x00Controller'
tRp4469
I00
S'/admin/default/edit/grammateus3/controllers/docs.py'
tp4470
a(g4230
(S't\x04\x00\x00\x00View'
tRp4471
I00
S'/admin/default/edit/grammateus3/views/docs/section.load'
tp4472
a(g4230
(S't\x06\x00\x00\x00Layout'
tRp4473
I00
S'/admin/default/edit/grammateus3/views/layout.html'
tp4474
a(g4230
(S't\n\x00\x00\x00Stylesheet'
tRp4475
I00
S'/admin/default/edit/grammateus3/static/css/web2py.css'
tp4476
a(g4230
(S's\x08\x00\x00\x00DB Model'
tRp4477
I00
S'/admin/default/edit/grammateus3/models/db.py'
tp4478
a(g4230
(S's\n\x00\x00\x00Menu Model'
tRp4479
I00
S'/admin/default/edit/grammateus3/models/menu.py'
tp4480
a(g4230
(S't\x08\x00\x00\x00Database'
tRp4481
I00
S'/grammateus3/appadmin/index.load'
tp4482
a(g4230
(S't\x06\x00\x00\x00Errors'
tRp4483
I00
S'/admin/default/errors/grammateus3.load'
tp4484
a(g4230
(S't\x05\x00\x00\x00About'
tRp4485
I00
S'/admin/default/about/grammateus3.load'
tp4486
aasbasbasbasbasbasbasbag77
(g93
g79
NtRp4487
(dp4488
g82
(dp4489
sg91
g4344
sg84
(lp4490
g77
(g98
g79
NtRp4491
(dp4492
g82
(dp4493
sg91
g4487
sg84
(lp4494
g77
(g78
g79
NtRp4495
(dp4496
g82
(dp4497
g90
I2
ssg91
g4491
sg84
(lp4498
g77
(g86
g79
NtRp4499
(dp4500
g82
(dp4501
g90
I1
ssg91
Nsg84
(lp4502
g77
(g93
g79
NtRp4503
(dp4504
g82
(dp4505
sg91
g4499
sg84
(lp4506
g77
(g98
g79
NtRp4507
(dp4508
g82
(dp4509
sg91
g4503
sg84
(lp4510
g77
(g78
g79
NtRp4511
(dp4512
g82
(dp4513
g90
I1
ssg91
g4507
sg84
(lp4514
S'web2py.com'
p4515
asbasbasbag77
(g93
g79
NtRp4516
(dp4517
g82
(dp4518
sg91
g4499
sg84
(lp4519
g77
(g98
g79
NtRp4520
(dp4521
g82
(dp4522
sg91
g4516
sg84
(lp4523
g77
(g78
g79
NtRp4524
(dp4525
g82
(dp4526
g90
I1
ssg91
g4520
sg84
(lp4527
I00
asbasbasbag77
(g93
g79
NtRp4528
(dp4529
g82
(dp4530
sg91
g4499
sg84
(lp4531
g77
(g98
g79
NtRp4532
(dp4533
g82
(dp4534
sg91
g4528
sg84
(lp4535
g77
(g78
g79
NtRp4536
(dp4537
g82
(dp4538
g90
I1
ssg91
g4532
sg84
(lp4539
S'http://www.web2py.com'
p4540
asbasbasbag77
(g93
g79
NtRp4541
(dp4542
g82
(dp4543
sg91
g4499
sg84
(lp4544
g77
(g98
g79
NtRp4545
(dp4546
g82
(dp4547
sg91
g4541
sg84
(lp4548
g77
(g78
g79
NtRp4549
(dp4550
g82
(dp4551
g90
I1
ssg91
g4545
sg84
(lp4552
(lp4553
(g4230
(S't\x08\x00\x00\x00Download'
tRp4554
I00
S'http://www.web2py.com/examples/default/download'
p4555
tp4556
a(g4230
(S't\x07\x00\x00\x00Support'
tRp4557
I00
S'http://www.web2py.com/examples/default/support'
p4558
tp4559
a(g4230
(S't\x04\x00\x00\x00Demo'
tRp4560
I00
S'http://web2py.com/demo_admin'
p4561
tp4562
a(g4230
(S's\x0e\x00\x00\x00Quick Examples'
tRp4563
I00
S'http://web2py.com/examples/default/examples'
p4564
tp4565
a(g4230
(S't\x03\x00\x00\x00FAQ'
tRp4566
I00
S'http://web2py.com/AlterEgo'
p4567
tp4568
a(g4230
(S't\x06\x00\x00\x00Videos'
tRp4569
I00
S'http://www.web2py.com/examples/default/videos/'
p4570
tp4571
a(g4230
(S's\x11\x00\x00\x00Free Applications'
tRp4572
I00
S'http://web2py.com/appliances'
p4573
tp4574
a(g4230
(S't\x07\x00\x00\x00Plugins'
tRp4575
I00
S'http://web2py.com/plugins'
p4576
tp4577
a(g4230
(S't\x07\x00\x00\x00Layouts'
tRp4578
I00
S'http://web2py.com/layouts'
p4579
tp4580
a(g4230
(S't\x07\x00\x00\x00Recipes'
tRp4581
I00
S'http://web2pyslices.com/'
p4582
tp4583
a(g4230
(S't\x08\x00\x00\x00Semantic'
tRp4584
I00
S'http://web2py.com/semantic'
p4585
tp4586
aasbasbasbasbasbasbasbag77
(g93
g79
NtRp4587
(dp4588
g82
(dp4589
sg91
g4344
sg84
(lp4590
g77
(g98
g79
NtRp4591
(dp4592
g82
(dp4593
sg91
g4587
sg84
(lp4594
g77
(g78
g79
NtRp4595
(dp4596
g82
(dp4597
g90
I2
ssg91
g4591
sg84
(lp4598
g77
(g86
g79
NtRp4599
(dp4600
g82
(dp4601
g90
I1
ssg91
Nsg84
(lp4602
g77
(g93
g79
NtRp4603
(dp4604
g82
(dp4605
sg91
g4599
sg84
(lp4606
g77
(g98
g79
NtRp4607
(dp4608
g82
(dp4609
sg91
g4603
sg84
(lp4610
g77
(g78
g79
NtRp4611
(dp4612
g82
(dp4613
g90
I1
ssg91
g4607
sg84
(lp4614
g4230
(S't\r\x00\x00\x00Documentation'
tRp4615
asbasbasbag77
(g93
g79
NtRp4616
(dp4617
g82
(dp4618
sg91
g4599
sg84
(lp4619
g77
(g98
g79
NtRp4620
(dp4621
g82
(dp4622
sg91
g4616
sg84
(lp4623
g77
(g78
g79
NtRp4624
(dp4625
g82
(dp4626
g90
I1
ssg91
g4620
sg84
(lp4627
I00
asbasbasbag77
(g93
g79
NtRp4628
(dp4629
g82
(dp4630
sg91
g4599
sg84
(lp4631
g77
(g98
g79
NtRp4632
(dp4633
g82
(dp4634
sg91
g4628
sg84
(lp4635
g77
(g78
g79
NtRp4636
(dp4637
g82
(dp4638
g90
I1
ssg91
g4632
sg84
(lp4639
S'http://www.web2py.com/book'
p4640
asbasbasbag77
(g93
g79
NtRp4641
(dp4642
g82
(dp4643
sg91
g4599
sg84
(lp4644
g77
(g98
g79
NtRp4645
(dp4646
g82
(dp4647
sg91
g4641
sg84
(lp4648
g77
(g78
g79
NtRp4649
(dp4650
g82
(dp4651
g90
I1
ssg91
g4645
sg84
(lp4652
(lp4653
(g4230
(S't\x07\x00\x00\x00Preface'
tRp4654
I00
S'http://www.web2py.com/book/default/chapter/00'
p4655
tp4656
a(g4230
(S't\x0c\x00\x00\x00Introduction'
tRp4657
I00
S'http://www.web2py.com/book/default/chapter/01'
p4658
tp4659
a(g4230
(S't\x06\x00\x00\x00Python'
tRp4660
I00
S'http://www.web2py.com/book/default/chapter/02'
p4661
tp4662
a(g4230
(S't\x08\x00\x00\x00Overview'
tRp4663
I00
S'http://www.web2py.com/book/default/chapter/03'
p4664
tp4665
a(g4230
(S's\x08\x00\x00\x00The Core'
tRp4666
I00
S'http://www.web2py.com/book/default/chapter/04'
p4667
tp4668
a(g4230
(S's\t\x00\x00\x00The Views'
tRp4669
I00
S'http://www.web2py.com/book/default/chapter/05'
p4670
tp4671
a(g4230
(S't\x08\x00\x00\x00Database'
tRp4672
I00
S'http://www.web2py.com/book/default/chapter/06'
p4673
tp4674
a(g4230
(S's\x14\x00\x00\x00Forms and Validators'
tRp4675
I00
S'http://www.web2py.com/book/default/chapter/07'
p4676
tp4677
a(g4230
(S's\r\x00\x00\x00Email and SMS'
tRp4678
I00
S'http://www.web2py.com/book/default/chapter/08'
p4679
tp4680
a(g4230
(S's\x0e\x00\x00\x00Access Control'
tRp4681
I00
S'http://www.web2py.com/book/default/chapter/09'
p4682
tp4683
a(g4230
(S't\x08\x00\x00\x00Services'
tRp4684
I00
S'http://www.web2py.com/book/default/chapter/10'
p4685
tp4686
a(g4230
(S's\x0c\x00\x00\x00Ajax Recipes'
tRp4687
I00
S'http://www.web2py.com/book/default/chapter/11'
p4688
tp4689
a(g4230
(S's\x16\x00\x00\x00Components and Plugins'
tRp4690
I00
S'http://www.web2py.com/book/default/chapter/12'
p4691
tp4692
a(g4230
(S's\x12\x00\x00\x00Deployment Recipes'
tRp4693
I00
S'http://www.web2py.com/book/default/chapter/13'
p4694
tp4695
a(g4230
(S's\r\x00\x00\x00Other Recipes'
tRp4696
I00
S'http://www.web2py.com/book/default/chapter/14'
p4697
tp4698
a(g4230
(S's\r\x00\x00\x00Buy this book'
tRp4699
I00
S'http://stores.lulu.com/web2py'
p4700
tp4701
aasbasbasbasbasbasbasbag77
(g93
g79
NtRp4702
(dp4703
g82
(dp4704
sg91
g4344
sg84
(lp4705
g77
(g98
g79
NtRp4706
(dp4707
g82
(dp4708
sg91
g4702
sg84
(lp4709
g77
(g78
g79
NtRp4710
(dp4711
g82
(dp4712
g90
I2
ssg91
g4706
sg84
(lp4713
g77
(g86
g79
NtRp4714
(dp4715
g82
(dp4716
g90
I1
ssg91
Nsg84
(lp4717
g77
(g93
g79
NtRp4718
(dp4719
g82
(dp4720
sg91
g4714
sg84
(lp4721
g77
(g98
g79
NtRp4722
(dp4723
g82
(dp4724
sg91
g4718
sg84
(lp4725
g77
(g78
g79
NtRp4726
(dp4727
g82
(dp4728
g90
I1
ssg91
g4722
sg84
(lp4729
g4230
(S't\t\x00\x00\x00Community'
tRp4730
asbasbasbag77
(g93
g79
NtRp4731
(dp4732
g82
(dp4733
sg91
g4714
sg84
(lp4734
g77
(g98
g79
NtRp4735
(dp4736
g82
(dp4737
sg91
g4731
sg84
(lp4738
g77
(g78
g79
NtRp4739
(dp4740
g82
(dp4741
g90
I1
ssg91
g4735
sg84
(lp4742
I00
asbasbasbag77
(g93
g79
NtRp4743
(dp4744
g82
(dp4745
sg91
g4714
sg84
(lp4746
g77
(g98
g79
NtRp4747
(dp4748
g82
(dp4749
sg91
g4743
sg84
(lp4750
g77
(g78
g79
NtRp4751
(dp4752
g82
(dp4753
g90
I1
ssg91
g4747
sg84
(lp4754
Nasbasbasbag77
(g93
g79
NtRp4755
(dp4756
g82
(dp4757
sg91
g4714
sg84
(lp4758
g77
(g98
g79
NtRp4759
(dp4760
g82
(dp4761
sg91
g4755
sg84
(lp4762
g77
(g78
g79
NtRp4763
(dp4764
g82
(dp4765
g90
I1
ssg91
g4759
sg84
(lp4766
(lp4767
(g4230
(S't\x06\x00\x00\x00Groups'
tRp4768
I00
S'http://www.web2py.com/examples/default/usergroups'
p4769
tp4770
a(g4230
(S't\x07\x00\x00\x00Twitter'
tRp4771
I00
S'http://twitter.com/web2py'
p4772
tp4773
a(g4230
(S's\t\x00\x00\x00Live Chat'
tRp4774
I00
S'http://webchat.freenode.net/?channels=web2py'
p4775
tp4776
aasbasbasbasbasbasbasbag77
(g93
g79
NtRp4777
(dp4778
g82
(dp4779
sg91
g4344
sg84
(lp4780
g77
(g98
g79
NtRp4781
(dp4782
g82
(dp4783
sg91
g4777
sg84
(lp4784
g77
(g78
g79
NtRp4785
(dp4786
g82
(dp4787
g90
I2
ssg91
g4781
sg84
(lp4788
g77
(g86
g79
NtRp4789
(dp4790
g82
(dp4791
g90
I1
ssg91
Nsg84
(lp4792
g77
(g93
g79
NtRp4793
(dp4794
g82
(dp4795
sg91
g4789
sg84
(lp4796
g77
(g98
g79
NtRp4797
(dp4798
g82
(dp4799
sg91
g4793
sg84
(lp4800
g77
(g78
g79
NtRp4801
(dp4802
g82
(dp4803
g90
I1
ssg91
g4797
sg84
(lp4804
g4230
(S't\x07\x00\x00\x00Plugins'
tRp4805
asbasbasbag77
(g93
g79
NtRp4806
(dp4807
g82
(dp4808
sg91
g4789
sg84
(lp4809
g77
(g98
g79
NtRp4810
(dp4811
g82
(dp4812
sg91
g4806
sg84
(lp4813
g77
(g78
g79
NtRp4814
(dp4815
g82
(dp4816
g90
I1
ssg91
g4810
sg84
(lp4817
I00
asbasbasbag77
(g93
g79
NtRp4818
(dp4819
g82
(dp4820
sg91
g4789
sg84
(lp4821
g77
(g98
g79
NtRp4822
(dp4823
g82
(dp4824
sg91
g4818
sg84
(lp4825
g77
(g78
g79
NtRp4826
(dp4827
g82
(dp4828
g90
I1
ssg91
g4822
sg84
(lp4829
Nasbasbasbag77
(g93
g79
NtRp4830
(dp4831
g82
(dp4832
sg91
g4789
sg84
(lp4833
g77
(g98
g79
NtRp4834
(dp4835
g82
(dp4836
sg91
g4830
sg84
(lp4837
g77
(g78
g79
NtRp4838
(dp4839
g82
(dp4840
g90
I1
ssg91
g4834
sg84
(lp4841
(lp4842
(S'plugin_wiki'
p4843
I00
S'http://web2py.com/examples/default/download'
p4844
tp4845
a(g4230
(S's\r\x00\x00\x00Other Plugins'
tRp4846
I00
g4576
tp4847
a(g4230
(S's\x0e\x00\x00\x00Layout Plugins'
tRp4848
I00
g4579
tp4849
aasbasbasbasbasbasbasbasbasbasbasbasbasbasbasbasbasbasbasbag77
(g93
g79
NtRp4850
(dp4851
g82
(dp4852
sg91
g3725
sg84
(lp4853
g77
(g98
g79
NtRp4854
(dp4855
g82
(dp4856
g102
g103
ssg91
g4850
sg84
(lp4857
S'meta'
p4858
asbag77
(g98
g79
NtRp4859
(dp4860
g82
(dp4861
g109
g110
ssg91
g4850
sg84
(lp4862
S':'
asbag77
(g98
g79
NtRp4863
(dp4864
g82
(dp4865
sg91
g4850
sg84
(lp4866
g77
(g78
g79
NtRp4867
(dp4868
g82
(dp4869
g90
I5
ssg91
g4863
sg84
(lp4870
g77
(g86
g79
NtRp4871
(dp4872
g82
(dp4873
g90
I4
ssg91
Nsg84
(lp4874
g77
(g93
g79
NtRp4875
(dp4876
g82
(dp4877
sg91
g4871
sg84
(lp4878
g77
(g98
g79
NtRp4879
(dp4880
g82
(dp4881
g102
g103
ssg91
g4875
sg84
(lp4882
S'author'
p4883
asbag77
(g98
g79
NtRp4884
(dp4885
g82
(dp4886
g109
g110
ssg91
g4875
sg84
(lp4887
S':'
asbag77
(g98
g79
NtRp4888
(dp4889
g82
(dp4890
sg91
g4875
sg84
(lp4891
g77
(g78
g79
NtRp4892
(dp4893
g82
(dp4894
g90
I4
ssg91
g4888
sg84
(lp4895
S'Your Name <you@example.com>'
p4896
asbasbasbag77
(g93
g79
NtRp4897
(dp4898
g82
(dp4899
sg91
g4871
sg84
(lp4900
g77
(g98
g79
NtRp4901
(dp4902
g82
(dp4903
g102
g103
ssg91
g4897
sg84
(lp4904
S'copyright'
p4905
asbag77
(g98
g79
NtRp4906
(dp4907
g82
(dp4908
g109
g110
ssg91
g4897
sg84
(lp4909
S':'
asbag77
(g98
g79
NtRp4910
(dp4911
g82
(dp4912
sg91
g4897
sg84
(lp4913
g77
(g78
g79
NtRp4914
(dp4915
g82
(dp4916
g90
I4
ssg91
g4910
sg84
(lp4917
S'Copyright 2011'
p4918
asbasbasbag77
(g93
g79
NtRp4919
(dp4920
g82
(dp4921
sg91
g4871
sg84
(lp4922
g77
(g98
g79
NtRp4923
(dp4924
g82
(dp4925
g102
g103
ssg91
g4919
sg84
(lp4926
S'description'
p4927
asbag77
(g98
g79
NtRp4928
(dp4929
g82
(dp4930
g109
g110
ssg91
g4919
sg84
(lp4931
S':'
asbag77
(g98
g79
NtRp4932
(dp4933
g82
(dp4934
sg91
g4919
sg84
(lp4935
g77
(g78
g79
NtRp4936
(dp4937
g82
(dp4938
g90
I4
ssg91
g4932
sg84
(lp4939
S'a cool new app'
p4940
asbasbasbag77
(g93
g79
NtRp4941
(dp4942
g82
(dp4943
sg91
g4871
sg84
(lp4944
g77
(g98
g79
NtRp4945
(dp4946
g82
(dp4947
g102
g103
ssg91
g4941
sg84
(lp4948
S'generator'
p4949
asbag77
(g98
g79
NtRp4950
(dp4951
g82
(dp4952
g109
g110
ssg91
g4941
sg84
(lp4953
S':'
asbag77
(g98
g79
NtRp4954
(dp4955
g82
(dp4956
sg91
g4941
sg84
(lp4957
g77
(g78
g79
NtRp4958
(dp4959
g82
(dp4960
g90
I4
ssg91
g4954
sg84
(lp4961
S'Web2py Web Framework'
p4962
asbasbasbag77
(g93
g79
NtRp4963
(dp4964
g82
(dp4965
sg91
g4871
sg84
(lp4966
g77
(g98
g79
NtRp4967
(dp4968
g82
(dp4969
g102
g103
ssg91
g4963
sg84
(lp4970
S'keywords'
p4971
asbag77
(g98
g79
NtRp4972
(dp4973
g82
(dp4974
g109
g110
ssg91
g4963
sg84
(lp4975
S':'
asbag77
(g98
g79
NtRp4976
(dp4977
g82
(dp4978
sg91
g4963
sg84
(lp4979
g77
(g78
g79
NtRp4980
(dp4981
g82
(dp4982
g90
I4
ssg91
g4976
sg84
(lp4983
S'web2py, python, framework'
p4984
asbasbasbasbasbasbasbag77
(g93
g79
NtRp4985
(dp4986
g82
(dp4987
sg91
g3725
sg84
(lp4988
g77
(g98
g79
NtRp4989
(dp4990
g82
(dp4991
g102
g103
ssg91
g4985
sg84
(lp4992
S'postprocessing'
p4993
asbag77
(g98
g79
NtRp4994
(dp4995
g82
(dp4996
g109
g110
ssg91
g4985
sg84
(lp4997
S':'
asbag77
(g98
g79
NtRp4998
(dp4999
g82
(dp5000
sg91
g4985
sg84
(lp5001
g77
(g78
g79
NtRp5002
(dp5003
g82
(dp5004
g90
I5
ssg91
g4998
sg84
(lp5005
g77
(g86
g79
NtRp5006
(dp5007
g82
(dp5008
g90
I4
ssg91
Nsg84
(lp5009
sbasbasbasbag77
(g93
g79
NtRp5010
(dp5011
g82
(dp5012
sg91
g3725
sg84
(lp5013
g77
(g98
g79
NtRp5014
(dp5015
g82
(dp5016
g102
g103
ssg91
g5010
sg84
(lp5017
S'session_file'
p5018
asbag77
(g98
g79
NtRp5019
(dp5020
g82
(dp5021
g109
g110
ssg91
g5010
sg84
(lp5022
S':'
asbag77
(g98
g79
NtRp5023
(dp5024
g82
(dp5025
sg91
g5010
sg84
(lp5026
g77
(g78
g79
NtRp5027
(dp5028
g82
(dp5029
g90
I5
ssg91
g5023
sg84
(lp5030
S"<open file '/home/iscott/web/web2py/applications/grammateus3/sessions/127.0.0.1-03d15d8e-e891-4307-a6bf-5717208181cd', mode 'rb+' at 0xbf01860>"
p5031
asbasbasbag77
(g93
g79
NtRp5032
(dp5033
g82
(dp5034
sg91
g3725
sg84
(lp5035
g77
(g98
g79
NtRp5036
(dp5037
g82
(dp5038
g102
g103
ssg91
g5032
sg84
(lp5039
S'session_filename'
p5040
asbag77
(g98
g79
NtRp5041
(dp5042
g82
(dp5043
g109
g110
ssg91
g5032
sg84
(lp5044
S':'
asbag77
(g98
g79
NtRp5045
(dp5046
g82
(dp5047
sg91
g5032
sg84
(lp5048
g77
(g78
g79
NtRp5049
(dp5050
g82
(dp5051
g90
I5
ssg91
g5045
sg84
(lp5052
S'/home/iscott/web/web2py/applications/grammateus3/sessions/127.0.0.1-03d15d8e-e891-4307-a6bf-5717208181cd'
p5053
asbasbasbag77
(g93
g79
NtRp5054
(dp5055
g82
(dp5056
sg91
g3725
sg84
(lp5057
g77
(g98
g79
NtRp5058
(dp5059
g82
(dp5060
g102
g103
ssg91
g5054
sg84
(lp5061
S'session_id'
p5062
asbag77
(g98
g79
NtRp5063
(dp5064
g82
(dp5065
g109
g110
ssg91
g5054
sg84
(lp5066
S':'
asbag77
(g98
g79
NtRp5067
(dp5068
g82
(dp5069
sg91
g5054
sg84
(lp5070
g77
(g78
g79
NtRp5071
(dp5072
g82
(dp5073
g90
I5
ssg91
g5067
sg84
(lp5074
S'127.0.0.1-03d15d8e-e891-4307-a6bf-5717208181cd'
p5075
asbasbasbag77
(g93
g79
NtRp5076
(dp5077
g82
(dp5078
sg91
g3725
sg84
(lp5079
g77
(g98
g79
NtRp5080
(dp5081
g82
(dp5082
g102
g103
ssg91
g5076
sg84
(lp5083
S'session_id_name'
p5084
asbag77
(g98
g79
NtRp5085
(dp5086
g82
(dp5087
g109
g110
ssg91
g5076
sg84
(lp5088
S':'
asbag77
(g98
g79
NtRp5089
(dp5090
g82
(dp5091
sg91
g5076
sg84
(lp5092
g77
(g78
g79
NtRp5093
(dp5094
g82
(dp5095
g90
I5
ssg91
g5089
sg84
(lp5096
g3782
asbasbasbag77
(g93
g79
NtRp5097
(dp5098
g82
(dp5099
sg91
g3725
sg84
(lp5100
g77
(g98
g79
NtRp5101
(dp5102
g82
(dp5103
g102
g103
ssg91
g5097
sg84
(lp5104
S'session_locked'
p5105
asbag77
(g98
g79
NtRp5106
(dp5107
g82
(dp5108
g109
g110
ssg91
g5097
sg84
(lp5109
S':'
asbag77
(g98
g79
NtRp5110
(dp5111
g82
(dp5112
sg91
g5097
sg84
(lp5113
g77
(g78
g79
NtRp5114
(dp5115
g82
(dp5116
g90
I5
ssg91
g5110
sg84
(lp5117
g120
asbasbasbag77
(g93
g79
NtRp5118
(dp5119
g82
(dp5120
sg91
g3725
sg84
(lp5121
g77
(g98
g79
NtRp5122
(dp5123
g82
(dp5124
g102
g103
ssg91
g5118
sg84
(lp5125
S'session_new'
p5126
asbag77
(g98
g79
NtRp5127
(dp5128
g82
(dp5129
g109
g110
ssg91
g5118
sg84
(lp5130
S':'
asbag77
(g98
g79
NtRp5131
(dp5132
g82
(dp5133
sg91
g5118
sg84
(lp5134
g77
(g78
g79
NtRp5135
(dp5136
g82
(dp5137
g90
I5
ssg91
g5131
sg84
(lp5138
g1385
asbasbasbag77
(g93
g79
NtRp5139
(dp5140
g82
(dp5141
sg91
g3725
sg84
(lp5142
g77
(g98
g79
NtRp5143
(dp5144
g82
(dp5145
g102
g103
ssg91
g5139
sg84
(lp5146
S'status'
p5147
asbag77
(g98
g79
NtRp5148
(dp5149
g82
(dp5150
g109
g110
ssg91
g5139
sg84
(lp5151
S':'
asbag77
(g98
g79
NtRp5152
(dp5153
g82
(dp5154
sg91
g5139
sg84
(lp5155
g77
(g78
g79
NtRp5156
(dp5157
g82
(dp5158
g90
I5
ssg91
g5152
sg84
(lp5159
S'200'
p5160
asbasbasbag77
(g93
g79
NtRp5161
(dp5162
g82
(dp5163
sg91
g3725
sg84
(lp5164
g77
(g98
g79
NtRp5165
(dp5166
g82
(dp5167
g102
g103
ssg91
g5161
sg84
(lp5168
S'subtitle'
p5169
asbag77
(g98
g79
NtRp5170
(dp5171
g82
(dp5172
g109
g110
ssg91
g5161
sg84
(lp5173
S':'
asbag77
(g98
g79
NtRp5174
(dp5175
g82
(dp5176
sg91
g5161
sg84
(lp5177
g77
(g78
g79
NtRp5178
(dp5179
g82
(dp5180
g90
I5
ssg91
g5174
sg84
(lp5181
g4230
(S's\r\x00\x00\x00customize me!'
tRp5182
asbasbasbag77
(g93
g79
NtRp5183
(dp5184
g82
(dp5185
sg91
g3725
sg84
(lp5186
g77
(g98
g79
NtRp5187
(dp5188
g82
(dp5189
g102
g103
ssg91
g5183
sg84
(lp5190
S'title'
p5191
asbag77
(g98
g79
NtRp5192
(dp5193
g82
(dp5194
g109
g110
ssg91
g5183
sg84
(lp5195
S':'
asbag77
(g98
g79
NtRp5196
(dp5197
g82
(dp5198
sg91
g5183
sg84
(lp5199
g77
(g78
g79
NtRp5200
(dp5201
g82
(dp5202
g90
I5
ssg91
g5196
sg84
(lp5203
S'Grammateus3'
p5204
asbasbasbag77
(g93
g79
NtRp5205
(dp5206
g82
(dp5207
sg91
g3725
sg84
(lp5208
g77
(g98
g79
NtRp5209
(dp5210
g82
(dp5211
g102
g103
ssg91
g5205
sg84
(lp5212
g2852
asbag77
(g98
g79
NtRp5213
(dp5214
g82
(dp5215
g109
g110
ssg91
g5205
sg84
(lp5216
S':'
asbag77
(g98
g79
NtRp5217
(dp5218
g82
(dp5219
sg91
g5205
sg84
(lp5220
g77
(g78
g79
NtRp5221
(dp5222
g82
(dp5223
g90
I5
ssg91
g5217
sg84
(lp5224
g2865
asbasbasbag77
(g93
g79
NtRp5225
(dp5226
g82
(dp5227
sg91
g3725
sg84
(lp5228
g77
(g98
g79
NtRp5229
(dp5230
g82
(dp5231
g102
g103
ssg91
g5225
sg84
(lp5232
S'view'
p5233
asbag77
(g98
g79
NtRp5234
(dp5235
g82
(dp5236
g109
g110
ssg91
g5225
sg84
(lp5237
S':'
asbag77
(g98
g79
NtRp5238
(dp5239
g82
(dp5240
sg91
g5225
sg84
(lp5241
g77
(g78
g79
NtRp5242
(dp5243
g82
(dp5244
g90
I5
ssg91
g5238
sg84
(lp5245
S'docs/section.load'
p5246
asbasbasbasbasbsS'locals'
p5247
(dp5248
S'_ModifyContentOnlyProxy'
p5249
S"<type 'lxml.etree._ModifyContentOnlyProxy'>"
p5250
sS'XPathEvaluator'
p5251
S'<built-in function XPathEvaluator>'
p5252
sS'ParserBasedElementClassLookup'
p5253
S"<type 'lxml.etree.ParserBasedElementClassLookup'>"
p5254
sS'_Attrib'
p5255
S"<type 'lxml.etree._Attrib'>"
p5256
sS'_FilelikeWriter'
p5257
S"<type 'lxml.etree._FilelikeWriter'>"
p5258
sS'strip_attributes'
p5259
S'<built-in function strip_attributes>'
p5260
sS'SiblingsIterator'
p5261
S"<type 'lxml.etree.SiblingsIterator'>"
p5262
sS'LIBXSLT_VERSION'
p5263
S'(1, 1, 26)'
p5264
sS'XMLDTDID'
p5265
S'<built-in function XMLDTDID>'
p5266
sS'ElementTree'
p5267
S'<built-in function ElementTree>'
p5268
sS'cleanup_namespaces'
p5269
S'<built-in function cleanup_namespaces>'
p5270
sS'set_default_parser'
p5271
S'<built-in function set_default_parser>'
p5272
sS'ElementClassLookup'
p5273
S"<type 'lxml.etree.ElementClassLookup'>"
p5274
sS'parseid'
p5275
S'<built-in function parseid>'
p5276
sS'LxmlSyntaxError'
p5277
S"<class 'lxml.etree.LxmlSyntaxError'>"
p5278
sS'_XSLTProcessingInstruction'
p5279
S"<type 'lxml.etree._XSLTProcessingInstruction'>"
p5280
sS'_ParserContext'
p5281
S"<type 'lxml.etree._ParserContext'>"
p5282
sS'__pyx_capi__'
p5283
S'{\'appendChild\': <capsule object "void (struct LxmlElement *, struct LxmlElement *)">, \'attributeValue\': <capsule object "PyObject *(xmlNode *, xmlAttr *)">, \'attributeValueFromNsName\': <capsule object "PyObject *(xmlNode *, char *, char *)">, \'callLookupFallback\': <capsule object "PyObject *(struct LxmlFallbackE...lassLookup *, struct LxmlDocument *, xmlNode *)">, \'collectAttributes\': <capsule object "PyObject *(xmlNode *, int)">, \'deepcopyNodeToDocument\': <capsule object "struct LxmlElement *(struct LxmlDocument *, xmlNode *)">, \'delAttribute\': <capsule object "int (struct LxmlElement *, PyObject *)">, \'delAttributeFromNsName\': <capsule object "int (xmlNode *, char *, char *)">, \'documentOrRaise\': <capsule object "struct LxmlDocument *(PyObject *)">, \'elementFactory\': <capsule object "struct LxmlElement *(struct LxmlDocument *, xmlNode *)">, ...}'
p5284
sS'_ModifyContentOnlyEntityProxy'
p5285
S"<type 'lxml.etree._ModifyContentOnlyEntityProxy'>"
p5286
sS'_IDDict'
p5287
S"<type 'lxml.etree._IDDict'>"
p5288
sS'XSLTParseError'
p5289
S"<class 'lxml.etree.XSLTParseError'>"
p5290
sS'__ContentOnlyElement'
p5291
S"<type 'lxml.etree.__ContentOnlyElement'>"
p5292
sS'CustomElementClassLookup'
p5293
S"<type 'lxml.etree.CustomElementClassLookup'>"
p5294
sS'_OpaqueNodeWrapper'
p5295
S"<type 'lxml.etree._OpaqueNodeWrapper'>"
p5296
sS'_XPathFunctionNamespaceRegistry'
p5297
S"<type 'lxml.etree._XPathFunctionNamespaceRegistry'>"
p5298
sS'_ReadOnlyElementProxy'
p5299
S"<type 'lxml.etree._ReadOnlyElementProxy'>"
p5300
sS'LxmlRegistryError'
p5301
S"<class 'lxml.etree.LxmlRegistryError'>"
p5302
sS'__file__'
p5303
S"'/usr/lib/python2.7/dist-packages/lxml/etree.so'"
p5304
sS'TreeBuilder'
p5305
S"<type 'lxml.etree.TreeBuilder'>"
p5306
sS'_FileReaderContext'
p5307
S"<type 'lxml.etree._FileReaderContext'>"
p5308
sS'C14NError'
p5309
S"<class 'lxml.etree.C14NError'>"
p5310
sS'CommentBase'
p5311
S"<type 'lxml.etree.CommentBase'>"
p5312
sS'tostring'
p5313
S'<built-in function tostring>'
p5314
sS'iselement'
p5315
S'<built-in function iselement>'
p5316
sS'_FeedParser'
p5317
S"<type 'lxml.etree._FeedParser'>"
p5318
sS'XPathError'
p5319
S"<class 'lxml.etree.XPathError'>"
p5320
sS'LxmlError'
p5321
S"<class 'lxml.etree.LxmlError'>"
p5322
sS'__version__'
p5323
S"u'2.3.0'"
p5324
sS'_ExsltRegExp'
p5325
S"<type 'lxml.etree._ExsltRegExp'>"
p5326
sS'XMLID'
p5327
S'<built-in function XMLID>'
p5328
sS'DocumentInvalid'
p5329
S"<class 'lxml.etree.DocumentInvalid'>"
p5330
sS'FunctionNamespace'
p5331
S'<built-in function FunctionNamespace>'
p5332
sS'XSLTExtensionError'
p5333
S"<class 'lxml.etree.XSLTExtensionError'>"
p5334
sS'_IterparseContext'
p5335
S"<type 'lxml.etree._IterparseContext'>"
p5336
sS'Entity'
p5337
S'<built-in function Entity>'
p5338
sS'_Entity'
p5339
S"<type 'lxml.etree._Entity'>"
p5340
sS'iterparse'
p5341
S"<type 'lxml.etree.iterparse'>"
p5342
sS'_XPathContext'
p5343
S"<type 'lxml.etree._XPathContext'>"
p5344
sS'__package__'
p5345
S"'lxml'"
p5346
sS'ElementChildIterator'
p5347
S"<type 'lxml.etree.ElementChildIterator'>"
p5348
sS'XPath'
p5349
S"<type 'lxml.etree.XPath'>"
p5350
sS'_LogEntry'
p5351
S"<type 'lxml.etree._LogEntry'>"
p5352
sS'_ResolverContext'
p5353
S"<type 'lxml.etree._ResolverContext'>"
p5354
sS'_AttribIterator'
p5355
S"<type 'lxml.etree._AttribIterator'>"
p5356
sS'_ReadOnlyEntityProxy'
p5357
S"<type 'lxml.etree._ReadOnlyEntityProxy'>"
p5358
sS'PyErrorLog'
p5359
S"<type 'lxml.etree.PyErrorLog'>"
p5360
sS'_SaxParserContext'
p5361
S"<type 'lxml.etree._SaxParserContext'>"
p5362
sS'_ElementTree'
p5363
S"<type 'lxml.etree._ElementTree'>"
p5364
sS'_ListErrorLog'
p5365
S"<type 'lxml.etree._ListErrorLog'>"
p5366
sS'DTD'
p5367
S"<type 'lxml.etree.DTD'>"
p5368
sS'AttributeBasedElementClassLookup'
p5369
S"<type 'lxml.etree.AttributeBasedElementClassLookup'>"
p5370
sS'HTMLParser'
p5371
S"<type 'lxml.etree.HTMLParser'>"
p5372
sS'ElementNamespaceClassLookup'
p5373
S"<type 'lxml.etree.ElementNamespaceClassLookup'>"
p5374
sS'XPathFunctionError'
p5375
S"<class 'lxml.etree.XPathFunctionError'>"
p5376
sS'ElementDepthFirstIterator'
p5377
S"<type 'lxml.etree.ElementDepthFirstIterator'>"
p5378
sS'XMLParser'
p5379
S"<type 'lxml.etree.XMLParser'>"
p5380
sS'XInclude'
p5381
S"<type 'lxml.etree.XInclude'>"
p5382
sS'Schematron'
p5383
S"<type 'lxml.etree.Schematron'>"
p5384
sS'__all__'
p5385
S"['AttributeBasedElementClassLookup', 'C14NError', 'CDATA', 'Comment', 'CommentBase', 'CustomElementClassLookup', 'DEBUG', 'DTD', 'DTDError', 'DTDParseError', 'DTDValidateError', 'DocumentInvalid', 'ETCompatXMLParser', 'ETXPath', 'Element', 'ElementBase', 'ElementClassLookup', 'ElementDefaultClassLookup', 'ElementNamespaceClassLookup', 'ElementTree', ...]"
p5386
sS'NamespaceRegistryError'
p5387
S"<class 'lxml.etree.NamespaceRegistryError'>"
p5388
sS'_Document'
p5389
S"<type 'lxml.etree._Document'>"
p5390
sS'strip_elements'
p5391
S'<built-in function strip_elements>'
p5392
sS'_XSLTContext'
p5393
S"<type 'lxml.etree._XSLTContext'>"
p5394
sS'HTML'
p5395
S'<built-in function HTML>'
p5396
sS'RelaxNG'
p5397
S"<type 'lxml.etree.RelaxNG'>"
p5398
sS'_BaseErrorLog'
p5399
S"<type 'lxml.etree._BaseErrorLog'>"
p5400
sS'PI'
p5401
S'<built-in function ProcessingInstruction>'
p5402
sS'_ParserSchemaValidationContext'
p5403
S"<type 'lxml.etree._ParserSchemaValidationContext'>"
p5404
sS'Extension'
p5405
S'<built-in function Extension>'
p5406
sS'__builtins__'
p5407
S"<module '__builtin__' (built-in)>"
p5408
sS'SchematronParseError'
p5409
S"<class 'lxml.etree.SchematronParseError'>"
p5410
sS'_Element'
p5411
S"<type 'lxml.etree._Element'>"
p5412
sS'XSLTExtension'
p5413
S"<type 'lxml.etree.XSLTExtension'>"
p5414
sS'XMLSchemaValidateError'
p5415
S"<class 'lxml.etree.XMLSchemaValidateError'>"
p5416
sS'XMLSchema'
p5417
S"<type 'lxml.etree.XMLSchema'>"
p5418
sS'DEBUG'
p5419
S'1'
sS'__name__'
p5420
S"'lxml.etree'"
p5421
sS'_ElementUnicodeResult'
p5422
S"<type 'lxml.etree._ElementUnicodeResult'>"
p5423
sS'ErrorTypes'
p5424
S"<class 'lxml.etree.ErrorTypes'>"
p5425
sS'Comment'
p5426
S'<built-in function Comment>'
p5427
sS'XMLTreeBuilder'
p5428
S"<type 'lxml.etree.ETCompatXMLParser'>"
p5429
sS'RelaxNGErrorTypes'
p5430
S"<class 'lxml.etree.RelaxNGErrorTypes'>"
p5431
sS'iterwalk'
p5432
S"<type 'lxml.etree.iterwalk'>"
p5433
sS'ProcessingInstruction'
p5434
S'<built-in function ProcessingInstruction>'
p5435
sS'LXML_VERSION'
p5436
S'(2, 3, 0, 0)'
p5437
sS'_InputDocument'
p5438
S"<type 'lxml.etree._InputDocument'>"
p5439
sS'RelaxNGValidateError'
p5440
S"<class 'lxml.etree.RelaxNGValidateError'>"
p5441
sS'strip_tags'
p5442
S'<built-in function strip_tags>'
p5443
sS'XIncludeError'
p5444
S"<class 'lxml.etree.XIncludeError'>"
p5445
sS'tounicode'
p5446
S'<built-in function tounicode>'
p5447
sS'PIBase'
p5448
S"<type 'lxml.etree.PIBase'>"
p5449
sS'_XSLTResolverContext'
p5450
S"<type 'lxml.etree._XSLTResolverContext'>"
p5451
sS'_ParserDictionaryContext'
p5452
S"<type 'lxml.etree._ParserDictionaryContext'>"
p5453
sS'ParserError'
p5454
S"<class 'lxml.etree.ParserError'>"
p5455
sS'_ElementIterator'
p5456
S"<type 'lxml.etree._ElementIterator'>"
p5457
sS'__docformat__'
p5458
S"u'restructuredtext en'"
p5459
sS'SerialisationError'
p5460
S"<class 'lxml.etree.SerialisationError'>"
p5461
sS'_ReadOnlyProxy'
p5462
S"<type 'lxml.etree._ReadOnlyProxy'>"
p5463
sS'_ReadOnlyPIProxy'
p5464
S"<type 'lxml.etree._ReadOnlyPIProxy'>"
p5465
sS'DocInfo'
p5466
S"<type 'lxml.etree.DocInfo'>"
p5467
sg3558
S'<built-in function dump>'
p5468
sS'XSLTSaveError'
p5469
S"<class 'lxml.etree.XSLTSaveError'>"
p5470
sS'LIBXSLT_COMPILED_VERSION'
p5471
S'(1, 1, 26)'
p5472
sS'ElementTextIterator'
p5473
S"<type 'lxml.etree.ElementTextIterator'>"
p5474
sg46
S"'The ``lxml.etree`` module implements the extended ElementTree API\\nfor XML.\\n'"
p5475
sS'_AppendOnlyElementProxy'
p5476
S"<type 'lxml.etree._AppendOnlyElementProxy'>"
p5477
sS'XPathElementEvaluator'
p5478
S"<type 'lxml.etree.XPathElementEvaluator'>"
p5479
sS'XML'
p5480
S'<built-in function XML>'
p5481
sS'XSLTError'
p5482
S"<class 'lxml.etree.XSLTError'>"
p5483
sS'XSLT'
p5484
S"<type 'lxml.etree.XSLT'>"
p5485
sS'_DomainErrorLog'
p5486
S"<type 'lxml.etree._DomainErrorLog'>"
p5487
sS'AncestorsIterator'
p5488
S"<type 'lxml.etree.AncestorsIterator'>"
p5489
sS'_BaseContext'
p5490
S"<type 'lxml.etree._BaseContext'>"
p5491
sS'_ModifyContentOnlyPIProxy'
p5492
S"<type 'lxml.etree._ModifyContentOnlyPIProxy'>"
p5493
sS'_BaseParser'
p5494
S"<type 'lxml.etree._BaseParser'>"
p5495
sS'Error'
p5496
S"<class 'lxml.etree.Error'>"
p5497
sS'ErrorLevels'
p5498
S"<class 'lxml.etree.ErrorLevels'>"
p5499
sS'_TargetParserContext'
p5500
S"<type 'lxml.etree._TargetParserContext'>"
p5501
sS'LIBXML_VERSION'
p5502
S'(2, 7, 8)'
p5503
sS'XPathResultError'
p5504
S"<class 'lxml.etree.XPathResultError'>"
p5505
sS'_OpaqueDocumentWrapper'
p5506
S"<type 'lxml.etree._OpaqueDocumentWrapper'>"
p5507
sS'XSLTAccessControl'
p5508
S"<type 'lxml.etree.XSLTAccessControl'>"
p5509
sS'XMLSyntaxError'
p5510
S"<class 'lxml.etree.XMLSyntaxError'>"
p5511
sS'XMLSchemaParseError'
p5512
S"<class 'lxml.etree.XMLSchemaParseError'>"
p5513
sS'EntityBase'
p5514
S"<type 'lxml.etree.EntityBase'>"
p5515
sS'_ExceptionContext'
p5516
S"<type 'lxml.etree._ExceptionContext'>"
p5517
sS'SubElement'
p5518
S'<built-in function SubElement>'
p5519
sS'CDATA'
p5520
S"<type 'lxml.etree.CDATA'>"
p5521
sS'_ElementTagMatcher'
p5522
S"<type 'lxml.etree._ElementTagMatcher'>"
p5523
sS'DTDError'
p5524
S"<class 'lxml.etree.DTDError'>"
p5525
sS'_ProcessingInstruction'
p5526
S"<type 'lxml.etree._ProcessingInstruction'>"
p5527
sS'get_default_parser'
p5528
S'<built-in function get_default_parser>'
p5529
sS'register_namespace'
p5530
S'<built-in function register_namespace>'
p5531
sS'ErrorDomains'
p5532
S"<class 'lxml.etree.ErrorDomains'>"
p5533
sS'LIBXML_COMPILED_VERSION'
p5534
S'(2, 7, 8)'
p5535
sS'DTDValidateError'
p5536
S"<class 'lxml.etree.DTDValidateError'>"
p5537
sS'_SaxParserTarget'
p5538
S"<type 'lxml.etree._SaxParserTarget'>"
p5539
sS'parse'
p5540
S'<built-in function parse>'
p5541
sS'set_element_class_lookup'
p5542
S'<built-in function set_element_class_lookup>'
p5543
sS'_TargetParserResult'
p5544
S"<class 'lxml.etree._TargetParserResult'>"
p5545
sS'FallbackElementClassLookup'
p5546
S"<type 'lxml.etree.FallbackElementClassLookup'>"
p5547
sS'RelaxNGError'
p5548
S"<class 'lxml.etree.RelaxNGError'>"
p5549
sS'XPathEvalError'
p5550
S"<class 'lxml.etree.XPathEvalError'>"
p5551
sS'PythonElementClassLookup'
p5552
S"<type 'lxml.etree.PythonElementClassLookup'>"
p5553
sS'_FunctionNamespaceRegistry'
p5554
S"<type 'lxml.etree._FunctionNamespaceRegistry'>"
p5555
sS'clear_error_log'
p5556
S'<built-in function clear_error_log>'
p5557
sS'_RotatingErrorLog'
p5558
S"<type 'lxml.etree._RotatingErrorLog'>"
p5559
sS'XPathDocumentEvaluator'
p5560
S"<type 'lxml.etree.XPathDocumentEvaluator'>"
p5561
sS'_XSLTQuotedStringParam'
p5562
S"<type 'lxml.etree._XSLTQuotedStringParam'>"
p5563
sS'ETXPath'
p5564
S"<type 'lxml.etree.ETXPath'>"
p5565
sS'SchematronError'
p5566
S"<class 'lxml.etree.SchematronError'>"
p5567
sS'Resolver'
p5568
S"<type 'lxml.etree.Resolver'>"
p5569
sS'_NamespaceRegistry'
p5570
S"<type 'lxml.etree._NamespaceRegistry'>"
p5571
sS'fromstringlist'
p5572
S'<built-in function fromstringlist>'
p5573
sS'XSLTApplyError'
p5574
S"<class 'lxml.etree.XSLTApplyError'>"
p5575
sS'_Comment'
p5576
S"<type 'lxml.etree._Comment'>"
p5577
sS'_Validator'
p5578
S"<type 'lxml.etree._Validator'>"
p5579
sS'DTDParseError'
p5580
S"<class 'lxml.etree.DTDParseError'>"
p5581
sS'_ResolverRegistry'
p5582
S"<type 'lxml.etree._ResolverRegistry'>"
p5583
sS'_XPathEvaluatorBase'
p5584
S"<type 'lxml.etree._XPathEvaluatorBase'>"
p5585
sS'_ErrorLog'
p5586
S"<type 'lxml.etree._ErrorLog'>"
p5587
sS'Element'
p5588
S'<built-in function Element>'
p5589
sS'ElementBase'
p5590
S"<type 'lxml.etree.ElementBase'>"
p5591
sS'_ElementStringResult'
p5592
S"<class 'lxml.etree._ElementStringResult'>"
p5593
sS'XPathSyntaxError'
p5594
S"<class 'lxml.etree.XPathSyntaxError'>"
p5595
sS'ParseError'
p5596
S"<class 'lxml.etree.ParseError'>"
p5597
sS'_ClassNamespaceRegistry'
p5598
S"<type 'lxml.etree._ClassNamespaceRegistry'>"
p5599
sS'_PythonSaxParserTarget'
p5600
S"<type 'lxml.etree._PythonSaxParserTarget'>"
p5601
sS'_XSLTResultTree'
p5602
S"<type 'lxml.etree._XSLTResultTree'>"
p5603
sS'_TempStore'
p5604
S"<type 'lxml.etree._TempStore'>"
p5605
sS'XMLSchemaError'
p5606
S"<class 'lxml.etree.XMLSchemaError'>"
p5607
sS'use_global_python_log'
p5608
S'<built-in function use_global_python_log>'
p5609
sS'tostringlist'
p5610
S'<built-in function tostringlist>'
p5611
sS'fromstring'
p5612
S'<built-in function fromstring>'
p5613
sS'QName'
p5614
S"<type 'lxml.etree.QName'>"
p5615
sS'SchematronValidateError'
p5616
S"<class 'lxml.etree.SchematronValidateError'>"
p5617
sS'ETCompatXMLParser'
p5618
S"<type 'lxml.etree.ETCompatXMLParser'>"
p5619
sS'RelaxNGParseError'
p5620
S"<class 'lxml.etree.RelaxNGParseError'>"
p5621
sS'__test__'
p5622
S"{u'XML (line 2700)': u'XML(text, parser=None, base_url=None)\\n\\n    P...ternal entities\\n    (DTD, XInclude, ...).\\n    '}"
p5623
sS'ElementDefaultClassLookup'
p5624
S"<type 'lxml.etree.ElementDefaultClassLookup'>"
p5625
sssS'traceback'
p5626
S'Traceback (most recent call last):\n  File "/home/iscott/web/web2py/gluon/restricted.py", line 204, in restricted\n    exec ccode in environment\n  File "/home/iscott/web/web2py/applications/grammateus3/controllers/docs.py", line 161, in <module>\n  File "/home/iscott/web/web2py/gluon/globals.py", line 172, in <lambda>\n    self._caller = lambda f: f()\n  File "/home/iscott/web/web2py/applications/grammateus3/controllers/docs.py", line 43, in section\n    p = BookParser(book_file)\n  File "applications/grammateus3/modules/parse.py", line 25, in __init__\n    self.tree = etree.parse(xml_file, parser)\n  File "lxml.etree.pyx", line 2942, in lxml.etree.parse (src/lxml/lxml.etree.c:54187)\n  File "parser.pxi", line 1528, in lxml.etree._parseDocument (src/lxml/lxml.etree.c:79485)\n  File "parser.pxi", line 1557, in lxml.etree._parseDocumentFromURL (src/lxml/lxml.etree.c:79768)\n  File "parser.pxi", line 1457, in lxml.etree._parseDocFromFile (src/lxml/lxml.etree.c:78843)\n  File "parser.pxi", line 997, in lxml.etree._BaseParser._parseDocFromFile (src/lxml/lxml.etree.c:75698)\n  File "parser.pxi", line 564, in lxml.etree._ParserContext._handleParseResultDoc (src/lxml/lxml.etree.c:71739)\n  File "parser.pxi", line 645, in lxml.etree._handleParseResult (src/lxml/lxml.etree.c:72614)\n  File "parser.pxi", line 585, in lxml.etree._raiseParseError (src/lxml/lxml.etree.c:71955)\nXMLSyntaxError: Document is empty, line 1, column 1\n'
p5627
s.