(dp1
S'output'
p2
S''
sS'layer'
p3
S'/home/ian/web2py/applications/welcome/views/default/index.html'
p4
sS'code'
p5
S'left_sidebar_enabled=right_sidebar_enabled=False\nresponse.write(\'\\n\', escape=False)\nresponse.write(\'<!DOCTYPE html>\\n<html lang="\', escape=False)\nresponse.write(T.accepted_language or \'en\')\nresponse.write(\'" class="no-js"><!-- no-js need it for modernzr -->\\n  <head>\\n    \\n    <meta charset="utf-8" />        \\n    <!-- www.phpied.com/conditional-comments-block-downloads/ -->\\n    <!--[if IE]>\\n      <!-- Always force latest IE rendering engine \\n       (even in intranet) & Chrome Frame \\n       Remove this if you use the .htaccess -->\\n      <meta http-equiv="X-UA-Compatible" content="IE=edge,chrome=1">\\n    <![endif]-->    \\n\\n    <title>\', escape=False)\nresponse.write(response.title or request.application)\nresponse.write(\'</title>\\n    \\n    <!-- http://dev.w3.org/html5/markup/meta.name.html -->\\n    <meta name="application-name" content="\', escape=False)\nresponse.write(request.application)\nresponse.write(\'" /> \\n    \\n    <!-- Speaking of Google, don\\\'t forget to set your site up: \\n     http://google.com/webmasters -->\\n    <meta name="google-site-verification" content="" />\\n    \\n    <!--  Mobile Viewport Fix\\n      j.mp/mobileviewport & davidbcalhoun.com/2010/viewport-metatag \\n      device-width: Occupy full width of the screen in its current orientation\\n      initial-scale = 1.0 retains dimensions instead of zooming out if page height > device height\\n      maximum-scale = 1.0 retains dimensions instead of zooming in if page width < device width\\n      -->\\n    <meta name="viewport" content="width=device-width, initial-scale=1.0, maximum-scale=1.0">\\n    \\n    <!-- Place favicon.ico and apple-touch-icon.png in the root of your domain and delete these references -->\\n    <link rel="shortcut icon" href="\', escape=False)\nresponse.write(URL(\'static\',\'favicon.ico\'))\nresponse.write(\'" type="image/x-icon">\\n    <link rel="apple-touch-icon" href="\', escape=False)\nresponse.write(URL(\'static\',\'favicon.png\'))\nresponse.write(\'">\\n\\n    <!-- For the less-enabled mobile browsers like Opera Mini -->\\n    <link rel="stylesheet" media="handheld" href="\', escape=False)\nresponse.write(URL(\'static\',\'css/handheld.css\'))\nresponse.write(\'">\\n    \\n    <!-- All JavaScript at the bottom, except for Modernizr which enables HTML5 elements & feature detects -->\\n    <script src="\', escape=False)\nresponse.write(URL(\'static\',\'js/modernizr-1.7.min.js\'))\nresponse.write(\'"></script>\\n    \\n    \', escape=False)\n#------  require CSS and JS files for this page (read info in base.css) ------\nresponse.write(\'\\n    \', escape=False)\nresponse.files.append(URL(\'static\',\'css/base.css\'))\nresponse.write(\'\\n    \', escape=False)\nresponse.files.append(URL(\'static\',\'css/superfish.css\'))\nresponse.write(\'\\n    \', escape=False)\nresponse.files.append(URL(\'static\',\'js/superfish.js\'))\nresponse.write(\'\\n    \', escape=False)\n#------ include web2py specific js code (jquery, calendar, form stuff) ------\nresponse.write(\'\\n    \', escape=False)\nresponse.files.insert(0,URL(\'static\',\'js/jquery.js\'))\nresponse.files.insert(1,URL(\'static\',\'css/anytime.css\'))\nresponse.files.insert(2,URL(\'static\',\'js/anytime.js\'))\nresponse.include_meta()\nresponse.include_files()\nresponse.write(\'\\n<script type="text/javascript"><!--\\n    // These variables are used by the web2py_ajax_init function in web2py_ajax.js (which is loaded below).\\n    var w2p_ajax_confirm_message = "\', escape=False)\nresponse.write(T(\'Are you sure you want to delete this object?\'))\nresponse.write(\'";\\n    var w2p_ajax_date_format = "\', escape=False)\nresponse.write(T(\'%Y-%m-%d\'))\nresponse.write(\'";\\n    var w2p_ajax_datetime_format = "\', escape=False)\nresponse.write(T(\'%Y-%m-%d %H:%M:%S\'))\nresponse.write(\'";\\n    //--></script>\\n    <script src="\', escape=False)\nresponse.write(URL(\'static\',\'js/web2py_ajax.js\'))\nresponse.write(\'" type="text/javascript"></script>\\n\', escape=False)\nresponse.write(\'\\n\\n    \', escape=False)\n#using sidebars need to know what sidebar you want to use\n#prior of using it, because of static width size of content, you can use\n#left_sidebar, right_sidebar, both or none (False left and right)\nleft_sidebar_enabled = globals().get(\'left_sidebar_enabled\',False)\nright_sidebar_enabled = globals().get(\'right_sidebar_enabled\',False)\nif left_sidebar_enabled and right_sidebar_enabled: width_content=\'63%\'\nelif left_sidebar_enabled != right_sidebar_enabled: width_content=\'740px\'\nelse: width_content=\'100%\'\nif left_sidebar_enabled: left_sidebar_style = \'style="display: block;"\'\nelse: left_sidebar_style = \'style="display: none;"\'\nif right_sidebar_enabled: right_sidebar_style = \'style="display: block;"\'\nelse: right_sidebar_style = \'style="display: none;"\'\nstyle_content = \'style="width: %s"\' % width_content\nresponse.write(\'\\n    \\n    <!-- uncomment here to load jquery-ui -->\\n    \\n    <link rel="stylesheet" href="http://ajax.googleapis.com/ajax/libs/jqueryui/1.8.16/themes/base/jquery-ui.css" type="text/css" media="all" />\\n    <script src="http://ajax.googleapis.com/ajax/libs/jqueryui/1.8.16/jquery-ui.min.js" type="text/javascript"></script>\\n    \\n   <!-- uncomment to load jquery-ui -->\\n    \\n    \\n  </head>\\n  \\n  <!-- paulirish.com/2008/conditional-stylesheets-vs-css-hacks-answer-neither/ -->  \\n  <!--[if lt IE 7 ]> <body class="ie6"> <![endif]-->\\n  <!--[if IE 7 ]>    <body class="ie7"> <![endif]-->\\n  <!--[if IE 8 ]>    <body class="ie8"> <![endif]-->\\n  <!--[if IE 9 ]>    <body class="ie9"> <![endif]-->\\n  <!--[if (gt IE 9)|!(IE)]><!--> <body> <!--<![endif]-->\\n    \\n    <div class="flash">\', escape=False)\nresponse.write(response.flash or \'\')\nresponse.write(\'</div> <!-- notification div -->\\n\\n        \\n\\n    <div id="container">                        \\n      \\n      <div id="wrapper">        \\n      \', escape=False)\ntry:\n    response.write(auth.navbar(action=URL(\'default\',\'user\')))\nexcept:pass\nresponse.write(\'\\n    \\n    <div id="header"> <!-- header and login nav -->\\n      \', escape=False)\nresponse.write(\' <!-- this is default header -->\\n      \\n      <h1>\\n        <span id="appname">\', escape=False)\nresponse.write(request.application.capitalize())\nresponse.write(\'</span>App\\n      </h1>\\n      <div style="clear: both;"></div><!-- Clear the divs -->\\n      \', escape=False)\nresponse.write(\'\\n    </div><!-- header  -->\\n    \\n    <div id="statusbar"><!-- statusbar is menu zone -->\\n      \', escape=False)\nresponse.write(\' <!-- this is default statusbar -->\\n      \', escape=False)\n#------ superfish menu ------\nresponse.write(\'\\n      \', escape=False)\nresponse.write(MENU(response.menu,_class=\'sf-menu\'))\nresponse.write(\'\\n      <script type="text/javascript">\\n        jQuery(document).ready(function(){\\n        jQuery(\\\'ul.sf-menu\\\').superfish();});\\n      </script>\\n\\n      <!-- AddToAny BEGIN -->\\n      <div style="padding: 7px; float:right;" class="a2a_kit a2a_default_style"><a class="a2a_dd" href="http://www.addtoany.com/share_save">Share</a></div><script type="text/javascript" src="http://static.addtoany.com/menu/page.js"></script>\\n      <!-- AddToAny END -->\\n\\n      <div style="clear: both;"></div><!-- Clear the divs -->   \\n      \', escape=False)\nresponse.write(\'               \\n    </div><!-- statusbar -->\\n    \\n    <div id="page"> <!-- Here my central body -->     \\n\\n      \', escape=False)\nif left_sidebar_enabled:\n    response.write(\'\\n          <div id="left_sidebar" \', escape=False)\n    response.write(XML(left_sidebar_style))\n    response.write(\' >\\n            <div style="padding: 4px;">\\n          \', escape=False)\n    response.write(\'New Left Sidebar Content\', escape=False)\n    response.write(\'       \\n            </div>\\n          </div><!-- left_sidebar -->\\n      \', escape=False)\n    pass\nresponse.write(\'\\n\\n      <!-- content -->\\n      <div id="content" \', escape=False)\nresponse.write(XML(style_content))\nresponse.write(\' >\\n        \', escape=False)\nresponse.write(\'\\n\\n\', escape=False)\nif \'message\' in globals():\n    response.write(\'\\n<h1>\', escape=False)\n    response.write(message)\n    response.write(\'</h1>\\n\', escape=False)\n    pass\nresponse.write(\'\\n\\n<h3>\', escape=False)\nresponse.write(T("What do you want to work on today?"))\nresponse.write(\'</h3>\\n<ul>\\n  <li>\', escape=False)\nresponse.write(A(\'topoi\', _href=URL(\'admin\', \'default\', \'design\', args=[\'topoi\']))\nresponse.write(\'</li>\\n  <li>\', escape=False)\nresponse.write(A(\'places\', _href=URL(\'admin\', \'default\', \'design\', args=[\'places\']))\nresponse.write(\'</li>\\n  <li>\', escape=False)\nresponse.write(A(\'paideia\', _href=URL(\'admin\', \'default\', \'design\', args=[\'paideia\']))\nresponse.write(\'</li>\\n  <li>\', escape=False)\nresponse.write(A(\'grades\', _href=URL(\'admin\', \'default\', \'design\', args=[\'grades\']))\nresponse.write(\'</li>\\n  <li>\', escape=False)\nresponse.write(A(\'welcome\', _href=URL(\'admin\', \'default\', \'design\', args=[\'welcome\']))\nresponse.write(\'</li>\\n  <li>\', escape=False)\nresponse.write(A(B(T("Admin overview")), _href=URL(\'admin\',\'default\',\'index\')))\nresponse.write(\'</li>\\n</ul>\\n\\n<h3></h3>\\n<ul>\\n  <li><a href="http://web2py.com">web2py.com</a></li>\\n  <li><a href="http://web2py.com/book">\', escape=False)\nresponse.write(T(\'Online web2py book\'))\nresponse.write(\'</a></li>\\n</ul>\\n\\n\', escape=False)\nresponse.write(\'\\n\', escape=False)\nresponse.write(\'\\n\', escape=False)\nresponse.write(\' \\n      </div>\\n      <!-- content -->\\n\\n      \', escape=False)\nif right_sidebar_enabled:\n    response.write(\'\\n          <div id="right_sidebar" \', escape=False)\n    response.write(XML(right_sidebar_style))\n    response.write(\' >\\n            <div style="padding: 4px;">\\n              \', escape=False)\n    response.write(\'New Right Sidebar Content\', escape=False)\n    response.write(\'\\n            </div>\\n      </div><!-- right_sidebar -->\\n          \', escape=False)\n    pass\nresponse.write(\'\\n\\n\\n      <div style="clear: both;"></div><!-- Clear the divs -->\\n      \\n    </div><!-- page -->                         \\n    \\n    <div id="footer">\\n      \', escape=False)\nresponse.write(\' <!-- this is default footer -->\\n      <a href="http://www.web2py.com/" style="float: left; padding-right: 6px;">\\n        <img src="\', escape=False)\nresponse.write(URL(\'static\',\'images/poweredby.png\'))\nresponse.write(\'"/>\\n      </a>\\n      \', escape=False)\nresponse.write(T(\'Copyright\'))\nresponse.write(\' &#169; 2011               \\n      <div style="clear: both;"></div><!-- Clear the divs -->\\n      \', escape=False)\nresponse.write(\'\\n\\n    </div><!-- footer -->           \\n      </div><!-- wrapper -->\\n    </div><!-- container -->        \\n    \\n    <!--[if lt IE 7 ]>\\n    <script src="\', escape=False)\nresponse.write(URL(\'static\',\'js/dd_belatedpng.js\'))\nresponse.write(\'"></script>\\n    <script> DD_belatedPNG.fix(\\\'img, .png_bg\\\'); //fix any <img> or .png_bg background-images </script>\\n    <![endif]-->\\n    \', escape=False)\nif response.google_analytics_id:\n    response.write("<script>/* http://mathiasbynens.be/notes/async-analytics-snippet */ var _gaq=[[\'_setAccount\',\'", escape=False)\n    response.write(response.google_analyitics_id)\n    response.write("\'],[\'_trackPageview\']];(function(d,t){var g=d.createElement(t),s=d.getElementsByTagName(t)[0];g.src=\'//www.google-analytics.com/ga.js\';s.parentNode.insertBefore(g,s)}(document,\'script\')) </script>", escape=False)\n    pass\nresponse.write(\'\\n  </body>\\n</html>\\n\', escape=False)'
p6
sS'snapshot'
p7
(dp8
S'exception'
p9
(dp10
S'__getslice__'
p11
S"<method-wrapper '__getslice__' of exceptions.SyntaxError object>"
p12
sS'text'
p13
S'"response.write(\'</li>\\\\n  <li>\', escape=False)\\n"'
p14
sS'__str__'
p15
S"<method-wrapper '__str__' of exceptions.SyntaxError object>"
p16
sS'__reduce__'
p17
S'<built-in method __reduce__ of exceptions.SyntaxError object>'
p18
sS'__dict__'
p19
S'{}'
p20
sS'__sizeof__'
p21
S'<built-in method __sizeof__ of exceptions.SyntaxError object>'
p22
sS'__init__'
p23
S"<method-wrapper '__init__' of exceptions.SyntaxError object>"
p24
sS'__setattr__'
p25
S"<method-wrapper '__setattr__' of exceptions.SyntaxError object>"
p26
sS'__reduce_ex__'
p27
S'<built-in method __reduce_ex__ of exceptions.SyntaxError object>'
p28
sS'__new__'
p29
S'<built-in method __new__ of type object>'
p30
sS'__format__'
p31
S'<built-in method __format__ of exceptions.SyntaxError object>'
p32
sS'__class__'
p33
S"<type 'exceptions.SyntaxError'>"
p34
sS'filename'
p35
S"'/home/ian/web2py/applications/welcome/views/default/index.html'"
p36
sS'lineno'
p37
S'93'
p38
sS'msg'
p39
S"'invalid syntax'"
p40
sS'__doc__'
p41
S"'Invalid syntax.'"
p42
sS'__getitem__'
p43
S"<method-wrapper '__getitem__' of exceptions.SyntaxError object>"
p44
sS'__setstate__'
p45
S'<built-in method __setstate__ of exceptions.SyntaxError object>'
p46
sS'__getattribute__'
p47
S"<method-wrapper '__getattribute__' of exceptions.SyntaxError object>"
p48
sS'print_file_and_line'
p49
S'None'
p50
sS'args'
p51
S'(\'invalid syntax\', (\'/home/ian/web2py/applications/welcome/views/default/index.html\', 93, 8, "response.write(\'</li>\\\\n  <li>\', escape=False)\\n"))'
p52
sS'__subclasshook__'
p53
S'<built-in method __subclasshook__ of type object>'
p54
sS'offset'
p55
S'8'
sS'__unicode__'
p56
S'<built-in method __unicode__ of exceptions.SyntaxError object>'
p57
sS'__delattr__'
p58
S"<method-wrapper '__delattr__' of exceptions.SyntaxError object>"
p59
sS'__repr__'
p60
S"<method-wrapper '__repr__' of exceptions.SyntaxError object>"
p61
sS'__hash__'
p62
S"<method-wrapper '__hash__' of exceptions.SyntaxError object>"
p63
ssS'evalue'
p64
S'invalid syntax (index.html, line 93)'
p65
sS'request'
p66
ccopy_reg
_reconstructor
p67
(cgluon.html
BEAUTIFY
p68
c__builtin__
object
p69
NtRp70
(dp71
S'attributes'
p72
(dp73
sS'components'
p74
(lp75
g67
(cgluon.html
TABLE
p76
g69
NtRp77
(dp78
g72
(dp79
S'level'
p80
I5
ssS'parent'
p81
Nsg74
(lp82
g67
(cgluon.html
TR
p83
g69
NtRp84
(dp85
g72
(dp86
sg81
g77
sg74
(lp87
g67
(cgluon.html
TD
p88
g69
NtRp89
(dp90
g72
(dp91
S'_style'
p92
S'font-weight:bold;'
p93
ssg81
g84
sg74
(lp94
S'ajax'
p95
asbag67
(g88
g69
NtRp96
(dp97
g72
(dp98
S'_valign'
p99
S'top'
p100
ssg81
g84
sg74
(lp101
S':'
asbag67
(g88
g69
NtRp102
(dp103
g72
(dp104
sg81
g84
sg74
(lp105
g67
(g68
g69
NtRp106
(dp107
g72
(dp108
g80
I5
ssg81
g102
sg74
(lp109
S'False'
p110
asbasbasbag67
(g83
g69
NtRp111
(dp112
g72
(dp113
sg81
g77
sg74
(lp114
g67
(g88
g69
NtRp115
(dp116
g72
(dp117
g92
g93
ssg81
g111
sg74
(lp118
S'application'
p119
asbag67
(g88
g69
NtRp120
(dp121
g72
(dp122
g99
g100
ssg81
g111
sg74
(lp123
S':'
asbag67
(g88
g69
NtRp124
(dp125
g72
(dp126
sg81
g111
sg74
(lp127
g67
(g68
g69
NtRp128
(dp129
g72
(dp130
g80
I5
ssg81
g124
sg74
(lp131
S'welcome'
p132
asbasbasbag67
(g83
g69
NtRp133
(dp134
g72
(dp135
sg81
g77
sg74
(lp136
g67
(g88
g69
NtRp137
(dp138
g72
(dp139
g92
g93
ssg81
g133
sg74
(lp140
g51
asbag67
(g88
g69
NtRp141
(dp142
g72
(dp143
g99
g100
ssg81
g133
sg74
(lp144
S':'
asbag67
(g88
g69
NtRp145
(dp146
g72
(dp147
sg81
g133
sg74
(lp148
g67
(g68
g69
NtRp149
(dp150
g72
(dp151
g80
I5
ssg81
g145
sg74
(lp152
g67
(g76
g69
NtRp153
(dp154
g72
(dp155
g80
I4
ssg81
Nsg74
(lp156
sbasbasbasbag67
(g83
g69
NtRp157
(dp158
g72
(dp159
sg81
g77
sg74
(lp160
g67
(g88
g69
NtRp161
(dp162
g72
(dp163
g92
g93
ssg81
g157
sg74
(lp164
S'body'
p165
asbag67
(g88
g69
NtRp166
(dp167
g72
(dp168
g99
g100
ssg81
g157
sg74
(lp169
S':'
asbag67
(g88
g69
NtRp170
(dp171
g72
(dp172
sg81
g157
sg74
(lp173
g67
(g68
g69
NtRp174
(dp175
g72
(dp176
g80
I5
ssg81
g170
sg74
(lp177
S'<cStringIO.StringO object at 0x2987998>'
p178
asbasbasbag67
(g83
g69
NtRp179
(dp180
g72
(dp181
sg81
g77
sg74
(lp182
g67
(g88
g69
NtRp183
(dp184
g72
(dp185
g92
g93
ssg81
g179
sg74
(lp186
S'client'
p187
asbag67
(g88
g69
NtRp188
(dp189
g72
(dp190
g99
g100
ssg81
g179
sg74
(lp191
S':'
asbag67
(g88
g69
NtRp192
(dp193
g72
(dp194
sg81
g179
sg74
(lp195
g67
(g68
g69
NtRp196
(dp197
g72
(dp198
g80
I5
ssg81
g192
sg74
(lp199
S'127.0.0.1'
p200
asbasbasbag67
(g83
g69
NtRp201
(dp202
g72
(dp203
sg81
g77
sg74
(lp204
g67
(g88
g69
NtRp205
(dp206
g72
(dp207
g92
g93
ssg81
g201
sg74
(lp208
S'controller'
p209
asbag67
(g88
g69
NtRp210
(dp211
g72
(dp212
g99
g100
ssg81
g201
sg74
(lp213
S':'
asbag67
(g88
g69
NtRp214
(dp215
g72
(dp216
sg81
g201
sg74
(lp217
g67
(g68
g69
NtRp218
(dp219
g72
(dp220
g80
I5
ssg81
g214
sg74
(lp221
S'default'
p222
asbasbasbag67
(g83
g69
NtRp223
(dp224
g72
(dp225
sg81
g77
sg74
(lp226
g67
(g88
g69
NtRp227
(dp228
g72
(dp229
g92
g93
ssg81
g223
sg74
(lp230
S'cookies'
p231
asbag67
(g88
g69
NtRp232
(dp233
g72
(dp234
g99
g100
ssg81
g223
sg74
(lp235
S':'
asbag67
(g88
g69
NtRp236
(dp237
g72
(dp238
sg81
g223
sg74
(lp239
g67
(g68
g69
NtRp240
(dp241
g72
(dp242
g80
I5
ssg81
g236
sg74
(lp243
g67
(g76
g69
NtRp244
(dp245
g72
(dp246
g80
I4
ssg81
Nsg74
(lp247
g67
(g83
g69
NtRp248
(dp249
g72
(dp250
sg81
g244
sg74
(lp251
g67
(g88
g69
NtRp252
(dp253
g72
(dp254
g92
g93
ssg81
g248
sg74
(lp255
S'session_id_admin'
p256
asbag67
(g88
g69
NtRp257
(dp258
g72
(dp259
g99
g100
ssg81
g248
sg74
(lp260
S':'
asbag67
(g88
g69
NtRp261
(dp262
g72
(dp263
sg81
g248
sg74
(lp264
g67
(g68
g69
NtRp265
(dp266
g72
(dp267
g80
I4
ssg81
g261
sg74
(lp268
g67
(g76
g69
NtRp269
(dp270
g72
(dp271
g80
I3
ssg81
Nsg74
(lp272
g67
(g83
g69
NtRp273
(dp274
g72
(dp275
sg81
g269
sg74
(lp276
g67
(g88
g69
NtRp277
(dp278
g72
(dp279
g92
g93
ssg81
g273
sg74
(lp280
S'comment'
p281
asbag67
(g88
g69
NtRp282
(dp283
g72
(dp284
g99
g100
ssg81
g273
sg74
(lp285
S':'
asbag67
(g88
g69
NtRp286
(dp287
g72
(dp288
sg81
g273
sg74
(lp289
g67
(g68
g69
NtRp290
(dp291
g72
(dp292
g80
I3
ssg81
g286
sg74
(lp293
S''
asbasbasbag67
(g83
g69
NtRp294
(dp295
g72
(dp296
sg81
g269
sg74
(lp297
g67
(g88
g69
NtRp298
(dp299
g72
(dp300
g92
g93
ssg81
g294
sg74
(lp301
S'domain'
p302
asbag67
(g88
g69
NtRp303
(dp304
g72
(dp305
g99
g100
ssg81
g294
sg74
(lp306
S':'
asbag67
(g88
g69
NtRp307
(dp308
g72
(dp309
sg81
g294
sg74
(lp310
g67
(g68
g69
NtRp311
(dp312
g72
(dp313
g80
I3
ssg81
g307
sg74
(lp314
S''
asbasbasbag67
(g83
g69
NtRp315
(dp316
g72
(dp317
sg81
g269
sg74
(lp318
g67
(g88
g69
NtRp319
(dp320
g72
(dp321
g92
g93
ssg81
g315
sg74
(lp322
S'expires'
p323
asbag67
(g88
g69
NtRp324
(dp325
g72
(dp326
g99
g100
ssg81
g315
sg74
(lp327
S':'
asbag67
(g88
g69
NtRp328
(dp329
g72
(dp330
sg81
g315
sg74
(lp331
g67
(g68
g69
NtRp332
(dp333
g72
(dp334
g80
I3
ssg81
g328
sg74
(lp335
S''
asbasbasbag67
(g83
g69
NtRp336
(dp337
g72
(dp338
sg81
g269
sg74
(lp339
g67
(g88
g69
NtRp340
(dp341
g72
(dp342
g92
g93
ssg81
g336
sg74
(lp343
S'httponly'
p344
asbag67
(g88
g69
NtRp345
(dp346
g72
(dp347
g99
g100
ssg81
g336
sg74
(lp348
S':'
asbag67
(g88
g69
NtRp349
(dp350
g72
(dp351
sg81
g336
sg74
(lp352
g67
(g68
g69
NtRp353
(dp354
g72
(dp355
g80
I3
ssg81
g349
sg74
(lp356
S''
asbasbasbag67
(g83
g69
NtRp357
(dp358
g72
(dp359
sg81
g269
sg74
(lp360
g67
(g88
g69
NtRp361
(dp362
g72
(dp363
g92
g93
ssg81
g357
sg74
(lp364
S'max-age'
p365
asbag67
(g88
g69
NtRp366
(dp367
g72
(dp368
g99
g100
ssg81
g357
sg74
(lp369
S':'
asbag67
(g88
g69
NtRp370
(dp371
g72
(dp372
sg81
g357
sg74
(lp373
g67
(g68
g69
NtRp374
(dp375
g72
(dp376
g80
I3
ssg81
g370
sg74
(lp377
S''
asbasbasbag67
(g83
g69
NtRp378
(dp379
g72
(dp380
sg81
g269
sg74
(lp381
g67
(g88
g69
NtRp382
(dp383
g72
(dp384
g92
g93
ssg81
g378
sg74
(lp385
S'path'
p386
asbag67
(g88
g69
NtRp387
(dp388
g72
(dp389
g99
g100
ssg81
g378
sg74
(lp390
S':'
asbag67
(g88
g69
NtRp391
(dp392
g72
(dp393
sg81
g378
sg74
(lp394
g67
(g68
g69
NtRp395
(dp396
g72
(dp397
g80
I3
ssg81
g391
sg74
(lp398
S''
asbasbasbag67
(g83
g69
NtRp399
(dp400
g72
(dp401
sg81
g269
sg74
(lp402
g67
(g88
g69
NtRp403
(dp404
g72
(dp405
g92
g93
ssg81
g399
sg74
(lp406
S'secure'
p407
asbag67
(g88
g69
NtRp408
(dp409
g72
(dp410
g99
g100
ssg81
g399
sg74
(lp411
S':'
asbag67
(g88
g69
NtRp412
(dp413
g72
(dp414
sg81
g399
sg74
(lp415
g67
(g68
g69
NtRp416
(dp417
g72
(dp418
g80
I3
ssg81
g412
sg74
(lp419
S''
asbasbasbag67
(g83
g69
NtRp420
(dp421
g72
(dp422
sg81
g269
sg74
(lp423
g67
(g88
g69
NtRp424
(dp425
g72
(dp426
g92
g93
ssg81
g420
sg74
(lp427
S'version'
p428
asbag67
(g88
g69
NtRp429
(dp430
g72
(dp431
g99
g100
ssg81
g420
sg74
(lp432
S':'
asbag67
(g88
g69
NtRp433
(dp434
g72
(dp435
sg81
g420
sg74
(lp436
g67
(g68
g69
NtRp437
(dp438
g72
(dp439
g80
I3
ssg81
g433
sg74
(lp440
S''
asbasbasbasbasbasbasbag67
(g83
g69
NtRp441
(dp442
g72
(dp443
sg81
g244
sg74
(lp444
g67
(g88
g69
NtRp445
(dp446
g72
(dp447
g92
g93
ssg81
g441
sg74
(lp448
S'session_id_topoi'
p449
asbag67
(g88
g69
NtRp450
(dp451
g72
(dp452
g99
g100
ssg81
g441
sg74
(lp453
S':'
asbag67
(g88
g69
NtRp454
(dp455
g72
(dp456
sg81
g441
sg74
(lp457
g67
(g68
g69
NtRp458
(dp459
g72
(dp460
g80
I4
ssg81
g454
sg74
(lp461
g67
(g76
g69
NtRp462
(dp463
g72
(dp464
g80
I3
ssg81
Nsg74
(lp465
g67
(g83
g69
NtRp466
(dp467
g72
(dp468
sg81
g462
sg74
(lp469
g67
(g88
g69
NtRp470
(dp471
g72
(dp472
g92
g93
ssg81
g466
sg74
(lp473
g281
asbag67
(g88
g69
NtRp474
(dp475
g72
(dp476
g99
g100
ssg81
g466
sg74
(lp477
S':'
asbag67
(g88
g69
NtRp478
(dp479
g72
(dp480
sg81
g466
sg74
(lp481
g67
(g68
g69
NtRp482
(dp483
g72
(dp484
g80
I3
ssg81
g478
sg74
(lp485
S''
asbasbasbag67
(g83
g69
NtRp486
(dp487
g72
(dp488
sg81
g462
sg74
(lp489
g67
(g88
g69
NtRp490
(dp491
g72
(dp492
g92
g93
ssg81
g486
sg74
(lp493
g302
asbag67
(g88
g69
NtRp494
(dp495
g72
(dp496
g99
g100
ssg81
g486
sg74
(lp497
S':'
asbag67
(g88
g69
NtRp498
(dp499
g72
(dp500
sg81
g486
sg74
(lp501
g67
(g68
g69
NtRp502
(dp503
g72
(dp504
g80
I3
ssg81
g498
sg74
(lp505
S''
asbasbasbag67
(g83
g69
NtRp506
(dp507
g72
(dp508
sg81
g462
sg74
(lp509
g67
(g88
g69
NtRp510
(dp511
g72
(dp512
g92
g93
ssg81
g506
sg74
(lp513
g323
asbag67
(g88
g69
NtRp514
(dp515
g72
(dp516
g99
g100
ssg81
g506
sg74
(lp517
S':'
asbag67
(g88
g69
NtRp518
(dp519
g72
(dp520
sg81
g506
sg74
(lp521
g67
(g68
g69
NtRp522
(dp523
g72
(dp524
g80
I3
ssg81
g518
sg74
(lp525
S''
asbasbasbag67
(g83
g69
NtRp526
(dp527
g72
(dp528
sg81
g462
sg74
(lp529
g67
(g88
g69
NtRp530
(dp531
g72
(dp532
g92
g93
ssg81
g526
sg74
(lp533
g344
asbag67
(g88
g69
NtRp534
(dp535
g72
(dp536
g99
g100
ssg81
g526
sg74
(lp537
S':'
asbag67
(g88
g69
NtRp538
(dp539
g72
(dp540
sg81
g526
sg74
(lp541
g67
(g68
g69
NtRp542
(dp543
g72
(dp544
g80
I3
ssg81
g538
sg74
(lp545
S''
asbasbasbag67
(g83
g69
NtRp546
(dp547
g72
(dp548
sg81
g462
sg74
(lp549
g67
(g88
g69
NtRp550
(dp551
g72
(dp552
g92
g93
ssg81
g546
sg74
(lp553
g365
asbag67
(g88
g69
NtRp554
(dp555
g72
(dp556
g99
g100
ssg81
g546
sg74
(lp557
S':'
asbag67
(g88
g69
NtRp558
(dp559
g72
(dp560
sg81
g546
sg74
(lp561
g67
(g68
g69
NtRp562
(dp563
g72
(dp564
g80
I3
ssg81
g558
sg74
(lp565
S''
asbasbasbag67
(g83
g69
NtRp566
(dp567
g72
(dp568
sg81
g462
sg74
(lp569
g67
(g88
g69
NtRp570
(dp571
g72
(dp572
g92
g93
ssg81
g566
sg74
(lp573
g386
asbag67
(g88
g69
NtRp574
(dp575
g72
(dp576
g99
g100
ssg81
g566
sg74
(lp577
S':'
asbag67
(g88
g69
NtRp578
(dp579
g72
(dp580
sg81
g566
sg74
(lp581
g67
(g68
g69
NtRp582
(dp583
g72
(dp584
g80
I3
ssg81
g578
sg74
(lp585
S''
asbasbasbag67
(g83
g69
NtRp586
(dp587
g72
(dp588
sg81
g462
sg74
(lp589
g67
(g88
g69
NtRp590
(dp591
g72
(dp592
g92
g93
ssg81
g586
sg74
(lp593
g407
asbag67
(g88
g69
NtRp594
(dp595
g72
(dp596
g99
g100
ssg81
g586
sg74
(lp597
S':'
asbag67
(g88
g69
NtRp598
(dp599
g72
(dp600
sg81
g586
sg74
(lp601
g67
(g68
g69
NtRp602
(dp603
g72
(dp604
g80
I3
ssg81
g598
sg74
(lp605
S''
asbasbasbag67
(g83
g69
NtRp606
(dp607
g72
(dp608
sg81
g462
sg74
(lp609
g67
(g88
g69
NtRp610
(dp611
g72
(dp612
g92
g93
ssg81
g606
sg74
(lp613
g428
asbag67
(g88
g69
NtRp614
(dp615
g72
(dp616
g99
g100
ssg81
g606
sg74
(lp617
S':'
asbag67
(g88
g69
NtRp618
(dp619
g72
(dp620
sg81
g606
sg74
(lp621
g67
(g68
g69
NtRp622
(dp623
g72
(dp624
g80
I3
ssg81
g618
sg74
(lp625
S''
asbasbasbasbasbasbasbag67
(g83
g69
NtRp626
(dp627
g72
(dp628
sg81
g244
sg74
(lp629
g67
(g88
g69
NtRp630
(dp631
g72
(dp632
g92
g93
ssg81
g626
sg74
(lp633
S'session_id_welcome'
p634
asbag67
(g88
g69
NtRp635
(dp636
g72
(dp637
g99
g100
ssg81
g626
sg74
(lp638
S':'
asbag67
(g88
g69
NtRp639
(dp640
g72
(dp641
sg81
g626
sg74
(lp642
g67
(g68
g69
NtRp643
(dp644
g72
(dp645
g80
I4
ssg81
g639
sg74
(lp646
g67
(g76
g69
NtRp647
(dp648
g72
(dp649
g80
I3
ssg81
Nsg74
(lp650
g67
(g83
g69
NtRp651
(dp652
g72
(dp653
sg81
g647
sg74
(lp654
g67
(g88
g69
NtRp655
(dp656
g72
(dp657
g92
g93
ssg81
g651
sg74
(lp658
g281
asbag67
(g88
g69
NtRp659
(dp660
g72
(dp661
g99
g100
ssg81
g651
sg74
(lp662
S':'
asbag67
(g88
g69
NtRp663
(dp664
g72
(dp665
sg81
g651
sg74
(lp666
g67
(g68
g69
NtRp667
(dp668
g72
(dp669
g80
I3
ssg81
g663
sg74
(lp670
S''
asbasbasbag67
(g83
g69
NtRp671
(dp672
g72
(dp673
sg81
g647
sg74
(lp674
g67
(g88
g69
NtRp675
(dp676
g72
(dp677
g92
g93
ssg81
g671
sg74
(lp678
g302
asbag67
(g88
g69
NtRp679
(dp680
g72
(dp681
g99
g100
ssg81
g671
sg74
(lp682
S':'
asbag67
(g88
g69
NtRp683
(dp684
g72
(dp685
sg81
g671
sg74
(lp686
g67
(g68
g69
NtRp687
(dp688
g72
(dp689
g80
I3
ssg81
g683
sg74
(lp690
S''
asbasbasbag67
(g83
g69
NtRp691
(dp692
g72
(dp693
sg81
g647
sg74
(lp694
g67
(g88
g69
NtRp695
(dp696
g72
(dp697
g92
g93
ssg81
g691
sg74
(lp698
g323
asbag67
(g88
g69
NtRp699
(dp700
g72
(dp701
g99
g100
ssg81
g691
sg74
(lp702
S':'
asbag67
(g88
g69
NtRp703
(dp704
g72
(dp705
sg81
g691
sg74
(lp706
g67
(g68
g69
NtRp707
(dp708
g72
(dp709
g80
I3
ssg81
g703
sg74
(lp710
S''
asbasbasbag67
(g83
g69
NtRp711
(dp712
g72
(dp713
sg81
g647
sg74
(lp714
g67
(g88
g69
NtRp715
(dp716
g72
(dp717
g92
g93
ssg81
g711
sg74
(lp718
g344
asbag67
(g88
g69
NtRp719
(dp720
g72
(dp721
g99
g100
ssg81
g711
sg74
(lp722
S':'
asbag67
(g88
g69
NtRp723
(dp724
g72
(dp725
sg81
g711
sg74
(lp726
g67
(g68
g69
NtRp727
(dp728
g72
(dp729
g80
I3
ssg81
g723
sg74
(lp730
S''
asbasbasbag67
(g83
g69
NtRp731
(dp732
g72
(dp733
sg81
g647
sg74
(lp734
g67
(g88
g69
NtRp735
(dp736
g72
(dp737
g92
g93
ssg81
g731
sg74
(lp738
g365
asbag67
(g88
g69
NtRp739
(dp740
g72
(dp741
g99
g100
ssg81
g731
sg74
(lp742
S':'
asbag67
(g88
g69
NtRp743
(dp744
g72
(dp745
sg81
g731
sg74
(lp746
g67
(g68
g69
NtRp747
(dp748
g72
(dp749
g80
I3
ssg81
g743
sg74
(lp750
S''
asbasbasbag67
(g83
g69
NtRp751
(dp752
g72
(dp753
sg81
g647
sg74
(lp754
g67
(g88
g69
NtRp755
(dp756
g72
(dp757
g92
g93
ssg81
g751
sg74
(lp758
g386
asbag67
(g88
g69
NtRp759
(dp760
g72
(dp761
g99
g100
ssg81
g751
sg74
(lp762
S':'
asbag67
(g88
g69
NtRp763
(dp764
g72
(dp765
sg81
g751
sg74
(lp766
g67
(g68
g69
NtRp767
(dp768
g72
(dp769
g80
I3
ssg81
g763
sg74
(lp770
S''
asbasbasbag67
(g83
g69
NtRp771
(dp772
g72
(dp773
sg81
g647
sg74
(lp774
g67
(g88
g69
NtRp775
(dp776
g72
(dp777
g92
g93
ssg81
g771
sg74
(lp778
g407
asbag67
(g88
g69
NtRp779
(dp780
g72
(dp781
g99
g100
ssg81
g771
sg74
(lp782
S':'
asbag67
(g88
g69
NtRp783
(dp784
g72
(dp785
sg81
g771
sg74
(lp786
g67
(g68
g69
NtRp787
(dp788
g72
(dp789
g80
I3
ssg81
g783
sg74
(lp790
S''
asbasbasbag67
(g83
g69
NtRp791
(dp792
g72
(dp793
sg81
g647
sg74
(lp794
g67
(g88
g69
NtRp795
(dp796
g72
(dp797
g92
g93
ssg81
g791
sg74
(lp798
g428
asbag67
(g88
g69
NtRp799
(dp800
g72
(dp801
g99
g100
ssg81
g791
sg74
(lp802
S':'
asbag67
(g88
g69
NtRp803
(dp804
g72
(dp805
sg81
g791
sg74
(lp806
g67
(g68
g69
NtRp807
(dp808
g72
(dp809
g80
I3
ssg81
g803
sg74
(lp810
S''
asbasbasbasbasbasbasbasbasbasbasbag67
(g83
g69
NtRp811
(dp812
g72
(dp813
sg81
g77
sg74
(lp814
g67
(g88
g69
NtRp815
(dp816
g72
(dp817
g92
g93
ssg81
g811
sg74
(lp818
S'env'
p819
asbag67
(g88
g69
NtRp820
(dp821
g72
(dp822
g99
g100
ssg81
g811
sg74
(lp823
S':'
asbag67
(g88
g69
NtRp824
(dp825
g72
(dp826
sg81
g811
sg74
(lp827
g67
(g68
g69
NtRp828
(dp829
g72
(dp830
g80
I5
ssg81
g824
sg74
(lp831
g67
(g76
g69
NtRp832
(dp833
g72
(dp834
g80
I4
ssg81
Nsg74
(lp835
g67
(g83
g69
NtRp836
(dp837
g72
(dp838
sg81
g832
sg74
(lp839
g67
(g88
g69
NtRp840
(dp841
g72
(dp842
g92
g93
ssg81
g836
sg74
(lp843
S'app_folders'
p844
asbag67
(g88
g69
NtRp845
(dp846
g72
(dp847
g99
g100
ssg81
g836
sg74
(lp848
S':'
asbag67
(g88
g69
NtRp849
(dp850
g72
(dp851
sg81
g836
sg74
(lp852
g67
(g68
g69
NtRp853
(dp854
g72
(dp855
g80
I4
ssg81
g849
sg74
(lp856
S"set(['/home/ian/web2py/applications/topoi/', '/home/ian/web2py/applications/welcome/', '/home/ian/web2py/applications/admin/'])"
p857
asbasbasbag67
(g83
g69
NtRp858
(dp859
g72
(dp860
sg81
g832
sg74
(lp861
g67
(g88
g69
NtRp862
(dp863
g72
(dp864
g92
g93
ssg81
g858
sg74
(lp865
S'applications_parent'
p866
asbag67
(g88
g69
NtRp867
(dp868
g72
(dp869
g99
g100
ssg81
g858
sg74
(lp870
S':'
asbag67
(g88
g69
NtRp871
(dp872
g72
(dp873
sg81
g858
sg74
(lp874
g67
(g68
g69
NtRp875
(dp876
g72
(dp877
g80
I4
ssg81
g871
sg74
(lp878
S'/home/ian/web2py'
p879
asbasbasbag67
(g83
g69
NtRp880
(dp881
g72
(dp882
sg81
g832
sg74
(lp883
g67
(g88
g69
NtRp884
(dp885
g72
(dp886
g92
g93
ssg81
g880
sg74
(lp887
S'cmd_args'
p888
asbag67
(g88
g69
NtRp889
(dp890
g72
(dp891
g99
g100
ssg81
g880
sg74
(lp892
S':'
asbag67
(g88
g69
NtRp893
(dp894
g72
(dp895
sg81
g880
sg74
(lp896
g67
(g68
g69
NtRp897
(dp898
g72
(dp899
g80
I4
ssg81
g893
sg74
(lp900
g67
(g76
g69
NtRp901
(dp902
g72
(dp903
g80
I3
ssg81
Nsg74
(lp904
sbasbasbasbag67
(g83
g69
NtRp905
(dp906
g72
(dp907
sg81
g832
sg74
(lp908
g67
(g88
g69
NtRp909
(dp910
g72
(dp911
g92
g93
ssg81
g905
sg74
(lp912
S'cmd_options'
p913
asbag67
(g88
g69
NtRp914
(dp915
g72
(dp916
g99
g100
ssg81
g905
sg74
(lp917
S':'
asbag67
(g88
g69
NtRp918
(dp919
g72
(dp920
sg81
g905
sg74
(lp921
g67
(g68
g69
NtRp922
(dp923
g72
(dp924
g80
I4
ssg81
g918
sg74
(lp925
S"<Values at 0x22277e8: {'verbose': False, 'ip': '127.0.0.1', 'shutdown_timeout': 5, 'taskbar': False, 'nocron': False, 'pid_filename': 'httpserver.pid', 'maxthreads': None, 'softcron': False, 'server_name': 'Ariel-ubuntu', 'bpython': False, 'nogui': False, 'port': 8000, 'extcron': False, 'debuglevel': 30, 'test': None, 'folder': '/home/ian/web2py', 'config': '', 'import_models': False, 'winservice': '', 'shell': None, 'run': '', 'log_filename': 'httpserver.log', 'args': [''], 'ssl_ca_certificate': None, 'scheduler': None, 'profiler_filename': None, 'ssl_private_key': '', 'password': '<ask>', 'request_queue_size': 5, 'ssl_certificate': '', 'cronjob': False, 'plain': False, 'quiet': False, 'interfaces': None, 'minthreads': None, 'timeout': 10, 'numthreads': None, 'nobanner': False}>"
p926
asbasbasbag67
(g83
g69
NtRp927
(dp928
g72
(dp929
sg81
g832
sg74
(lp930
g67
(g88
g69
NtRp931
(dp932
g72
(dp933
g92
g93
ssg81
g927
sg74
(lp934
S'db_sessions'
p935
asbag67
(g88
g69
NtRp936
(dp937
g72
(dp938
g99
g100
ssg81
g927
sg74
(lp939
S':'
asbag67
(g88
g69
NtRp940
(dp941
g72
(dp942
sg81
g927
sg74
(lp943
g67
(g68
g69
NtRp944
(dp945
g72
(dp946
g80
I4
ssg81
g940
sg74
(lp947
S'set([])'
p948
asbasbasbag67
(g83
g69
NtRp949
(dp950
g72
(dp951
sg81
g832
sg74
(lp952
g67
(g88
g69
NtRp953
(dp954
g72
(dp955
g92
g93
ssg81
g949
sg74
(lp956
S'debugging'
p957
asbag67
(g88
g69
NtRp958
(dp959
g72
(dp960
g99
g100
ssg81
g949
sg74
(lp961
S':'
asbag67
(g88
g69
NtRp962
(dp963
g72
(dp964
sg81
g949
sg74
(lp965
g67
(g68
g69
NtRp966
(dp967
g72
(dp968
g80
I4
ssg81
g962
sg74
(lp969
g110
asbasbasbag67
(g83
g69
NtRp970
(dp971
g72
(dp972
sg81
g832
sg74
(lp973
g67
(g88
g69
NtRp974
(dp975
g72
(dp976
g92
g93
ssg81
g970
sg74
(lp977
S'gluon_parent'
p978
asbag67
(g88
g69
NtRp979
(dp980
g72
(dp981
g99
g100
ssg81
g970
sg74
(lp982
S':'
asbag67
(g88
g69
NtRp983
(dp984
g72
(dp985
sg81
g970
sg74
(lp986
g67
(g68
g69
NtRp987
(dp988
g72
(dp989
g80
I4
ssg81
g983
sg74
(lp990
S'/home/ian/web2py'
p991
asbasbasbag67
(g83
g69
NtRp992
(dp993
g72
(dp994
sg81
g832
sg74
(lp995
g67
(g88
g69
NtRp996
(dp997
g72
(dp998
g92
g93
ssg81
g992
sg74
(lp999
S'http_accept'
p1000
asbag67
(g88
g69
NtRp1001
(dp1002
g72
(dp1003
g99
g100
ssg81
g992
sg74
(lp1004
S':'
asbag67
(g88
g69
NtRp1005
(dp1006
g72
(dp1007
sg81
g992
sg74
(lp1008
g67
(g68
g69
NtRp1009
(dp1010
g72
(dp1011
g80
I4
ssg81
g1005
sg74
(lp1012
S'text/html,application/xhtml+xml,application/xml;q=0.9,*/*;q=0.8'
p1013
asbasbasbag67
(g83
g69
NtRp1014
(dp1015
g72
(dp1016
sg81
g832
sg74
(lp1017
g67
(g88
g69
NtRp1018
(dp1019
g72
(dp1020
g92
g93
ssg81
g1014
sg74
(lp1021
S'http_accept_charset'
p1022
asbag67
(g88
g69
NtRp1023
(dp1024
g72
(dp1025
g99
g100
ssg81
g1014
sg74
(lp1026
S':'
asbag67
(g88
g69
NtRp1027
(dp1028
g72
(dp1029
sg81
g1014
sg74
(lp1030
g67
(g68
g69
NtRp1031
(dp1032
g72
(dp1033
g80
I4
ssg81
g1027
sg74
(lp1034
S'ISO-8859-1,utf-8;q=0.7,*;q=0.7'
p1035
asbasbasbag67
(g83
g69
NtRp1036
(dp1037
g72
(dp1038
sg81
g832
sg74
(lp1039
g67
(g88
g69
NtRp1040
(dp1041
g72
(dp1042
g92
g93
ssg81
g1036
sg74
(lp1043
S'http_accept_encoding'
p1044
asbag67
(g88
g69
NtRp1045
(dp1046
g72
(dp1047
g99
g100
ssg81
g1036
sg74
(lp1048
S':'
asbag67
(g88
g69
NtRp1049
(dp1050
g72
(dp1051
sg81
g1036
sg74
(lp1052
g67
(g68
g69
NtRp1053
(dp1054
g72
(dp1055
g80
I4
ssg81
g1049
sg74
(lp1056
S'gzip, deflate'
p1057
asbasbasbag67
(g83
g69
NtRp1058
(dp1059
g72
(dp1060
sg81
g832
sg74
(lp1061
g67
(g88
g69
NtRp1062
(dp1063
g72
(dp1064
g92
g93
ssg81
g1058
sg74
(lp1065
S'http_accept_language'
p1066
asbag67
(g88
g69
NtRp1067
(dp1068
g72
(dp1069
g99
g100
ssg81
g1058
sg74
(lp1070
S':'
asbag67
(g88
g69
NtRp1071
(dp1072
g72
(dp1073
sg81
g1058
sg74
(lp1074
g67
(g68
g69
NtRp1075
(dp1076
g72
(dp1077
g80
I4
ssg81
g1071
sg74
(lp1078
S'en-us,en;q=0.5'
p1079
asbasbasbag67
(g83
g69
NtRp1080
(dp1081
g72
(dp1082
sg81
g832
sg74
(lp1083
g67
(g88
g69
NtRp1084
(dp1085
g72
(dp1086
g92
g93
ssg81
g1080
sg74
(lp1087
S'http_connection'
p1088
asbag67
(g88
g69
NtRp1089
(dp1090
g72
(dp1091
g99
g100
ssg81
g1080
sg74
(lp1092
S':'
asbag67
(g88
g69
NtRp1093
(dp1094
g72
(dp1095
sg81
g1080
sg74
(lp1096
g67
(g68
g69
NtRp1097
(dp1098
g72
(dp1099
g80
I4
ssg81
g1093
sg74
(lp1100
S'keep-alive'
p1101
asbasbasbag67
(g83
g69
NtRp1102
(dp1103
g72
(dp1104
sg81
g832
sg74
(lp1105
g67
(g88
g69
NtRp1106
(dp1107
g72
(dp1108
g92
g93
ssg81
g1102
sg74
(lp1109
S'http_cookie'
p1110
asbag67
(g88
g69
NtRp1111
(dp1112
g72
(dp1113
g99
g100
ssg81
g1102
sg74
(lp1114
S':'
asbag67
(g88
g69
NtRp1115
(dp1116
g72
(dp1117
sg81
g1102
sg74
(lp1118
g67
(g68
g69
NtRp1119
(dp1120
g72
(dp1121
g80
I4
ssg81
g1115
sg74
(lp1122
S'__utma_a2a=9789918665.1351576430.1320019504.1320019504.1320019504.1; session_id_welcome=127.0.0.1-1edd24c3-eba1-4f7a-9a28-c852503f450b; session_id_admin=127.0.0.1-4720aaf4-064a-4717-9517-d76f3eb3d1e2; session_id_topoi=127.0.0.1-8d18d577-e99b-45ad-b025-fbbddc98aaa3'
p1123
asbasbasbag67
(g83
g69
NtRp1124
(dp1125
g72
(dp1126
sg81
g832
sg74
(lp1127
g67
(g88
g69
NtRp1128
(dp1129
g72
(dp1130
g92
g93
ssg81
g1124
sg74
(lp1131
S'http_host'
p1132
asbag67
(g88
g69
NtRp1133
(dp1134
g72
(dp1135
g99
g100
ssg81
g1124
sg74
(lp1136
S':'
asbag67
(g88
g69
NtRp1137
(dp1138
g72
(dp1139
sg81
g1124
sg74
(lp1140
g67
(g68
g69
NtRp1141
(dp1142
g72
(dp1143
g80
I4
ssg81
g1137
sg74
(lp1144
S'127.0.0.1:8000'
p1145
asbasbasbag67
(g83
g69
NtRp1146
(dp1147
g72
(dp1148
sg81
g832
sg74
(lp1149
g67
(g88
g69
NtRp1150
(dp1151
g72
(dp1152
g92
g93
ssg81
g1146
sg74
(lp1153
S'http_user_agent'
p1154
asbag67
(g88
g69
NtRp1155
(dp1156
g72
(dp1157
g99
g100
ssg81
g1146
sg74
(lp1158
S':'
asbag67
(g88
g69
NtRp1159
(dp1160
g72
(dp1161
sg81
g1146
sg74
(lp1162
g67
(g68
g69
NtRp1163
(dp1164
g72
(dp1165
g80
I4
ssg81
g1159
sg74
(lp1166
S'Mozilla/5.0 (Ubuntu; X11; Linux x86_64; rv:8.0) Gecko/20100101 Firefox/8.0'
p1167
asbasbasbag67
(g83
g69
NtRp1168
(dp1169
g72
(dp1170
sg81
g832
sg74
(lp1171
g67
(g88
g69
NtRp1172
(dp1173
g72
(dp1174
g92
g93
ssg81
g1168
sg74
(lp1175
S'is_jython'
p1176
asbag67
(g88
g69
NtRp1177
(dp1178
g72
(dp1179
g99
g100
ssg81
g1168
sg74
(lp1180
S':'
asbag67
(g88
g69
NtRp1181
(dp1182
g72
(dp1183
sg81
g1168
sg74
(lp1184
g67
(g68
g69
NtRp1185
(dp1186
g72
(dp1187
g80
I4
ssg81
g1181
sg74
(lp1188
g110
asbasbasbag67
(g83
g69
NtRp1189
(dp1190
g72
(dp1191
sg81
g832
sg74
(lp1192
g67
(g88
g69
NtRp1193
(dp1194
g72
(dp1195
g92
g93
ssg81
g1189
sg74
(lp1196
S'path_info'
p1197
asbag67
(g88
g69
NtRp1198
(dp1199
g72
(dp1200
g99
g100
ssg81
g1189
sg74
(lp1201
S':'
asbag67
(g88
g69
NtRp1202
(dp1203
g72
(dp1204
sg81
g1189
sg74
(lp1205
g67
(g68
g69
NtRp1206
(dp1207
g72
(dp1208
g80
I4
ssg81
g1202
sg74
(lp1209
S'/welcome/default/index'
p1210
asbasbasbag67
(g83
g69
NtRp1211
(dp1212
g72
(dp1213
sg81
g832
sg74
(lp1214
g67
(g88
g69
NtRp1215
(dp1216
g72
(dp1217
g92
g93
ssg81
g1211
sg74
(lp1218
S'query_string'
p1219
asbag67
(g88
g69
NtRp1220
(dp1221
g72
(dp1222
g99
g100
ssg81
g1211
sg74
(lp1223
S':'
asbag67
(g88
g69
NtRp1224
(dp1225
g72
(dp1226
sg81
g1211
sg74
(lp1227
g67
(g68
g69
NtRp1228
(dp1229
g72
(dp1230
g80
I4
ssg81
g1224
sg74
(lp1231
S''
asbasbasbag67
(g83
g69
NtRp1232
(dp1233
g72
(dp1234
sg81
g832
sg74
(lp1235
g67
(g88
g69
NtRp1236
(dp1237
g72
(dp1238
g92
g93
ssg81
g1232
sg74
(lp1239
S'remote_addr'
p1240
asbag67
(g88
g69
NtRp1241
(dp1242
g72
(dp1243
g99
g100
ssg81
g1232
sg74
(lp1244
S':'
asbag67
(g88
g69
NtRp1245
(dp1246
g72
(dp1247
sg81
g1232
sg74
(lp1248
g67
(g68
g69
NtRp1249
(dp1250
g72
(dp1251
g80
I4
ssg81
g1245
sg74
(lp1252
g200
asbasbasbag67
(g83
g69
NtRp1253
(dp1254
g72
(dp1255
sg81
g832
sg74
(lp1256
g67
(g88
g69
NtRp1257
(dp1258
g72
(dp1259
g92
g93
ssg81
g1253
sg74
(lp1260
S'remote_port'
p1261
asbag67
(g88
g69
NtRp1262
(dp1263
g72
(dp1264
g99
g100
ssg81
g1253
sg74
(lp1265
S':'
asbag67
(g88
g69
NtRp1266
(dp1267
g72
(dp1268
sg81
g1253
sg74
(lp1269
g67
(g68
g69
NtRp1270
(dp1271
g72
(dp1272
g80
I4
ssg81
g1266
sg74
(lp1273
S'33104'
p1274
asbasbasbag67
(g83
g69
NtRp1275
(dp1276
g72
(dp1277
sg81
g832
sg74
(lp1278
g67
(g88
g69
NtRp1279
(dp1280
g72
(dp1281
g92
g93
ssg81
g1275
sg74
(lp1282
S'request_method'
p1283
asbag67
(g88
g69
NtRp1284
(dp1285
g72
(dp1286
g99
g100
ssg81
g1275
sg74
(lp1287
S':'
asbag67
(g88
g69
NtRp1288
(dp1289
g72
(dp1290
sg81
g1275
sg74
(lp1291
g67
(g68
g69
NtRp1292
(dp1293
g72
(dp1294
g80
I4
ssg81
g1288
sg74
(lp1295
S'GET'
p1296
asbasbasbag67
(g83
g69
NtRp1297
(dp1298
g72
(dp1299
sg81
g832
sg74
(lp1300
g67
(g88
g69
NtRp1301
(dp1302
g72
(dp1303
g92
g93
ssg81
g1297
sg74
(lp1304
S'script_name'
p1305
asbag67
(g88
g69
NtRp1306
(dp1307
g72
(dp1308
g99
g100
ssg81
g1297
sg74
(lp1309
S':'
asbag67
(g88
g69
NtRp1310
(dp1311
g72
(dp1312
sg81
g1297
sg74
(lp1313
g67
(g68
g69
NtRp1314
(dp1315
g72
(dp1316
g80
I4
ssg81
g1310
sg74
(lp1317
S''
asbasbasbag67
(g83
g69
NtRp1318
(dp1319
g72
(dp1320
sg81
g832
sg74
(lp1321
g67
(g88
g69
NtRp1322
(dp1323
g72
(dp1324
g92
g93
ssg81
g1318
sg74
(lp1325
S'server_name'
p1326
asbag67
(g88
g69
NtRp1327
(dp1328
g72
(dp1329
g99
g100
ssg81
g1318
sg74
(lp1330
S':'
asbag67
(g88
g69
NtRp1331
(dp1332
g72
(dp1333
sg81
g1318
sg74
(lp1334
g67
(g68
g69
NtRp1335
(dp1336
g72
(dp1337
g80
I4
ssg81
g1331
sg74
(lp1338
S'Ariel-ubuntu'
p1339
asbasbasbag67
(g83
g69
NtRp1340
(dp1341
g72
(dp1342
sg81
g832
sg74
(lp1343
g67
(g88
g69
NtRp1344
(dp1345
g72
(dp1346
g92
g93
ssg81
g1340
sg74
(lp1347
S'server_port'
p1348
asbag67
(g88
g69
NtRp1349
(dp1350
g72
(dp1351
g99
g100
ssg81
g1340
sg74
(lp1352
S':'
asbag67
(g88
g69
NtRp1353
(dp1354
g72
(dp1355
sg81
g1340
sg74
(lp1356
g67
(g68
g69
NtRp1357
(dp1358
g72
(dp1359
g80
I4
ssg81
g1353
sg74
(lp1360
S'8000'
p1361
asbasbasbag67
(g83
g69
NtRp1362
(dp1363
g72
(dp1364
sg81
g832
sg74
(lp1365
g67
(g88
g69
NtRp1366
(dp1367
g72
(dp1368
g92
g93
ssg81
g1362
sg74
(lp1369
S'server_protocol'
p1370
asbag67
(g88
g69
NtRp1371
(dp1372
g72
(dp1373
g99
g100
ssg81
g1362
sg74
(lp1374
S':'
asbag67
(g88
g69
NtRp1375
(dp1376
g72
(dp1377
sg81
g1362
sg74
(lp1378
g67
(g68
g69
NtRp1379
(dp1380
g72
(dp1381
g80
I4
ssg81
g1375
sg74
(lp1382
S'HTTP/1.1'
p1383
asbasbasbag67
(g83
g69
NtRp1384
(dp1385
g72
(dp1386
sg81
g832
sg74
(lp1387
g67
(g88
g69
NtRp1388
(dp1389
g72
(dp1390
g92
g93
ssg81
g1384
sg74
(lp1391
S'server_software'
p1392
asbag67
(g88
g69
NtRp1393
(dp1394
g72
(dp1395
g99
g100
ssg81
g1384
sg74
(lp1396
S':'
asbag67
(g88
g69
NtRp1397
(dp1398
g72
(dp1399
sg81
g1384
sg74
(lp1400
g67
(g68
g69
NtRp1401
(dp1402
g72
(dp1403
g80
I4
ssg81
g1397
sg74
(lp1404
S'Rocket 1.2.4'
p1405
asbasbasbag67
(g83
g69
NtRp1406
(dp1407
g72
(dp1408
sg81
g832
sg74
(lp1409
g67
(g88
g69
NtRp1410
(dp1411
g72
(dp1412
g92
g93
ssg81
g1406
sg74
(lp1413
S'web2py_crontype'
p1414
asbag67
(g88
g69
NtRp1415
(dp1416
g72
(dp1417
g99
g100
ssg81
g1406
sg74
(lp1418
S':'
asbag67
(g88
g69
NtRp1419
(dp1420
g72
(dp1421
sg81
g1406
sg74
(lp1422
g67
(g68
g69
NtRp1423
(dp1424
g72
(dp1425
g80
I4
ssg81
g1419
sg74
(lp1426
S'hard'
p1427
asbasbasbag67
(g83
g69
NtRp1428
(dp1429
g72
(dp1430
sg81
g832
sg74
(lp1431
g67
(g88
g69
NtRp1432
(dp1433
g72
(dp1434
g92
g93
ssg81
g1428
sg74
(lp1435
S'web2py_path'
p1436
asbag67
(g88
g69
NtRp1437
(dp1438
g72
(dp1439
g99
g100
ssg81
g1428
sg74
(lp1440
S':'
asbag67
(g88
g69
NtRp1441
(dp1442
g72
(dp1443
sg81
g1428
sg74
(lp1444
g67
(g68
g69
NtRp1445
(dp1446
g72
(dp1447
g80
I4
ssg81
g1441
sg74
(lp1448
g879
asbasbasbag67
(g83
g69
NtRp1449
(dp1450
g72
(dp1451
sg81
g832
sg74
(lp1452
g67
(g88
g69
NtRp1453
(dp1454
g72
(dp1455
g92
g93
ssg81
g1449
sg74
(lp1456
S'web2py_version'
p1457
asbag67
(g88
g69
NtRp1458
(dp1459
g72
(dp1460
g99
g100
ssg81
g1449
sg74
(lp1461
S':'
asbag67
(g88
g69
NtRp1462
(dp1463
g72
(dp1464
sg81
g1449
sg74
(lp1465
g67
(g68
g69
NtRp1466
(dp1467
g72
(dp1468
g80
I4
ssg81
g1462
sg74
(lp1469
g67
(g76
g69
NtRp1470
(dp1471
g72
(dp1472
g80
I3
ssg81
Nsg74
(lp1473
g67
(g83
g69
NtRp1474
(dp1475
g72
(dp1476
sg81
g1470
sg74
(lp1477
g67
(g88
g69
NtRp1478
(dp1479
g72
(dp1480
sg81
g1474
sg74
(lp1481
g67
(g68
g69
NtRp1482
(dp1483
g72
(dp1484
g80
I3
ssg81
g1478
sg74
(lp1485
S'1'
asbasbasbag67
(g83
g69
NtRp1486
(dp1487
g72
(dp1488
sg81
g1470
sg74
(lp1489
g67
(g88
g69
NtRp1490
(dp1491
g72
(dp1492
sg81
g1486
sg74
(lp1493
g67
(g68
g69
NtRp1494
(dp1495
g72
(dp1496
g80
I3
ssg81
g1490
sg74
(lp1497
S'99'
p1498
asbasbasbag67
(g83
g69
NtRp1499
(dp1500
g72
(dp1501
sg81
g1470
sg74
(lp1502
g67
(g88
g69
NtRp1503
(dp1504
g72
(dp1505
sg81
g1499
sg74
(lp1506
g67
(g68
g69
NtRp1507
(dp1508
g72
(dp1509
g80
I3
ssg81
g1503
sg74
(lp1510
S'2'
asbasbasbag67
(g83
g69
NtRp1511
(dp1512
g72
(dp1513
sg81
g1470
sg74
(lp1514
g67
(g88
g69
NtRp1515
(dp1516
g72
(dp1517
sg81
g1511
sg74
(lp1518
g67
(g68
g69
NtRp1519
(dp1520
g72
(dp1521
g80
I3
ssg81
g1515
sg74
(lp1522
S'datetime.datetime(2011, 9, 26, 6, 55, 33)'
p1523
asbasbasbag67
(g83
g69
NtRp1524
(dp1525
g72
(dp1526
sg81
g1470
sg74
(lp1527
g67
(g88
g69
NtRp1528
(dp1529
g72
(dp1530
sg81
g1524
sg74
(lp1531
g67
(g68
g69
NtRp1532
(dp1533
g72
(dp1534
g80
I3
ssg81
g1528
sg74
(lp1535
S'stable'
p1536
asbasbasbasbasbasbasbag67
(g83
g69
NtRp1537
(dp1538
g72
(dp1539
sg81
g832
sg74
(lp1540
g67
(g88
g69
NtRp1541
(dp1542
g72
(dp1543
g92
g93
ssg81
g1537
sg74
(lp1544
S'wsgi_errors'
p1545
asbag67
(g88
g69
NtRp1546
(dp1547
g72
(dp1548
g99
g100
ssg81
g1537
sg74
(lp1549
S':'
asbag67
(g88
g69
NtRp1550
(dp1551
g72
(dp1552
sg81
g1537
sg74
(lp1553
g67
(g68
g69
NtRp1554
(dp1555
g72
(dp1556
g80
I4
ssg81
g1550
sg74
(lp1557
S"<open file '<stderr>', mode 'w' at 0x7fd0217ab270>"
p1558
asbasbasbag67
(g83
g69
NtRp1559
(dp1560
g72
(dp1561
sg81
g832
sg74
(lp1562
g67
(g88
g69
NtRp1563
(dp1564
g72
(dp1565
g92
g93
ssg81
g1559
sg74
(lp1566
S'wsgi_file_wrapper'
p1567
asbag67
(g88
g69
NtRp1568
(dp1569
g72
(dp1570
g99
g100
ssg81
g1559
sg74
(lp1571
S':'
asbag67
(g88
g69
NtRp1572
(dp1573
g72
(dp1574
sg81
g1559
sg74
(lp1575
g67
(g68
g69
NtRp1576
(dp1577
g72
(dp1578
g80
I4
ssg81
g1572
sg74
(lp1579
S'<class wsgiref.util.FileWrapper at 0x20f0808>'
p1580
asbasbasbag67
(g83
g69
NtRp1581
(dp1582
g72
(dp1583
sg81
g832
sg74
(lp1584
g67
(g88
g69
NtRp1585
(dp1586
g72
(dp1587
g92
g93
ssg81
g1581
sg74
(lp1588
S'wsgi_input'
p1589
asbag67
(g88
g69
NtRp1590
(dp1591
g72
(dp1592
g99
g100
ssg81
g1581
sg74
(lp1593
S':'
asbag67
(g88
g69
NtRp1594
(dp1595
g72
(dp1596
sg81
g1581
sg74
(lp1597
g67
(g68
g69
NtRp1598
(dp1599
g72
(dp1600
g80
I4
ssg81
g1594
sg74
(lp1601
S'<socket._fileobject object at 0x27b3850>'
p1602
asbasbasbag67
(g83
g69
NtRp1603
(dp1604
g72
(dp1605
sg81
g832
sg74
(lp1606
g67
(g88
g69
NtRp1607
(dp1608
g72
(dp1609
g92
g93
ssg81
g1603
sg74
(lp1610
S'wsgi_multiprocess'
p1611
asbag67
(g88
g69
NtRp1612
(dp1613
g72
(dp1614
g99
g100
ssg81
g1603
sg74
(lp1615
S':'
asbag67
(g88
g69
NtRp1616
(dp1617
g72
(dp1618
sg81
g1603
sg74
(lp1619
g67
(g68
g69
NtRp1620
(dp1621
g72
(dp1622
g80
I4
ssg81
g1616
sg74
(lp1623
g110
asbasbasbag67
(g83
g69
NtRp1624
(dp1625
g72
(dp1626
sg81
g832
sg74
(lp1627
g67
(g88
g69
NtRp1628
(dp1629
g72
(dp1630
g92
g93
ssg81
g1624
sg74
(lp1631
S'wsgi_multithread'
p1632
asbag67
(g88
g69
NtRp1633
(dp1634
g72
(dp1635
g99
g100
ssg81
g1624
sg74
(lp1636
S':'
asbag67
(g88
g69
NtRp1637
(dp1638
g72
(dp1639
sg81
g1624
sg74
(lp1640
g67
(g68
g69
NtRp1641
(dp1642
g72
(dp1643
g80
I4
ssg81
g1637
sg74
(lp1644
S'True'
p1645
asbasbasbag67
(g83
g69
NtRp1646
(dp1647
g72
(dp1648
sg81
g832
sg74
(lp1649
g67
(g88
g69
NtRp1650
(dp1651
g72
(dp1652
g92
g93
ssg81
g1646
sg74
(lp1653
S'wsgi_run_once'
p1654
asbag67
(g88
g69
NtRp1655
(dp1656
g72
(dp1657
g99
g100
ssg81
g1646
sg74
(lp1658
S':'
asbag67
(g88
g69
NtRp1659
(dp1660
g72
(dp1661
sg81
g1646
sg74
(lp1662
g67
(g68
g69
NtRp1663
(dp1664
g72
(dp1665
g80
I4
ssg81
g1659
sg74
(lp1666
g110
asbasbasbag67
(g83
g69
NtRp1667
(dp1668
g72
(dp1669
sg81
g832
sg74
(lp1670
g67
(g88
g69
NtRp1671
(dp1672
g72
(dp1673
g92
g93
ssg81
g1667
sg74
(lp1674
S'wsgi_url_scheme'
p1675
asbag67
(g88
g69
NtRp1676
(dp1677
g72
(dp1678
g99
g100
ssg81
g1667
sg74
(lp1679
S':'
asbag67
(g88
g69
NtRp1680
(dp1681
g72
(dp1682
sg81
g1667
sg74
(lp1683
g67
(g68
g69
NtRp1684
(dp1685
g72
(dp1686
g80
I4
ssg81
g1680
sg74
(lp1687
S'http'
p1688
asbasbasbag67
(g83
g69
NtRp1689
(dp1690
g72
(dp1691
sg81
g832
sg74
(lp1692
g67
(g88
g69
NtRp1693
(dp1694
g72
(dp1695
g92
g93
ssg81
g1689
sg74
(lp1696
S'wsgi_version'
p1697
asbag67
(g88
g69
NtRp1698
(dp1699
g72
(dp1700
g99
g100
ssg81
g1689
sg74
(lp1701
S':'
asbag67
(g88
g69
NtRp1702
(dp1703
g72
(dp1704
sg81
g1689
sg74
(lp1705
g67
(g68
g69
NtRp1706
(dp1707
g72
(dp1708
g80
I4
ssg81
g1702
sg74
(lp1709
g67
(g76
g69
NtRp1710
(dp1711
g72
(dp1712
g80
I3
ssg81
Nsg74
(lp1713
g67
(g83
g69
NtRp1714
(dp1715
g72
(dp1716
sg81
g1710
sg74
(lp1717
g67
(g88
g69
NtRp1718
(dp1719
g72
(dp1720
sg81
g1714
sg74
(lp1721
g67
(g68
g69
NtRp1722
(dp1723
g72
(dp1724
g80
I3
ssg81
g1718
sg74
(lp1725
S'1'
asbasbasbag67
(g83
g69
NtRp1726
(dp1727
g72
(dp1728
sg81
g1710
sg74
(lp1729
g67
(g88
g69
NtRp1730
(dp1731
g72
(dp1732
sg81
g1726
sg74
(lp1733
g67
(g68
g69
NtRp1734
(dp1735
g72
(dp1736
g80
I3
ssg81
g1730
sg74
(lp1737
S'0'
asbasbasbasbasbasbasbasbasbasbasbag67
(g83
g69
NtRp1738
(dp1739
g72
(dp1740
sg81
g77
sg74
(lp1741
g67
(g88
g69
NtRp1742
(dp1743
g72
(dp1744
g92
g93
ssg81
g1738
sg74
(lp1745
S'extension'
p1746
asbag67
(g88
g69
NtRp1747
(dp1748
g72
(dp1749
g99
g100
ssg81
g1738
sg74
(lp1750
S':'
asbag67
(g88
g69
NtRp1751
(dp1752
g72
(dp1753
sg81
g1738
sg74
(lp1754
g67
(g68
g69
NtRp1755
(dp1756
g72
(dp1757
g80
I5
ssg81
g1751
sg74
(lp1758
S'html'
p1759
asbasbasbag67
(g83
g69
NtRp1760
(dp1761
g72
(dp1762
sg81
g77
sg74
(lp1763
g67
(g88
g69
NtRp1764
(dp1765
g72
(dp1766
g92
g93
ssg81
g1760
sg74
(lp1767
S'folder'
p1768
asbag67
(g88
g69
NtRp1769
(dp1770
g72
(dp1771
g99
g100
ssg81
g1760
sg74
(lp1772
S':'
asbag67
(g88
g69
NtRp1773
(dp1774
g72
(dp1775
sg81
g1760
sg74
(lp1776
g67
(g68
g69
NtRp1777
(dp1778
g72
(dp1779
g80
I5
ssg81
g1773
sg74
(lp1780
S'/home/ian/web2py/applications/welcome/'
p1781
asbasbasbag67
(g83
g69
NtRp1782
(dp1783
g72
(dp1784
sg81
g77
sg74
(lp1785
g67
(g88
g69
NtRp1786
(dp1787
g72
(dp1788
g92
g93
ssg81
g1782
sg74
(lp1789
S'function'
p1790
asbag67
(g88
g69
NtRp1791
(dp1792
g72
(dp1793
g99
g100
ssg81
g1782
sg74
(lp1794
S':'
asbag67
(g88
g69
NtRp1795
(dp1796
g72
(dp1797
sg81
g1782
sg74
(lp1798
g67
(g68
g69
NtRp1799
(dp1800
g72
(dp1801
g80
I5
ssg81
g1795
sg74
(lp1802
S'index'
p1803
asbasbasbag67
(g83
g69
NtRp1804
(dp1805
g72
(dp1806
sg81
g77
sg74
(lp1807
g67
(g88
g69
NtRp1808
(dp1809
g72
(dp1810
g92
g93
ssg81
g1804
sg74
(lp1811
S'get_vars'
p1812
asbag67
(g88
g69
NtRp1813
(dp1814
g72
(dp1815
g99
g100
ssg81
g1804
sg74
(lp1816
S':'
asbag67
(g88
g69
NtRp1817
(dp1818
g72
(dp1819
sg81
g1804
sg74
(lp1820
g67
(g68
g69
NtRp1821
(dp1822
g72
(dp1823
g80
I5
ssg81
g1817
sg74
(lp1824
g67
(g76
g69
NtRp1825
(dp1826
g72
(dp1827
g80
I4
ssg81
Nsg74
(lp1828
sbasbasbasbag67
(g83
g69
NtRp1829
(dp1830
g72
(dp1831
sg81
g77
sg74
(lp1832
g67
(g88
g69
NtRp1833
(dp1834
g72
(dp1835
g92
g93
ssg81
g1829
sg74
(lp1836
S'global_settings'
p1837
asbag67
(g88
g69
NtRp1838
(dp1839
g72
(dp1840
g99
g100
ssg81
g1829
sg74
(lp1841
S':'
asbag67
(g88
g69
NtRp1842
(dp1843
g72
(dp1844
sg81
g1829
sg74
(lp1845
g67
(g68
g69
NtRp1846
(dp1847
g72
(dp1848
g80
I5
ssg81
g1842
sg74
(lp1849
g67
(g76
g69
NtRp1850
(dp1851
g72
(dp1852
g80
I4
ssg81
Nsg74
(lp1853
g67
(g83
g69
NtRp1854
(dp1855
g72
(dp1856
sg81
g1850
sg74
(lp1857
g67
(g88
g69
NtRp1858
(dp1859
g72
(dp1860
g92
g93
ssg81
g1854
sg74
(lp1861
g844
asbag67
(g88
g69
NtRp1862
(dp1863
g72
(dp1864
g99
g100
ssg81
g1854
sg74
(lp1865
S':'
asbag67
(g88
g69
NtRp1866
(dp1867
g72
(dp1868
sg81
g1854
sg74
(lp1869
g67
(g68
g69
NtRp1870
(dp1871
g72
(dp1872
g80
I4
ssg81
g1866
sg74
(lp1873
S"set(['/home/ian/web2py/applications/topoi/', '/home/ian/web2py/applications/welcome/', '/home/ian/web2py/applications/admin/'])"
p1874
asbasbasbag67
(g83
g69
NtRp1875
(dp1876
g72
(dp1877
sg81
g1850
sg74
(lp1878
g67
(g88
g69
NtRp1879
(dp1880
g72
(dp1881
g92
g93
ssg81
g1875
sg74
(lp1882
g866
asbag67
(g88
g69
NtRp1883
(dp1884
g72
(dp1885
g99
g100
ssg81
g1875
sg74
(lp1886
S':'
asbag67
(g88
g69
NtRp1887
(dp1888
g72
(dp1889
sg81
g1875
sg74
(lp1890
g67
(g68
g69
NtRp1891
(dp1892
g72
(dp1893
g80
I4
ssg81
g1887
sg74
(lp1894
g879
asbasbasbag67
(g83
g69
NtRp1895
(dp1896
g72
(dp1897
sg81
g1850
sg74
(lp1898
g67
(g88
g69
NtRp1899
(dp1900
g72
(dp1901
g92
g93
ssg81
g1895
sg74
(lp1902
g888
asbag67
(g88
g69
NtRp1903
(dp1904
g72
(dp1905
g99
g100
ssg81
g1895
sg74
(lp1906
S':'
asbag67
(g88
g69
NtRp1907
(dp1908
g72
(dp1909
sg81
g1895
sg74
(lp1910
g67
(g68
g69
NtRp1911
(dp1912
g72
(dp1913
g80
I4
ssg81
g1907
sg74
(lp1914
g67
(g76
g69
NtRp1915
(dp1916
g72
(dp1917
g80
I3
ssg81
Nsg74
(lp1918
sbasbasbasbag67
(g83
g69
NtRp1919
(dp1920
g72
(dp1921
sg81
g1850
sg74
(lp1922
g67
(g88
g69
NtRp1923
(dp1924
g72
(dp1925
g92
g93
ssg81
g1919
sg74
(lp1926
g913
asbag67
(g88
g69
NtRp1927
(dp1928
g72
(dp1929
g99
g100
ssg81
g1919
sg74
(lp1930
S':'
asbag67
(g88
g69
NtRp1931
(dp1932
g72
(dp1933
sg81
g1919
sg74
(lp1934
g67
(g68
g69
NtRp1935
(dp1936
g72
(dp1937
g80
I4
ssg81
g1931
sg74
(lp1938
S"<Values at 0x22277e8: {'verbose': False, 'ip': '127.0.0.1', 'shutdown_timeout': 5, 'taskbar': False, 'nocron': False, 'pid_filename': 'httpserver.pid', 'maxthreads': None, 'softcron': False, 'server_name': 'Ariel-ubuntu', 'bpython': False, 'nogui': False, 'port': 8000, 'extcron': False, 'debuglevel': 30, 'test': None, 'folder': '/home/ian/web2py', 'config': '', 'import_models': False, 'winservice': '', 'shell': None, 'run': '', 'log_filename': 'httpserver.log', 'args': [''], 'ssl_ca_certificate': None, 'scheduler': None, 'profiler_filename': None, 'ssl_private_key': '', 'password': '<ask>', 'request_queue_size': 5, 'ssl_certificate': '', 'cronjob': False, 'plain': False, 'quiet': False, 'interfaces': None, 'minthreads': None, 'timeout': 10, 'numthreads': None, 'nobanner': False}>"
p1939
asbasbasbag67
(g83
g69
NtRp1940
(dp1941
g72
(dp1942
sg81
g1850
sg74
(lp1943
g67
(g88
g69
NtRp1944
(dp1945
g72
(dp1946
g92
g93
ssg81
g1940
sg74
(lp1947
g935
asbag67
(g88
g69
NtRp1948
(dp1949
g72
(dp1950
g99
g100
ssg81
g1940
sg74
(lp1951
S':'
asbag67
(g88
g69
NtRp1952
(dp1953
g72
(dp1954
sg81
g1940
sg74
(lp1955
g67
(g68
g69
NtRp1956
(dp1957
g72
(dp1958
g80
I4
ssg81
g1952
sg74
(lp1959
S'set([])'
p1960
asbasbasbag67
(g83
g69
NtRp1961
(dp1962
g72
(dp1963
sg81
g1850
sg74
(lp1964
g67
(g88
g69
NtRp1965
(dp1966
g72
(dp1967
g92
g93
ssg81
g1961
sg74
(lp1968
g957
asbag67
(g88
g69
NtRp1969
(dp1970
g72
(dp1971
g99
g100
ssg81
g1961
sg74
(lp1972
S':'
asbag67
(g88
g69
NtRp1973
(dp1974
g72
(dp1975
sg81
g1961
sg74
(lp1976
g67
(g68
g69
NtRp1977
(dp1978
g72
(dp1979
g80
I4
ssg81
g1973
sg74
(lp1980
g110
asbasbasbag67
(g83
g69
NtRp1981
(dp1982
g72
(dp1983
sg81
g1850
sg74
(lp1984
g67
(g88
g69
NtRp1985
(dp1986
g72
(dp1987
g92
g93
ssg81
g1981
sg74
(lp1988
g978
asbag67
(g88
g69
NtRp1989
(dp1990
g72
(dp1991
g99
g100
ssg81
g1981
sg74
(lp1992
S':'
asbag67
(g88
g69
NtRp1993
(dp1994
g72
(dp1995
sg81
g1981
sg74
(lp1996
g67
(g68
g69
NtRp1997
(dp1998
g72
(dp1999
g80
I4
ssg81
g1993
sg74
(lp2000
g991
asbasbasbag67
(g83
g69
NtRp2001
(dp2002
g72
(dp2003
sg81
g1850
sg74
(lp2004
g67
(g88
g69
NtRp2005
(dp2006
g72
(dp2007
g92
g93
ssg81
g2001
sg74
(lp2008
g1176
asbag67
(g88
g69
NtRp2009
(dp2010
g72
(dp2011
g99
g100
ssg81
g2001
sg74
(lp2012
S':'
asbag67
(g88
g69
NtRp2013
(dp2014
g72
(dp2015
sg81
g2001
sg74
(lp2016
g67
(g68
g69
NtRp2017
(dp2018
g72
(dp2019
g80
I4
ssg81
g2013
sg74
(lp2020
g110
asbasbasbag67
(g83
g69
NtRp2021
(dp2022
g72
(dp2023
sg81
g1850
sg74
(lp2024
g67
(g88
g69
NtRp2025
(dp2026
g72
(dp2027
g92
g93
ssg81
g2021
sg74
(lp2028
g1414
asbag67
(g88
g69
NtRp2029
(dp2030
g72
(dp2031
g99
g100
ssg81
g2021
sg74
(lp2032
S':'
asbag67
(g88
g69
NtRp2033
(dp2034
g72
(dp2035
sg81
g2021
sg74
(lp2036
g67
(g68
g69
NtRp2037
(dp2038
g72
(dp2039
g80
I4
ssg81
g2033
sg74
(lp2040
g1427
asbasbasbag67
(g83
g69
NtRp2041
(dp2042
g72
(dp2043
sg81
g1850
sg74
(lp2044
g67
(g88
g69
NtRp2045
(dp2046
g72
(dp2047
g92
g93
ssg81
g2041
sg74
(lp2048
g1457
asbag67
(g88
g69
NtRp2049
(dp2050
g72
(dp2051
g99
g100
ssg81
g2041
sg74
(lp2052
S':'
asbag67
(g88
g69
NtRp2053
(dp2054
g72
(dp2055
sg81
g2041
sg74
(lp2056
g67
(g68
g69
NtRp2057
(dp2058
g72
(dp2059
g80
I4
ssg81
g2053
sg74
(lp2060
g67
(g76
g69
NtRp2061
(dp2062
g72
(dp2063
g80
I3
ssg81
Nsg74
(lp2064
g67
(g83
g69
NtRp2065
(dp2066
g72
(dp2067
sg81
g2061
sg74
(lp2068
g67
(g88
g69
NtRp2069
(dp2070
g72
(dp2071
sg81
g2065
sg74
(lp2072
g67
(g68
g69
NtRp2073
(dp2074
g72
(dp2075
g80
I3
ssg81
g2069
sg74
(lp2076
S'1'
asbasbasbag67
(g83
g69
NtRp2077
(dp2078
g72
(dp2079
sg81
g2061
sg74
(lp2080
g67
(g88
g69
NtRp2081
(dp2082
g72
(dp2083
sg81
g2077
sg74
(lp2084
g67
(g68
g69
NtRp2085
(dp2086
g72
(dp2087
g80
I3
ssg81
g2081
sg74
(lp2088
S'99'
p2089
asbasbasbag67
(g83
g69
NtRp2090
(dp2091
g72
(dp2092
sg81
g2061
sg74
(lp2093
g67
(g88
g69
NtRp2094
(dp2095
g72
(dp2096
sg81
g2090
sg74
(lp2097
g67
(g68
g69
NtRp2098
(dp2099
g72
(dp2100
g80
I3
ssg81
g2094
sg74
(lp2101
S'2'
asbasbasbag67
(g83
g69
NtRp2102
(dp2103
g72
(dp2104
sg81
g2061
sg74
(lp2105
g67
(g88
g69
NtRp2106
(dp2107
g72
(dp2108
sg81
g2102
sg74
(lp2109
g67
(g68
g69
NtRp2110
(dp2111
g72
(dp2112
g80
I3
ssg81
g2106
sg74
(lp2113
S'datetime.datetime(2011, 9, 26, 6, 55, 33)'
p2114
asbasbasbag67
(g83
g69
NtRp2115
(dp2116
g72
(dp2117
sg81
g2061
sg74
(lp2118
g67
(g88
g69
NtRp2119
(dp2120
g72
(dp2121
sg81
g2115
sg74
(lp2122
g67
(g68
g69
NtRp2123
(dp2124
g72
(dp2125
g80
I3
ssg81
g2119
sg74
(lp2126
g1536
asbasbasbasbasbasbasbasbasbasbasbag67
(g83
g69
NtRp2127
(dp2128
g72
(dp2129
sg81
g77
sg74
(lp2130
g67
(g88
g69
NtRp2131
(dp2132
g72
(dp2133
g92
g93
ssg81
g2127
sg74
(lp2134
S'is_https'
p2135
asbag67
(g88
g69
NtRp2136
(dp2137
g72
(dp2138
g99
g100
ssg81
g2127
sg74
(lp2139
S':'
asbag67
(g88
g69
NtRp2140
(dp2141
g72
(dp2142
sg81
g2127
sg74
(lp2143
g67
(g68
g69
NtRp2144
(dp2145
g72
(dp2146
g80
I5
ssg81
g2140
sg74
(lp2147
g110
asbasbasbag67
(g83
g69
NtRp2148
(dp2149
g72
(dp2150
sg81
g77
sg74
(lp2151
g67
(g88
g69
NtRp2152
(dp2153
g72
(dp2154
g92
g93
ssg81
g2148
sg74
(lp2155
S'is_local'
p2156
asbag67
(g88
g69
NtRp2157
(dp2158
g72
(dp2159
g99
g100
ssg81
g2148
sg74
(lp2160
S':'
asbag67
(g88
g69
NtRp2161
(dp2162
g72
(dp2163
sg81
g2148
sg74
(lp2164
g67
(g68
g69
NtRp2165
(dp2166
g72
(dp2167
g80
I5
ssg81
g2161
sg74
(lp2168
g1645
asbasbasbag67
(g83
g69
NtRp2169
(dp2170
g72
(dp2171
sg81
g77
sg74
(lp2172
g67
(g88
g69
NtRp2173
(dp2174
g72
(dp2175
g92
g93
ssg81
g2169
sg74
(lp2176
S'is_restful'
p2177
asbag67
(g88
g69
NtRp2178
(dp2179
g72
(dp2180
g99
g100
ssg81
g2169
sg74
(lp2181
S':'
asbag67
(g88
g69
NtRp2182
(dp2183
g72
(dp2184
sg81
g2169
sg74
(lp2185
g67
(g68
g69
NtRp2186
(dp2187
g72
(dp2188
g80
I5
ssg81
g2182
sg74
(lp2189
g110
asbasbasbag67
(g83
g69
NtRp2190
(dp2191
g72
(dp2192
sg81
g77
sg74
(lp2193
g67
(g88
g69
NtRp2194
(dp2195
g72
(dp2196
g92
g93
ssg81
g2190
sg74
(lp2197
S'now'
p2198
asbag67
(g88
g69
NtRp2199
(dp2200
g72
(dp2201
g99
g100
ssg81
g2190
sg74
(lp2202
S':'
asbag67
(g88
g69
NtRp2203
(dp2204
g72
(dp2205
sg81
g2190
sg74
(lp2206
g67
(g68
g69
NtRp2207
(dp2208
g72
(dp2209
g80
I5
ssg81
g2203
sg74
(lp2210
S'datetime.datetime(2011, 11, 22, 12, 43, 57, 741397)'
p2211
asbasbasbag67
(g83
g69
NtRp2212
(dp2213
g72
(dp2214
sg81
g77
sg74
(lp2215
g67
(g88
g69
NtRp2216
(dp2217
g72
(dp2218
g92
g93
ssg81
g2212
sg74
(lp2219
S'post_vars'
p2220
asbag67
(g88
g69
NtRp2221
(dp2222
g72
(dp2223
g99
g100
ssg81
g2212
sg74
(lp2224
S':'
asbag67
(g88
g69
NtRp2225
(dp2226
g72
(dp2227
sg81
g2212
sg74
(lp2228
g67
(g68
g69
NtRp2229
(dp2230
g72
(dp2231
g80
I5
ssg81
g2225
sg74
(lp2232
g67
(g76
g69
NtRp2233
(dp2234
g72
(dp2235
g80
I4
ssg81
Nsg74
(lp2236
sbasbasbasbag67
(g83
g69
NtRp2237
(dp2238
g72
(dp2239
sg81
g77
sg74
(lp2240
g67
(g88
g69
NtRp2241
(dp2242
g72
(dp2243
g92
g93
ssg81
g2237
sg74
(lp2244
S'url'
p2245
asbag67
(g88
g69
NtRp2246
(dp2247
g72
(dp2248
g99
g100
ssg81
g2237
sg74
(lp2249
S':'
asbag67
(g88
g69
NtRp2250
(dp2251
g72
(dp2252
sg81
g2237
sg74
(lp2253
g67
(g68
g69
NtRp2254
(dp2255
g72
(dp2256
g80
I5
ssg81
g2250
sg74
(lp2257
S'/welcome/default/index'
p2258
asbasbasbag67
(g83
g69
NtRp2259
(dp2260
g72
(dp2261
sg81
g77
sg74
(lp2262
g67
(g88
g69
NtRp2263
(dp2264
g72
(dp2265
g92
g93
ssg81
g2259
sg74
(lp2266
S'utcnow'
p2267
asbag67
(g88
g69
NtRp2268
(dp2269
g72
(dp2270
g99
g100
ssg81
g2259
sg74
(lp2271
S':'
asbag67
(g88
g69
NtRp2272
(dp2273
g72
(dp2274
sg81
g2259
sg74
(lp2275
g67
(g68
g69
NtRp2276
(dp2277
g72
(dp2278
g80
I5
ssg81
g2272
sg74
(lp2279
S'datetime.datetime(2011, 11, 22, 20, 43, 57, 741460)'
p2280
asbasbasbag67
(g83
g69
NtRp2281
(dp2282
g72
(dp2283
sg81
g77
sg74
(lp2284
g67
(g88
g69
NtRp2285
(dp2286
g72
(dp2287
g92
g93
ssg81
g2281
sg74
(lp2288
S'uuid'
p2289
asbag67
(g88
g69
NtRp2290
(dp2291
g72
(dp2292
g99
g100
ssg81
g2281
sg74
(lp2293
S':'
asbag67
(g88
g69
NtRp2294
(dp2295
g72
(dp2296
sg81
g2281
sg74
(lp2297
g67
(g68
g69
NtRp2298
(dp2299
g72
(dp2300
g80
I5
ssg81
g2294
sg74
(lp2301
S'welcome/127.0.0.1.2011-11-22.12-43-57.29258bf8-1a67-4070-922c-72eaa42d99a1'
p2302
asbasbasbag67
(g83
g69
NtRp2303
(dp2304
g72
(dp2305
sg81
g77
sg74
(lp2306
g67
(g88
g69
NtRp2307
(dp2308
g72
(dp2309
g92
g93
ssg81
g2303
sg74
(lp2310
S'vars'
p2311
asbag67
(g88
g69
NtRp2312
(dp2313
g72
(dp2314
g99
g100
ssg81
g2303
sg74
(lp2315
S':'
asbag67
(g88
g69
NtRp2316
(dp2317
g72
(dp2318
sg81
g2303
sg74
(lp2319
g67
(g68
g69
NtRp2320
(dp2321
g72
(dp2322
g80
I5
ssg81
g2316
sg74
(lp2323
g67
(g76
g69
NtRp2324
(dp2325
g72
(dp2326
g80
I4
ssg81
Nsg74
(lp2327
sbasbasbasbag67
(g83
g69
NtRp2328
(dp2329
g72
(dp2330
sg81
g77
sg74
(lp2331
g67
(g88
g69
NtRp2332
(dp2333
g72
(dp2334
g92
g93
ssg81
g2328
sg74
(lp2335
S'wsgi'
p2336
asbag67
(g88
g69
NtRp2337
(dp2338
g72
(dp2339
g99
g100
ssg81
g2328
sg74
(lp2340
S':'
asbag67
(g88
g69
NtRp2341
(dp2342
g72
(dp2343
sg81
g2328
sg74
(lp2344
g67
(g68
g69
NtRp2345
(dp2346
g72
(dp2347
g80
I5
ssg81
g2341
sg74
(lp2348
g67
(g76
g69
NtRp2349
(dp2350
g72
(dp2351
g80
I4
ssg81
Nsg74
(lp2352
g67
(g83
g69
NtRp2353
(dp2354
g72
(dp2355
sg81
g2349
sg74
(lp2356
g67
(g88
g69
NtRp2357
(dp2358
g72
(dp2359
g92
g93
ssg81
g2353
sg74
(lp2360
S'environ'
p2361
asbag67
(g88
g69
NtRp2362
(dp2363
g72
(dp2364
g99
g100
ssg81
g2353
sg74
(lp2365
S':'
asbag67
(g88
g69
NtRp2366
(dp2367
g72
(dp2368
sg81
g2353
sg74
(lp2369
g67
(g68
g69
NtRp2370
(dp2371
g72
(dp2372
g80
I4
ssg81
g2366
sg74
(lp2373
g67
(g76
g69
NtRp2374
(dp2375
g72
(dp2376
g80
I3
ssg81
Nsg74
(lp2377
g67
(g83
g69
NtRp2378
(dp2379
g72
(dp2380
sg81
g2374
sg74
(lp2381
g67
(g88
g69
NtRp2382
(dp2383
g72
(dp2384
g92
g93
ssg81
g2378
sg74
(lp2385
S'HTTP_ACCEPT'
p2386
asbag67
(g88
g69
NtRp2387
(dp2388
g72
(dp2389
g99
g100
ssg81
g2378
sg74
(lp2390
S':'
asbag67
(g88
g69
NtRp2391
(dp2392
g72
(dp2393
sg81
g2378
sg74
(lp2394
g67
(g68
g69
NtRp2395
(dp2396
g72
(dp2397
g80
I3
ssg81
g2391
sg74
(lp2398
g1013
asbasbasbag67
(g83
g69
NtRp2399
(dp2400
g72
(dp2401
sg81
g2374
sg74
(lp2402
g67
(g88
g69
NtRp2403
(dp2404
g72
(dp2405
g92
g93
ssg81
g2399
sg74
(lp2406
S'HTTP_ACCEPT_CHARSET'
p2407
asbag67
(g88
g69
NtRp2408
(dp2409
g72
(dp2410
g99
g100
ssg81
g2399
sg74
(lp2411
S':'
asbag67
(g88
g69
NtRp2412
(dp2413
g72
(dp2414
sg81
g2399
sg74
(lp2415
g67
(g68
g69
NtRp2416
(dp2417
g72
(dp2418
g80
I3
ssg81
g2412
sg74
(lp2419
g1035
asbasbasbag67
(g83
g69
NtRp2420
(dp2421
g72
(dp2422
sg81
g2374
sg74
(lp2423
g67
(g88
g69
NtRp2424
(dp2425
g72
(dp2426
g92
g93
ssg81
g2420
sg74
(lp2427
S'HTTP_ACCEPT_ENCODING'
p2428
asbag67
(g88
g69
NtRp2429
(dp2430
g72
(dp2431
g99
g100
ssg81
g2420
sg74
(lp2432
S':'
asbag67
(g88
g69
NtRp2433
(dp2434
g72
(dp2435
sg81
g2420
sg74
(lp2436
g67
(g68
g69
NtRp2437
(dp2438
g72
(dp2439
g80
I3
ssg81
g2433
sg74
(lp2440
g1057
asbasbasbag67
(g83
g69
NtRp2441
(dp2442
g72
(dp2443
sg81
g2374
sg74
(lp2444
g67
(g88
g69
NtRp2445
(dp2446
g72
(dp2447
g92
g93
ssg81
g2441
sg74
(lp2448
S'HTTP_ACCEPT_LANGUAGE'
p2449
asbag67
(g88
g69
NtRp2450
(dp2451
g72
(dp2452
g99
g100
ssg81
g2441
sg74
(lp2453
S':'
asbag67
(g88
g69
NtRp2454
(dp2455
g72
(dp2456
sg81
g2441
sg74
(lp2457
g67
(g68
g69
NtRp2458
(dp2459
g72
(dp2460
g80
I3
ssg81
g2454
sg74
(lp2461
g1079
asbasbasbag67
(g83
g69
NtRp2462
(dp2463
g72
(dp2464
sg81
g2374
sg74
(lp2465
g67
(g88
g69
NtRp2466
(dp2467
g72
(dp2468
g92
g93
ssg81
g2462
sg74
(lp2469
S'HTTP_CONNECTION'
p2470
asbag67
(g88
g69
NtRp2471
(dp2472
g72
(dp2473
g99
g100
ssg81
g2462
sg74
(lp2474
S':'
asbag67
(g88
g69
NtRp2475
(dp2476
g72
(dp2477
sg81
g2462
sg74
(lp2478
g67
(g68
g69
NtRp2479
(dp2480
g72
(dp2481
g80
I3
ssg81
g2475
sg74
(lp2482
g1101
asbasbasbag67
(g83
g69
NtRp2483
(dp2484
g72
(dp2485
sg81
g2374
sg74
(lp2486
g67
(g88
g69
NtRp2487
(dp2488
g72
(dp2489
g92
g93
ssg81
g2483
sg74
(lp2490
S'HTTP_COOKIE'
p2491
asbag67
(g88
g69
NtRp2492
(dp2493
g72
(dp2494
g99
g100
ssg81
g2483
sg74
(lp2495
S':'
asbag67
(g88
g69
NtRp2496
(dp2497
g72
(dp2498
sg81
g2483
sg74
(lp2499
g67
(g68
g69
NtRp2500
(dp2501
g72
(dp2502
g80
I3
ssg81
g2496
sg74
(lp2503
g1123
asbasbasbag67
(g83
g69
NtRp2504
(dp2505
g72
(dp2506
sg81
g2374
sg74
(lp2507
g67
(g88
g69
NtRp2508
(dp2509
g72
(dp2510
g92
g93
ssg81
g2504
sg74
(lp2511
S'HTTP_HOST'
p2512
asbag67
(g88
g69
NtRp2513
(dp2514
g72
(dp2515
g99
g100
ssg81
g2504
sg74
(lp2516
S':'
asbag67
(g88
g69
NtRp2517
(dp2518
g72
(dp2519
sg81
g2504
sg74
(lp2520
g67
(g68
g69
NtRp2521
(dp2522
g72
(dp2523
g80
I3
ssg81
g2517
sg74
(lp2524
g1145
asbasbasbag67
(g83
g69
NtRp2525
(dp2526
g72
(dp2527
sg81
g2374
sg74
(lp2528
g67
(g88
g69
NtRp2529
(dp2530
g72
(dp2531
g92
g93
ssg81
g2525
sg74
(lp2532
S'HTTP_USER_AGENT'
p2533
asbag67
(g88
g69
NtRp2534
(dp2535
g72
(dp2536
g99
g100
ssg81
g2525
sg74
(lp2537
S':'
asbag67
(g88
g69
NtRp2538
(dp2539
g72
(dp2540
sg81
g2525
sg74
(lp2541
g67
(g68
g69
NtRp2542
(dp2543
g72
(dp2544
g80
I3
ssg81
g2538
sg74
(lp2545
g1167
asbasbasbag67
(g83
g69
NtRp2546
(dp2547
g72
(dp2548
sg81
g2374
sg74
(lp2549
g67
(g88
g69
NtRp2550
(dp2551
g72
(dp2552
g92
g93
ssg81
g2546
sg74
(lp2553
S'PATH_INFO'
p2554
asbag67
(g88
g69
NtRp2555
(dp2556
g72
(dp2557
g99
g100
ssg81
g2546
sg74
(lp2558
S':'
asbag67
(g88
g69
NtRp2559
(dp2560
g72
(dp2561
sg81
g2546
sg74
(lp2562
g67
(g68
g69
NtRp2563
(dp2564
g72
(dp2565
g80
I3
ssg81
g2559
sg74
(lp2566
g1210
asbasbasbag67
(g83
g69
NtRp2567
(dp2568
g72
(dp2569
sg81
g2374
sg74
(lp2570
g67
(g88
g69
NtRp2571
(dp2572
g72
(dp2573
g92
g93
ssg81
g2567
sg74
(lp2574
S'QUERY_STRING'
p2575
asbag67
(g88
g69
NtRp2576
(dp2577
g72
(dp2578
g99
g100
ssg81
g2567
sg74
(lp2579
S':'
asbag67
(g88
g69
NtRp2580
(dp2581
g72
(dp2582
sg81
g2567
sg74
(lp2583
g67
(g68
g69
NtRp2584
(dp2585
g72
(dp2586
g80
I3
ssg81
g2580
sg74
(lp2587
S''
asbasbasbag67
(g83
g69
NtRp2588
(dp2589
g72
(dp2590
sg81
g2374
sg74
(lp2591
g67
(g88
g69
NtRp2592
(dp2593
g72
(dp2594
g92
g93
ssg81
g2588
sg74
(lp2595
S'REMOTE_ADDR'
p2596
asbag67
(g88
g69
NtRp2597
(dp2598
g72
(dp2599
g99
g100
ssg81
g2588
sg74
(lp2600
S':'
asbag67
(g88
g69
NtRp2601
(dp2602
g72
(dp2603
sg81
g2588
sg74
(lp2604
g67
(g68
g69
NtRp2605
(dp2606
g72
(dp2607
g80
I3
ssg81
g2601
sg74
(lp2608
g200
asbasbasbag67
(g83
g69
NtRp2609
(dp2610
g72
(dp2611
sg81
g2374
sg74
(lp2612
g67
(g88
g69
NtRp2613
(dp2614
g72
(dp2615
g92
g93
ssg81
g2609
sg74
(lp2616
S'REMOTE_PORT'
p2617
asbag67
(g88
g69
NtRp2618
(dp2619
g72
(dp2620
g99
g100
ssg81
g2609
sg74
(lp2621
S':'
asbag67
(g88
g69
NtRp2622
(dp2623
g72
(dp2624
sg81
g2609
sg74
(lp2625
g67
(g68
g69
NtRp2626
(dp2627
g72
(dp2628
g80
I3
ssg81
g2622
sg74
(lp2629
g1274
asbasbasbag67
(g83
g69
NtRp2630
(dp2631
g72
(dp2632
sg81
g2374
sg74
(lp2633
g67
(g88
g69
NtRp2634
(dp2635
g72
(dp2636
g92
g93
ssg81
g2630
sg74
(lp2637
S'REQUEST_METHOD'
p2638
asbag67
(g88
g69
NtRp2639
(dp2640
g72
(dp2641
g99
g100
ssg81
g2630
sg74
(lp2642
S':'
asbag67
(g88
g69
NtRp2643
(dp2644
g72
(dp2645
sg81
g2630
sg74
(lp2646
g67
(g68
g69
NtRp2647
(dp2648
g72
(dp2649
g80
I3
ssg81
g2643
sg74
(lp2650
g1296
asbasbasbag67
(g83
g69
NtRp2651
(dp2652
g72
(dp2653
sg81
g2374
sg74
(lp2654
g67
(g88
g69
NtRp2655
(dp2656
g72
(dp2657
g92
g93
ssg81
g2651
sg74
(lp2658
S'SCRIPT_NAME'
p2659
asbag67
(g88
g69
NtRp2660
(dp2661
g72
(dp2662
g99
g100
ssg81
g2651
sg74
(lp2663
S':'
asbag67
(g88
g69
NtRp2664
(dp2665
g72
(dp2666
sg81
g2651
sg74
(lp2667
g67
(g68
g69
NtRp2668
(dp2669
g72
(dp2670
g80
I3
ssg81
g2664
sg74
(lp2671
S''
asbasbasbag67
(g83
g69
NtRp2672
(dp2673
g72
(dp2674
sg81
g2374
sg74
(lp2675
g67
(g88
g69
NtRp2676
(dp2677
g72
(dp2678
g92
g93
ssg81
g2672
sg74
(lp2679
S'SERVER_NAME'
p2680
asbag67
(g88
g69
NtRp2681
(dp2682
g72
(dp2683
g99
g100
ssg81
g2672
sg74
(lp2684
S':'
asbag67
(g88
g69
NtRp2685
(dp2686
g72
(dp2687
sg81
g2672
sg74
(lp2688
g67
(g68
g69
NtRp2689
(dp2690
g72
(dp2691
g80
I3
ssg81
g2685
sg74
(lp2692
g1339
asbasbasbag67
(g83
g69
NtRp2693
(dp2694
g72
(dp2695
sg81
g2374
sg74
(lp2696
g67
(g88
g69
NtRp2697
(dp2698
g72
(dp2699
g92
g93
ssg81
g2693
sg74
(lp2700
S'SERVER_PORT'
p2701
asbag67
(g88
g69
NtRp2702
(dp2703
g72
(dp2704
g99
g100
ssg81
g2693
sg74
(lp2705
S':'
asbag67
(g88
g69
NtRp2706
(dp2707
g72
(dp2708
sg81
g2693
sg74
(lp2709
g67
(g68
g69
NtRp2710
(dp2711
g72
(dp2712
g80
I3
ssg81
g2706
sg74
(lp2713
g1361
asbasbasbag67
(g83
g69
NtRp2714
(dp2715
g72
(dp2716
sg81
g2374
sg74
(lp2717
g67
(g88
g69
NtRp2718
(dp2719
g72
(dp2720
g92
g93
ssg81
g2714
sg74
(lp2721
S'SERVER_PROTOCOL'
p2722
asbag67
(g88
g69
NtRp2723
(dp2724
g72
(dp2725
g99
g100
ssg81
g2714
sg74
(lp2726
S':'
asbag67
(g88
g69
NtRp2727
(dp2728
g72
(dp2729
sg81
g2714
sg74
(lp2730
g67
(g68
g69
NtRp2731
(dp2732
g72
(dp2733
g80
I3
ssg81
g2727
sg74
(lp2734
g1383
asbasbasbag67
(g83
g69
NtRp2735
(dp2736
g72
(dp2737
sg81
g2374
sg74
(lp2738
g67
(g88
g69
NtRp2739
(dp2740
g72
(dp2741
g92
g93
ssg81
g2735
sg74
(lp2742
S'SERVER_SOFTWARE'
p2743
asbag67
(g88
g69
NtRp2744
(dp2745
g72
(dp2746
g99
g100
ssg81
g2735
sg74
(lp2747
S':'
asbag67
(g88
g69
NtRp2748
(dp2749
g72
(dp2750
sg81
g2735
sg74
(lp2751
g67
(g68
g69
NtRp2752
(dp2753
g72
(dp2754
g80
I3
ssg81
g2748
sg74
(lp2755
g1405
asbasbasbag67
(g83
g69
NtRp2756
(dp2757
g72
(dp2758
sg81
g2374
sg74
(lp2759
g67
(g88
g69
NtRp2760
(dp2761
g72
(dp2762
g92
g93
ssg81
g2756
sg74
(lp2763
S'wsgi.errors'
p2764
asbag67
(g88
g69
NtRp2765
(dp2766
g72
(dp2767
g99
g100
ssg81
g2756
sg74
(lp2768
S':'
asbag67
(g88
g69
NtRp2769
(dp2770
g72
(dp2771
sg81
g2756
sg74
(lp2772
g67
(g68
g69
NtRp2773
(dp2774
g72
(dp2775
g80
I3
ssg81
g2769
sg74
(lp2776
S"<open file '<stderr>', mode 'w' at 0x7fd0217ab270>"
p2777
asbasbasbag67
(g83
g69
NtRp2778
(dp2779
g72
(dp2780
sg81
g2374
sg74
(lp2781
g67
(g88
g69
NtRp2782
(dp2783
g72
(dp2784
g92
g93
ssg81
g2778
sg74
(lp2785
S'wsgi.file_wrapper'
p2786
asbag67
(g88
g69
NtRp2787
(dp2788
g72
(dp2789
g99
g100
ssg81
g2778
sg74
(lp2790
S':'
asbag67
(g88
g69
NtRp2791
(dp2792
g72
(dp2793
sg81
g2778
sg74
(lp2794
g67
(g68
g69
NtRp2795
(dp2796
g72
(dp2797
g80
I3
ssg81
g2791
sg74
(lp2798
S'<class wsgiref.util.FileWrapper at 0x20f0808>'
p2799
asbasbasbag67
(g83
g69
NtRp2800
(dp2801
g72
(dp2802
sg81
g2374
sg74
(lp2803
g67
(g88
g69
NtRp2804
(dp2805
g72
(dp2806
g92
g93
ssg81
g2800
sg74
(lp2807
S'wsgi.input'
p2808
asbag67
(g88
g69
NtRp2809
(dp2810
g72
(dp2811
g99
g100
ssg81
g2800
sg74
(lp2812
S':'
asbag67
(g88
g69
NtRp2813
(dp2814
g72
(dp2815
sg81
g2800
sg74
(lp2816
g67
(g68
g69
NtRp2817
(dp2818
g72
(dp2819
g80
I3
ssg81
g2813
sg74
(lp2820
S'<cStringIO.StringO object at 0x2987998>'
p2821
asbasbasbag67
(g83
g69
NtRp2822
(dp2823
g72
(dp2824
sg81
g2374
sg74
(lp2825
g67
(g88
g69
NtRp2826
(dp2827
g72
(dp2828
g92
g93
ssg81
g2822
sg74
(lp2829
S'wsgi.multiprocess'
p2830
asbag67
(g88
g69
NtRp2831
(dp2832
g72
(dp2833
g99
g100
ssg81
g2822
sg74
(lp2834
S':'
asbag67
(g88
g69
NtRp2835
(dp2836
g72
(dp2837
sg81
g2822
sg74
(lp2838
g67
(g68
g69
NtRp2839
(dp2840
g72
(dp2841
g80
I3
ssg81
g2835
sg74
(lp2842
g110
asbasbasbag67
(g83
g69
NtRp2843
(dp2844
g72
(dp2845
sg81
g2374
sg74
(lp2846
g67
(g88
g69
NtRp2847
(dp2848
g72
(dp2849
g92
g93
ssg81
g2843
sg74
(lp2850
S'wsgi.multithread'
p2851
asbag67
(g88
g69
NtRp2852
(dp2853
g72
(dp2854
g99
g100
ssg81
g2843
sg74
(lp2855
S':'
asbag67
(g88
g69
NtRp2856
(dp2857
g72
(dp2858
sg81
g2843
sg74
(lp2859
g67
(g68
g69
NtRp2860
(dp2861
g72
(dp2862
g80
I3
ssg81
g2856
sg74
(lp2863
g1645
asbasbasbag67
(g83
g69
NtRp2864
(dp2865
g72
(dp2866
sg81
g2374
sg74
(lp2867
g67
(g88
g69
NtRp2868
(dp2869
g72
(dp2870
g92
g93
ssg81
g2864
sg74
(lp2871
S'wsgi.run_once'
p2872
asbag67
(g88
g69
NtRp2873
(dp2874
g72
(dp2875
g99
g100
ssg81
g2864
sg74
(lp2876
S':'
asbag67
(g88
g69
NtRp2877
(dp2878
g72
(dp2879
sg81
g2864
sg74
(lp2880
g67
(g68
g69
NtRp2881
(dp2882
g72
(dp2883
g80
I3
ssg81
g2877
sg74
(lp2884
g110
asbasbasbag67
(g83
g69
NtRp2885
(dp2886
g72
(dp2887
sg81
g2374
sg74
(lp2888
g67
(g88
g69
NtRp2889
(dp2890
g72
(dp2891
g92
g93
ssg81
g2885
sg74
(lp2892
S'wsgi.url_scheme'
p2893
asbag67
(g88
g69
NtRp2894
(dp2895
g72
(dp2896
g99
g100
ssg81
g2885
sg74
(lp2897
S':'
asbag67
(g88
g69
NtRp2898
(dp2899
g72
(dp2900
sg81
g2885
sg74
(lp2901
g67
(g68
g69
NtRp2902
(dp2903
g72
(dp2904
g80
I3
ssg81
g2898
sg74
(lp2905
g1688
asbasbasbag67
(g83
g69
NtRp2906
(dp2907
g72
(dp2908
sg81
g2374
sg74
(lp2909
g67
(g88
g69
NtRp2910
(dp2911
g72
(dp2912
g92
g93
ssg81
g2906
sg74
(lp2913
S'wsgi.version'
p2914
asbag67
(g88
g69
NtRp2915
(dp2916
g72
(dp2917
g99
g100
ssg81
g2906
sg74
(lp2918
S':'
asbag67
(g88
g69
NtRp2919
(dp2920
g72
(dp2921
sg81
g2906
sg74
(lp2922
g67
(g68
g69
NtRp2923
(dp2924
g72
(dp2925
g80
I3
ssg81
g2919
sg74
(lp2926
S'1'
asbasbasbasbasbasbasbasbasbasbasbasbasbsS'frames'
p2927
(lp2928
(dp2929
S'file'
p2930
S'/home/ian/web2py/gluon/restricted.py'
p2931
sS'dump'
p2932
(dp2933
S'code'
p2934
S'r"left_sidebar_enabled=right_sidebar_enabled=False...nse.write(\'\\n  </body>\\n</html>\\n\', escape=False)"'
p2935
sS'layer'
p2936
S"'/home/ian/web2py/applications/welcome/views/default/index.html'"
p2937
sS'global compile2'
p2938
S'<function compile2>'
p2939
sS'ccode'
p2940
S'undefined'
p2941
ssS'lnum'
p2942
I193
sS'lines'
p2943
(dp2944
I192
S'        else:'
p2945
sI193
S'            ccode = compile2(code,layer)'
p2946
sI194
S'        exec ccode in environment'
p2947
sI195
S'    except HTTP:'
p2948
sI196
S'        raise'
p2949
sI197
S'    except Exception, error:'
p2950
sI188
S"    environment['__file__'] = layer"
p2951
sI189
S'    try:'
p2952
sI190
S'        if type(code) == types.CodeType:'
p2953
sI191
S'            ccode = code'
p2954
ssS'call'
p2955
S'(code=r"left_sidebar_enabled=right_sidebar_enabled=False...nse.write(\'\\n  </body>\\n</html>\\n\', escape=False)", environment={\'A\': <class \'gluon.html.A\'>, \'Auth\': <class \'gluon.tools.Auth\'>, \'B\': <class \'gluon.html.B\'>, \'BEAUTIFY\': <class \'gluon.html.BEAUTIFY\'>, \'BODY\': <class \'gluon.html.BODY\'>, \'BR\': <class \'gluon.html.BR\'>, \'BUTTON\': <class \'gluon.html.BUTTON\'>, \'CAT\': <class \'gluon.html.CAT\'>, \'CENTER\': <class \'gluon.html.CENTER\'>, \'CLEANUP\': <class \'gluon.validators.CLEANUP\'>, ...}, layer=\'/home/ian/web2py/applications/welcome/views/default/index.html\')'
p2956
sS'func'
p2957
S'restricted'
p2958
sa(dp2959
g2930
S'/home/ian/web2py/gluon/restricted.py'
p2960
sg2932
(dp2961
S'builtincompile'
p2962
S'<built-in function compile>'
p2963
sS'code'
p2964
S'r"left_sidebar_enabled=right_sidebar_enabled=False...nse.write(\'\\n  </body>\\n</html>\\n\', escape=False)"'
p2965
sS'code.rstrip'
p2966
S'<built-in method rstrip of str object>'
p2967
sS').replace'
p2968
g2941
sS'layer'
p2969
S"'/home/ian/web2py/applications/welcome/views/default/index.html'"
p2970
ssg2942
I179
sg2943
(dp2971
I174
S''
sI175
S'def compile2(code,layer):'
p2972
sI176
S'    """'
p2973
sI177
S"    The +'\\n' is necessary else compile fails when code ends in a comment."
p2974
sI178
S'    """'
p2975
sI179
S"    return compile(code.rstrip().replace('\\r\\n','\\n')+'\\n', layer, 'exec')"
p2976
sI180
S''
sI181
S"def restricted(code, environment=None, layer='Unknown'):"
p2977
sI182
S'    """'
p2978
sI183
S'    runs code in environment and returns the output. if an exception occurs'
p2979
ssg2955
S'(code=r"left_sidebar_enabled=right_sidebar_enabled=False...nse.write(\'\\n  </body>\\n</html>\\n\', escape=False)", layer=\'/home/ian/web2py/applications/welcome/views/default/index.html\')'
p2980
sg2957
S'compile2'
p2981
sasS'pyver'
p2982
S'Python 2.7.2+: /usr/bin/python2.7'
p2983
sS'session'
p2984
g67
(g68
g69
NtRp2985
(dp2986
g72
(dp2987
sg74
(lp2988
g67
(g76
g69
NtRp2989
(dp2990
g72
(dp2991
g80
I5
ssg81
Nsg74
(lp2992
sbasbsS'etype'
p2993
S"<type 'exceptions.SyntaxError'>"
p2994
sS'date'
p2995
S'Tue Nov 22 12:43:57 2011'
p2996
sS'response'
p2997
g67
(g68
g69
NtRp2998
(dp2999
g72
(dp3000
sg74
(lp3001
g67
(g76
g69
NtRp3002
(dp3003
g72
(dp3004
g80
I5
ssg81
Nsg74
(lp3005
g67
(g83
g69
NtRp3006
(dp3007
g72
(dp3008
sg81
g3002
sg74
(lp3009
g67
(g88
g69
NtRp3010
(dp3011
g72
(dp3012
g92
g93
ssg81
g3006
sg74
(lp3013
g165
asbag67
(g88
g69
NtRp3014
(dp3015
g72
(dp3016
g99
g100
ssg81
g3006
sg74
(lp3017
S':'
asbag67
(g88
g69
NtRp3018
(dp3019
g72
(dp3020
sg81
g3006
sg74
(lp3021
g67
(g68
g69
NtRp3022
(dp3023
g72
(dp3024
g80
I5
ssg81
g3018
sg74
(lp3025
S'<cStringIO.StringO object at 0x2797bc8>'
p3026
asbasbasbag67
(g83
g69
NtRp3027
(dp3028
g72
(dp3029
sg81
g3002
sg74
(lp3030
g67
(g88
g69
NtRp3031
(dp3032
g72
(dp3033
g92
g93
ssg81
g3027
sg74
(lp3034
g231
asbag67
(g88
g69
NtRp3035
(dp3036
g72
(dp3037
g99
g100
ssg81
g3027
sg74
(lp3038
S':'
asbag67
(g88
g69
NtRp3039
(dp3040
g72
(dp3041
sg81
g3027
sg74
(lp3042
g67
(g68
g69
NtRp3043
(dp3044
g72
(dp3045
g80
I5
ssg81
g3039
sg74
(lp3046
g67
(g76
g69
NtRp3047
(dp3048
g72
(dp3049
g80
I4
ssg81
Nsg74
(lp3050
g67
(g83
g69
NtRp3051
(dp3052
g72
(dp3053
sg81
g3047
sg74
(lp3054
g67
(g88
g69
NtRp3055
(dp3056
g72
(dp3057
g92
g93
ssg81
g3051
sg74
(lp3058
S'session_id_welcome'
p3059
asbag67
(g88
g69
NtRp3060
(dp3061
g72
(dp3062
g99
g100
ssg81
g3051
sg74
(lp3063
S':'
asbag67
(g88
g69
NtRp3064
(dp3065
g72
(dp3066
sg81
g3051
sg74
(lp3067
g67
(g68
g69
NtRp3068
(dp3069
g72
(dp3070
g80
I4
ssg81
g3064
sg74
(lp3071
g67
(g76
g69
NtRp3072
(dp3073
g72
(dp3074
g80
I3
ssg81
Nsg74
(lp3075
g67
(g83
g69
NtRp3076
(dp3077
g72
(dp3078
sg81
g3072
sg74
(lp3079
g67
(g88
g69
NtRp3080
(dp3081
g72
(dp3082
g92
g93
ssg81
g3076
sg74
(lp3083
g281
asbag67
(g88
g69
NtRp3084
(dp3085
g72
(dp3086
g99
g100
ssg81
g3076
sg74
(lp3087
S':'
asbag67
(g88
g69
NtRp3088
(dp3089
g72
(dp3090
sg81
g3076
sg74
(lp3091
g67
(g68
g69
NtRp3092
(dp3093
g72
(dp3094
g80
I3
ssg81
g3088
sg74
(lp3095
S''
asbasbasbag67
(g83
g69
NtRp3096
(dp3097
g72
(dp3098
sg81
g3072
sg74
(lp3099
g67
(g88
g69
NtRp3100
(dp3101
g72
(dp3102
g92
g93
ssg81
g3096
sg74
(lp3103
g302
asbag67
(g88
g69
NtRp3104
(dp3105
g72
(dp3106
g99
g100
ssg81
g3096
sg74
(lp3107
S':'
asbag67
(g88
g69
NtRp3108
(dp3109
g72
(dp3110
sg81
g3096
sg74
(lp3111
g67
(g68
g69
NtRp3112
(dp3113
g72
(dp3114
g80
I3
ssg81
g3108
sg74
(lp3115
S''
asbasbasbag67
(g83
g69
NtRp3116
(dp3117
g72
(dp3118
sg81
g3072
sg74
(lp3119
g67
(g88
g69
NtRp3120
(dp3121
g72
(dp3122
g92
g93
ssg81
g3116
sg74
(lp3123
g323
asbag67
(g88
g69
NtRp3124
(dp3125
g72
(dp3126
g99
g100
ssg81
g3116
sg74
(lp3127
S':'
asbag67
(g88
g69
NtRp3128
(dp3129
g72
(dp3130
sg81
g3116
sg74
(lp3131
g67
(g68
g69
NtRp3132
(dp3133
g72
(dp3134
g80
I3
ssg81
g3128
sg74
(lp3135
S''
asbasbasbag67
(g83
g69
NtRp3136
(dp3137
g72
(dp3138
sg81
g3072
sg74
(lp3139
g67
(g88
g69
NtRp3140
(dp3141
g72
(dp3142
g92
g93
ssg81
g3136
sg74
(lp3143
g344
asbag67
(g88
g69
NtRp3144
(dp3145
g72
(dp3146
g99
g100
ssg81
g3136
sg74
(lp3147
S':'
asbag67
(g88
g69
NtRp3148
(dp3149
g72
(dp3150
sg81
g3136
sg74
(lp3151
g67
(g68
g69
NtRp3152
(dp3153
g72
(dp3154
g80
I3
ssg81
g3148
sg74
(lp3155
S''
asbasbasbag67
(g83
g69
NtRp3156
(dp3157
g72
(dp3158
sg81
g3072
sg74
(lp3159
g67
(g88
g69
NtRp3160
(dp3161
g72
(dp3162
g92
g93
ssg81
g3156
sg74
(lp3163
g365
asbag67
(g88
g69
NtRp3164
(dp3165
g72
(dp3166
g99
g100
ssg81
g3156
sg74
(lp3167
S':'
asbag67
(g88
g69
NtRp3168
(dp3169
g72
(dp3170
sg81
g3156
sg74
(lp3171
g67
(g68
g69
NtRp3172
(dp3173
g72
(dp3174
g80
I3
ssg81
g3168
sg74
(lp3175
S''
asbasbasbag67
(g83
g69
NtRp3176
(dp3177
g72
(dp3178
sg81
g3072
sg74
(lp3179
g67
(g88
g69
NtRp3180
(dp3181
g72
(dp3182
g92
g93
ssg81
g3176
sg74
(lp3183
g386
asbag67
(g88
g69
NtRp3184
(dp3185
g72
(dp3186
g99
g100
ssg81
g3176
sg74
(lp3187
S':'
asbag67
(g88
g69
NtRp3188
(dp3189
g72
(dp3190
sg81
g3176
sg74
(lp3191
g67
(g68
g69
NtRp3192
(dp3193
g72
(dp3194
g80
I3
ssg81
g3188
sg74
(lp3195
S'/'
asbasbasbag67
(g83
g69
NtRp3196
(dp3197
g72
(dp3198
sg81
g3072
sg74
(lp3199
g67
(g88
g69
NtRp3200
(dp3201
g72
(dp3202
g92
g93
ssg81
g3196
sg74
(lp3203
g407
asbag67
(g88
g69
NtRp3204
(dp3205
g72
(dp3206
g99
g100
ssg81
g3196
sg74
(lp3207
S':'
asbag67
(g88
g69
NtRp3208
(dp3209
g72
(dp3210
sg81
g3196
sg74
(lp3211
g67
(g68
g69
NtRp3212
(dp3213
g72
(dp3214
g80
I3
ssg81
g3208
sg74
(lp3215
S''
asbasbasbag67
(g83
g69
NtRp3216
(dp3217
g72
(dp3218
sg81
g3072
sg74
(lp3219
g67
(g88
g69
NtRp3220
(dp3221
g72
(dp3222
g92
g93
ssg81
g3216
sg74
(lp3223
g428
asbag67
(g88
g69
NtRp3224
(dp3225
g72
(dp3226
g99
g100
ssg81
g3216
sg74
(lp3227
S':'
asbag67
(g88
g69
NtRp3228
(dp3229
g72
(dp3230
sg81
g3216
sg74
(lp3231
g67
(g68
g69
NtRp3232
(dp3233
g72
(dp3234
g80
I3
ssg81
g3228
sg74
(lp3235
S''
asbasbasbasbasbasbasbasbasbasbasbag67
(g83
g69
NtRp3236
(dp3237
g72
(dp3238
sg81
g3002
sg74
(lp3239
g67
(g88
g69
NtRp3240
(dp3241
g72
(dp3242
g92
g93
ssg81
g3236
sg74
(lp3243
S'files'
p3244
asbag67
(g88
g69
NtRp3245
(dp3246
g72
(dp3247
g99
g100
ssg81
g3236
sg74
(lp3248
S':'
asbag67
(g88
g69
NtRp3249
(dp3250
g72
(dp3251
sg81
g3236
sg74
(lp3252
g67
(g68
g69
NtRp3253
(dp3254
g72
(dp3255
g80
I5
ssg81
g3249
sg74
(lp3256
g67
(g76
g69
NtRp3257
(dp3258
g72
(dp3259
g80
I4
ssg81
Nsg74
(lp3260
sbasbasbasbag67
(g83
g69
NtRp3261
(dp3262
g72
(dp3263
sg81
g3002
sg74
(lp3264
g67
(g88
g69
NtRp3265
(dp3266
g72
(dp3267
g92
g93
ssg81
g3261
sg74
(lp3268
S'flash'
p3269
asbag67
(g88
g69
NtRp3270
(dp3271
g72
(dp3272
g99
g100
ssg81
g3261
sg74
(lp3273
S':'
asbag67
(g88
g69
NtRp3274
(dp3275
g72
(dp3276
sg81
g3261
sg74
(lp3277
g67
(g68
g69
NtRp3278
(dp3279
g72
(dp3280
g80
I5
ssg81
g3274
sg74
(lp3281
S''
asbasbasbag67
(g83
g69
NtRp3282
(dp3283
g72
(dp3284
sg81
g3002
sg74
(lp3285
g67
(g88
g69
NtRp3286
(dp3287
g72
(dp3288
g92
g93
ssg81
g3282
sg74
(lp3289
S'generic_patterns'
p3290
asbag67
(g88
g69
NtRp3291
(dp3292
g72
(dp3293
g99
g100
ssg81
g3282
sg74
(lp3294
S':'
asbag67
(g88
g69
NtRp3295
(dp3296
g72
(dp3297
sg81
g3282
sg74
(lp3298
g67
(g68
g69
NtRp3299
(dp3300
g72
(dp3301
g80
I5
ssg81
g3295
sg74
(lp3302
g67
(g76
g69
NtRp3303
(dp3304
g72
(dp3305
g80
I4
ssg81
Nsg74
(lp3306
g67
(g83
g69
NtRp3307
(dp3308
g72
(dp3309
sg81
g3303
sg74
(lp3310
g67
(g88
g69
NtRp3311
(dp3312
g72
(dp3313
sg81
g3307
sg74
(lp3314
g67
(g68
g69
NtRp3315
(dp3316
g72
(dp3317
g80
I4
ssg81
g3311
sg74
(lp3318
S'*'
asbasbasbasbasbasbasbag67
(g83
g69
NtRp3319
(dp3320
g72
(dp3321
sg81
g3002
sg74
(lp3322
g67
(g88
g69
NtRp3323
(dp3324
g72
(dp3325
g92
g93
ssg81
g3319
sg74
(lp3326
S'headers'
p3327
asbag67
(g88
g69
NtRp3328
(dp3329
g72
(dp3330
g99
g100
ssg81
g3319
sg74
(lp3331
S':'
asbag67
(g88
g69
NtRp3332
(dp3333
g72
(dp3334
sg81
g3319
sg74
(lp3335
g67
(g68
g69
NtRp3336
(dp3337
g72
(dp3338
g80
I5
ssg81
g3332
sg74
(lp3339
g67
(g76
g69
NtRp3340
(dp3341
g72
(dp3342
g80
I4
ssg81
Nsg74
(lp3343
g67
(g83
g69
NtRp3344
(dp3345
g72
(dp3346
sg81
g3340
sg74
(lp3347
g67
(g88
g69
NtRp3348
(dp3349
g72
(dp3350
g92
g93
ssg81
g3344
sg74
(lp3351
S'Cache-Control'
p3352
asbag67
(g88
g69
NtRp3353
(dp3354
g72
(dp3355
g99
g100
ssg81
g3344
sg74
(lp3356
S':'
asbag67
(g88
g69
NtRp3357
(dp3358
g72
(dp3359
sg81
g3344
sg74
(lp3360
g67
(g68
g69
NtRp3361
(dp3362
g72
(dp3363
g80
I4
ssg81
g3357
sg74
(lp3364
S'no-store, no-cache, must-revalidate, post-check=0, pre-check=0'
p3365
asbasbasbag67
(g83
g69
NtRp3366
(dp3367
g72
(dp3368
sg81
g3340
sg74
(lp3369
g67
(g88
g69
NtRp3370
(dp3371
g72
(dp3372
g92
g93
ssg81
g3366
sg74
(lp3373
S'Content-Type'
p3374
asbag67
(g88
g69
NtRp3375
(dp3376
g72
(dp3377
g99
g100
ssg81
g3366
sg74
(lp3378
S':'
asbag67
(g88
g69
NtRp3379
(dp3380
g72
(dp3381
sg81
g3366
sg74
(lp3382
g67
(g68
g69
NtRp3383
(dp3384
g72
(dp3385
g80
I4
ssg81
g3379
sg74
(lp3386
S'text/html; charset=utf-8'
p3387
asbasbasbag67
(g83
g69
NtRp3388
(dp3389
g72
(dp3390
sg81
g3340
sg74
(lp3391
g67
(g88
g69
NtRp3392
(dp3393
g72
(dp3394
g92
g93
ssg81
g3388
sg74
(lp3395
S'Expires'
p3396
asbag67
(g88
g69
NtRp3397
(dp3398
g72
(dp3399
g99
g100
ssg81
g3388
sg74
(lp3400
S':'
asbag67
(g88
g69
NtRp3401
(dp3402
g72
(dp3403
sg81
g3388
sg74
(lp3404
g67
(g68
g69
NtRp3405
(dp3406
g72
(dp3407
g80
I4
ssg81
g3401
sg74
(lp3408
S'Tue, 22 Nov 2011 20:43:57 GMT'
p3409
asbasbasbag67
(g83
g69
NtRp3410
(dp3411
g72
(dp3412
sg81
g3340
sg74
(lp3413
g67
(g88
g69
NtRp3414
(dp3415
g72
(dp3416
g92
g93
ssg81
g3410
sg74
(lp3417
S'Pragma'
p3418
asbag67
(g88
g69
NtRp3419
(dp3420
g72
(dp3421
g99
g100
ssg81
g3410
sg74
(lp3422
S':'
asbag67
(g88
g69
NtRp3423
(dp3424
g72
(dp3425
sg81
g3410
sg74
(lp3426
g67
(g68
g69
NtRp3427
(dp3428
g72
(dp3429
g80
I4
ssg81
g3423
sg74
(lp3430
S'no-cache'
p3431
asbasbasbag67
(g83
g69
NtRp3432
(dp3433
g72
(dp3434
sg81
g3340
sg74
(lp3435
g67
(g88
g69
NtRp3436
(dp3437
g72
(dp3438
g92
g93
ssg81
g3432
sg74
(lp3439
S'X-Powered-By'
p3440
asbag67
(g88
g69
NtRp3441
(dp3442
g72
(dp3443
g99
g100
ssg81
g3432
sg74
(lp3444
S':'
asbag67
(g88
g69
NtRp3445
(dp3446
g72
(dp3447
sg81
g3432
sg74
(lp3448
g67
(g68
g69
NtRp3449
(dp3450
g72
(dp3451
g80
I4
ssg81
g3445
sg74
(lp3452
S'web2py'
p3453
asbasbasbasbasbasbasbag67
(g83
g69
NtRp3454
(dp3455
g72
(dp3456
sg81
g3002
sg74
(lp3457
g67
(g88
g69
NtRp3458
(dp3459
g72
(dp3460
g92
g93
ssg81
g3454
sg74
(lp3461
S'menu'
p3462
asbag67
(g88
g69
NtRp3463
(dp3464
g72
(dp3465
g99
g100
ssg81
g3454
sg74
(lp3466
S':'
asbag67
(g88
g69
NtRp3467
(dp3468
g72
(dp3469
sg81
g3454
sg74
(lp3470
g67
(g68
g69
NtRp3471
(dp3472
g72
(dp3473
g80
I5
ssg81
g3467
sg74
(lp3474
g67
(g76
g69
NtRp3475
(dp3476
g72
(dp3477
g80
I4
ssg81
Nsg74
(lp3478
g67
(g83
g69
NtRp3479
(dp3480
g72
(dp3481
sg81
g3475
sg74
(lp3482
g67
(g88
g69
NtRp3483
(dp3484
g72
(dp3485
sg81
g3479
sg74
(lp3486
g67
(g68
g69
NtRp3487
(dp3488
g72
(dp3489
g80
I4
ssg81
g3483
sg74
(lp3490
g67
(g76
g69
NtRp3491
(dp3492
g72
(dp3493
g80
I3
ssg81
Nsg74
(lp3494
g67
(g83
g69
NtRp3495
(dp3496
g72
(dp3497
sg81
g3491
sg74
(lp3498
g67
(g88
g69
NtRp3499
(dp3500
g72
(dp3501
sg81
g3495
sg74
(lp3502
g67
(g68
g69
NtRp3503
(dp3504
g72
(dp3505
g80
I3
ssg81
g3499
sg74
(lp3506
cgluon.languages
lazyT_unpickle
p3507
(S't\x04\x00\x00\x00Home'
tRp3508
asbasbasbag67
(g83
g69
NtRp3509
(dp3510
g72
(dp3511
sg81
g3491
sg74
(lp3512
g67
(g88
g69
NtRp3513
(dp3514
g72
(dp3515
sg81
g3509
sg74
(lp3516
g67
(g68
g69
NtRp3517
(dp3518
g72
(dp3519
g80
I3
ssg81
g3513
sg74
(lp3520
g110
asbasbasbag67
(g83
g69
NtRp3521
(dp3522
g72
(dp3523
sg81
g3491
sg74
(lp3524
g67
(g88
g69
NtRp3525
(dp3526
g72
(dp3527
sg81
g3521
sg74
(lp3528
g67
(g68
g69
NtRp3529
(dp3530
g72
(dp3531
g80
I3
ssg81
g3525
sg74
(lp3532
S'/welcome/default/index'
p3533
asbasbasbag67
(g83
g69
NtRp3534
(dp3535
g72
(dp3536
sg81
g3491
sg74
(lp3537
g67
(g88
g69
NtRp3538
(dp3539
g72
(dp3540
sg81
g3534
sg74
(lp3541
g67
(g68
g69
NtRp3542
(dp3543
g72
(dp3544
g80
I3
ssg81
g3538
sg74
(lp3545
g67
(g76
g69
NtRp3546
(dp3547
g72
(dp3548
g80
I2
ssg81
Nsg74
(lp3549
sbasbasbasbasbasbasbasbag67
(g83
g69
NtRp3550
(dp3551
g72
(dp3552
sg81
g3475
sg74
(lp3553
g67
(g88
g69
NtRp3554
(dp3555
g72
(dp3556
sg81
g3550
sg74
(lp3557
g67
(g68
g69
NtRp3558
(dp3559
g72
(dp3560
g80
I4
ssg81
g3554
sg74
(lp3561
g67
(g76
g69
NtRp3562
(dp3563
g72
(dp3564
g80
I3
ssg81
Nsg74
(lp3565
g67
(g83
g69
NtRp3566
(dp3567
g72
(dp3568
sg81
g3562
sg74
(lp3569
g67
(g88
g69
NtRp3570
(dp3571
g72
(dp3572
sg81
g3566
sg74
(lp3573
g67
(g68
g69
NtRp3574
(dp3575
g72
(dp3576
g80
I3
ssg81
g3570
sg74
(lp3577
g3507
(S's\x08\x00\x00\x00This App'
tRp3578
asbasbasbag67
(g83
g69
NtRp3579
(dp3580
g72
(dp3581
sg81
g3562
sg74
(lp3582
g67
(g88
g69
NtRp3583
(dp3584
g72
(dp3585
sg81
g3579
sg74
(lp3586
g67
(g68
g69
NtRp3587
(dp3588
g72
(dp3589
g80
I3
ssg81
g3583
sg74
(lp3590
g110
asbasbasbag67
(g83
g69
NtRp3591
(dp3592
g72
(dp3593
sg81
g3562
sg74
(lp3594
g67
(g88
g69
NtRp3595
(dp3596
g72
(dp3597
sg81
g3591
sg74
(lp3598
g67
(g68
g69
NtRp3599
(dp3600
g72
(dp3601
g80
I3
ssg81
g3595
sg74
(lp3602
S'/admin/default/design/welcome'
p3603
asbasbasbag67
(g83
g69
NtRp3604
(dp3605
g72
(dp3606
sg81
g3562
sg74
(lp3607
g67
(g88
g69
NtRp3608
(dp3609
g72
(dp3610
sg81
g3604
sg74
(lp3611
g67
(g68
g69
NtRp3612
(dp3613
g72
(dp3614
g80
I3
ssg81
g3608
sg74
(lp3615
g67
(g76
g69
NtRp3616
(dp3617
g72
(dp3618
g80
I2
ssg81
Nsg74
(lp3619
g67
(g83
g69
NtRp3620
(dp3621
g72
(dp3622
sg81
g3616
sg74
(lp3623
g67
(g88
g69
NtRp3624
(dp3625
g72
(dp3626
sg81
g3620
sg74
(lp3627
g67
(g68
g69
NtRp3628
(dp3629
g72
(dp3630
g80
I2
ssg81
g3624
sg74
(lp3631
g67
(g76
g69
NtRp3632
(dp3633
g72
(dp3634
g80
I1
ssg81
Nsg74
(lp3635
g67
(g83
g69
NtRp3636
(dp3637
g72
(dp3638
sg81
g3632
sg74
(lp3639
g67
(g88
g69
NtRp3640
(dp3641
g72
(dp3642
sg81
g3636
sg74
(lp3643
g67
(g68
g69
NtRp3644
(dp3645
g72
(dp3646
g80
I1
ssg81
g3640
sg74
(lp3647
g3507
(S't\n\x00\x00\x00Controller'
tRp3648
asbasbasbag67
(g83
g69
NtRp3649
(dp3650
g72
(dp3651
sg81
g3632
sg74
(lp3652
g67
(g88
g69
NtRp3653
(dp3654
g72
(dp3655
sg81
g3649
sg74
(lp3656
g67
(g68
g69
NtRp3657
(dp3658
g72
(dp3659
g80
I1
ssg81
g3653
sg74
(lp3660
I00
asbasbasbag67
(g83
g69
NtRp3661
(dp3662
g72
(dp3663
sg81
g3632
sg74
(lp3664
g67
(g88
g69
NtRp3665
(dp3666
g72
(dp3667
sg81
g3661
sg74
(lp3668
g67
(g68
g69
NtRp3669
(dp3670
g72
(dp3671
g80
I1
ssg81
g3665
sg74
(lp3672
S'/admin/default/edit/welcome/controllers/default.py'
p3673
asbasbasbasbasbasbasbag67
(g83
g69
NtRp3674
(dp3675
g72
(dp3676
sg81
g3616
sg74
(lp3677
g67
(g88
g69
NtRp3678
(dp3679
g72
(dp3680
sg81
g3674
sg74
(lp3681
g67
(g68
g69
NtRp3682
(dp3683
g72
(dp3684
g80
I2
ssg81
g3678
sg74
(lp3685
g67
(g76
g69
NtRp3686
(dp3687
g72
(dp3688
g80
I1
ssg81
Nsg74
(lp3689
g67
(g83
g69
NtRp3690
(dp3691
g72
(dp3692
sg81
g3686
sg74
(lp3693
g67
(g88
g69
NtRp3694
(dp3695
g72
(dp3696
sg81
g3690
sg74
(lp3697
g67
(g68
g69
NtRp3698
(dp3699
g72
(dp3700
g80
I1
ssg81
g3694
sg74
(lp3701
g3507
(S't\x04\x00\x00\x00View'
tRp3702
asbasbasbag67
(g83
g69
NtRp3703
(dp3704
g72
(dp3705
sg81
g3686
sg74
(lp3706
g67
(g88
g69
NtRp3707
(dp3708
g72
(dp3709
sg81
g3703
sg74
(lp3710
g67
(g68
g69
NtRp3711
(dp3712
g72
(dp3713
g80
I1
ssg81
g3707
sg74
(lp3714
I00
asbasbasbag67
(g83
g69
NtRp3715
(dp3716
g72
(dp3717
sg81
g3686
sg74
(lp3718
g67
(g88
g69
NtRp3719
(dp3720
g72
(dp3721
sg81
g3715
sg74
(lp3722
g67
(g68
g69
NtRp3723
(dp3724
g72
(dp3725
g80
I1
ssg81
g3719
sg74
(lp3726
S'/admin/default/edit/welcome/views/default/index.html'
p3727
asbasbasbasbasbasbasbag67
(g83
g69
NtRp3728
(dp3729
g72
(dp3730
sg81
g3616
sg74
(lp3731
g67
(g88
g69
NtRp3732
(dp3733
g72
(dp3734
sg81
g3728
sg74
(lp3735
g67
(g68
g69
NtRp3736
(dp3737
g72
(dp3738
g80
I2
ssg81
g3732
sg74
(lp3739
g67
(g76
g69
NtRp3740
(dp3741
g72
(dp3742
g80
I1
ssg81
Nsg74
(lp3743
g67
(g83
g69
NtRp3744
(dp3745
g72
(dp3746
sg81
g3740
sg74
(lp3747
g67
(g88
g69
NtRp3748
(dp3749
g72
(dp3750
sg81
g3744
sg74
(lp3751
g67
(g68
g69
NtRp3752
(dp3753
g72
(dp3754
g80
I1
ssg81
g3748
sg74
(lp3755
g3507
(S't\x06\x00\x00\x00Layout'
tRp3756
asbasbasbag67
(g83
g69
NtRp3757
(dp3758
g72
(dp3759
sg81
g3740
sg74
(lp3760
g67
(g88
g69
NtRp3761
(dp3762
g72
(dp3763
sg81
g3757
sg74
(lp3764
g67
(g68
g69
NtRp3765
(dp3766
g72
(dp3767
g80
I1
ssg81
g3761
sg74
(lp3768
I00
asbasbasbag67
(g83
g69
NtRp3769
(dp3770
g72
(dp3771
sg81
g3740
sg74
(lp3772
g67
(g88
g69
NtRp3773
(dp3774
g72
(dp3775
sg81
g3769
sg74
(lp3776
g67
(g68
g69
NtRp3777
(dp3778
g72
(dp3779
g80
I1
ssg81
g3773
sg74
(lp3780
S'/admin/default/edit/welcome/views/layout.html'
p3781
asbasbasbasbasbasbasbag67
(g83
g69
NtRp3782
(dp3783
g72
(dp3784
sg81
g3616
sg74
(lp3785
g67
(g88
g69
NtRp3786
(dp3787
g72
(dp3788
sg81
g3782
sg74
(lp3789
g67
(g68
g69
NtRp3790
(dp3791
g72
(dp3792
g80
I2
ssg81
g3786
sg74
(lp3793
g67
(g76
g69
NtRp3794
(dp3795
g72
(dp3796
g80
I1
ssg81
Nsg74
(lp3797
g67
(g83
g69
NtRp3798
(dp3799
g72
(dp3800
sg81
g3794
sg74
(lp3801
g67
(g88
g69
NtRp3802
(dp3803
g72
(dp3804
sg81
g3798
sg74
(lp3805
g67
(g68
g69
NtRp3806
(dp3807
g72
(dp3808
g80
I1
ssg81
g3802
sg74
(lp3809
g3507
(S't\n\x00\x00\x00Stylesheet'
tRp3810
asbasbasbag67
(g83
g69
NtRp3811
(dp3812
g72
(dp3813
sg81
g3794
sg74
(lp3814
g67
(g88
g69
NtRp3815
(dp3816
g72
(dp3817
sg81
g3811
sg74
(lp3818
g67
(g68
g69
NtRp3819
(dp3820
g72
(dp3821
g80
I1
ssg81
g3815
sg74
(lp3822
I00
asbasbasbag67
(g83
g69
NtRp3823
(dp3824
g72
(dp3825
sg81
g3794
sg74
(lp3826
g67
(g88
g69
NtRp3827
(dp3828
g72
(dp3829
sg81
g3823
sg74
(lp3830
g67
(g68
g69
NtRp3831
(dp3832
g72
(dp3833
g80
I1
ssg81
g3827
sg74
(lp3834
S'/admin/default/edit/welcome/static/base.css'
p3835
asbasbasbasbasbasbasbag67
(g83
g69
NtRp3836
(dp3837
g72
(dp3838
sg81
g3616
sg74
(lp3839
g67
(g88
g69
NtRp3840
(dp3841
g72
(dp3842
sg81
g3836
sg74
(lp3843
g67
(g68
g69
NtRp3844
(dp3845
g72
(dp3846
g80
I2
ssg81
g3840
sg74
(lp3847
g67
(g76
g69
NtRp3848
(dp3849
g72
(dp3850
g80
I1
ssg81
Nsg74
(lp3851
g67
(g83
g69
NtRp3852
(dp3853
g72
(dp3854
sg81
g3848
sg74
(lp3855
g67
(g88
g69
NtRp3856
(dp3857
g72
(dp3858
sg81
g3852
sg74
(lp3859
g67
(g68
g69
NtRp3860
(dp3861
g72
(dp3862
g80
I1
ssg81
g3856
sg74
(lp3863
g3507
(S's\x08\x00\x00\x00DB Model'
tRp3864
asbasbasbag67
(g83
g69
NtRp3865
(dp3866
g72
(dp3867
sg81
g3848
sg74
(lp3868
g67
(g88
g69
NtRp3869
(dp3870
g72
(dp3871
sg81
g3865
sg74
(lp3872
g67
(g68
g69
NtRp3873
(dp3874
g72
(dp3875
g80
I1
ssg81
g3869
sg74
(lp3876
I00
asbasbasbag67
(g83
g69
NtRp3877
(dp3878
g72
(dp3879
sg81
g3848
sg74
(lp3880
g67
(g88
g69
NtRp3881
(dp3882
g72
(dp3883
sg81
g3877
sg74
(lp3884
g67
(g68
g69
NtRp3885
(dp3886
g72
(dp3887
g80
I1
ssg81
g3881
sg74
(lp3888
S'/admin/default/edit/welcome/models/db.py'
p3889
asbasbasbasbasbasbasbag67
(g83
g69
NtRp3890
(dp3891
g72
(dp3892
sg81
g3616
sg74
(lp3893
g67
(g88
g69
NtRp3894
(dp3895
g72
(dp3896
sg81
g3890
sg74
(lp3897
g67
(g68
g69
NtRp3898
(dp3899
g72
(dp3900
g80
I2
ssg81
g3894
sg74
(lp3901
g67
(g76
g69
NtRp3902
(dp3903
g72
(dp3904
g80
I1
ssg81
Nsg74
(lp3905
g67
(g83
g69
NtRp3906
(dp3907
g72
(dp3908
sg81
g3902
sg74
(lp3909
g67
(g88
g69
NtRp3910
(dp3911
g72
(dp3912
sg81
g3906
sg74
(lp3913
g67
(g68
g69
NtRp3914
(dp3915
g72
(dp3916
g80
I1
ssg81
g3910
sg74
(lp3917
g3507
(S's\n\x00\x00\x00Menu Model'
tRp3918
asbasbasbag67
(g83
g69
NtRp3919
(dp3920
g72
(dp3921
sg81
g3902
sg74
(lp3922
g67
(g88
g69
NtRp3923
(dp3924
g72
(dp3925
sg81
g3919
sg74
(lp3926
g67
(g68
g69
NtRp3927
(dp3928
g72
(dp3929
g80
I1
ssg81
g3923
sg74
(lp3930
I00
asbasbasbag67
(g83
g69
NtRp3931
(dp3932
g72
(dp3933
sg81
g3902
sg74
(lp3934
g67
(g88
g69
NtRp3935
(dp3936
g72
(dp3937
sg81
g3931
sg74
(lp3938
g67
(g68
g69
NtRp3939
(dp3940
g72
(dp3941
g80
I1
ssg81
g3935
sg74
(lp3942
S'/admin/default/edit/welcome/models/menu.py'
p3943
asbasbasbasbasbasbasbag67
(g83
g69
NtRp3944
(dp3945
g72
(dp3946
sg81
g3616
sg74
(lp3947
g67
(g88
g69
NtRp3948
(dp3949
g72
(dp3950
sg81
g3944
sg74
(lp3951
g67
(g68
g69
NtRp3952
(dp3953
g72
(dp3954
g80
I2
ssg81
g3948
sg74
(lp3955
g67
(g76
g69
NtRp3956
(dp3957
g72
(dp3958
g80
I1
ssg81
Nsg74
(lp3959
g67
(g83
g69
NtRp3960
(dp3961
g72
(dp3962
sg81
g3956
sg74
(lp3963
g67
(g88
g69
NtRp3964
(dp3965
g72
(dp3966
sg81
g3960
sg74
(lp3967
g67
(g68
g69
NtRp3968
(dp3969
g72
(dp3970
g80
I1
ssg81
g3964
sg74
(lp3971
g3507
(S't\x08\x00\x00\x00Database'
tRp3972
asbasbasbag67
(g83
g69
NtRp3973
(dp3974
g72
(dp3975
sg81
g3956
sg74
(lp3976
g67
(g88
g69
NtRp3977
(dp3978
g72
(dp3979
sg81
g3973
sg74
(lp3980
g67
(g68
g69
NtRp3981
(dp3982
g72
(dp3983
g80
I1
ssg81
g3977
sg74
(lp3984
I00
asbasbasbag67
(g83
g69
NtRp3985
(dp3986
g72
(dp3987
sg81
g3956
sg74
(lp3988
g67
(g88
g69
NtRp3989
(dp3990
g72
(dp3991
sg81
g3985
sg74
(lp3992
g67
(g68
g69
NtRp3993
(dp3994
g72
(dp3995
g80
I1
ssg81
g3989
sg74
(lp3996
S'/welcome/appadmin/index'
p3997
asbasbasbasbasbasbasbag67
(g83
g69
NtRp3998
(dp3999
g72
(dp4000
sg81
g3616
sg74
(lp4001
g67
(g88
g69
NtRp4002
(dp4003
g72
(dp4004
sg81
g3998
sg74
(lp4005
g67
(g68
g69
NtRp4006
(dp4007
g72
(dp4008
g80
I2
ssg81
g4002
sg74
(lp4009
g67
(g76
g69
NtRp4010
(dp4011
g72
(dp4012
g80
I1
ssg81
Nsg74
(lp4013
g67
(g83
g69
NtRp4014
(dp4015
g72
(dp4016
sg81
g4010
sg74
(lp4017
g67
(g88
g69
NtRp4018
(dp4019
g72
(dp4020
sg81
g4014
sg74
(lp4021
g67
(g68
g69
NtRp4022
(dp4023
g72
(dp4024
g80
I1
ssg81
g4018
sg74
(lp4025
g3507
(S't\x06\x00\x00\x00Errors'
tRp4026
asbasbasbag67
(g83
g69
NtRp4027
(dp4028
g72
(dp4029
sg81
g4010
sg74
(lp4030
g67
(g88
g69
NtRp4031
(dp4032
g72
(dp4033
sg81
g4027
sg74
(lp4034
g67
(g68
g69
NtRp4035
(dp4036
g72
(dp4037
g80
I1
ssg81
g4031
sg74
(lp4038
I00
asbasbasbag67
(g83
g69
NtRp4039
(dp4040
g72
(dp4041
sg81
g4010
sg74
(lp4042
g67
(g88
g69
NtRp4043
(dp4044
g72
(dp4045
sg81
g4039
sg74
(lp4046
g67
(g68
g69
NtRp4047
(dp4048
g72
(dp4049
g80
I1
ssg81
g4043
sg74
(lp4050
S'/admin/default/errors/welcome'
p4051
asbasbasbasbasbasbasbag67
(g83
g69
NtRp4052
(dp4053
g72
(dp4054
sg81
g3616
sg74
(lp4055
g67
(g88
g69
NtRp4056
(dp4057
g72
(dp4058
sg81
g4052
sg74
(lp4059
g67
(g68
g69
NtRp4060
(dp4061
g72
(dp4062
g80
I2
ssg81
g4056
sg74
(lp4063
g67
(g76
g69
NtRp4064
(dp4065
g72
(dp4066
g80
I1
ssg81
Nsg74
(lp4067
g67
(g83
g69
NtRp4068
(dp4069
g72
(dp4070
sg81
g4064
sg74
(lp4071
g67
(g88
g69
NtRp4072
(dp4073
g72
(dp4074
sg81
g4068
sg74
(lp4075
g67
(g68
g69
NtRp4076
(dp4077
g72
(dp4078
g80
I1
ssg81
g4072
sg74
(lp4079
g3507
(S't\x05\x00\x00\x00About'
tRp4080
asbasbasbag67
(g83
g69
NtRp4081
(dp4082
g72
(dp4083
sg81
g4064
sg74
(lp4084
g67
(g88
g69
NtRp4085
(dp4086
g72
(dp4087
sg81
g4081
sg74
(lp4088
g67
(g68
g69
NtRp4089
(dp4090
g72
(dp4091
g80
I1
ssg81
g4085
sg74
(lp4092
I00
asbasbasbag67
(g83
g69
NtRp4093
(dp4094
g72
(dp4095
sg81
g4064
sg74
(lp4096
g67
(g88
g69
NtRp4097
(dp4098
g72
(dp4099
sg81
g4093
sg74
(lp4100
g67
(g68
g69
NtRp4101
(dp4102
g72
(dp4103
g80
I1
ssg81
g4097
sg74
(lp4104
S'/admin/default/about/welcome'
p4105
asbasbasbasbasbasbasbasbasbasbasbasbasbasbasbag67
(g83
g69
NtRp4106
(dp4107
g72
(dp4108
sg81
g3475
sg74
(lp4109
g67
(g88
g69
NtRp4110
(dp4111
g72
(dp4112
sg81
g4106
sg74
(lp4113
g67
(g68
g69
NtRp4114
(dp4115
g72
(dp4116
g80
I4
ssg81
g4110
sg74
(lp4117
g67
(g76
g69
NtRp4118
(dp4119
g72
(dp4120
g80
I3
ssg81
Nsg74
(lp4121
g67
(g83
g69
NtRp4122
(dp4123
g72
(dp4124
sg81
g4118
sg74
(lp4125
g67
(g88
g69
NtRp4126
(dp4127
g72
(dp4128
sg81
g4122
sg74
(lp4129
g67
(g68
g69
NtRp4130
(dp4131
g72
(dp4132
g80
I3
ssg81
g4126
sg74
(lp4133
g3507
(S't\t\x00\x00\x00Resources'
tRp4134
asbasbasbag67
(g83
g69
NtRp4135
(dp4136
g72
(dp4137
sg81
g4118
sg74
(lp4138
g67
(g88
g69
NtRp4139
(dp4140
g72
(dp4141
sg81
g4135
sg74
(lp4142
g67
(g68
g69
NtRp4143
(dp4144
g72
(dp4145
g80
I3
ssg81
g4139
sg74
(lp4146
g110
asbasbasbag67
(g83
g69
NtRp4147
(dp4148
g72
(dp4149
sg81
g4118
sg74
(lp4150
g67
(g88
g69
NtRp4151
(dp4152
g72
(dp4153
sg81
g4147
sg74
(lp4154
g67
(g68
g69
NtRp4155
(dp4156
g72
(dp4157
g80
I3
ssg81
g4151
sg74
(lp4158
S'None'
p4159
asbasbasbag67
(g83
g69
NtRp4160
(dp4161
g72
(dp4162
sg81
g4118
sg74
(lp4163
g67
(g88
g69
NtRp4164
(dp4165
g72
(dp4166
sg81
g4160
sg74
(lp4167
g67
(g68
g69
NtRp4168
(dp4169
g72
(dp4170
g80
I3
ssg81
g4164
sg74
(lp4171
g67
(g76
g69
NtRp4172
(dp4173
g72
(dp4174
g80
I2
ssg81
Nsg74
(lp4175
g67
(g83
g69
NtRp4176
(dp4177
g72
(dp4178
sg81
g4172
sg74
(lp4179
g67
(g88
g69
NtRp4180
(dp4181
g72
(dp4182
sg81
g4176
sg74
(lp4183
g67
(g68
g69
NtRp4184
(dp4185
g72
(dp4186
g80
I2
ssg81
g4180
sg74
(lp4187
g67
(g76
g69
NtRp4188
(dp4189
g72
(dp4190
g80
I1
ssg81
Nsg74
(lp4191
g67
(g83
g69
NtRp4192
(dp4193
g72
(dp4194
sg81
g4188
sg74
(lp4195
g67
(g88
g69
NtRp4196
(dp4197
g72
(dp4198
sg81
g4192
sg74
(lp4199
g67
(g68
g69
NtRp4200
(dp4201
g72
(dp4202
g80
I1
ssg81
g4196
sg74
(lp4203
g3507
(S't\r\x00\x00\x00Documentation'
tRp4204
asbasbasbag67
(g83
g69
NtRp4205
(dp4206
g72
(dp4207
sg81
g4188
sg74
(lp4208
g67
(g88
g69
NtRp4209
(dp4210
g72
(dp4211
sg81
g4205
sg74
(lp4212
g67
(g68
g69
NtRp4213
(dp4214
g72
(dp4215
g80
I1
ssg81
g4209
sg74
(lp4216
I00
asbasbasbag67
(g83
g69
NtRp4217
(dp4218
g72
(dp4219
sg81
g4188
sg74
(lp4220
g67
(g88
g69
NtRp4221
(dp4222
g72
(dp4223
sg81
g4217
sg74
(lp4224
g67
(g68
g69
NtRp4225
(dp4226
g72
(dp4227
g80
I1
ssg81
g4221
sg74
(lp4228
S'http://www.web2py.com/book'
p4229
asbasbasbag67
(g83
g69
NtRp4230
(dp4231
g72
(dp4232
sg81
g4188
sg74
(lp4233
g67
(g88
g69
NtRp4234
(dp4235
g72
(dp4236
sg81
g4230
sg74
(lp4237
g67
(g68
g69
NtRp4238
(dp4239
g72
(dp4240
g80
I1
ssg81
g4234
sg74
(lp4241
(lp4242
(g3507
(S't\x07\x00\x00\x00Preface'
tRp4243
I00
S'http://www.web2py.com/book/default/chapter/00'
p4244
tp4245
a(g3507
(S't\x0c\x00\x00\x00Introduction'
tRp4246
I00
S'http://www.web2py.com/book/default/chapter/01'
p4247
tp4248
a(g3507
(S't\x06\x00\x00\x00Python'
tRp4249
I00
S'http://www.web2py.com/book/default/chapter/02'
p4250
tp4251
a(g3507
(S't\x08\x00\x00\x00Overview'
tRp4252
I00
S'http://www.web2py.com/book/default/chapter/03'
p4253
tp4254
a(g3507
(S's\x08\x00\x00\x00The Core'
tRp4255
I00
S'http://www.web2py.com/book/default/chapter/04'
p4256
tp4257
a(g3507
(S's\t\x00\x00\x00The Views'
tRp4258
I00
S'http://www.web2py.com/book/default/chapter/05'
p4259
tp4260
a(g3507
(S't\x08\x00\x00\x00Database'
tRp4261
I00
S'http://www.web2py.com/book/default/chapter/06'
p4262
tp4263
a(g3507
(S's\x14\x00\x00\x00Forms and Validators'
tRp4264
I00
S'http://www.web2py.com/book/default/chapter/07'
p4265
tp4266
a(g3507
(S's\x0e\x00\x00\x00Access Control'
tRp4267
I00
S'http://www.web2py.com/book/default/chapter/08'
p4268
tp4269
a(g3507
(S't\x08\x00\x00\x00Services'
tRp4270
I00
S'http://www.web2py.com/book/default/chapter/09'
p4271
tp4272
a(g3507
(S's\x0c\x00\x00\x00Ajax Recipes'
tRp4273
I00
S'http://www.web2py.com/book/default/chapter/10'
p4274
tp4275
a(g3507
(S's\x12\x00\x00\x00Deployment Recipes'
tRp4276
I00
S'http://www.web2py.com/book/default/chapter/11'
p4277
tp4278
a(g3507
(S's\r\x00\x00\x00Other Recipes'
tRp4279
I00
S'http://www.web2py.com/book/default/chapter/12'
p4280
tp4281
a(g3507
(S's\r\x00\x00\x00Buy this book'
tRp4282
I00
S'http://stores.lulu.com/web2py'
p4283
tp4284
aasbasbasbasbasbasbasbag67
(g83
g69
NtRp4285
(dp4286
g72
(dp4287
sg81
g4172
sg74
(lp4288
g67
(g88
g69
NtRp4289
(dp4290
g72
(dp4291
sg81
g4285
sg74
(lp4292
g67
(g68
g69
NtRp4293
(dp4294
g72
(dp4295
g80
I2
ssg81
g4289
sg74
(lp4296
g67
(g76
g69
NtRp4297
(dp4298
g72
(dp4299
g80
I1
ssg81
Nsg74
(lp4300
g67
(g83
g69
NtRp4301
(dp4302
g72
(dp4303
sg81
g4297
sg74
(lp4304
g67
(g88
g69
NtRp4305
(dp4306
g72
(dp4307
sg81
g4301
sg74
(lp4308
g67
(g68
g69
NtRp4309
(dp4310
g72
(dp4311
g80
I1
ssg81
g4305
sg74
(lp4312
g3507
(S't\t\x00\x00\x00Community'
tRp4313
asbasbasbag67
(g83
g69
NtRp4314
(dp4315
g72
(dp4316
sg81
g4297
sg74
(lp4317
g67
(g88
g69
NtRp4318
(dp4319
g72
(dp4320
sg81
g4314
sg74
(lp4321
g67
(g68
g69
NtRp4322
(dp4323
g72
(dp4324
g80
I1
ssg81
g4318
sg74
(lp4325
I00
asbasbasbag67
(g83
g69
NtRp4326
(dp4327
g72
(dp4328
sg81
g4297
sg74
(lp4329
g67
(g88
g69
NtRp4330
(dp4331
g72
(dp4332
sg81
g4326
sg74
(lp4333
g67
(g68
g69
NtRp4334
(dp4335
g72
(dp4336
g80
I1
ssg81
g4330
sg74
(lp4337
Nasbasbasbag67
(g83
g69
NtRp4338
(dp4339
g72
(dp4340
sg81
g4297
sg74
(lp4341
g67
(g88
g69
NtRp4342
(dp4343
g72
(dp4344
sg81
g4338
sg74
(lp4345
g67
(g68
g69
NtRp4346
(dp4347
g72
(dp4348
g80
I1
ssg81
g4342
sg74
(lp4349
(lp4350
(g3507
(S't\x06\x00\x00\x00Groups'
tRp4351
I00
S'http://www.web2py.com/examples/default/usergroups'
p4352
tp4353
a(g3507
(S't\x07\x00\x00\x00Twitter'
tRp4354
I00
S'http://twitter.com/web2py'
p4355
tp4356
a(g3507
(S's\t\x00\x00\x00Live chat'
tRp4357
I00
S'http://mibbit.com/?channel=%23web2py&server=irc.mibbit.net'
p4358
tp4359
a(g3507
(S's\n\x00\x00\x00User Voice'
tRp4360
I00
S'http://web2py.uservoice.com/'
p4361
tp4362
aasbasbasbasbasbasbasbag67
(g83
g69
NtRp4363
(dp4364
g72
(dp4365
sg81
g4172
sg74
(lp4366
g67
(g88
g69
NtRp4367
(dp4368
g72
(dp4369
sg81
g4363
sg74
(lp4370
g67
(g68
g69
NtRp4371
(dp4372
g72
(dp4373
g80
I2
ssg81
g4367
sg74
(lp4374
g67
(g76
g69
NtRp4375
(dp4376
g72
(dp4377
g80
I1
ssg81
Nsg74
(lp4378
g67
(g83
g69
NtRp4379
(dp4380
g72
(dp4381
sg81
g4375
sg74
(lp4382
g67
(g88
g69
NtRp4383
(dp4384
g72
(dp4385
sg81
g4379
sg74
(lp4386
g67
(g68
g69
NtRp4387
(dp4388
g72
(dp4389
g80
I1
ssg81
g4383
sg74
(lp4390
g3507
(S't\x06\x00\x00\x00Web2py'
tRp4391
asbasbasbag67
(g83
g69
NtRp4392
(dp4393
g72
(dp4394
sg81
g4375
sg74
(lp4395
g67
(g88
g69
NtRp4396
(dp4397
g72
(dp4398
sg81
g4392
sg74
(lp4399
g67
(g68
g69
NtRp4400
(dp4401
g72
(dp4402
g80
I1
ssg81
g4396
sg74
(lp4403
I00
asbasbasbag67
(g83
g69
NtRp4404
(dp4405
g72
(dp4406
sg81
g4375
sg74
(lp4407
g67
(g88
g69
NtRp4408
(dp4409
g72
(dp4410
sg81
g4404
sg74
(lp4411
g67
(g68
g69
NtRp4412
(dp4413
g72
(dp4414
g80
I1
ssg81
g4408
sg74
(lp4415
S'http://www.web2py.com'
p4416
asbasbasbag67
(g83
g69
NtRp4417
(dp4418
g72
(dp4419
sg81
g4375
sg74
(lp4420
g67
(g88
g69
NtRp4421
(dp4422
g72
(dp4423
sg81
g4417
sg74
(lp4424
g67
(g68
g69
NtRp4425
(dp4426
g72
(dp4427
g80
I1
ssg81
g4421
sg74
(lp4428
(lp4429
(g3507
(S't\x08\x00\x00\x00Download'
tRp4430
I00
S'http://www.web2py.com/examples/default/download'
p4431
tp4432
a(g3507
(S't\x07\x00\x00\x00Support'
tRp4433
I00
S'http://www.web2py.com/examples/default/support'
p4434
tp4435
a(g3507
(S's\x0e\x00\x00\x00Quick Examples'
tRp4436
I00
S'http://web2py.com/examples/default/examples'
p4437
tp4438
a(g3507
(S't\x03\x00\x00\x00FAQ'
tRp4439
I00
S'http://web2py.com/AlterEgo'
p4440
tp4441
a(g3507
(S's\x11\x00\x00\x00Free Applications'
tRp4442
I00
S'http://web2py.com/appliances'
p4443
tp4444
a(g3507
(S't\x07\x00\x00\x00Plugins'
tRp4445
I00
S'http://web2py.com/plugins'
p4446
tp4447
a(g3507
(S't\x07\x00\x00\x00Recipes'
tRp4448
I00
S'http://web2pyslices.com/'
p4449
tp4450
a(g3507
(S't\x04\x00\x00\x00Demo'
tRp4451
I00
S'http://web2py.com/demo_admin'
p4452
tp4453
a(g3507
(S't\x08\x00\x00\x00Semantic'
tRp4454
I00
S'http://web2py.com/semantic'
p4455
tp4456
a(g3507
(S't\x07\x00\x00\x00Layouts'
tRp4457
I00
S'http://web2py.com/layouts'
p4458
tp4459
a(g3507
(S't\x06\x00\x00\x00Videos'
tRp4460
I00
S'http://www.web2py.com/examples/default/videos/'
p4461
tp4462
aasbasbasbasbasbasbasbasbasbasbasbasbasbasbasbasbasbasbasbag67
(g83
g69
NtRp4463
(dp4464
g72
(dp4465
sg81
g3002
sg74
(lp4466
g67
(g88
g69
NtRp4467
(dp4468
g72
(dp4469
g92
g93
ssg81
g4463
sg74
(lp4470
S'meta'
p4471
asbag67
(g88
g69
NtRp4472
(dp4473
g72
(dp4474
g99
g100
ssg81
g4463
sg74
(lp4475
S':'
asbag67
(g88
g69
NtRp4476
(dp4477
g72
(dp4478
sg81
g4463
sg74
(lp4479
g67
(g68
g69
NtRp4480
(dp4481
g72
(dp4482
g80
I5
ssg81
g4476
sg74
(lp4483
g67
(g76
g69
NtRp4484
(dp4485
g72
(dp4486
g80
I4
ssg81
Nsg74
(lp4487
g67
(g83
g69
NtRp4488
(dp4489
g72
(dp4490
sg81
g4484
sg74
(lp4491
g67
(g88
g69
NtRp4492
(dp4493
g72
(dp4494
g92
g93
ssg81
g4488
sg74
(lp4495
S'author'
p4496
asbag67
(g88
g69
NtRp4497
(dp4498
g72
(dp4499
g99
g100
ssg81
g4488
sg74
(lp4500
S':'
asbag67
(g88
g69
NtRp4501
(dp4502
g72
(dp4503
sg81
g4488
sg74
(lp4504
g67
(g68
g69
NtRp4505
(dp4506
g72
(dp4507
g80
I4
ssg81
g4501
sg74
(lp4508
S'Your Name <you@example.com>'
p4509
asbasbasbag67
(g83
g69
NtRp4510
(dp4511
g72
(dp4512
sg81
g4484
sg74
(lp4513
g67
(g88
g69
NtRp4514
(dp4515
g72
(dp4516
g92
g93
ssg81
g4510
sg74
(lp4517
S'copyright'
p4518
asbag67
(g88
g69
NtRp4519
(dp4520
g72
(dp4521
g99
g100
ssg81
g4510
sg74
(lp4522
S':'
asbag67
(g88
g69
NtRp4523
(dp4524
g72
(dp4525
sg81
g4510
sg74
(lp4526
g67
(g68
g69
NtRp4527
(dp4528
g72
(dp4529
g80
I4
ssg81
g4523
sg74
(lp4530
S'Copyright 2011'
p4531
asbasbasbag67
(g83
g69
NtRp4532
(dp4533
g72
(dp4534
sg81
g4484
sg74
(lp4535
g67
(g88
g69
NtRp4536
(dp4537
g72
(dp4538
g92
g93
ssg81
g4532
sg74
(lp4539
S'description'
p4540
asbag67
(g88
g69
NtRp4541
(dp4542
g72
(dp4543
g99
g100
ssg81
g4532
sg74
(lp4544
S':'
asbag67
(g88
g69
NtRp4545
(dp4546
g72
(dp4547
sg81
g4532
sg74
(lp4548
g67
(g68
g69
NtRp4549
(dp4550
g72
(dp4551
g80
I4
ssg81
g4545
sg74
(lp4552
S'a cool new app'
p4553
asbasbasbag67
(g83
g69
NtRp4554
(dp4555
g72
(dp4556
sg81
g4484
sg74
(lp4557
g67
(g88
g69
NtRp4558
(dp4559
g72
(dp4560
g92
g93
ssg81
g4554
sg74
(lp4561
S'generator'
p4562
asbag67
(g88
g69
NtRp4563
(dp4564
g72
(dp4565
g99
g100
ssg81
g4554
sg74
(lp4566
S':'
asbag67
(g88
g69
NtRp4567
(dp4568
g72
(dp4569
sg81
g4554
sg74
(lp4570
g67
(g68
g69
NtRp4571
(dp4572
g72
(dp4573
g80
I4
ssg81
g4567
sg74
(lp4574
S'Web2py Web Framework'
p4575
asbasbasbag67
(g83
g69
NtRp4576
(dp4577
g72
(dp4578
sg81
g4484
sg74
(lp4579
g67
(g88
g69
NtRp4580
(dp4581
g72
(dp4582
g92
g93
ssg81
g4576
sg74
(lp4583
S'keywords'
p4584
asbag67
(g88
g69
NtRp4585
(dp4586
g72
(dp4587
g99
g100
ssg81
g4576
sg74
(lp4588
S':'
asbag67
(g88
g69
NtRp4589
(dp4590
g72
(dp4591
sg81
g4576
sg74
(lp4592
g67
(g68
g69
NtRp4593
(dp4594
g72
(dp4595
g80
I4
ssg81
g4589
sg74
(lp4596
S'web2py, python, framework'
p4597
asbasbasbasbasbasbasbag67
(g83
g69
NtRp4598
(dp4599
g72
(dp4600
sg81
g3002
sg74
(lp4601
g67
(g88
g69
NtRp4602
(dp4603
g72
(dp4604
g92
g93
ssg81
g4598
sg74
(lp4605
S'postprocessing'
p4606
asbag67
(g88
g69
NtRp4607
(dp4608
g72
(dp4609
g99
g100
ssg81
g4598
sg74
(lp4610
S':'
asbag67
(g88
g69
NtRp4611
(dp4612
g72
(dp4613
sg81
g4598
sg74
(lp4614
g67
(g68
g69
NtRp4615
(dp4616
g72
(dp4617
g80
I5
ssg81
g4611
sg74
(lp4618
g67
(g76
g69
NtRp4619
(dp4620
g72
(dp4621
g80
I4
ssg81
Nsg74
(lp4622
sbasbasbasbag67
(g83
g69
NtRp4623
(dp4624
g72
(dp4625
sg81
g3002
sg74
(lp4626
g67
(g88
g69
NtRp4627
(dp4628
g72
(dp4629
g92
g93
ssg81
g4623
sg74
(lp4630
S'session_filename'
p4631
asbag67
(g88
g69
NtRp4632
(dp4633
g72
(dp4634
g99
g100
ssg81
g4623
sg74
(lp4635
S':'
asbag67
(g88
g69
NtRp4636
(dp4637
g72
(dp4638
sg81
g4623
sg74
(lp4639
g67
(g68
g69
NtRp4640
(dp4641
g72
(dp4642
g80
I5
ssg81
g4636
sg74
(lp4643
S'/home/ian/web2py/applications/welcome/sessions/127.0.0.1-f7702587-d42f-44ae-a7c0-8dc62a281077'
p4644
asbasbasbag67
(g83
g69
NtRp4645
(dp4646
g72
(dp4647
sg81
g3002
sg74
(lp4648
g67
(g88
g69
NtRp4649
(dp4650
g72
(dp4651
g92
g93
ssg81
g4645
sg74
(lp4652
S'session_id'
p4653
asbag67
(g88
g69
NtRp4654
(dp4655
g72
(dp4656
g99
g100
ssg81
g4645
sg74
(lp4657
S':'
asbag67
(g88
g69
NtRp4658
(dp4659
g72
(dp4660
sg81
g4645
sg74
(lp4661
g67
(g68
g69
NtRp4662
(dp4663
g72
(dp4664
g80
I5
ssg81
g4658
sg74
(lp4665
S'127.0.0.1-f7702587-d42f-44ae-a7c0-8dc62a281077'
p4666
asbasbasbag67
(g83
g69
NtRp4667
(dp4668
g72
(dp4669
sg81
g3002
sg74
(lp4670
g67
(g88
g69
NtRp4671
(dp4672
g72
(dp4673
g92
g93
ssg81
g4667
sg74
(lp4674
S'session_id_name'
p4675
asbag67
(g88
g69
NtRp4676
(dp4677
g72
(dp4678
g99
g100
ssg81
g4667
sg74
(lp4679
S':'
asbag67
(g88
g69
NtRp4680
(dp4681
g72
(dp4682
sg81
g4667
sg74
(lp4683
g67
(g68
g69
NtRp4684
(dp4685
g72
(dp4686
g80
I5
ssg81
g4680
sg74
(lp4687
g3059
asbasbasbag67
(g83
g69
NtRp4688
(dp4689
g72
(dp4690
sg81
g3002
sg74
(lp4691
g67
(g88
g69
NtRp4692
(dp4693
g72
(dp4694
g92
g93
ssg81
g4688
sg74
(lp4695
S'session_new'
p4696
asbag67
(g88
g69
NtRp4697
(dp4698
g72
(dp4699
g99
g100
ssg81
g4688
sg74
(lp4700
S':'
asbag67
(g88
g69
NtRp4701
(dp4702
g72
(dp4703
sg81
g4688
sg74
(lp4704
g67
(g68
g69
NtRp4705
(dp4706
g72
(dp4707
g80
I5
ssg81
g4701
sg74
(lp4708
g1645
asbasbasbag67
(g83
g69
NtRp4709
(dp4710
g72
(dp4711
sg81
g3002
sg74
(lp4712
g67
(g88
g69
NtRp4713
(dp4714
g72
(dp4715
g92
g93
ssg81
g4709
sg74
(lp4716
S'status'
p4717
asbag67
(g88
g69
NtRp4718
(dp4719
g72
(dp4720
g99
g100
ssg81
g4709
sg74
(lp4721
S':'
asbag67
(g88
g69
NtRp4722
(dp4723
g72
(dp4724
sg81
g4709
sg74
(lp4725
g67
(g68
g69
NtRp4726
(dp4727
g72
(dp4728
g80
I5
ssg81
g4722
sg74
(lp4729
S'200'
p4730
asbasbasbag67
(g83
g69
NtRp4731
(dp4732
g72
(dp4733
sg81
g3002
sg74
(lp4734
g67
(g88
g69
NtRp4735
(dp4736
g72
(dp4737
g92
g93
ssg81
g4731
sg74
(lp4738
S'subtitle'
p4739
asbag67
(g88
g69
NtRp4740
(dp4741
g72
(dp4742
g99
g100
ssg81
g4731
sg74
(lp4743
S':'
asbag67
(g88
g69
NtRp4744
(dp4745
g72
(dp4746
sg81
g4731
sg74
(lp4747
g67
(g68
g69
NtRp4748
(dp4749
g72
(dp4750
g80
I5
ssg81
g4744
sg74
(lp4751
g3507
(S's\r\x00\x00\x00customize me!'
tRp4752
asbasbasbag67
(g83
g69
NtRp4753
(dp4754
g72
(dp4755
sg81
g3002
sg74
(lp4756
g67
(g88
g69
NtRp4757
(dp4758
g72
(dp4759
g92
g93
ssg81
g4753
sg74
(lp4760
S'title'
p4761
asbag67
(g88
g69
NtRp4762
(dp4763
g72
(dp4764
g99
g100
ssg81
g4753
sg74
(lp4765
S':'
asbag67
(g88
g69
NtRp4766
(dp4767
g72
(dp4768
sg81
g4753
sg74
(lp4769
g67
(g68
g69
NtRp4770
(dp4771
g72
(dp4772
g80
I5
ssg81
g4766
sg74
(lp4773
g132
asbasbasbag67
(g83
g69
NtRp4774
(dp4775
g72
(dp4776
sg81
g3002
sg74
(lp4777
g67
(g88
g69
NtRp4778
(dp4779
g72
(dp4780
g92
g93
ssg81
g4774
sg74
(lp4781
g2289
asbag67
(g88
g69
NtRp4782
(dp4783
g72
(dp4784
g99
g100
ssg81
g4774
sg74
(lp4785
S':'
asbag67
(g88
g69
NtRp4786
(dp4787
g72
(dp4788
sg81
g4774
sg74
(lp4789
g67
(g68
g69
NtRp4790
(dp4791
g72
(dp4792
g80
I5
ssg81
g4786
sg74
(lp4793
g2302
asbasbasbag67
(g83
g69
NtRp4794
(dp4795
g72
(dp4796
sg81
g3002
sg74
(lp4797
g67
(g88
g69
NtRp4798
(dp4799
g72
(dp4800
g92
g93
ssg81
g4794
sg74
(lp4801
S'view'
p4802
asbag67
(g88
g69
NtRp4803
(dp4804
g72
(dp4805
g99
g100
ssg81
g4794
sg74
(lp4806
S':'
asbag67
(g88
g69
NtRp4807
(dp4808
g72
(dp4809
sg81
g4794
sg74
(lp4810
g67
(g68
g69
NtRp4811
(dp4812
g72
(dp4813
g80
I5
ssg81
g4807
sg74
(lp4814
S'default/index.html'
p4815
asbasbasbasbasbsS'locals'
p4816
(dp4817
g3
S"'/home/ian/web2py/applications/welcome/views/default/index.html'"
p4818
sg5
S'r"left_sidebar_enabled=right_sidebar_enabled=False...nse.write(\'\\n  </body>\\n</html>\\n\', escape=False)"'
p4819
sssS'traceback'
p4820
S'Traceback (most recent call last):\n  File "/home/ian/web2py/gluon/restricted.py", line 193, in restricted\n    ccode = compile2(code,layer)\n  File "/home/ian/web2py/gluon/restricted.py", line 179, in compile2\n    return compile(code.rstrip().replace(\'\\r\\n\',\'\\n\')+\'\\n\', layer, \'exec\')\n  File "/home/ian/web2py/applications/welcome/views/default/index.html", line 93\n    response.write(\'</li>\\n  <li>\', escape=False)\n           ^\nSyntaxError: invalid syntax\n'
p4821
s.