(dp1
S'output'
p2
S"<class 'lxml.etree.XMLSyntaxError'> Document is empty, line 1, column 1"
p3
sS'layer'
p4
S'/home/ian/web/web2py/applications/grammateus3/controllers/docs.py'
p5
sS'code'
p6
S'# coding: utf8\nfrom lxml import etree\n\nfrom parse import BookParser\n\nimport pprint\nimport inspect\n\nimport re\n\n"""\nList of session objects used in text display:\nsession.filename\nsession.info -- dict; parsed results of BookParser class for current doc\nsession.title -- string; title of current doc\nsession.versions -- list; names of all versions in current doc\n"""\n\ndef index():\n    filename = request.args[0]\n    return dict(filename = filename)\n\ndef text():\n    filename = request.args[0]\n    #TODO: provide fallback and prompt if no filename is given in url\n    \n    #url to pass to web2py load helper in view to load doc section via ajax\n    load_url = URL(\'docs\', \'section.load\', args=filename)\n\n    return dict(load_url = load_url, filename = filename)\n\ndef section():\n    """\n    populates a single text pane via the section.load view (refreshable via ajax)\n    """\n    #print url input for debugging purposes\n    varlist = [(str(k) + \':\' + str(v)) for k, v in request.vars.items()]\n    print \'start of section() method with url \', request.url, varlist\n    #get filename from end of url and parse the file with BookParser class\n    filename = request.args[0]\n    print \'filename: \', filename\n    book_file = \'applications/grammateus3/static/docs/%s.xml\' % filename\n    p = BookParser(book_file)\n    info = p.book_info()\n    #get title of document\n    title = info[\'title\']\n\n    #get names of all versions of current doc and select the version to display\n    versions = [version[\'title\'] for version in info[\'versions\']]     \n    if \'version\' in request.vars:\n        current_version = request.vars[\'version\'].replace(\'_\', \' \')\n        #move selected version to top of list for selectbox\n        i = versions.index(current_version)\n        versions.insert(0, versions.pop(i))\n        print \'current version: \', current_version.replace(\' \', \'&nbsp;\')\n    else:\n        current_version = versions[0]\n        print \'current version: \', current_version.replace(\' \', \'&nbsp;\')\n\n    #find selected version in parsed text\n    for version in info[\'versions\']:\n        for k, v in version.items():\n            if k == \'title\' and v == current_version:\n                curv = version\n                vlang = curv[\'language\']\n                levels = curv[\'organisation_levels\']\n            else:\n                pass\n\n    #get list of mss\n    mslist = [k.strip() for k, v in curv[\'manuscript\'].items()]\n    print \'mslist for this version: \', mslist\n    #use the third url argument as manuscript name if present, otherwise default to first version\n    #check for \'newval\' value, indicating the version has changed\n    if \'type\' in request.vars and request.vars[\'type\'] != \'newval\':\n        current_ms = request.vars[\'type\'].replace(\'_\', \' \')\n        current_ms = current_ms.strip()\n        print \'current_ms: \', current_ms\n        #move selected text type to top of list for ms selectbox\n        i = mslist.index(current_ms)\n        mslist.insert(0, mslist.pop(i))        \n    else:\n        current_ms = mslist[0]\n        print \'current_ms: \', current_ms\n\n    #build hierarchical dict of references\n    reflist = [ref for ref, units in curv[\'text_structure\'].items()]\n\n    #build list for starting ref\n    if \'from\' in request.vars:\n        from_input = request.vars[\'from\']\n        start_sel = from_input.split(\'-\')\n        del start_sel[-1]\n        print \'using url ref\'\n    else:\n        firstref = reflist[0]\n        firstref_parts = re.split(\'[:\\.,;_-]\', firstref)\n        start_sel = [firstref_parts[l-1] for l in range(levels)]\n        print \'using default first ref\'\n\n    #build list for ending ref\n    if \'to\' in request.vars:                \n        to_input = request.vars[\'to\']\n        end_sel = to_input.split(\'-\')\n        del end_sel[-1]\n    else:\n        end_sel = start_sel\n    print \'start_sel\', start_sel\n    print \'end_sel\', end_sel\n    #gather text from units within the selected section of the doc\n    #filters the current version for only readings in the current\n    #text type\n    sel_text = []\n    print \'matching text in: \'\n    for ref, units in curv[\'text_structure\'].items():\n        ref_parts = re.split(\'[:\\.,;_-]\', ref)\n        print \'versions is type: \', type(versions)\n        if int(ref_parts[0]) >= int(start_sel[0]) and int(ref_parts[0]) <= int(end_sel[0]):\n                print ref_parts\n                sel_text.append(SPAN(ref, _class = \'ref\'))\n                for unit_ref, unit_val in units.items():\n                    for mss, raw_text in unit_val.items():\n                        if current_ms[-1] != \' \':\n                            current_ms += \' \'\n                        if current_ms in (mss + \' \'):\n                            if len(units) > 1:\n                                sel_text.append(A(raw_text, _class = vlang, _href=unit_ref))\n                            else:\n                                sel_text.append(SPAN(raw_text, _class = vlang))\n                        else:\n                            pass\n    for s in sel_text:\n        print s[0]\n\n    return dict(title = title, versions = versions, current_version = current_version,\n                info = info, filename = filename, mslist = mslist, sel_text = sel_text,\n                levels = levels, start_sel = start_sel, end_sel = end_sel)\n\n\ndef apparatus():\n    filename = request.args[0]\n    book_file = \'applications/grammateus3/static/docs/%s.xml\' % filename\n    p = BookParser(book_file)\n    info = p.book_info()\n\n    #if no unit has been requested, present the default message\n    if request.vars[\'called\'] == \'no\':\n        rlist = SPAN(\'Click on any blue text to display textual variants for those words. If no links are available that may mean no variants are attested or it may mean that this document does not yet have a complete textual apparatus. See the document introduction for details.\')\n    #if a unit has been requested, assemble that unit\'s readings\n    else:\n        #get current version\n        current_version = request.vars[\'version\'].replace(\'_\', \' \')\n        print \'current version: \', current_version\n\n        #find selected version in parsed text\n        for version in info[\'versions\']:\n            for k, v in version.items():\n                if k == \'title\' and v == current_version:\n                    curv = version\n                    vlang = curv[\'language\']\n\n        #find requested unit and get reading information\n        for ref, units in curv[\'text_structure\'].items():\n            for unit_ref, unit_val in units.items():\n                if unit_ref == request.vars[\'unit\']:\n                    rlist = {k:v for k, v in unit_val.items()}\n\n    return dict(rlist = rlist)\n\ndef test():\n    filename = request.args[0]\n    book_file = \'applications/grammateus3/static/docs/%s.xml\' % filename\n    p = BookParser(book_file)\n    info = p.book_info()\n\n    title = info[\'title\']\n    for version in info[\'versions\']:\n        for key, value in version.items():\n            if key != \'text_structure\':\n                print \'Version\', key, \'-->\', value\n\n            else:\n                print \'Version textstructure\'\n                for ref, ref_val in value.items():\n                    for unit, unit_val in ref_val.items():\n                        for mss, mss_val in unit_val.items():\n                            print \'\\t\', ref, \'-->\', unit, \'-->\', mss, \'-->\', mss_val\n        print \'************\'\n    print\n    print\n\n    return dict(title = title, info = info)\n\nresponse._vars=response._caller(section)\n'
p7
sS'snapshot'
p8
(dp9
S'exception'
p10
(dp11
S'__module__'
p12
S"'lxml.etree'"
p13
sg6
S'4'
sS'__getslice__'
p14
S"<method-wrapper '__getslice__' of XMLSyntaxError object>"
p15
sS'text'
p16
S'None'
p17
sS'__str__'
p18
S"<method-wrapper '__str__' of XMLSyntaxError object>"
p19
sS'__reduce__'
p20
S'<built-in method __reduce__ of XMLSyntaxError object>'
p21
sS'__dict__'
p22
S"{'code': 4, 'error_log': applications/grammateus3/static/docs/3Macc.xml:1...DOCUMENT_EMPTY: Start tag expected, '<' not found, 'position': (1, 1)}"
p23
sS'__sizeof__'
p24
S'<built-in method __sizeof__ of XMLSyntaxError object>'
p25
sS'__weakref__'
p26
S'None'
p27
sS'__init__'
p28
S"<bound method XMLSyntaxError.__init__ of XMLSyntaxError(u'Document is empty, line 1, column 1',)>"
p29
sS'__setattr__'
p30
S"<method-wrapper '__setattr__' of XMLSyntaxError object>"
p31
sS'__reduce_ex__'
p32
S'<built-in method __reduce_ex__ of XMLSyntaxError object>'
p33
sS'__new__'
p34
S'<built-in method __new__ of type object>'
p35
sS'__format__'
p36
S'<built-in method __format__ of XMLSyntaxError object>'
p37
sS'__class__'
p38
S"<class 'lxml.etree.XMLSyntaxError'>"
p39
sS'filename'
p40
S'None'
p41
sS'lineno'
p42
S'None'
p43
sS'msg'
p44
S"u'Document is empty, line 1, column 1'"
p45
sS'__doc__'
p46
S"'Syntax error while parsing an XML document.\\n    '"
p47
sS'__getitem__'
p48
S"<method-wrapper '__getitem__' of XMLSyntaxError object>"
p49
sS'__setstate__'
p50
S'<built-in method __setstate__ of XMLSyntaxError object>'
p51
sS'__getattribute__'
p52
S"<method-wrapper '__getattribute__' of XMLSyntaxError object>"
p53
sS'print_file_and_line'
p54
S'None'
p55
sS'args'
p56
S"(u'Document is empty, line 1, column 1',)"
p57
sS'__subclasshook__'
p58
S'<built-in method __subclasshook__ of type object>'
p59
sS'offset'
p60
S'None'
p61
sS'__unicode__'
p62
S'<built-in method __unicode__ of XMLSyntaxError object>'
p63
sS'error_log'
p64
S"applications/grammateus3/static/docs/3Macc.xml:1...DOCUMENT_EMPTY: Start tag expected, '<' not found"
p65
sS'__delattr__'
p66
S"<method-wrapper '__delattr__' of XMLSyntaxError object>"
p67
sS'__repr__'
p68
S"<method-wrapper '__repr__' of XMLSyntaxError object>"
p69
sS'__hash__'
p70
S"<method-wrapper '__hash__' of XMLSyntaxError object>"
p71
sS'position'
p72
S'(1, 1)'
p73
ssS'evalue'
p74
S'Document is empty, line 1, column 1'
p75
sS'request'
p76
ccopy_reg
_reconstructor
p77
(cgluon.html
BEAUTIFY
p78
c__builtin__
object
p79
NtRp80
(dp81
S'attributes'
p82
(dp83
sS'components'
p84
(lp85
g77
(cgluon.html
TABLE
p86
g79
NtRp87
(dp88
g82
(dp89
S'level'
p90
I5
ssS'parent'
p91
Nsg84
(lp92
g77
(cgluon.html
TR
p93
g79
NtRp94
(dp95
g82
(dp96
sg91
g87
sg84
(lp97
g77
(cgluon.html
TD
p98
g79
NtRp99
(dp100
g82
(dp101
S'_style'
p102
S'font-weight:bold;vertical-align:top'
p103
ssg91
g94
sg84
(lp104
S'ajax'
p105
asbag77
(g98
g79
NtRp106
(dp107
g82
(dp108
S'_valign'
p109
S'top'
p110
ssg91
g94
sg84
(lp111
S':'
asbag77
(g98
g79
NtRp112
(dp113
g82
(dp114
sg91
g94
sg84
(lp115
g77
(g78
g79
NtRp116
(dp117
g82
(dp118
g90
I5
ssg91
g112
sg84
(lp119
S'True'
p120
asbasbasbag77
(g93
g79
NtRp121
(dp122
g82
(dp123
sg91
g87
sg84
(lp124
g77
(g98
g79
NtRp125
(dp126
g82
(dp127
g102
g103
ssg91
g121
sg84
(lp128
S'application'
p129
asbag77
(g98
g79
NtRp130
(dp131
g82
(dp132
g109
g110
ssg91
g121
sg84
(lp133
S':'
asbag77
(g98
g79
NtRp134
(dp135
g82
(dp136
sg91
g121
sg84
(lp137
g77
(g78
g79
NtRp138
(dp139
g82
(dp140
g90
I5
ssg91
g134
sg84
(lp141
S'grammateus3'
p142
asbasbasbag77
(g93
g79
NtRp143
(dp144
g82
(dp145
sg91
g87
sg84
(lp146
g77
(g98
g79
NtRp147
(dp148
g82
(dp149
g102
g103
ssg91
g143
sg84
(lp150
g56
asbag77
(g98
g79
NtRp151
(dp152
g82
(dp153
g109
g110
ssg91
g143
sg84
(lp154
S':'
asbag77
(g98
g79
NtRp155
(dp156
g82
(dp157
sg91
g143
sg84
(lp158
g77
(g78
g79
NtRp159
(dp160
g82
(dp161
g90
I5
ssg91
g155
sg84
(lp162
g77
(g86
g79
NtRp163
(dp164
g82
(dp165
g90
I4
ssg91
Nsg84
(lp166
g77
(g93
g79
NtRp167
(dp168
g82
(dp169
sg91
g163
sg84
(lp170
g77
(g98
g79
NtRp171
(dp172
g82
(dp173
sg91
g167
sg84
(lp174
g77
(g78
g79
NtRp175
(dp176
g82
(dp177
g90
I4
ssg91
g171
sg84
(lp178
S'3Macc'
p179
asbasbasbasbasbasbasbag77
(g93
g79
NtRp180
(dp181
g82
(dp182
sg91
g87
sg84
(lp183
g77
(g98
g79
NtRp184
(dp185
g82
(dp186
g102
g103
ssg91
g180
sg84
(lp187
S'body'
p188
asbag77
(g98
g79
NtRp189
(dp190
g82
(dp191
g109
g110
ssg91
g180
sg84
(lp192
S':'
asbag77
(g98
g79
NtRp193
(dp194
g82
(dp195
sg91
g180
sg84
(lp196
g77
(g78
g79
NtRp197
(dp198
g82
(dp199
g90
I5
ssg91
g193
sg84
(lp200
S'<cStringIO.StringO object at 0x7f03cc5a95e0>'
p201
asbasbasbag77
(g93
g79
NtRp202
(dp203
g82
(dp204
sg91
g87
sg84
(lp205
g77
(g98
g79
NtRp206
(dp207
g82
(dp208
g102
g103
ssg91
g202
sg84
(lp209
S'cid'
p210
asbag77
(g98
g79
NtRp211
(dp212
g82
(dp213
g109
g110
ssg91
g202
sg84
(lp214
S':'
asbag77
(g98
g79
NtRp215
(dp216
g82
(dp217
sg91
g202
sg84
(lp218
g77
(g78
g79
NtRp219
(dp220
g82
(dp221
g90
I5
ssg91
g215
sg84
(lp222
S'c288678466834'
p223
asbasbasbag77
(g93
g79
NtRp224
(dp225
g82
(dp226
sg91
g87
sg84
(lp227
g77
(g98
g79
NtRp228
(dp229
g82
(dp230
g102
g103
ssg91
g224
sg84
(lp231
S'client'
p232
asbag77
(g98
g79
NtRp233
(dp234
g82
(dp235
g109
g110
ssg91
g224
sg84
(lp236
S':'
asbag77
(g98
g79
NtRp237
(dp238
g82
(dp239
sg91
g224
sg84
(lp240
g77
(g78
g79
NtRp241
(dp242
g82
(dp243
g90
I5
ssg91
g237
sg84
(lp244
S'127.0.0.1'
p245
asbasbasbag77
(g93
g79
NtRp246
(dp247
g82
(dp248
sg91
g87
sg84
(lp249
g77
(g98
g79
NtRp250
(dp251
g82
(dp252
g102
g103
ssg91
g246
sg84
(lp253
S'controller'
p254
asbag77
(g98
g79
NtRp255
(dp256
g82
(dp257
g109
g110
ssg91
g246
sg84
(lp258
S':'
asbag77
(g98
g79
NtRp259
(dp260
g82
(dp261
sg91
g246
sg84
(lp262
g77
(g78
g79
NtRp263
(dp264
g82
(dp265
g90
I5
ssg91
g259
sg84
(lp266
S'docs'
p267
asbasbasbag77
(g93
g79
NtRp268
(dp269
g82
(dp270
sg91
g87
sg84
(lp271
g77
(g98
g79
NtRp272
(dp273
g82
(dp274
g102
g103
ssg91
g268
sg84
(lp275
S'cookies'
p276
asbag77
(g98
g79
NtRp277
(dp278
g82
(dp279
g109
g110
ssg91
g268
sg84
(lp280
S':'
asbag77
(g98
g79
NtRp281
(dp282
g82
(dp283
sg91
g268
sg84
(lp284
g77
(g78
g79
NtRp285
(dp286
g82
(dp287
g90
I5
ssg91
g281
sg84
(lp288
g77
(g86
g79
NtRp289
(dp290
g82
(dp291
g90
I4
ssg91
Nsg84
(lp292
g77
(g93
g79
NtRp293
(dp294
g82
(dp295
sg91
g289
sg84
(lp296
g77
(g98
g79
NtRp297
(dp298
g82
(dp299
g102
g103
ssg91
g293
sg84
(lp300
S'session_id_admin'
p301
asbag77
(g98
g79
NtRp302
(dp303
g82
(dp304
g109
g110
ssg91
g293
sg84
(lp305
S':'
asbag77
(g98
g79
NtRp306
(dp307
g82
(dp308
sg91
g293
sg84
(lp309
g77
(g78
g79
NtRp310
(dp311
g82
(dp312
g90
I4
ssg91
g306
sg84
(lp313
g77
(g86
g79
NtRp314
(dp315
g82
(dp316
g90
I3
ssg91
Nsg84
(lp317
g77
(g93
g79
NtRp318
(dp319
g82
(dp320
sg91
g314
sg84
(lp321
g77
(g98
g79
NtRp322
(dp323
g82
(dp324
g102
g103
ssg91
g318
sg84
(lp325
S'comment'
p326
asbag77
(g98
g79
NtRp327
(dp328
g82
(dp329
g109
g110
ssg91
g318
sg84
(lp330
S':'
asbag77
(g98
g79
NtRp331
(dp332
g82
(dp333
sg91
g318
sg84
(lp334
g77
(g78
g79
NtRp335
(dp336
g82
(dp337
g90
I3
ssg91
g331
sg84
(lp338
S''
asbasbasbag77
(g93
g79
NtRp339
(dp340
g82
(dp341
sg91
g314
sg84
(lp342
g77
(g98
g79
NtRp343
(dp344
g82
(dp345
g102
g103
ssg91
g339
sg84
(lp346
S'domain'
p347
asbag77
(g98
g79
NtRp348
(dp349
g82
(dp350
g109
g110
ssg91
g339
sg84
(lp351
S':'
asbag77
(g98
g79
NtRp352
(dp353
g82
(dp354
sg91
g339
sg84
(lp355
g77
(g78
g79
NtRp356
(dp357
g82
(dp358
g90
I3
ssg91
g352
sg84
(lp359
S''
asbasbasbag77
(g93
g79
NtRp360
(dp361
g82
(dp362
sg91
g314
sg84
(lp363
g77
(g98
g79
NtRp364
(dp365
g82
(dp366
g102
g103
ssg91
g360
sg84
(lp367
S'expires'
p368
asbag77
(g98
g79
NtRp369
(dp370
g82
(dp371
g109
g110
ssg91
g360
sg84
(lp372
S':'
asbag77
(g98
g79
NtRp373
(dp374
g82
(dp375
sg91
g360
sg84
(lp376
g77
(g78
g79
NtRp377
(dp378
g82
(dp379
g90
I3
ssg91
g373
sg84
(lp380
S''
asbasbasbag77
(g93
g79
NtRp381
(dp382
g82
(dp383
sg91
g314
sg84
(lp384
g77
(g98
g79
NtRp385
(dp386
g82
(dp387
g102
g103
ssg91
g381
sg84
(lp388
S'httponly'
p389
asbag77
(g98
g79
NtRp390
(dp391
g82
(dp392
g109
g110
ssg91
g381
sg84
(lp393
S':'
asbag77
(g98
g79
NtRp394
(dp395
g82
(dp396
sg91
g381
sg84
(lp397
g77
(g78
g79
NtRp398
(dp399
g82
(dp400
g90
I3
ssg91
g394
sg84
(lp401
S''
asbasbasbag77
(g93
g79
NtRp402
(dp403
g82
(dp404
sg91
g314
sg84
(lp405
g77
(g98
g79
NtRp406
(dp407
g82
(dp408
g102
g103
ssg91
g402
sg84
(lp409
S'max-age'
p410
asbag77
(g98
g79
NtRp411
(dp412
g82
(dp413
g109
g110
ssg91
g402
sg84
(lp414
S':'
asbag77
(g98
g79
NtRp415
(dp416
g82
(dp417
sg91
g402
sg84
(lp418
g77
(g78
g79
NtRp419
(dp420
g82
(dp421
g90
I3
ssg91
g415
sg84
(lp422
S''
asbasbasbag77
(g93
g79
NtRp423
(dp424
g82
(dp425
sg91
g314
sg84
(lp426
g77
(g98
g79
NtRp427
(dp428
g82
(dp429
g102
g103
ssg91
g423
sg84
(lp430
S'path'
p431
asbag77
(g98
g79
NtRp432
(dp433
g82
(dp434
g109
g110
ssg91
g423
sg84
(lp435
S':'
asbag77
(g98
g79
NtRp436
(dp437
g82
(dp438
sg91
g423
sg84
(lp439
g77
(g78
g79
NtRp440
(dp441
g82
(dp442
g90
I3
ssg91
g436
sg84
(lp443
S''
asbasbasbag77
(g93
g79
NtRp444
(dp445
g82
(dp446
sg91
g314
sg84
(lp447
g77
(g98
g79
NtRp448
(dp449
g82
(dp450
g102
g103
ssg91
g444
sg84
(lp451
S'secure'
p452
asbag77
(g98
g79
NtRp453
(dp454
g82
(dp455
g109
g110
ssg91
g444
sg84
(lp456
S':'
asbag77
(g98
g79
NtRp457
(dp458
g82
(dp459
sg91
g444
sg84
(lp460
g77
(g78
g79
NtRp461
(dp462
g82
(dp463
g90
I3
ssg91
g457
sg84
(lp464
S''
asbasbasbag77
(g93
g79
NtRp465
(dp466
g82
(dp467
sg91
g314
sg84
(lp468
g77
(g98
g79
NtRp469
(dp470
g82
(dp471
g102
g103
ssg91
g465
sg84
(lp472
S'version'
p473
asbag77
(g98
g79
NtRp474
(dp475
g82
(dp476
g109
g110
ssg91
g465
sg84
(lp477
S':'
asbag77
(g98
g79
NtRp478
(dp479
g82
(dp480
sg91
g465
sg84
(lp481
g77
(g78
g79
NtRp482
(dp483
g82
(dp484
g90
I3
ssg91
g478
sg84
(lp485
S''
asbasbasbasbasbasbasbag77
(g93
g79
NtRp486
(dp487
g82
(dp488
sg91
g289
sg84
(lp489
g77
(g98
g79
NtRp490
(dp491
g82
(dp492
g102
g103
ssg91
g486
sg84
(lp493
S'session_id_grammateus3'
p494
asbag77
(g98
g79
NtRp495
(dp496
g82
(dp497
g109
g110
ssg91
g486
sg84
(lp498
S':'
asbag77
(g98
g79
NtRp499
(dp500
g82
(dp501
sg91
g486
sg84
(lp502
g77
(g78
g79
NtRp503
(dp504
g82
(dp505
g90
I4
ssg91
g499
sg84
(lp506
g77
(g86
g79
NtRp507
(dp508
g82
(dp509
g90
I3
ssg91
Nsg84
(lp510
g77
(g93
g79
NtRp511
(dp512
g82
(dp513
sg91
g507
sg84
(lp514
g77
(g98
g79
NtRp515
(dp516
g82
(dp517
g102
g103
ssg91
g511
sg84
(lp518
g326
asbag77
(g98
g79
NtRp519
(dp520
g82
(dp521
g109
g110
ssg91
g511
sg84
(lp522
S':'
asbag77
(g98
g79
NtRp523
(dp524
g82
(dp525
sg91
g511
sg84
(lp526
g77
(g78
g79
NtRp527
(dp528
g82
(dp529
g90
I3
ssg91
g523
sg84
(lp530
S''
asbasbasbag77
(g93
g79
NtRp531
(dp532
g82
(dp533
sg91
g507
sg84
(lp534
g77
(g98
g79
NtRp535
(dp536
g82
(dp537
g102
g103
ssg91
g531
sg84
(lp538
g347
asbag77
(g98
g79
NtRp539
(dp540
g82
(dp541
g109
g110
ssg91
g531
sg84
(lp542
S':'
asbag77
(g98
g79
NtRp543
(dp544
g82
(dp545
sg91
g531
sg84
(lp546
g77
(g78
g79
NtRp547
(dp548
g82
(dp549
g90
I3
ssg91
g543
sg84
(lp550
S''
asbasbasbag77
(g93
g79
NtRp551
(dp552
g82
(dp553
sg91
g507
sg84
(lp554
g77
(g98
g79
NtRp555
(dp556
g82
(dp557
g102
g103
ssg91
g551
sg84
(lp558
g368
asbag77
(g98
g79
NtRp559
(dp560
g82
(dp561
g109
g110
ssg91
g551
sg84
(lp562
S':'
asbag77
(g98
g79
NtRp563
(dp564
g82
(dp565
sg91
g551
sg84
(lp566
g77
(g78
g79
NtRp567
(dp568
g82
(dp569
g90
I3
ssg91
g563
sg84
(lp570
S''
asbasbasbag77
(g93
g79
NtRp571
(dp572
g82
(dp573
sg91
g507
sg84
(lp574
g77
(g98
g79
NtRp575
(dp576
g82
(dp577
g102
g103
ssg91
g571
sg84
(lp578
g389
asbag77
(g98
g79
NtRp579
(dp580
g82
(dp581
g109
g110
ssg91
g571
sg84
(lp582
S':'
asbag77
(g98
g79
NtRp583
(dp584
g82
(dp585
sg91
g571
sg84
(lp586
g77
(g78
g79
NtRp587
(dp588
g82
(dp589
g90
I3
ssg91
g583
sg84
(lp590
S''
asbasbasbag77
(g93
g79
NtRp591
(dp592
g82
(dp593
sg91
g507
sg84
(lp594
g77
(g98
g79
NtRp595
(dp596
g82
(dp597
g102
g103
ssg91
g591
sg84
(lp598
g410
asbag77
(g98
g79
NtRp599
(dp600
g82
(dp601
g109
g110
ssg91
g591
sg84
(lp602
S':'
asbag77
(g98
g79
NtRp603
(dp604
g82
(dp605
sg91
g591
sg84
(lp606
g77
(g78
g79
NtRp607
(dp608
g82
(dp609
g90
I3
ssg91
g603
sg84
(lp610
S''
asbasbasbag77
(g93
g79
NtRp611
(dp612
g82
(dp613
sg91
g507
sg84
(lp614
g77
(g98
g79
NtRp615
(dp616
g82
(dp617
g102
g103
ssg91
g611
sg84
(lp618
g431
asbag77
(g98
g79
NtRp619
(dp620
g82
(dp621
g109
g110
ssg91
g611
sg84
(lp622
S':'
asbag77
(g98
g79
NtRp623
(dp624
g82
(dp625
sg91
g611
sg84
(lp626
g77
(g78
g79
NtRp627
(dp628
g82
(dp629
g90
I3
ssg91
g623
sg84
(lp630
S''
asbasbasbag77
(g93
g79
NtRp631
(dp632
g82
(dp633
sg91
g507
sg84
(lp634
g77
(g98
g79
NtRp635
(dp636
g82
(dp637
g102
g103
ssg91
g631
sg84
(lp638
g452
asbag77
(g98
g79
NtRp639
(dp640
g82
(dp641
g109
g110
ssg91
g631
sg84
(lp642
S':'
asbag77
(g98
g79
NtRp643
(dp644
g82
(dp645
sg91
g631
sg84
(lp646
g77
(g78
g79
NtRp647
(dp648
g82
(dp649
g90
I3
ssg91
g643
sg84
(lp650
S''
asbasbasbag77
(g93
g79
NtRp651
(dp652
g82
(dp653
sg91
g507
sg84
(lp654
g77
(g98
g79
NtRp655
(dp656
g82
(dp657
g102
g103
ssg91
g651
sg84
(lp658
g473
asbag77
(g98
g79
NtRp659
(dp660
g82
(dp661
g109
g110
ssg91
g651
sg84
(lp662
S':'
asbag77
(g98
g79
NtRp663
(dp664
g82
(dp665
sg91
g651
sg84
(lp666
g77
(g78
g79
NtRp667
(dp668
g82
(dp669
g90
I3
ssg91
g663
sg84
(lp670
S''
asbasbasbasbasbasbasbag77
(g93
g79
NtRp671
(dp672
g82
(dp673
sg91
g289
sg84
(lp674
g77
(g98
g79
NtRp675
(dp676
g82
(dp677
g102
g103
ssg91
g671
sg84
(lp678
S'session_id_paideia'
p679
asbag77
(g98
g79
NtRp680
(dp681
g82
(dp682
g109
g110
ssg91
g671
sg84
(lp683
S':'
asbag77
(g98
g79
NtRp684
(dp685
g82
(dp686
sg91
g671
sg84
(lp687
g77
(g78
g79
NtRp688
(dp689
g82
(dp690
g90
I4
ssg91
g684
sg84
(lp691
g77
(g86
g79
NtRp692
(dp693
g82
(dp694
g90
I3
ssg91
Nsg84
(lp695
g77
(g93
g79
NtRp696
(dp697
g82
(dp698
sg91
g692
sg84
(lp699
g77
(g98
g79
NtRp700
(dp701
g82
(dp702
g102
g103
ssg91
g696
sg84
(lp703
g326
asbag77
(g98
g79
NtRp704
(dp705
g82
(dp706
g109
g110
ssg91
g696
sg84
(lp707
S':'
asbag77
(g98
g79
NtRp708
(dp709
g82
(dp710
sg91
g696
sg84
(lp711
g77
(g78
g79
NtRp712
(dp713
g82
(dp714
g90
I3
ssg91
g708
sg84
(lp715
S''
asbasbasbag77
(g93
g79
NtRp716
(dp717
g82
(dp718
sg91
g692
sg84
(lp719
g77
(g98
g79
NtRp720
(dp721
g82
(dp722
g102
g103
ssg91
g716
sg84
(lp723
g347
asbag77
(g98
g79
NtRp724
(dp725
g82
(dp726
g109
g110
ssg91
g716
sg84
(lp727
S':'
asbag77
(g98
g79
NtRp728
(dp729
g82
(dp730
sg91
g716
sg84
(lp731
g77
(g78
g79
NtRp732
(dp733
g82
(dp734
g90
I3
ssg91
g728
sg84
(lp735
S''
asbasbasbag77
(g93
g79
NtRp736
(dp737
g82
(dp738
sg91
g692
sg84
(lp739
g77
(g98
g79
NtRp740
(dp741
g82
(dp742
g102
g103
ssg91
g736
sg84
(lp743
g368
asbag77
(g98
g79
NtRp744
(dp745
g82
(dp746
g109
g110
ssg91
g736
sg84
(lp747
S':'
asbag77
(g98
g79
NtRp748
(dp749
g82
(dp750
sg91
g736
sg84
(lp751
g77
(g78
g79
NtRp752
(dp753
g82
(dp754
g90
I3
ssg91
g748
sg84
(lp755
S''
asbasbasbag77
(g93
g79
NtRp756
(dp757
g82
(dp758
sg91
g692
sg84
(lp759
g77
(g98
g79
NtRp760
(dp761
g82
(dp762
g102
g103
ssg91
g756
sg84
(lp763
g389
asbag77
(g98
g79
NtRp764
(dp765
g82
(dp766
g109
g110
ssg91
g756
sg84
(lp767
S':'
asbag77
(g98
g79
NtRp768
(dp769
g82
(dp770
sg91
g756
sg84
(lp771
g77
(g78
g79
NtRp772
(dp773
g82
(dp774
g90
I3
ssg91
g768
sg84
(lp775
S''
asbasbasbag77
(g93
g79
NtRp776
(dp777
g82
(dp778
sg91
g692
sg84
(lp779
g77
(g98
g79
NtRp780
(dp781
g82
(dp782
g102
g103
ssg91
g776
sg84
(lp783
g410
asbag77
(g98
g79
NtRp784
(dp785
g82
(dp786
g109
g110
ssg91
g776
sg84
(lp787
S':'
asbag77
(g98
g79
NtRp788
(dp789
g82
(dp790
sg91
g776
sg84
(lp791
g77
(g78
g79
NtRp792
(dp793
g82
(dp794
g90
I3
ssg91
g788
sg84
(lp795
S''
asbasbasbag77
(g93
g79
NtRp796
(dp797
g82
(dp798
sg91
g692
sg84
(lp799
g77
(g98
g79
NtRp800
(dp801
g82
(dp802
g102
g103
ssg91
g796
sg84
(lp803
g431
asbag77
(g98
g79
NtRp804
(dp805
g82
(dp806
g109
g110
ssg91
g796
sg84
(lp807
S':'
asbag77
(g98
g79
NtRp808
(dp809
g82
(dp810
sg91
g796
sg84
(lp811
g77
(g78
g79
NtRp812
(dp813
g82
(dp814
g90
I3
ssg91
g808
sg84
(lp815
S''
asbasbasbag77
(g93
g79
NtRp816
(dp817
g82
(dp818
sg91
g692
sg84
(lp819
g77
(g98
g79
NtRp820
(dp821
g82
(dp822
g102
g103
ssg91
g816
sg84
(lp823
g452
asbag77
(g98
g79
NtRp824
(dp825
g82
(dp826
g109
g110
ssg91
g816
sg84
(lp827
S':'
asbag77
(g98
g79
NtRp828
(dp829
g82
(dp830
sg91
g816
sg84
(lp831
g77
(g78
g79
NtRp832
(dp833
g82
(dp834
g90
I3
ssg91
g828
sg84
(lp835
S''
asbasbasbag77
(g93
g79
NtRp836
(dp837
g82
(dp838
sg91
g692
sg84
(lp839
g77
(g98
g79
NtRp840
(dp841
g82
(dp842
g102
g103
ssg91
g836
sg84
(lp843
g473
asbag77
(g98
g79
NtRp844
(dp845
g82
(dp846
g109
g110
ssg91
g836
sg84
(lp847
S':'
asbag77
(g98
g79
NtRp848
(dp849
g82
(dp850
sg91
g836
sg84
(lp851
g77
(g78
g79
NtRp852
(dp853
g82
(dp854
g90
I3
ssg91
g848
sg84
(lp855
S''
asbasbasbasbasbasbasbag77
(g93
g79
NtRp856
(dp857
g82
(dp858
sg91
g289
sg84
(lp859
g77
(g98
g79
NtRp860
(dp861
g82
(dp862
g102
g103
ssg91
g856
sg84
(lp863
S'session_id_welcome'
p864
asbag77
(g98
g79
NtRp865
(dp866
g82
(dp867
g109
g110
ssg91
g856
sg84
(lp868
S':'
asbag77
(g98
g79
NtRp869
(dp870
g82
(dp871
sg91
g856
sg84
(lp872
g77
(g78
g79
NtRp873
(dp874
g82
(dp875
g90
I4
ssg91
g869
sg84
(lp876
g77
(g86
g79
NtRp877
(dp878
g82
(dp879
g90
I3
ssg91
Nsg84
(lp880
g77
(g93
g79
NtRp881
(dp882
g82
(dp883
sg91
g877
sg84
(lp884
g77
(g98
g79
NtRp885
(dp886
g82
(dp887
g102
g103
ssg91
g881
sg84
(lp888
g326
asbag77
(g98
g79
NtRp889
(dp890
g82
(dp891
g109
g110
ssg91
g881
sg84
(lp892
S':'
asbag77
(g98
g79
NtRp893
(dp894
g82
(dp895
sg91
g881
sg84
(lp896
g77
(g78
g79
NtRp897
(dp898
g82
(dp899
g90
I3
ssg91
g893
sg84
(lp900
S''
asbasbasbag77
(g93
g79
NtRp901
(dp902
g82
(dp903
sg91
g877
sg84
(lp904
g77
(g98
g79
NtRp905
(dp906
g82
(dp907
g102
g103
ssg91
g901
sg84
(lp908
g347
asbag77
(g98
g79
NtRp909
(dp910
g82
(dp911
g109
g110
ssg91
g901
sg84
(lp912
S':'
asbag77
(g98
g79
NtRp913
(dp914
g82
(dp915
sg91
g901
sg84
(lp916
g77
(g78
g79
NtRp917
(dp918
g82
(dp919
g90
I3
ssg91
g913
sg84
(lp920
S''
asbasbasbag77
(g93
g79
NtRp921
(dp922
g82
(dp923
sg91
g877
sg84
(lp924
g77
(g98
g79
NtRp925
(dp926
g82
(dp927
g102
g103
ssg91
g921
sg84
(lp928
g368
asbag77
(g98
g79
NtRp929
(dp930
g82
(dp931
g109
g110
ssg91
g921
sg84
(lp932
S':'
asbag77
(g98
g79
NtRp933
(dp934
g82
(dp935
sg91
g921
sg84
(lp936
g77
(g78
g79
NtRp937
(dp938
g82
(dp939
g90
I3
ssg91
g933
sg84
(lp940
S''
asbasbasbag77
(g93
g79
NtRp941
(dp942
g82
(dp943
sg91
g877
sg84
(lp944
g77
(g98
g79
NtRp945
(dp946
g82
(dp947
g102
g103
ssg91
g941
sg84
(lp948
g389
asbag77
(g98
g79
NtRp949
(dp950
g82
(dp951
g109
g110
ssg91
g941
sg84
(lp952
S':'
asbag77
(g98
g79
NtRp953
(dp954
g82
(dp955
sg91
g941
sg84
(lp956
g77
(g78
g79
NtRp957
(dp958
g82
(dp959
g90
I3
ssg91
g953
sg84
(lp960
S''
asbasbasbag77
(g93
g79
NtRp961
(dp962
g82
(dp963
sg91
g877
sg84
(lp964
g77
(g98
g79
NtRp965
(dp966
g82
(dp967
g102
g103
ssg91
g961
sg84
(lp968
g410
asbag77
(g98
g79
NtRp969
(dp970
g82
(dp971
g109
g110
ssg91
g961
sg84
(lp972
S':'
asbag77
(g98
g79
NtRp973
(dp974
g82
(dp975
sg91
g961
sg84
(lp976
g77
(g78
g79
NtRp977
(dp978
g82
(dp979
g90
I3
ssg91
g973
sg84
(lp980
S''
asbasbasbag77
(g93
g79
NtRp981
(dp982
g82
(dp983
sg91
g877
sg84
(lp984
g77
(g98
g79
NtRp985
(dp986
g82
(dp987
g102
g103
ssg91
g981
sg84
(lp988
g431
asbag77
(g98
g79
NtRp989
(dp990
g82
(dp991
g109
g110
ssg91
g981
sg84
(lp992
S':'
asbag77
(g98
g79
NtRp993
(dp994
g82
(dp995
sg91
g981
sg84
(lp996
g77
(g78
g79
NtRp997
(dp998
g82
(dp999
g90
I3
ssg91
g993
sg84
(lp1000
S''
asbasbasbag77
(g93
g79
NtRp1001
(dp1002
g82
(dp1003
sg91
g877
sg84
(lp1004
g77
(g98
g79
NtRp1005
(dp1006
g82
(dp1007
g102
g103
ssg91
g1001
sg84
(lp1008
g452
asbag77
(g98
g79
NtRp1009
(dp1010
g82
(dp1011
g109
g110
ssg91
g1001
sg84
(lp1012
S':'
asbag77
(g98
g79
NtRp1013
(dp1014
g82
(dp1015
sg91
g1001
sg84
(lp1016
g77
(g78
g79
NtRp1017
(dp1018
g82
(dp1019
g90
I3
ssg91
g1013
sg84
(lp1020
S''
asbasbasbag77
(g93
g79
NtRp1021
(dp1022
g82
(dp1023
sg91
g877
sg84
(lp1024
g77
(g98
g79
NtRp1025
(dp1026
g82
(dp1027
g102
g103
ssg91
g1021
sg84
(lp1028
g473
asbag77
(g98
g79
NtRp1029
(dp1030
g82
(dp1031
g109
g110
ssg91
g1021
sg84
(lp1032
S':'
asbag77
(g98
g79
NtRp1033
(dp1034
g82
(dp1035
sg91
g1021
sg84
(lp1036
g77
(g78
g79
NtRp1037
(dp1038
g82
(dp1039
g90
I3
ssg91
g1033
sg84
(lp1040
S''
asbasbasbasbasbasbasbasbasbasbasbag77
(g93
g79
NtRp1041
(dp1042
g82
(dp1043
sg91
g87
sg84
(lp1044
g77
(g98
g79
NtRp1045
(dp1046
g82
(dp1047
g102
g103
ssg91
g1041
sg84
(lp1048
S'env'
p1049
asbag77
(g98
g79
NtRp1050
(dp1051
g82
(dp1052
g109
g110
ssg91
g1041
sg84
(lp1053
S':'
asbag77
(g98
g79
NtRp1054
(dp1055
g82
(dp1056
sg91
g1041
sg84
(lp1057
g77
(g78
g79
NtRp1058
(dp1059
g82
(dp1060
g90
I5
ssg91
g1054
sg84
(lp1061
g77
(g86
g79
NtRp1062
(dp1063
g82
(dp1064
g90
I4
ssg91
Nsg84
(lp1065
g77
(g93
g79
NtRp1066
(dp1067
g82
(dp1068
sg91
g1062
sg84
(lp1069
g77
(g98
g79
NtRp1070
(dp1071
g82
(dp1072
g102
g103
ssg91
g1066
sg84
(lp1073
S'app_folders'
p1074
asbag77
(g98
g79
NtRp1075
(dp1076
g82
(dp1077
g109
g110
ssg91
g1066
sg84
(lp1078
S':'
asbag77
(g98
g79
NtRp1079
(dp1080
g82
(dp1081
sg91
g1066
sg84
(lp1082
g77
(g78
g79
NtRp1083
(dp1084
g82
(dp1085
g90
I4
ssg91
g1079
sg84
(lp1086
S"set(['/home/ian/web/web2py/applications/welcome/', '/home/ian/web/web2py/applications/grammateus3/', '/home/ian/web/web2py/applications/admin/'])"
p1087
asbasbasbag77
(g93
g79
NtRp1088
(dp1089
g82
(dp1090
sg91
g1062
sg84
(lp1091
g77
(g98
g79
NtRp1092
(dp1093
g82
(dp1094
g102
g103
ssg91
g1088
sg84
(lp1095
S'applications_parent'
p1096
asbag77
(g98
g79
NtRp1097
(dp1098
g82
(dp1099
g109
g110
ssg91
g1088
sg84
(lp1100
S':'
asbag77
(g98
g79
NtRp1101
(dp1102
g82
(dp1103
sg91
g1088
sg84
(lp1104
g77
(g78
g79
NtRp1105
(dp1106
g82
(dp1107
g90
I4
ssg91
g1101
sg84
(lp1108
S'/home/ian/web/web2py'
p1109
asbasbasbag77
(g93
g79
NtRp1110
(dp1111
g82
(dp1112
sg91
g1062
sg84
(lp1113
g77
(g98
g79
NtRp1114
(dp1115
g82
(dp1116
g102
g103
ssg91
g1110
sg84
(lp1117
S'cmd_args'
p1118
asbag77
(g98
g79
NtRp1119
(dp1120
g82
(dp1121
g109
g110
ssg91
g1110
sg84
(lp1122
S':'
asbag77
(g98
g79
NtRp1123
(dp1124
g82
(dp1125
sg91
g1110
sg84
(lp1126
g77
(g78
g79
NtRp1127
(dp1128
g82
(dp1129
g90
I4
ssg91
g1123
sg84
(lp1130
g77
(g86
g79
NtRp1131
(dp1132
g82
(dp1133
g90
I3
ssg91
Nsg84
(lp1134
sbasbasbasbag77
(g93
g79
NtRp1135
(dp1136
g82
(dp1137
sg91
g1062
sg84
(lp1138
g77
(g98
g79
NtRp1139
(dp1140
g82
(dp1141
g102
g103
ssg91
g1135
sg84
(lp1142
S'cmd_options'
p1143
asbag77
(g98
g79
NtRp1144
(dp1145
g82
(dp1146
g109
g110
ssg91
g1135
sg84
(lp1147
S':'
asbag77
(g98
g79
NtRp1148
(dp1149
g82
(dp1150
sg91
g1135
sg84
(lp1151
g77
(g78
g79
NtRp1152
(dp1153
g82
(dp1154
g90
I4
ssg91
g1148
sg84
(lp1155
S"<Values at 0x2d42758: {'verbose': False, 'ip': '127.0.0.1', 'shutdown_timeout': 5, 'taskbar': False, 'nocron': False, 'pid_filename': 'httpserver.pid', 'maxthreads': None, 'softcron': False, 'server_name': 'uriel', 'bpython': False, 'nogui': False, 'port': 8000, 'extcron': False, 'debuglevel': 30, 'test': None, 'folder': '/home/ian/web/web2py', 'config': '', 'import_models': False, 'winservice': '', 'shell': None, 'run': '', 'log_filename': 'httpserver.log', 'args': [''], 'socket_timeout': 1, 'ssl_ca_certificate': None, 'scheduler': None, 'profiler_filename': None, 'ssl_private_key': '', 'password': '<ask>', 'request_queue_size': 5, 'ssl_certificate': '', 'cronjob': False, 'numthreads': None, 'quiet': False, 'interfaces': None, 'minthreads': None, 'timeout': 10, 'plain': False, 'nobanner': False}>"
p1156
asbasbasbag77
(g93
g79
NtRp1157
(dp1158
g82
(dp1159
sg91
g1062
sg84
(lp1160
g77
(g98
g79
NtRp1161
(dp1162
g82
(dp1163
g102
g103
ssg91
g1157
sg84
(lp1164
S'db_sessions'
p1165
asbag77
(g98
g79
NtRp1166
(dp1167
g82
(dp1168
g109
g110
ssg91
g1157
sg84
(lp1169
S':'
asbag77
(g98
g79
NtRp1170
(dp1171
g82
(dp1172
sg91
g1157
sg84
(lp1173
g77
(g78
g79
NtRp1174
(dp1175
g82
(dp1176
g90
I4
ssg91
g1170
sg84
(lp1177
S'set([])'
p1178
asbasbasbag77
(g93
g79
NtRp1179
(dp1180
g82
(dp1181
sg91
g1062
sg84
(lp1182
g77
(g98
g79
NtRp1183
(dp1184
g82
(dp1185
g102
g103
ssg91
g1179
sg84
(lp1186
S'debugging'
p1187
asbag77
(g98
g79
NtRp1188
(dp1189
g82
(dp1190
g109
g110
ssg91
g1179
sg84
(lp1191
S':'
asbag77
(g98
g79
NtRp1192
(dp1193
g82
(dp1194
sg91
g1179
sg84
(lp1195
g77
(g78
g79
NtRp1196
(dp1197
g82
(dp1198
g90
I4
ssg91
g1192
sg84
(lp1199
S'False'
p1200
asbasbasbag77
(g93
g79
NtRp1201
(dp1202
g82
(dp1203
sg91
g1062
sg84
(lp1204
g77
(g98
g79
NtRp1205
(dp1206
g82
(dp1207
g102
g103
ssg91
g1201
sg84
(lp1208
S'gluon_parent'
p1209
asbag77
(g98
g79
NtRp1210
(dp1211
g82
(dp1212
g109
g110
ssg91
g1201
sg84
(lp1213
S':'
asbag77
(g98
g79
NtRp1214
(dp1215
g82
(dp1216
sg91
g1201
sg84
(lp1217
g77
(g78
g79
NtRp1218
(dp1219
g82
(dp1220
g90
I4
ssg91
g1214
sg84
(lp1221
S'/home/ian/web/web2py'
p1222
asbasbasbag77
(g93
g79
NtRp1223
(dp1224
g82
(dp1225
sg91
g1062
sg84
(lp1226
g77
(g98
g79
NtRp1227
(dp1228
g82
(dp1229
g102
g103
ssg91
g1223
sg84
(lp1230
S'http_accept'
p1231
asbag77
(g98
g79
NtRp1232
(dp1233
g82
(dp1234
g109
g110
ssg91
g1223
sg84
(lp1235
S':'
asbag77
(g98
g79
NtRp1236
(dp1237
g82
(dp1238
sg91
g1223
sg84
(lp1239
g77
(g78
g79
NtRp1240
(dp1241
g82
(dp1242
g90
I4
ssg91
g1236
sg84
(lp1243
S'*/*'
p1244
asbasbasbag77
(g93
g79
NtRp1245
(dp1246
g82
(dp1247
sg91
g1062
sg84
(lp1248
g77
(g98
g79
NtRp1249
(dp1250
g82
(dp1251
g102
g103
ssg91
g1245
sg84
(lp1252
S'http_accept_encoding'
p1253
asbag77
(g98
g79
NtRp1254
(dp1255
g82
(dp1256
g109
g110
ssg91
g1245
sg84
(lp1257
S':'
asbag77
(g98
g79
NtRp1258
(dp1259
g82
(dp1260
sg91
g1245
sg84
(lp1261
g77
(g78
g79
NtRp1262
(dp1263
g82
(dp1264
g90
I4
ssg91
g1258
sg84
(lp1265
S'gzip, deflate'
p1266
asbasbasbag77
(g93
g79
NtRp1267
(dp1268
g82
(dp1269
sg91
g1062
sg84
(lp1270
g77
(g98
g79
NtRp1271
(dp1272
g82
(dp1273
g102
g103
ssg91
g1267
sg84
(lp1274
S'http_accept_language'
p1275
asbag77
(g98
g79
NtRp1276
(dp1277
g82
(dp1278
g109
g110
ssg91
g1267
sg84
(lp1279
S':'
asbag77
(g98
g79
NtRp1280
(dp1281
g82
(dp1282
sg91
g1267
sg84
(lp1283
g77
(g78
g79
NtRp1284
(dp1285
g82
(dp1286
g90
I4
ssg91
g1280
sg84
(lp1287
S'en-us,en;q=0.5'
p1288
asbasbasbag77
(g93
g79
NtRp1289
(dp1290
g82
(dp1291
sg91
g1062
sg84
(lp1292
g77
(g98
g79
NtRp1293
(dp1294
g82
(dp1295
g102
g103
ssg91
g1289
sg84
(lp1296
S'http_connection'
p1297
asbag77
(g98
g79
NtRp1298
(dp1299
g82
(dp1300
g109
g110
ssg91
g1289
sg84
(lp1301
S':'
asbag77
(g98
g79
NtRp1302
(dp1303
g82
(dp1304
sg91
g1289
sg84
(lp1305
g77
(g78
g79
NtRp1306
(dp1307
g82
(dp1308
g90
I4
ssg91
g1302
sg84
(lp1309
S'keep-alive'
p1310
asbasbasbag77
(g93
g79
NtRp1311
(dp1312
g82
(dp1313
sg91
g1062
sg84
(lp1314
g77
(g98
g79
NtRp1315
(dp1316
g82
(dp1317
g102
g103
ssg91
g1311
sg84
(lp1318
S'http_cookie'
p1319
asbag77
(g98
g79
NtRp1320
(dp1321
g82
(dp1322
g109
g110
ssg91
g1311
sg84
(lp1323
S':'
asbag77
(g98
g79
NtRp1324
(dp1325
g82
(dp1326
sg91
g1311
sg84
(lp1327
g77
(g78
g79
NtRp1328
(dp1329
g82
(dp1330
g90
I4
ssg91
g1324
sg84
(lp1331
S'session_id_paideia=127.0.0.1-d2b16629-afad-4e3f-840d-43f7f7183774; session_id_welcome=127.0.0.1-2d7c426d-8b25-4e09-8198-5df3cafff407; session_id_admin=127.0.0.1-b5146d43-6d89-4119-a39b-d8d2617ee682; session_id_grammateus3=127.0.0.1-ae131346-de62-453a-b308-33d5b317e3e5'
p1332
asbasbasbag77
(g93
g79
NtRp1333
(dp1334
g82
(dp1335
sg91
g1062
sg84
(lp1336
g77
(g98
g79
NtRp1337
(dp1338
g82
(dp1339
g102
g103
ssg91
g1333
sg84
(lp1340
S'http_host'
p1341
asbag77
(g98
g79
NtRp1342
(dp1343
g82
(dp1344
g109
g110
ssg91
g1333
sg84
(lp1345
S':'
asbag77
(g98
g79
NtRp1346
(dp1347
g82
(dp1348
sg91
g1333
sg84
(lp1349
g77
(g78
g79
NtRp1350
(dp1351
g82
(dp1352
g90
I4
ssg91
g1346
sg84
(lp1353
S'127.0.0.1:8000'
p1354
asbasbasbag77
(g93
g79
NtRp1355
(dp1356
g82
(dp1357
sg91
g1062
sg84
(lp1358
g77
(g98
g79
NtRp1359
(dp1360
g82
(dp1361
g102
g103
ssg91
g1355
sg84
(lp1362
S'http_referer'
p1363
asbag77
(g98
g79
NtRp1364
(dp1365
g82
(dp1366
g109
g110
ssg91
g1355
sg84
(lp1367
S':'
asbag77
(g98
g79
NtRp1368
(dp1369
g82
(dp1370
sg91
g1355
sg84
(lp1371
g77
(g78
g79
NtRp1372
(dp1373
g82
(dp1374
g90
I4
ssg91
g1368
sg84
(lp1375
S'http://127.0.0.1:8000/grammateus3/docs/text/3Macc'
p1376
asbasbasbag77
(g93
g79
NtRp1377
(dp1378
g82
(dp1379
sg91
g1062
sg84
(lp1380
g77
(g98
g79
NtRp1381
(dp1382
g82
(dp1383
g102
g103
ssg91
g1377
sg84
(lp1384
S'http_user_agent'
p1385
asbag77
(g98
g79
NtRp1386
(dp1387
g82
(dp1388
g109
g110
ssg91
g1377
sg84
(lp1389
S':'
asbag77
(g98
g79
NtRp1390
(dp1391
g82
(dp1392
sg91
g1377
sg84
(lp1393
g77
(g78
g79
NtRp1394
(dp1395
g82
(dp1396
g90
I4
ssg91
g1390
sg84
(lp1397
S'Mozilla/5.0 (X11; Ubuntu; Linux x86_64; rv:11.0) Gecko/20100101 Firefox/11.0 openid'
p1398
asbasbasbag77
(g93
g79
NtRp1399
(dp1400
g82
(dp1401
sg91
g1062
sg84
(lp1402
g77
(g98
g79
NtRp1403
(dp1404
g82
(dp1405
g102
g103
ssg91
g1399
sg84
(lp1406
S'http_web2py_component_element'
p1407
asbag77
(g98
g79
NtRp1408
(dp1409
g82
(dp1410
g109
g110
ssg91
g1399
sg84
(lp1411
S':'
asbag77
(g98
g79
NtRp1412
(dp1413
g82
(dp1414
sg91
g1399
sg84
(lp1415
g77
(g78
g79
NtRp1416
(dp1417
g82
(dp1418
g90
I4
ssg91
g1412
sg84
(lp1419
g223
asbasbasbag77
(g93
g79
NtRp1420
(dp1421
g82
(dp1422
sg91
g1062
sg84
(lp1423
g77
(g98
g79
NtRp1424
(dp1425
g82
(dp1426
g102
g103
ssg91
g1420
sg84
(lp1427
S'http_web2py_component_location'
p1428
asbag77
(g98
g79
NtRp1429
(dp1430
g82
(dp1431
g109
g110
ssg91
g1420
sg84
(lp1432
S':'
asbag77
(g98
g79
NtRp1433
(dp1434
g82
(dp1435
sg91
g1420
sg84
(lp1436
g77
(g78
g79
NtRp1437
(dp1438
g82
(dp1439
g90
I4
ssg91
g1433
sg84
(lp1440
S'http://127.0.0.1:8000/grammateus3/docs/text/3Macc'
p1441
asbasbasbag77
(g93
g79
NtRp1442
(dp1443
g82
(dp1444
sg91
g1062
sg84
(lp1445
g77
(g98
g79
NtRp1446
(dp1447
g82
(dp1448
g102
g103
ssg91
g1442
sg84
(lp1449
S'http_x_requested_with'
p1450
asbag77
(g98
g79
NtRp1451
(dp1452
g82
(dp1453
g109
g110
ssg91
g1442
sg84
(lp1454
S':'
asbag77
(g98
g79
NtRp1455
(dp1456
g82
(dp1457
sg91
g1442
sg84
(lp1458
g77
(g78
g79
NtRp1459
(dp1460
g82
(dp1461
g90
I4
ssg91
g1455
sg84
(lp1462
S'XMLHttpRequest'
p1463
asbasbasbag77
(g93
g79
NtRp1464
(dp1465
g82
(dp1466
sg91
g1062
sg84
(lp1467
g77
(g98
g79
NtRp1468
(dp1469
g82
(dp1470
g102
g103
ssg91
g1464
sg84
(lp1471
S'is_jython'
p1472
asbag77
(g98
g79
NtRp1473
(dp1474
g82
(dp1475
g109
g110
ssg91
g1464
sg84
(lp1476
S':'
asbag77
(g98
g79
NtRp1477
(dp1478
g82
(dp1479
sg91
g1464
sg84
(lp1480
g77
(g78
g79
NtRp1481
(dp1482
g82
(dp1483
g90
I4
ssg91
g1477
sg84
(lp1484
g1200
asbasbasbag77
(g93
g79
NtRp1485
(dp1486
g82
(dp1487
sg91
g1062
sg84
(lp1488
g77
(g98
g79
NtRp1489
(dp1490
g82
(dp1491
g102
g103
ssg91
g1485
sg84
(lp1492
S'is_pypy'
p1493
asbag77
(g98
g79
NtRp1494
(dp1495
g82
(dp1496
g109
g110
ssg91
g1485
sg84
(lp1497
S':'
asbag77
(g98
g79
NtRp1498
(dp1499
g82
(dp1500
sg91
g1485
sg84
(lp1501
g77
(g78
g79
NtRp1502
(dp1503
g82
(dp1504
g90
I4
ssg91
g1498
sg84
(lp1505
g1200
asbasbasbag77
(g93
g79
NtRp1506
(dp1507
g82
(dp1508
sg91
g1062
sg84
(lp1509
g77
(g98
g79
NtRp1510
(dp1511
g82
(dp1512
g102
g103
ssg91
g1506
sg84
(lp1513
S'path_info'
p1514
asbag77
(g98
g79
NtRp1515
(dp1516
g82
(dp1517
g109
g110
ssg91
g1506
sg84
(lp1518
S':'
asbag77
(g98
g79
NtRp1519
(dp1520
g82
(dp1521
sg91
g1506
sg84
(lp1522
g77
(g78
g79
NtRp1523
(dp1524
g82
(dp1525
g90
I4
ssg91
g1519
sg84
(lp1526
S'/grammateus3/docs/section.load/3Macc'
p1527
asbasbasbag77
(g93
g79
NtRp1528
(dp1529
g82
(dp1530
sg91
g1062
sg84
(lp1531
g77
(g98
g79
NtRp1532
(dp1533
g82
(dp1534
g102
g103
ssg91
g1528
sg84
(lp1535
S'query_string'
p1536
asbag77
(g98
g79
NtRp1537
(dp1538
g82
(dp1539
g109
g110
ssg91
g1528
sg84
(lp1540
S':'
asbag77
(g98
g79
NtRp1541
(dp1542
g82
(dp1543
sg91
g1528
sg84
(lp1544
g77
(g78
g79
NtRp1545
(dp1546
g82
(dp1547
g90
I4
ssg91
g1541
sg84
(lp1548
S''
asbasbasbag77
(g93
g79
NtRp1549
(dp1550
g82
(dp1551
sg91
g1062
sg84
(lp1552
g77
(g98
g79
NtRp1553
(dp1554
g82
(dp1555
g102
g103
ssg91
g1549
sg84
(lp1556
S'remote_addr'
p1557
asbag77
(g98
g79
NtRp1558
(dp1559
g82
(dp1560
g109
g110
ssg91
g1549
sg84
(lp1561
S':'
asbag77
(g98
g79
NtRp1562
(dp1563
g82
(dp1564
sg91
g1549
sg84
(lp1565
g77
(g78
g79
NtRp1566
(dp1567
g82
(dp1568
g90
I4
ssg91
g1562
sg84
(lp1569
g245
asbasbasbag77
(g93
g79
NtRp1570
(dp1571
g82
(dp1572
sg91
g1062
sg84
(lp1573
g77
(g98
g79
NtRp1574
(dp1575
g82
(dp1576
g102
g103
ssg91
g1570
sg84
(lp1577
S'remote_port'
p1578
asbag77
(g98
g79
NtRp1579
(dp1580
g82
(dp1581
g109
g110
ssg91
g1570
sg84
(lp1582
S':'
asbag77
(g98
g79
NtRp1583
(dp1584
g82
(dp1585
sg91
g1570
sg84
(lp1586
g77
(g78
g79
NtRp1587
(dp1588
g82
(dp1589
g90
I4
ssg91
g1583
sg84
(lp1590
S'46459'
p1591
asbasbasbag77
(g93
g79
NtRp1592
(dp1593
g82
(dp1594
sg91
g1062
sg84
(lp1595
g77
(g98
g79
NtRp1596
(dp1597
g82
(dp1598
g102
g103
ssg91
g1592
sg84
(lp1599
S'request_method'
p1600
asbag77
(g98
g79
NtRp1601
(dp1602
g82
(dp1603
g109
g110
ssg91
g1592
sg84
(lp1604
S':'
asbag77
(g98
g79
NtRp1605
(dp1606
g82
(dp1607
sg91
g1592
sg84
(lp1608
g77
(g78
g79
NtRp1609
(dp1610
g82
(dp1611
g90
I4
ssg91
g1605
sg84
(lp1612
S'GET'
p1613
asbasbasbag77
(g93
g79
NtRp1614
(dp1615
g82
(dp1616
sg91
g1062
sg84
(lp1617
g77
(g98
g79
NtRp1618
(dp1619
g82
(dp1620
g102
g103
ssg91
g1614
sg84
(lp1621
S'script_name'
p1622
asbag77
(g98
g79
NtRp1623
(dp1624
g82
(dp1625
g109
g110
ssg91
g1614
sg84
(lp1626
S':'
asbag77
(g98
g79
NtRp1627
(dp1628
g82
(dp1629
sg91
g1614
sg84
(lp1630
g77
(g78
g79
NtRp1631
(dp1632
g82
(dp1633
g90
I4
ssg91
g1627
sg84
(lp1634
S''
asbasbasbag77
(g93
g79
NtRp1635
(dp1636
g82
(dp1637
sg91
g1062
sg84
(lp1638
g77
(g98
g79
NtRp1639
(dp1640
g82
(dp1641
g102
g103
ssg91
g1635
sg84
(lp1642
S'server_name'
p1643
asbag77
(g98
g79
NtRp1644
(dp1645
g82
(dp1646
g109
g110
ssg91
g1635
sg84
(lp1647
S':'
asbag77
(g98
g79
NtRp1648
(dp1649
g82
(dp1650
sg91
g1635
sg84
(lp1651
g77
(g78
g79
NtRp1652
(dp1653
g82
(dp1654
g90
I4
ssg91
g1648
sg84
(lp1655
S'uriel'
p1656
asbasbasbag77
(g93
g79
NtRp1657
(dp1658
g82
(dp1659
sg91
g1062
sg84
(lp1660
g77
(g98
g79
NtRp1661
(dp1662
g82
(dp1663
g102
g103
ssg91
g1657
sg84
(lp1664
S'server_port'
p1665
asbag77
(g98
g79
NtRp1666
(dp1667
g82
(dp1668
g109
g110
ssg91
g1657
sg84
(lp1669
S':'
asbag77
(g98
g79
NtRp1670
(dp1671
g82
(dp1672
sg91
g1657
sg84
(lp1673
g77
(g78
g79
NtRp1674
(dp1675
g82
(dp1676
g90
I4
ssg91
g1670
sg84
(lp1677
S'8000'
p1678
asbasbasbag77
(g93
g79
NtRp1679
(dp1680
g82
(dp1681
sg91
g1062
sg84
(lp1682
g77
(g98
g79
NtRp1683
(dp1684
g82
(dp1685
g102
g103
ssg91
g1679
sg84
(lp1686
S'server_protocol'
p1687
asbag77
(g98
g79
NtRp1688
(dp1689
g82
(dp1690
g109
g110
ssg91
g1679
sg84
(lp1691
S':'
asbag77
(g98
g79
NtRp1692
(dp1693
g82
(dp1694
sg91
g1679
sg84
(lp1695
g77
(g78
g79
NtRp1696
(dp1697
g82
(dp1698
g90
I4
ssg91
g1692
sg84
(lp1699
S'HTTP/1.1'
p1700
asbasbasbag77
(g93
g79
NtRp1701
(dp1702
g82
(dp1703
sg91
g1062
sg84
(lp1704
g77
(g98
g79
NtRp1705
(dp1706
g82
(dp1707
g102
g103
ssg91
g1701
sg84
(lp1708
S'server_software'
p1709
asbag77
(g98
g79
NtRp1710
(dp1711
g82
(dp1712
g109
g110
ssg91
g1701
sg84
(lp1713
S':'
asbag77
(g98
g79
NtRp1714
(dp1715
g82
(dp1716
sg91
g1701
sg84
(lp1717
g77
(g78
g79
NtRp1718
(dp1719
g82
(dp1720
g90
I4
ssg91
g1714
sg84
(lp1721
S'Rocket 1.2.4'
p1722
asbasbasbag77
(g93
g79
NtRp1723
(dp1724
g82
(dp1725
sg91
g1062
sg84
(lp1726
g77
(g98
g79
NtRp1727
(dp1728
g82
(dp1729
g102
g103
ssg91
g1723
sg84
(lp1730
S'web2py_crontype'
p1731
asbag77
(g98
g79
NtRp1732
(dp1733
g82
(dp1734
g109
g110
ssg91
g1723
sg84
(lp1735
S':'
asbag77
(g98
g79
NtRp1736
(dp1737
g82
(dp1738
sg91
g1723
sg84
(lp1739
g77
(g78
g79
NtRp1740
(dp1741
g82
(dp1742
g90
I4
ssg91
g1736
sg84
(lp1743
S'hard'
p1744
asbasbasbag77
(g93
g79
NtRp1745
(dp1746
g82
(dp1747
sg91
g1062
sg84
(lp1748
g77
(g98
g79
NtRp1749
(dp1750
g82
(dp1751
g102
g103
ssg91
g1745
sg84
(lp1752
S'web2py_path'
p1753
asbag77
(g98
g79
NtRp1754
(dp1755
g82
(dp1756
g109
g110
ssg91
g1745
sg84
(lp1757
S':'
asbag77
(g98
g79
NtRp1758
(dp1759
g82
(dp1760
sg91
g1745
sg84
(lp1761
g77
(g78
g79
NtRp1762
(dp1763
g82
(dp1764
g90
I4
ssg91
g1758
sg84
(lp1765
g1109
asbasbasbag77
(g93
g79
NtRp1766
(dp1767
g82
(dp1768
sg91
g1062
sg84
(lp1769
g77
(g98
g79
NtRp1770
(dp1771
g82
(dp1772
g102
g103
ssg91
g1766
sg84
(lp1773
S'web2py_version'
p1774
asbag77
(g98
g79
NtRp1775
(dp1776
g82
(dp1777
g109
g110
ssg91
g1766
sg84
(lp1778
S':'
asbag77
(g98
g79
NtRp1779
(dp1780
g82
(dp1781
sg91
g1766
sg84
(lp1782
g77
(g78
g79
NtRp1783
(dp1784
g82
(dp1785
g90
I4
ssg91
g1779
sg84
(lp1786
g77
(g86
g79
NtRp1787
(dp1788
g82
(dp1789
g90
I3
ssg91
Nsg84
(lp1790
g77
(g93
g79
NtRp1791
(dp1792
g82
(dp1793
sg91
g1787
sg84
(lp1794
g77
(g98
g79
NtRp1795
(dp1796
g82
(dp1797
sg91
g1791
sg84
(lp1798
g77
(g78
g79
NtRp1799
(dp1800
g82
(dp1801
g90
I3
ssg91
g1795
sg84
(lp1802
S'1'
asbasbasbag77
(g93
g79
NtRp1803
(dp1804
g82
(dp1805
sg91
g1787
sg84
(lp1806
g77
(g98
g79
NtRp1807
(dp1808
g82
(dp1809
sg91
g1803
sg84
(lp1810
g77
(g78
g79
NtRp1811
(dp1812
g82
(dp1813
g90
I3
ssg91
g1807
sg84
(lp1814
S'99'
p1815
asbasbasbag77
(g93
g79
NtRp1816
(dp1817
g82
(dp1818
sg91
g1787
sg84
(lp1819
g77
(g98
g79
NtRp1820
(dp1821
g82
(dp1822
sg91
g1816
sg84
(lp1823
g77
(g78
g79
NtRp1824
(dp1825
g82
(dp1826
g90
I3
ssg91
g1820
sg84
(lp1827
S'4'
asbasbasbag77
(g93
g79
NtRp1828
(dp1829
g82
(dp1830
sg91
g1787
sg84
(lp1831
g77
(g98
g79
NtRp1832
(dp1833
g82
(dp1834
sg91
g1828
sg84
(lp1835
g77
(g78
g79
NtRp1836
(dp1837
g82
(dp1838
g90
I3
ssg91
g1832
sg84
(lp1839
S'datetime.datetime(2011, 12, 14, 14, 46, 14)'
p1840
asbasbasbag77
(g93
g79
NtRp1841
(dp1842
g82
(dp1843
sg91
g1787
sg84
(lp1844
g77
(g98
g79
NtRp1845
(dp1846
g82
(dp1847
sg91
g1841
sg84
(lp1848
g77
(g78
g79
NtRp1849
(dp1850
g82
(dp1851
g90
I3
ssg91
g1845
sg84
(lp1852
S'stable'
p1853
asbasbasbasbasbasbasbag77
(g93
g79
NtRp1854
(dp1855
g82
(dp1856
sg91
g1062
sg84
(lp1857
g77
(g98
g79
NtRp1858
(dp1859
g82
(dp1860
g102
g103
ssg91
g1854
sg84
(lp1861
S'wsgi_errors'
p1862
asbag77
(g98
g79
NtRp1863
(dp1864
g82
(dp1865
g109
g110
ssg91
g1854
sg84
(lp1866
S':'
asbag77
(g98
g79
NtRp1867
(dp1868
g82
(dp1869
sg91
g1854
sg84
(lp1870
g77
(g78
g79
NtRp1871
(dp1872
g82
(dp1873
g90
I4
ssg91
g1867
sg84
(lp1874
S"<open file '<stderr>', mode 'w' at 0x7f03f76bb270>"
p1875
asbasbasbag77
(g93
g79
NtRp1876
(dp1877
g82
(dp1878
sg91
g1062
sg84
(lp1879
g77
(g98
g79
NtRp1880
(dp1881
g82
(dp1882
g102
g103
ssg91
g1876
sg84
(lp1883
S'wsgi_file_wrapper'
p1884
asbag77
(g98
g79
NtRp1885
(dp1886
g82
(dp1887
g109
g110
ssg91
g1876
sg84
(lp1888
S':'
asbag77
(g98
g79
NtRp1889
(dp1890
g82
(dp1891
sg91
g1876
sg84
(lp1892
g77
(g78
g79
NtRp1893
(dp1894
g82
(dp1895
g90
I4
ssg91
g1889
sg84
(lp1896
S'<class wsgiref.util.FileWrapper at 0x2c0cd50>'
p1897
asbasbasbag77
(g93
g79
NtRp1898
(dp1899
g82
(dp1900
sg91
g1062
sg84
(lp1901
g77
(g98
g79
NtRp1902
(dp1903
g82
(dp1904
g102
g103
ssg91
g1898
sg84
(lp1905
S'wsgi_input'
p1906
asbag77
(g98
g79
NtRp1907
(dp1908
g82
(dp1909
g109
g110
ssg91
g1898
sg84
(lp1910
S':'
asbag77
(g98
g79
NtRp1911
(dp1912
g82
(dp1913
sg91
g1898
sg84
(lp1914
g77
(g78
g79
NtRp1915
(dp1916
g82
(dp1917
g90
I4
ssg91
g1911
sg84
(lp1918
S'<socket._fileobject object at 0x7f03c021bad0>'
p1919
asbasbasbag77
(g93
g79
NtRp1920
(dp1921
g82
(dp1922
sg91
g1062
sg84
(lp1923
g77
(g98
g79
NtRp1924
(dp1925
g82
(dp1926
g102
g103
ssg91
g1920
sg84
(lp1927
S'wsgi_multiprocess'
p1928
asbag77
(g98
g79
NtRp1929
(dp1930
g82
(dp1931
g109
g110
ssg91
g1920
sg84
(lp1932
S':'
asbag77
(g98
g79
NtRp1933
(dp1934
g82
(dp1935
sg91
g1920
sg84
(lp1936
g77
(g78
g79
NtRp1937
(dp1938
g82
(dp1939
g90
I4
ssg91
g1933
sg84
(lp1940
g1200
asbasbasbag77
(g93
g79
NtRp1941
(dp1942
g82
(dp1943
sg91
g1062
sg84
(lp1944
g77
(g98
g79
NtRp1945
(dp1946
g82
(dp1947
g102
g103
ssg91
g1941
sg84
(lp1948
S'wsgi_multithread'
p1949
asbag77
(g98
g79
NtRp1950
(dp1951
g82
(dp1952
g109
g110
ssg91
g1941
sg84
(lp1953
S':'
asbag77
(g98
g79
NtRp1954
(dp1955
g82
(dp1956
sg91
g1941
sg84
(lp1957
g77
(g78
g79
NtRp1958
(dp1959
g82
(dp1960
g90
I4
ssg91
g1954
sg84
(lp1961
g120
asbasbasbag77
(g93
g79
NtRp1962
(dp1963
g82
(dp1964
sg91
g1062
sg84
(lp1965
g77
(g98
g79
NtRp1966
(dp1967
g82
(dp1968
g102
g103
ssg91
g1962
sg84
(lp1969
S'wsgi_run_once'
p1970
asbag77
(g98
g79
NtRp1971
(dp1972
g82
(dp1973
g109
g110
ssg91
g1962
sg84
(lp1974
S':'
asbag77
(g98
g79
NtRp1975
(dp1976
g82
(dp1977
sg91
g1962
sg84
(lp1978
g77
(g78
g79
NtRp1979
(dp1980
g82
(dp1981
g90
I4
ssg91
g1975
sg84
(lp1982
g1200
asbasbasbag77
(g93
g79
NtRp1983
(dp1984
g82
(dp1985
sg91
g1062
sg84
(lp1986
g77
(g98
g79
NtRp1987
(dp1988
g82
(dp1989
g102
g103
ssg91
g1983
sg84
(lp1990
S'wsgi_url_scheme'
p1991
asbag77
(g98
g79
NtRp1992
(dp1993
g82
(dp1994
g109
g110
ssg91
g1983
sg84
(lp1995
S':'
asbag77
(g98
g79
NtRp1996
(dp1997
g82
(dp1998
sg91
g1983
sg84
(lp1999
g77
(g78
g79
NtRp2000
(dp2001
g82
(dp2002
g90
I4
ssg91
g1996
sg84
(lp2003
S'http'
p2004
asbasbasbag77
(g93
g79
NtRp2005
(dp2006
g82
(dp2007
sg91
g1062
sg84
(lp2008
g77
(g98
g79
NtRp2009
(dp2010
g82
(dp2011
g102
g103
ssg91
g2005
sg84
(lp2012
S'wsgi_version'
p2013
asbag77
(g98
g79
NtRp2014
(dp2015
g82
(dp2016
g109
g110
ssg91
g2005
sg84
(lp2017
S':'
asbag77
(g98
g79
NtRp2018
(dp2019
g82
(dp2020
sg91
g2005
sg84
(lp2021
g77
(g78
g79
NtRp2022
(dp2023
g82
(dp2024
g90
I4
ssg91
g2018
sg84
(lp2025
g77
(g86
g79
NtRp2026
(dp2027
g82
(dp2028
g90
I3
ssg91
Nsg84
(lp2029
g77
(g93
g79
NtRp2030
(dp2031
g82
(dp2032
sg91
g2026
sg84
(lp2033
g77
(g98
g79
NtRp2034
(dp2035
g82
(dp2036
sg91
g2030
sg84
(lp2037
g77
(g78
g79
NtRp2038
(dp2039
g82
(dp2040
g90
I3
ssg91
g2034
sg84
(lp2041
S'1'
asbasbasbag77
(g93
g79
NtRp2042
(dp2043
g82
(dp2044
sg91
g2026
sg84
(lp2045
g77
(g98
g79
NtRp2046
(dp2047
g82
(dp2048
sg91
g2042
sg84
(lp2049
g77
(g78
g79
NtRp2050
(dp2051
g82
(dp2052
g90
I3
ssg91
g2046
sg84
(lp2053
S'0'
asbasbasbasbasbasbasbasbasbasbasbag77
(g93
g79
NtRp2054
(dp2055
g82
(dp2056
sg91
g87
sg84
(lp2057
g77
(g98
g79
NtRp2058
(dp2059
g82
(dp2060
g102
g103
ssg91
g2054
sg84
(lp2061
S'extension'
p2062
asbag77
(g98
g79
NtRp2063
(dp2064
g82
(dp2065
g109
g110
ssg91
g2054
sg84
(lp2066
S':'
asbag77
(g98
g79
NtRp2067
(dp2068
g82
(dp2069
sg91
g2054
sg84
(lp2070
g77
(g78
g79
NtRp2071
(dp2072
g82
(dp2073
g90
I5
ssg91
g2067
sg84
(lp2074
S'load'
p2075
asbasbasbag77
(g93
g79
NtRp2076
(dp2077
g82
(dp2078
sg91
g87
sg84
(lp2079
g77
(g98
g79
NtRp2080
(dp2081
g82
(dp2082
g102
g103
ssg91
g2076
sg84
(lp2083
S'folder'
p2084
asbag77
(g98
g79
NtRp2085
(dp2086
g82
(dp2087
g109
g110
ssg91
g2076
sg84
(lp2088
S':'
asbag77
(g98
g79
NtRp2089
(dp2090
g82
(dp2091
sg91
g2076
sg84
(lp2092
g77
(g78
g79
NtRp2093
(dp2094
g82
(dp2095
g90
I5
ssg91
g2089
sg84
(lp2096
S'/home/ian/web/web2py/applications/grammateus3/'
p2097
asbasbasbag77
(g93
g79
NtRp2098
(dp2099
g82
(dp2100
sg91
g87
sg84
(lp2101
g77
(g98
g79
NtRp2102
(dp2103
g82
(dp2104
g102
g103
ssg91
g2098
sg84
(lp2105
S'function'
p2106
asbag77
(g98
g79
NtRp2107
(dp2108
g82
(dp2109
g109
g110
ssg91
g2098
sg84
(lp2110
S':'
asbag77
(g98
g79
NtRp2111
(dp2112
g82
(dp2113
sg91
g2098
sg84
(lp2114
g77
(g78
g79
NtRp2115
(dp2116
g82
(dp2117
g90
I5
ssg91
g2111
sg84
(lp2118
S'section'
p2119
asbasbasbag77
(g93
g79
NtRp2120
(dp2121
g82
(dp2122
sg91
g87
sg84
(lp2123
g77
(g98
g79
NtRp2124
(dp2125
g82
(dp2126
g102
g103
ssg91
g2120
sg84
(lp2127
S'get_vars'
p2128
asbag77
(g98
g79
NtRp2129
(dp2130
g82
(dp2131
g109
g110
ssg91
g2120
sg84
(lp2132
S':'
asbag77
(g98
g79
NtRp2133
(dp2134
g82
(dp2135
sg91
g2120
sg84
(lp2136
g77
(g78
g79
NtRp2137
(dp2138
g82
(dp2139
g90
I5
ssg91
g2133
sg84
(lp2140
g77
(g86
g79
NtRp2141
(dp2142
g82
(dp2143
g90
I4
ssg91
Nsg84
(lp2144
sbasbasbasbag77
(g93
g79
NtRp2145
(dp2146
g82
(dp2147
sg91
g87
sg84
(lp2148
g77
(g98
g79
NtRp2149
(dp2150
g82
(dp2151
g102
g103
ssg91
g2145
sg84
(lp2152
S'global_settings'
p2153
asbag77
(g98
g79
NtRp2154
(dp2155
g82
(dp2156
g109
g110
ssg91
g2145
sg84
(lp2157
S':'
asbag77
(g98
g79
NtRp2158
(dp2159
g82
(dp2160
sg91
g2145
sg84
(lp2161
g77
(g78
g79
NtRp2162
(dp2163
g82
(dp2164
g90
I5
ssg91
g2158
sg84
(lp2165
g77
(g86
g79
NtRp2166
(dp2167
g82
(dp2168
g90
I4
ssg91
Nsg84
(lp2169
g77
(g93
g79
NtRp2170
(dp2171
g82
(dp2172
sg91
g2166
sg84
(lp2173
g77
(g98
g79
NtRp2174
(dp2175
g82
(dp2176
g102
g103
ssg91
g2170
sg84
(lp2177
g1074
asbag77
(g98
g79
NtRp2178
(dp2179
g82
(dp2180
g109
g110
ssg91
g2170
sg84
(lp2181
S':'
asbag77
(g98
g79
NtRp2182
(dp2183
g82
(dp2184
sg91
g2170
sg84
(lp2185
g77
(g78
g79
NtRp2186
(dp2187
g82
(dp2188
g90
I4
ssg91
g2182
sg84
(lp2189
S"set(['/home/ian/web/web2py/applications/welcome/', '/home/ian/web/web2py/applications/grammateus3/', '/home/ian/web/web2py/applications/admin/'])"
p2190
asbasbasbag77
(g93
g79
NtRp2191
(dp2192
g82
(dp2193
sg91
g2166
sg84
(lp2194
g77
(g98
g79
NtRp2195
(dp2196
g82
(dp2197
g102
g103
ssg91
g2191
sg84
(lp2198
g1096
asbag77
(g98
g79
NtRp2199
(dp2200
g82
(dp2201
g109
g110
ssg91
g2191
sg84
(lp2202
S':'
asbag77
(g98
g79
NtRp2203
(dp2204
g82
(dp2205
sg91
g2191
sg84
(lp2206
g77
(g78
g79
NtRp2207
(dp2208
g82
(dp2209
g90
I4
ssg91
g2203
sg84
(lp2210
g1109
asbasbasbag77
(g93
g79
NtRp2211
(dp2212
g82
(dp2213
sg91
g2166
sg84
(lp2214
g77
(g98
g79
NtRp2215
(dp2216
g82
(dp2217
g102
g103
ssg91
g2211
sg84
(lp2218
g1118
asbag77
(g98
g79
NtRp2219
(dp2220
g82
(dp2221
g109
g110
ssg91
g2211
sg84
(lp2222
S':'
asbag77
(g98
g79
NtRp2223
(dp2224
g82
(dp2225
sg91
g2211
sg84
(lp2226
g77
(g78
g79
NtRp2227
(dp2228
g82
(dp2229
g90
I4
ssg91
g2223
sg84
(lp2230
g77
(g86
g79
NtRp2231
(dp2232
g82
(dp2233
g90
I3
ssg91
Nsg84
(lp2234
sbasbasbasbag77
(g93
g79
NtRp2235
(dp2236
g82
(dp2237
sg91
g2166
sg84
(lp2238
g77
(g98
g79
NtRp2239
(dp2240
g82
(dp2241
g102
g103
ssg91
g2235
sg84
(lp2242
g1143
asbag77
(g98
g79
NtRp2243
(dp2244
g82
(dp2245
g109
g110
ssg91
g2235
sg84
(lp2246
S':'
asbag77
(g98
g79
NtRp2247
(dp2248
g82
(dp2249
sg91
g2235
sg84
(lp2250
g77
(g78
g79
NtRp2251
(dp2252
g82
(dp2253
g90
I4
ssg91
g2247
sg84
(lp2254
S"<Values at 0x2d42758: {'verbose': False, 'ip': '127.0.0.1', 'shutdown_timeout': 5, 'taskbar': False, 'nocron': False, 'pid_filename': 'httpserver.pid', 'maxthreads': None, 'softcron': False, 'server_name': 'uriel', 'bpython': False, 'nogui': False, 'port': 8000, 'extcron': False, 'debuglevel': 30, 'test': None, 'folder': '/home/ian/web/web2py', 'config': '', 'import_models': False, 'winservice': '', 'shell': None, 'run': '', 'log_filename': 'httpserver.log', 'args': [''], 'socket_timeout': 1, 'ssl_ca_certificate': None, 'scheduler': None, 'profiler_filename': None, 'ssl_private_key': '', 'password': '<ask>', 'request_queue_size': 5, 'ssl_certificate': '', 'cronjob': False, 'numthreads': None, 'quiet': False, 'interfaces': None, 'minthreads': None, 'timeout': 10, 'plain': False, 'nobanner': False}>"
p2255
asbasbasbag77
(g93
g79
NtRp2256
(dp2257
g82
(dp2258
sg91
g2166
sg84
(lp2259
g77
(g98
g79
NtRp2260
(dp2261
g82
(dp2262
g102
g103
ssg91
g2256
sg84
(lp2263
g1165
asbag77
(g98
g79
NtRp2264
(dp2265
g82
(dp2266
g109
g110
ssg91
g2256
sg84
(lp2267
S':'
asbag77
(g98
g79
NtRp2268
(dp2269
g82
(dp2270
sg91
g2256
sg84
(lp2271
g77
(g78
g79
NtRp2272
(dp2273
g82
(dp2274
g90
I4
ssg91
g2268
sg84
(lp2275
S'set([])'
p2276
asbasbasbag77
(g93
g79
NtRp2277
(dp2278
g82
(dp2279
sg91
g2166
sg84
(lp2280
g77
(g98
g79
NtRp2281
(dp2282
g82
(dp2283
g102
g103
ssg91
g2277
sg84
(lp2284
g1187
asbag77
(g98
g79
NtRp2285
(dp2286
g82
(dp2287
g109
g110
ssg91
g2277
sg84
(lp2288
S':'
asbag77
(g98
g79
NtRp2289
(dp2290
g82
(dp2291
sg91
g2277
sg84
(lp2292
g77
(g78
g79
NtRp2293
(dp2294
g82
(dp2295
g90
I4
ssg91
g2289
sg84
(lp2296
g1200
asbasbasbag77
(g93
g79
NtRp2297
(dp2298
g82
(dp2299
sg91
g2166
sg84
(lp2300
g77
(g98
g79
NtRp2301
(dp2302
g82
(dp2303
g102
g103
ssg91
g2297
sg84
(lp2304
g1209
asbag77
(g98
g79
NtRp2305
(dp2306
g82
(dp2307
g109
g110
ssg91
g2297
sg84
(lp2308
S':'
asbag77
(g98
g79
NtRp2309
(dp2310
g82
(dp2311
sg91
g2297
sg84
(lp2312
g77
(g78
g79
NtRp2313
(dp2314
g82
(dp2315
g90
I4
ssg91
g2309
sg84
(lp2316
g1222
asbasbasbag77
(g93
g79
NtRp2317
(dp2318
g82
(dp2319
sg91
g2166
sg84
(lp2320
g77
(g98
g79
NtRp2321
(dp2322
g82
(dp2323
g102
g103
ssg91
g2317
sg84
(lp2324
g1472
asbag77
(g98
g79
NtRp2325
(dp2326
g82
(dp2327
g109
g110
ssg91
g2317
sg84
(lp2328
S':'
asbag77
(g98
g79
NtRp2329
(dp2330
g82
(dp2331
sg91
g2317
sg84
(lp2332
g77
(g78
g79
NtRp2333
(dp2334
g82
(dp2335
g90
I4
ssg91
g2329
sg84
(lp2336
g1200
asbasbasbag77
(g93
g79
NtRp2337
(dp2338
g82
(dp2339
sg91
g2166
sg84
(lp2340
g77
(g98
g79
NtRp2341
(dp2342
g82
(dp2343
g102
g103
ssg91
g2337
sg84
(lp2344
g1493
asbag77
(g98
g79
NtRp2345
(dp2346
g82
(dp2347
g109
g110
ssg91
g2337
sg84
(lp2348
S':'
asbag77
(g98
g79
NtRp2349
(dp2350
g82
(dp2351
sg91
g2337
sg84
(lp2352
g77
(g78
g79
NtRp2353
(dp2354
g82
(dp2355
g90
I4
ssg91
g2349
sg84
(lp2356
g1200
asbasbasbag77
(g93
g79
NtRp2357
(dp2358
g82
(dp2359
sg91
g2166
sg84
(lp2360
g77
(g98
g79
NtRp2361
(dp2362
g82
(dp2363
g102
g103
ssg91
g2357
sg84
(lp2364
g1731
asbag77
(g98
g79
NtRp2365
(dp2366
g82
(dp2367
g109
g110
ssg91
g2357
sg84
(lp2368
S':'
asbag77
(g98
g79
NtRp2369
(dp2370
g82
(dp2371
sg91
g2357
sg84
(lp2372
g77
(g78
g79
NtRp2373
(dp2374
g82
(dp2375
g90
I4
ssg91
g2369
sg84
(lp2376
g1744
asbasbasbag77
(g93
g79
NtRp2377
(dp2378
g82
(dp2379
sg91
g2166
sg84
(lp2380
g77
(g98
g79
NtRp2381
(dp2382
g82
(dp2383
g102
g103
ssg91
g2377
sg84
(lp2384
g1774
asbag77
(g98
g79
NtRp2385
(dp2386
g82
(dp2387
g109
g110
ssg91
g2377
sg84
(lp2388
S':'
asbag77
(g98
g79
NtRp2389
(dp2390
g82
(dp2391
sg91
g2377
sg84
(lp2392
g77
(g78
g79
NtRp2393
(dp2394
g82
(dp2395
g90
I4
ssg91
g2389
sg84
(lp2396
g77
(g86
g79
NtRp2397
(dp2398
g82
(dp2399
g90
I3
ssg91
Nsg84
(lp2400
g77
(g93
g79
NtRp2401
(dp2402
g82
(dp2403
sg91
g2397
sg84
(lp2404
g77
(g98
g79
NtRp2405
(dp2406
g82
(dp2407
sg91
g2401
sg84
(lp2408
g77
(g78
g79
NtRp2409
(dp2410
g82
(dp2411
g90
I3
ssg91
g2405
sg84
(lp2412
S'1'
asbasbasbag77
(g93
g79
NtRp2413
(dp2414
g82
(dp2415
sg91
g2397
sg84
(lp2416
g77
(g98
g79
NtRp2417
(dp2418
g82
(dp2419
sg91
g2413
sg84
(lp2420
g77
(g78
g79
NtRp2421
(dp2422
g82
(dp2423
g90
I3
ssg91
g2417
sg84
(lp2424
S'99'
p2425
asbasbasbag77
(g93
g79
NtRp2426
(dp2427
g82
(dp2428
sg91
g2397
sg84
(lp2429
g77
(g98
g79
NtRp2430
(dp2431
g82
(dp2432
sg91
g2426
sg84
(lp2433
g77
(g78
g79
NtRp2434
(dp2435
g82
(dp2436
g90
I3
ssg91
g2430
sg84
(lp2437
S'4'
asbasbasbag77
(g93
g79
NtRp2438
(dp2439
g82
(dp2440
sg91
g2397
sg84
(lp2441
g77
(g98
g79
NtRp2442
(dp2443
g82
(dp2444
sg91
g2438
sg84
(lp2445
g77
(g78
g79
NtRp2446
(dp2447
g82
(dp2448
g90
I3
ssg91
g2442
sg84
(lp2449
S'datetime.datetime(2011, 12, 14, 14, 46, 14)'
p2450
asbasbasbag77
(g93
g79
NtRp2451
(dp2452
g82
(dp2453
sg91
g2397
sg84
(lp2454
g77
(g98
g79
NtRp2455
(dp2456
g82
(dp2457
sg91
g2451
sg84
(lp2458
g77
(g78
g79
NtRp2459
(dp2460
g82
(dp2461
g90
I3
ssg91
g2455
sg84
(lp2462
g1853
asbasbasbasbasbasbasbasbasbasbasbag77
(g93
g79
NtRp2463
(dp2464
g82
(dp2465
sg91
g87
sg84
(lp2466
g77
(g98
g79
NtRp2467
(dp2468
g82
(dp2469
g102
g103
ssg91
g2463
sg84
(lp2470
S'is_https'
p2471
asbag77
(g98
g79
NtRp2472
(dp2473
g82
(dp2474
g109
g110
ssg91
g2463
sg84
(lp2475
S':'
asbag77
(g98
g79
NtRp2476
(dp2477
g82
(dp2478
sg91
g2463
sg84
(lp2479
g77
(g78
g79
NtRp2480
(dp2481
g82
(dp2482
g90
I5
ssg91
g2476
sg84
(lp2483
g1200
asbasbasbag77
(g93
g79
NtRp2484
(dp2485
g82
(dp2486
sg91
g87
sg84
(lp2487
g77
(g98
g79
NtRp2488
(dp2489
g82
(dp2490
g102
g103
ssg91
g2484
sg84
(lp2491
S'is_local'
p2492
asbag77
(g98
g79
NtRp2493
(dp2494
g82
(dp2495
g109
g110
ssg91
g2484
sg84
(lp2496
S':'
asbag77
(g98
g79
NtRp2497
(dp2498
g82
(dp2499
sg91
g2484
sg84
(lp2500
g77
(g78
g79
NtRp2501
(dp2502
g82
(dp2503
g90
I5
ssg91
g2497
sg84
(lp2504
g120
asbasbasbag77
(g93
g79
NtRp2505
(dp2506
g82
(dp2507
sg91
g87
sg84
(lp2508
g77
(g98
g79
NtRp2509
(dp2510
g82
(dp2511
g102
g103
ssg91
g2505
sg84
(lp2512
S'is_restful'
p2513
asbag77
(g98
g79
NtRp2514
(dp2515
g82
(dp2516
g109
g110
ssg91
g2505
sg84
(lp2517
S':'
asbag77
(g98
g79
NtRp2518
(dp2519
g82
(dp2520
sg91
g2505
sg84
(lp2521
g77
(g78
g79
NtRp2522
(dp2523
g82
(dp2524
g90
I5
ssg91
g2518
sg84
(lp2525
g1200
asbasbasbag77
(g93
g79
NtRp2526
(dp2527
g82
(dp2528
sg91
g87
sg84
(lp2529
g77
(g98
g79
NtRp2530
(dp2531
g82
(dp2532
g102
g103
ssg91
g2526
sg84
(lp2533
S'now'
p2534
asbag77
(g98
g79
NtRp2535
(dp2536
g82
(dp2537
g109
g110
ssg91
g2526
sg84
(lp2538
S':'
asbag77
(g98
g79
NtRp2539
(dp2540
g82
(dp2541
sg91
g2526
sg84
(lp2542
g77
(g78
g79
NtRp2543
(dp2544
g82
(dp2545
g90
I5
ssg91
g2539
sg84
(lp2546
S'datetime.datetime(2012, 3, 12, 16, 36, 13, 560295)'
p2547
asbasbasbag77
(g93
g79
NtRp2548
(dp2549
g82
(dp2550
sg91
g87
sg84
(lp2551
g77
(g98
g79
NtRp2552
(dp2553
g82
(dp2554
g102
g103
ssg91
g2548
sg84
(lp2555
S'post_vars'
p2556
asbag77
(g98
g79
NtRp2557
(dp2558
g82
(dp2559
g109
g110
ssg91
g2548
sg84
(lp2560
S':'
asbag77
(g98
g79
NtRp2561
(dp2562
g82
(dp2563
sg91
g2548
sg84
(lp2564
g77
(g78
g79
NtRp2565
(dp2566
g82
(dp2567
g90
I5
ssg91
g2561
sg84
(lp2568
g77
(g86
g79
NtRp2569
(dp2570
g82
(dp2571
g90
I4
ssg91
Nsg84
(lp2572
sbasbasbasbag77
(g93
g79
NtRp2573
(dp2574
g82
(dp2575
sg91
g87
sg84
(lp2576
g77
(g98
g79
NtRp2577
(dp2578
g82
(dp2579
g102
g103
ssg91
g2573
sg84
(lp2580
S'raw_args'
p2581
asbag77
(g98
g79
NtRp2582
(dp2583
g82
(dp2584
g109
g110
ssg91
g2573
sg84
(lp2585
S':'
asbag77
(g98
g79
NtRp2586
(dp2587
g82
(dp2588
sg91
g2573
sg84
(lp2589
g77
(g78
g79
NtRp2590
(dp2591
g82
(dp2592
g90
I5
ssg91
g2586
sg84
(lp2593
g179
asbasbasbag77
(g93
g79
NtRp2594
(dp2595
g82
(dp2596
sg91
g87
sg84
(lp2597
g77
(g98
g79
NtRp2598
(dp2599
g82
(dp2600
g102
g103
ssg91
g2594
sg84
(lp2601
S'raw_extension'
p2602
asbag77
(g98
g79
NtRp2603
(dp2604
g82
(dp2605
g109
g110
ssg91
g2594
sg84
(lp2606
S':'
asbag77
(g98
g79
NtRp2607
(dp2608
g82
(dp2609
sg91
g2594
sg84
(lp2610
g77
(g78
g79
NtRp2611
(dp2612
g82
(dp2613
g90
I5
ssg91
g2607
sg84
(lp2614
g2075
asbasbasbag77
(g93
g79
NtRp2615
(dp2616
g82
(dp2617
sg91
g87
sg84
(lp2618
g77
(g98
g79
NtRp2619
(dp2620
g82
(dp2621
g102
g103
ssg91
g2615
sg84
(lp2622
S'url'
p2623
asbag77
(g98
g79
NtRp2624
(dp2625
g82
(dp2626
g109
g110
ssg91
g2615
sg84
(lp2627
S':'
asbag77
(g98
g79
NtRp2628
(dp2629
g82
(dp2630
sg91
g2615
sg84
(lp2631
g77
(g78
g79
NtRp2632
(dp2633
g82
(dp2634
g90
I5
ssg91
g2628
sg84
(lp2635
S'/grammateus3/docs/section.load/3Macc'
p2636
asbasbasbag77
(g93
g79
NtRp2637
(dp2638
g82
(dp2639
sg91
g87
sg84
(lp2640
g77
(g98
g79
NtRp2641
(dp2642
g82
(dp2643
g102
g103
ssg91
g2637
sg84
(lp2644
S'utcnow'
p2645
asbag77
(g98
g79
NtRp2646
(dp2647
g82
(dp2648
g109
g110
ssg91
g2637
sg84
(lp2649
S':'
asbag77
(g98
g79
NtRp2650
(dp2651
g82
(dp2652
sg91
g2637
sg84
(lp2653
g77
(g78
g79
NtRp2654
(dp2655
g82
(dp2656
g90
I5
ssg91
g2650
sg84
(lp2657
S'datetime.datetime(2012, 3, 12, 20, 36, 13, 560343)'
p2658
asbasbasbag77
(g93
g79
NtRp2659
(dp2660
g82
(dp2661
sg91
g87
sg84
(lp2662
g77
(g98
g79
NtRp2663
(dp2664
g82
(dp2665
g102
g103
ssg91
g2659
sg84
(lp2666
S'uuid'
p2667
asbag77
(g98
g79
NtRp2668
(dp2669
g82
(dp2670
g109
g110
ssg91
g2659
sg84
(lp2671
S':'
asbag77
(g98
g79
NtRp2672
(dp2673
g82
(dp2674
sg91
g2659
sg84
(lp2675
g77
(g78
g79
NtRp2676
(dp2677
g82
(dp2678
g90
I5
ssg91
g2672
sg84
(lp2679
S'grammateus3/127.0.0.1.2012-03-12.16-36-13.ee22afef-0eeb-4d0d-a14d-28652296fdb8'
p2680
asbasbasbag77
(g93
g79
NtRp2681
(dp2682
g82
(dp2683
sg91
g87
sg84
(lp2684
g77
(g98
g79
NtRp2685
(dp2686
g82
(dp2687
g102
g103
ssg91
g2681
sg84
(lp2688
S'vars'
p2689
asbag77
(g98
g79
NtRp2690
(dp2691
g82
(dp2692
g109
g110
ssg91
g2681
sg84
(lp2693
S':'
asbag77
(g98
g79
NtRp2694
(dp2695
g82
(dp2696
sg91
g2681
sg84
(lp2697
g77
(g78
g79
NtRp2698
(dp2699
g82
(dp2700
g90
I5
ssg91
g2694
sg84
(lp2701
g77
(g86
g79
NtRp2702
(dp2703
g82
(dp2704
g90
I4
ssg91
Nsg84
(lp2705
sbasbasbasbag77
(g93
g79
NtRp2706
(dp2707
g82
(dp2708
sg91
g87
sg84
(lp2709
g77
(g98
g79
NtRp2710
(dp2711
g82
(dp2712
g102
g103
ssg91
g2706
sg84
(lp2713
S'wsgi'
p2714
asbag77
(g98
g79
NtRp2715
(dp2716
g82
(dp2717
g109
g110
ssg91
g2706
sg84
(lp2718
S':'
asbag77
(g98
g79
NtRp2719
(dp2720
g82
(dp2721
sg91
g2706
sg84
(lp2722
g77
(g78
g79
NtRp2723
(dp2724
g82
(dp2725
g90
I5
ssg91
g2719
sg84
(lp2726
g77
(g86
g79
NtRp2727
(dp2728
g82
(dp2729
g90
I4
ssg91
Nsg84
(lp2730
g77
(g93
g79
NtRp2731
(dp2732
g82
(dp2733
sg91
g2727
sg84
(lp2734
g77
(g98
g79
NtRp2735
(dp2736
g82
(dp2737
g102
g103
ssg91
g2731
sg84
(lp2738
S'environ'
p2739
asbag77
(g98
g79
NtRp2740
(dp2741
g82
(dp2742
g109
g110
ssg91
g2731
sg84
(lp2743
S':'
asbag77
(g98
g79
NtRp2744
(dp2745
g82
(dp2746
sg91
g2731
sg84
(lp2747
g77
(g78
g79
NtRp2748
(dp2749
g82
(dp2750
g90
I4
ssg91
g2744
sg84
(lp2751
g77
(g86
g79
NtRp2752
(dp2753
g82
(dp2754
g90
I3
ssg91
Nsg84
(lp2755
g77
(g93
g79
NtRp2756
(dp2757
g82
(dp2758
sg91
g2752
sg84
(lp2759
g77
(g98
g79
NtRp2760
(dp2761
g82
(dp2762
g102
g103
ssg91
g2756
sg84
(lp2763
S'HTTP_ACCEPT'
p2764
asbag77
(g98
g79
NtRp2765
(dp2766
g82
(dp2767
g109
g110
ssg91
g2756
sg84
(lp2768
S':'
asbag77
(g98
g79
NtRp2769
(dp2770
g82
(dp2771
sg91
g2756
sg84
(lp2772
g77
(g78
g79
NtRp2773
(dp2774
g82
(dp2775
g90
I3
ssg91
g2769
sg84
(lp2776
g1244
asbasbasbag77
(g93
g79
NtRp2777
(dp2778
g82
(dp2779
sg91
g2752
sg84
(lp2780
g77
(g98
g79
NtRp2781
(dp2782
g82
(dp2783
g102
g103
ssg91
g2777
sg84
(lp2784
S'HTTP_ACCEPT_ENCODING'
p2785
asbag77
(g98
g79
NtRp2786
(dp2787
g82
(dp2788
g109
g110
ssg91
g2777
sg84
(lp2789
S':'
asbag77
(g98
g79
NtRp2790
(dp2791
g82
(dp2792
sg91
g2777
sg84
(lp2793
g77
(g78
g79
NtRp2794
(dp2795
g82
(dp2796
g90
I3
ssg91
g2790
sg84
(lp2797
g1266
asbasbasbag77
(g93
g79
NtRp2798
(dp2799
g82
(dp2800
sg91
g2752
sg84
(lp2801
g77
(g98
g79
NtRp2802
(dp2803
g82
(dp2804
g102
g103
ssg91
g2798
sg84
(lp2805
S'HTTP_ACCEPT_LANGUAGE'
p2806
asbag77
(g98
g79
NtRp2807
(dp2808
g82
(dp2809
g109
g110
ssg91
g2798
sg84
(lp2810
S':'
asbag77
(g98
g79
NtRp2811
(dp2812
g82
(dp2813
sg91
g2798
sg84
(lp2814
g77
(g78
g79
NtRp2815
(dp2816
g82
(dp2817
g90
I3
ssg91
g2811
sg84
(lp2818
g1288
asbasbasbag77
(g93
g79
NtRp2819
(dp2820
g82
(dp2821
sg91
g2752
sg84
(lp2822
g77
(g98
g79
NtRp2823
(dp2824
g82
(dp2825
g102
g103
ssg91
g2819
sg84
(lp2826
S'HTTP_CONNECTION'
p2827
asbag77
(g98
g79
NtRp2828
(dp2829
g82
(dp2830
g109
g110
ssg91
g2819
sg84
(lp2831
S':'
asbag77
(g98
g79
NtRp2832
(dp2833
g82
(dp2834
sg91
g2819
sg84
(lp2835
g77
(g78
g79
NtRp2836
(dp2837
g82
(dp2838
g90
I3
ssg91
g2832
sg84
(lp2839
g1310
asbasbasbag77
(g93
g79
NtRp2840
(dp2841
g82
(dp2842
sg91
g2752
sg84
(lp2843
g77
(g98
g79
NtRp2844
(dp2845
g82
(dp2846
g102
g103
ssg91
g2840
sg84
(lp2847
S'HTTP_COOKIE'
p2848
asbag77
(g98
g79
NtRp2849
(dp2850
g82
(dp2851
g109
g110
ssg91
g2840
sg84
(lp2852
S':'
asbag77
(g98
g79
NtRp2853
(dp2854
g82
(dp2855
sg91
g2840
sg84
(lp2856
g77
(g78
g79
NtRp2857
(dp2858
g82
(dp2859
g90
I3
ssg91
g2853
sg84
(lp2860
g1332
asbasbasbag77
(g93
g79
NtRp2861
(dp2862
g82
(dp2863
sg91
g2752
sg84
(lp2864
g77
(g98
g79
NtRp2865
(dp2866
g82
(dp2867
g102
g103
ssg91
g2861
sg84
(lp2868
S'HTTP_HOST'
p2869
asbag77
(g98
g79
NtRp2870
(dp2871
g82
(dp2872
g109
g110
ssg91
g2861
sg84
(lp2873
S':'
asbag77
(g98
g79
NtRp2874
(dp2875
g82
(dp2876
sg91
g2861
sg84
(lp2877
g77
(g78
g79
NtRp2878
(dp2879
g82
(dp2880
g90
I3
ssg91
g2874
sg84
(lp2881
g1354
asbasbasbag77
(g93
g79
NtRp2882
(dp2883
g82
(dp2884
sg91
g2752
sg84
(lp2885
g77
(g98
g79
NtRp2886
(dp2887
g82
(dp2888
g102
g103
ssg91
g2882
sg84
(lp2889
S'HTTP_REFERER'
p2890
asbag77
(g98
g79
NtRp2891
(dp2892
g82
(dp2893
g109
g110
ssg91
g2882
sg84
(lp2894
S':'
asbag77
(g98
g79
NtRp2895
(dp2896
g82
(dp2897
sg91
g2882
sg84
(lp2898
g77
(g78
g79
NtRp2899
(dp2900
g82
(dp2901
g90
I3
ssg91
g2895
sg84
(lp2902
g1376
asbasbasbag77
(g93
g79
NtRp2903
(dp2904
g82
(dp2905
sg91
g2752
sg84
(lp2906
g77
(g98
g79
NtRp2907
(dp2908
g82
(dp2909
g102
g103
ssg91
g2903
sg84
(lp2910
S'HTTP_USER_AGENT'
p2911
asbag77
(g98
g79
NtRp2912
(dp2913
g82
(dp2914
g109
g110
ssg91
g2903
sg84
(lp2915
S':'
asbag77
(g98
g79
NtRp2916
(dp2917
g82
(dp2918
sg91
g2903
sg84
(lp2919
g77
(g78
g79
NtRp2920
(dp2921
g82
(dp2922
g90
I3
ssg91
g2916
sg84
(lp2923
g1398
asbasbasbag77
(g93
g79
NtRp2924
(dp2925
g82
(dp2926
sg91
g2752
sg84
(lp2927
g77
(g98
g79
NtRp2928
(dp2929
g82
(dp2930
g102
g103
ssg91
g2924
sg84
(lp2931
S'HTTP_WEB2PY_COMPONENT_ELEMENT'
p2932
asbag77
(g98
g79
NtRp2933
(dp2934
g82
(dp2935
g109
g110
ssg91
g2924
sg84
(lp2936
S':'
asbag77
(g98
g79
NtRp2937
(dp2938
g82
(dp2939
sg91
g2924
sg84
(lp2940
g77
(g78
g79
NtRp2941
(dp2942
g82
(dp2943
g90
I3
ssg91
g2937
sg84
(lp2944
g223
asbasbasbag77
(g93
g79
NtRp2945
(dp2946
g82
(dp2947
sg91
g2752
sg84
(lp2948
g77
(g98
g79
NtRp2949
(dp2950
g82
(dp2951
g102
g103
ssg91
g2945
sg84
(lp2952
S'HTTP_WEB2PY_COMPONENT_LOCATION'
p2953
asbag77
(g98
g79
NtRp2954
(dp2955
g82
(dp2956
g109
g110
ssg91
g2945
sg84
(lp2957
S':'
asbag77
(g98
g79
NtRp2958
(dp2959
g82
(dp2960
sg91
g2945
sg84
(lp2961
g77
(g78
g79
NtRp2962
(dp2963
g82
(dp2964
g90
I3
ssg91
g2958
sg84
(lp2965
g1441
asbasbasbag77
(g93
g79
NtRp2966
(dp2967
g82
(dp2968
sg91
g2752
sg84
(lp2969
g77
(g98
g79
NtRp2970
(dp2971
g82
(dp2972
g102
g103
ssg91
g2966
sg84
(lp2973
S'HTTP_X_REQUESTED_WITH'
p2974
asbag77
(g98
g79
NtRp2975
(dp2976
g82
(dp2977
g109
g110
ssg91
g2966
sg84
(lp2978
S':'
asbag77
(g98
g79
NtRp2979
(dp2980
g82
(dp2981
sg91
g2966
sg84
(lp2982
g77
(g78
g79
NtRp2983
(dp2984
g82
(dp2985
g90
I3
ssg91
g2979
sg84
(lp2986
g1463
asbasbasbag77
(g93
g79
NtRp2987
(dp2988
g82
(dp2989
sg91
g2752
sg84
(lp2990
g77
(g98
g79
NtRp2991
(dp2992
g82
(dp2993
g102
g103
ssg91
g2987
sg84
(lp2994
S'PATH_INFO'
p2995
asbag77
(g98
g79
NtRp2996
(dp2997
g82
(dp2998
g109
g110
ssg91
g2987
sg84
(lp2999
S':'
asbag77
(g98
g79
NtRp3000
(dp3001
g82
(dp3002
sg91
g2987
sg84
(lp3003
g77
(g78
g79
NtRp3004
(dp3005
g82
(dp3006
g90
I3
ssg91
g3000
sg84
(lp3007
g1527
asbasbasbag77
(g93
g79
NtRp3008
(dp3009
g82
(dp3010
sg91
g2752
sg84
(lp3011
g77
(g98
g79
NtRp3012
(dp3013
g82
(dp3014
g102
g103
ssg91
g3008
sg84
(lp3015
S'QUERY_STRING'
p3016
asbag77
(g98
g79
NtRp3017
(dp3018
g82
(dp3019
g109
g110
ssg91
g3008
sg84
(lp3020
S':'
asbag77
(g98
g79
NtRp3021
(dp3022
g82
(dp3023
sg91
g3008
sg84
(lp3024
g77
(g78
g79
NtRp3025
(dp3026
g82
(dp3027
g90
I3
ssg91
g3021
sg84
(lp3028
S''
asbasbasbag77
(g93
g79
NtRp3029
(dp3030
g82
(dp3031
sg91
g2752
sg84
(lp3032
g77
(g98
g79
NtRp3033
(dp3034
g82
(dp3035
g102
g103
ssg91
g3029
sg84
(lp3036
S'REMOTE_ADDR'
p3037
asbag77
(g98
g79
NtRp3038
(dp3039
g82
(dp3040
g109
g110
ssg91
g3029
sg84
(lp3041
S':'
asbag77
(g98
g79
NtRp3042
(dp3043
g82
(dp3044
sg91
g3029
sg84
(lp3045
g77
(g78
g79
NtRp3046
(dp3047
g82
(dp3048
g90
I3
ssg91
g3042
sg84
(lp3049
g245
asbasbasbag77
(g93
g79
NtRp3050
(dp3051
g82
(dp3052
sg91
g2752
sg84
(lp3053
g77
(g98
g79
NtRp3054
(dp3055
g82
(dp3056
g102
g103
ssg91
g3050
sg84
(lp3057
S'REMOTE_PORT'
p3058
asbag77
(g98
g79
NtRp3059
(dp3060
g82
(dp3061
g109
g110
ssg91
g3050
sg84
(lp3062
S':'
asbag77
(g98
g79
NtRp3063
(dp3064
g82
(dp3065
sg91
g3050
sg84
(lp3066
g77
(g78
g79
NtRp3067
(dp3068
g82
(dp3069
g90
I3
ssg91
g3063
sg84
(lp3070
g1591
asbasbasbag77
(g93
g79
NtRp3071
(dp3072
g82
(dp3073
sg91
g2752
sg84
(lp3074
g77
(g98
g79
NtRp3075
(dp3076
g82
(dp3077
g102
g103
ssg91
g3071
sg84
(lp3078
S'REQUEST_METHOD'
p3079
asbag77
(g98
g79
NtRp3080
(dp3081
g82
(dp3082
g109
g110
ssg91
g3071
sg84
(lp3083
S':'
asbag77
(g98
g79
NtRp3084
(dp3085
g82
(dp3086
sg91
g3071
sg84
(lp3087
g77
(g78
g79
NtRp3088
(dp3089
g82
(dp3090
g90
I3
ssg91
g3084
sg84
(lp3091
g1613
asbasbasbag77
(g93
g79
NtRp3092
(dp3093
g82
(dp3094
sg91
g2752
sg84
(lp3095
g77
(g98
g79
NtRp3096
(dp3097
g82
(dp3098
g102
g103
ssg91
g3092
sg84
(lp3099
S'SCRIPT_NAME'
p3100
asbag77
(g98
g79
NtRp3101
(dp3102
g82
(dp3103
g109
g110
ssg91
g3092
sg84
(lp3104
S':'
asbag77
(g98
g79
NtRp3105
(dp3106
g82
(dp3107
sg91
g3092
sg84
(lp3108
g77
(g78
g79
NtRp3109
(dp3110
g82
(dp3111
g90
I3
ssg91
g3105
sg84
(lp3112
S''
asbasbasbag77
(g93
g79
NtRp3113
(dp3114
g82
(dp3115
sg91
g2752
sg84
(lp3116
g77
(g98
g79
NtRp3117
(dp3118
g82
(dp3119
g102
g103
ssg91
g3113
sg84
(lp3120
S'SERVER_NAME'
p3121
asbag77
(g98
g79
NtRp3122
(dp3123
g82
(dp3124
g109
g110
ssg91
g3113
sg84
(lp3125
S':'
asbag77
(g98
g79
NtRp3126
(dp3127
g82
(dp3128
sg91
g3113
sg84
(lp3129
g77
(g78
g79
NtRp3130
(dp3131
g82
(dp3132
g90
I3
ssg91
g3126
sg84
(lp3133
g1656
asbasbasbag77
(g93
g79
NtRp3134
(dp3135
g82
(dp3136
sg91
g2752
sg84
(lp3137
g77
(g98
g79
NtRp3138
(dp3139
g82
(dp3140
g102
g103
ssg91
g3134
sg84
(lp3141
S'SERVER_PORT'
p3142
asbag77
(g98
g79
NtRp3143
(dp3144
g82
(dp3145
g109
g110
ssg91
g3134
sg84
(lp3146
S':'
asbag77
(g98
g79
NtRp3147
(dp3148
g82
(dp3149
sg91
g3134
sg84
(lp3150
g77
(g78
g79
NtRp3151
(dp3152
g82
(dp3153
g90
I3
ssg91
g3147
sg84
(lp3154
g1678
asbasbasbag77
(g93
g79
NtRp3155
(dp3156
g82
(dp3157
sg91
g2752
sg84
(lp3158
g77
(g98
g79
NtRp3159
(dp3160
g82
(dp3161
g102
g103
ssg91
g3155
sg84
(lp3162
S'SERVER_PROTOCOL'
p3163
asbag77
(g98
g79
NtRp3164
(dp3165
g82
(dp3166
g109
g110
ssg91
g3155
sg84
(lp3167
S':'
asbag77
(g98
g79
NtRp3168
(dp3169
g82
(dp3170
sg91
g3155
sg84
(lp3171
g77
(g78
g79
NtRp3172
(dp3173
g82
(dp3174
g90
I3
ssg91
g3168
sg84
(lp3175
g1700
asbasbasbag77
(g93
g79
NtRp3176
(dp3177
g82
(dp3178
sg91
g2752
sg84
(lp3179
g77
(g98
g79
NtRp3180
(dp3181
g82
(dp3182
g102
g103
ssg91
g3176
sg84
(lp3183
S'SERVER_SOFTWARE'
p3184
asbag77
(g98
g79
NtRp3185
(dp3186
g82
(dp3187
g109
g110
ssg91
g3176
sg84
(lp3188
S':'
asbag77
(g98
g79
NtRp3189
(dp3190
g82
(dp3191
sg91
g3176
sg84
(lp3192
g77
(g78
g79
NtRp3193
(dp3194
g82
(dp3195
g90
I3
ssg91
g3189
sg84
(lp3196
g1722
asbasbasbag77
(g93
g79
NtRp3197
(dp3198
g82
(dp3199
sg91
g2752
sg84
(lp3200
g77
(g98
g79
NtRp3201
(dp3202
g82
(dp3203
g102
g103
ssg91
g3197
sg84
(lp3204
S'wsgi.errors'
p3205
asbag77
(g98
g79
NtRp3206
(dp3207
g82
(dp3208
g109
g110
ssg91
g3197
sg84
(lp3209
S':'
asbag77
(g98
g79
NtRp3210
(dp3211
g82
(dp3212
sg91
g3197
sg84
(lp3213
g77
(g78
g79
NtRp3214
(dp3215
g82
(dp3216
g90
I3
ssg91
g3210
sg84
(lp3217
S"<open file '<stderr>', mode 'w' at 0x7f03f76bb270>"
p3218
asbasbasbag77
(g93
g79
NtRp3219
(dp3220
g82
(dp3221
sg91
g2752
sg84
(lp3222
g77
(g98
g79
NtRp3223
(dp3224
g82
(dp3225
g102
g103
ssg91
g3219
sg84
(lp3226
S'wsgi.file_wrapper'
p3227
asbag77
(g98
g79
NtRp3228
(dp3229
g82
(dp3230
g109
g110
ssg91
g3219
sg84
(lp3231
S':'
asbag77
(g98
g79
NtRp3232
(dp3233
g82
(dp3234
sg91
g3219
sg84
(lp3235
g77
(g78
g79
NtRp3236
(dp3237
g82
(dp3238
g90
I3
ssg91
g3232
sg84
(lp3239
S'<class wsgiref.util.FileWrapper at 0x2c0cd50>'
p3240
asbasbasbag77
(g93
g79
NtRp3241
(dp3242
g82
(dp3243
sg91
g2752
sg84
(lp3244
g77
(g98
g79
NtRp3245
(dp3246
g82
(dp3247
g102
g103
ssg91
g3241
sg84
(lp3248
S'wsgi.input'
p3249
asbag77
(g98
g79
NtRp3250
(dp3251
g82
(dp3252
g109
g110
ssg91
g3241
sg84
(lp3253
S':'
asbag77
(g98
g79
NtRp3254
(dp3255
g82
(dp3256
sg91
g3241
sg84
(lp3257
g77
(g78
g79
NtRp3258
(dp3259
g82
(dp3260
g90
I3
ssg91
g3254
sg84
(lp3261
S'<cStringIO.StringO object at 0x7f03cc5a95e0>'
p3262
asbasbasbag77
(g93
g79
NtRp3263
(dp3264
g82
(dp3265
sg91
g2752
sg84
(lp3266
g77
(g98
g79
NtRp3267
(dp3268
g82
(dp3269
g102
g103
ssg91
g3263
sg84
(lp3270
S'wsgi.multiprocess'
p3271
asbag77
(g98
g79
NtRp3272
(dp3273
g82
(dp3274
g109
g110
ssg91
g3263
sg84
(lp3275
S':'
asbag77
(g98
g79
NtRp3276
(dp3277
g82
(dp3278
sg91
g3263
sg84
(lp3279
g77
(g78
g79
NtRp3280
(dp3281
g82
(dp3282
g90
I3
ssg91
g3276
sg84
(lp3283
g1200
asbasbasbag77
(g93
g79
NtRp3284
(dp3285
g82
(dp3286
sg91
g2752
sg84
(lp3287
g77
(g98
g79
NtRp3288
(dp3289
g82
(dp3290
g102
g103
ssg91
g3284
sg84
(lp3291
S'wsgi.multithread'
p3292
asbag77
(g98
g79
NtRp3293
(dp3294
g82
(dp3295
g109
g110
ssg91
g3284
sg84
(lp3296
S':'
asbag77
(g98
g79
NtRp3297
(dp3298
g82
(dp3299
sg91
g3284
sg84
(lp3300
g77
(g78
g79
NtRp3301
(dp3302
g82
(dp3303
g90
I3
ssg91
g3297
sg84
(lp3304
g120
asbasbasbag77
(g93
g79
NtRp3305
(dp3306
g82
(dp3307
sg91
g2752
sg84
(lp3308
g77
(g98
g79
NtRp3309
(dp3310
g82
(dp3311
g102
g103
ssg91
g3305
sg84
(lp3312
S'wsgi.run_once'
p3313
asbag77
(g98
g79
NtRp3314
(dp3315
g82
(dp3316
g109
g110
ssg91
g3305
sg84
(lp3317
S':'
asbag77
(g98
g79
NtRp3318
(dp3319
g82
(dp3320
sg91
g3305
sg84
(lp3321
g77
(g78
g79
NtRp3322
(dp3323
g82
(dp3324
g90
I3
ssg91
g3318
sg84
(lp3325
g1200
asbasbasbag77
(g93
g79
NtRp3326
(dp3327
g82
(dp3328
sg91
g2752
sg84
(lp3329
g77
(g98
g79
NtRp3330
(dp3331
g82
(dp3332
g102
g103
ssg91
g3326
sg84
(lp3333
S'wsgi.url_scheme'
p3334
asbag77
(g98
g79
NtRp3335
(dp3336
g82
(dp3337
g109
g110
ssg91
g3326
sg84
(lp3338
S':'
asbag77
(g98
g79
NtRp3339
(dp3340
g82
(dp3341
sg91
g3326
sg84
(lp3342
g77
(g78
g79
NtRp3343
(dp3344
g82
(dp3345
g90
I3
ssg91
g3339
sg84
(lp3346
g2004
asbasbasbag77
(g93
g79
NtRp3347
(dp3348
g82
(dp3349
sg91
g2752
sg84
(lp3350
g77
(g98
g79
NtRp3351
(dp3352
g82
(dp3353
g102
g103
ssg91
g3347
sg84
(lp3354
S'wsgi.version'
p3355
asbag77
(g98
g79
NtRp3356
(dp3357
g82
(dp3358
g109
g110
ssg91
g3347
sg84
(lp3359
S':'
asbag77
(g98
g79
NtRp3360
(dp3361
g82
(dp3362
sg91
g3347
sg84
(lp3363
g77
(g78
g79
NtRp3364
(dp3365
g82
(dp3366
g90
I3
ssg91
g3360
sg84
(lp3367
S'1'
asbasbasbasbasbasbasbasbasbasbasbasbasbsS'frames'
p3368
(lp3369
(dp3370
S'file'
p3371
S'/home/ian/web/web2py/gluon/restricted.py'
p3372
sS'dump'
p3373
(dp3374
S'environment'
p3375
S"{'A': <class 'gluon.html.A'>, 'Auth': <class 'gluon.tools.Auth'>, 'B': <class 'gluon.html.B'>, 'BEAUTIFY': <class 'gluon.html.BEAUTIFY'>, 'BODY': <class 'gluon.html.BODY'>, 'BR': <class 'gluon.html.BR'>, 'BUTTON': <class 'gluon.html.BUTTON'>, 'BookParser': <class 'applications.grammateus3.modules.parse.BookParser'>, 'CAT': <class 'gluon.html.CAT'>, 'CENTER': <class 'gluon.html.CENTER'>, ...}"
p3376
sS'ccode'
p3377
S'<code object <module> at 0x7f03c8eb4db0, file "/...cations/grammateus3/controllers/docs.py", line 2>'
p3378
ssS'lnum'
p3379
I204
sS'lines'
p3380
(dp3381
I199
S'    try:'
p3382
sI200
S'        if type(code) == types.CodeType:'
p3383
sI201
S'            ccode = code'
p3384
sI202
S'        else:'
p3385
sI203
S'            ccode = compile2(code,layer)'
p3386
sI204
S'        exec ccode in environment'
p3387
sI205
S'    except HTTP:'
p3388
sI206
S'        raise'
p3389
sI207
S'    except RestrictedError:'
p3390
sI208
S'        # do not encapsulate (obfuscate) the original RestrictedError'
p3391
ssS'call'
p3392
S"(code='# coding: utf8\\nfrom lxml import etree\\n\\nfrom pars... info)\\n\\nresponse._vars=response._caller(section)\\n', environment={'A': <class 'gluon.html.A'>, 'Auth': <class 'gluon.tools.Auth'>, 'B': <class 'gluon.html.B'>, 'BEAUTIFY': <class 'gluon.html.BEAUTIFY'>, 'BODY': <class 'gluon.html.BODY'>, 'BR': <class 'gluon.html.BR'>, 'BUTTON': <class 'gluon.html.BUTTON'>, 'BookParser': <class 'applications.grammateus3.modules.parse.BookParser'>, 'CAT': <class 'gluon.html.CAT'>, 'CENTER': <class 'gluon.html.CENTER'>, ...}, layer='/home/ian/web/web2py/applications/grammateus3/controllers/docs.py')"
p3393
sS'func'
p3394
S'restricted'
p3395
sa(dp3396
g3371
S'/home/ian/web/web2py/applications/grammateus3/controllers/docs.py'
p3397
sg3373
(dp3398
sg3379
I194
sg3380
(dp3399
I192
S'    return dict(title = title, info = info)'
p3400
sI183
S"                print 'Version textstructure'"
p3401
sI184
S'                for ref, ref_val in value.items():'
p3402
sI185
S'                    for unit, unit_val in ref_val.items():'
p3403
sI186
S'                        for mss, mss_val in unit_val.items():'
p3404
sI187
S"                            print '\\t', ref, '-->', unit, '-->', mss, '-->', mss_val"
p3405
sI188
S"        print '************'"
p3406
sI189
S'    print'
p3407
sI190
S'    print'
p3408
sI191
S''
ssg3392
S'()'
p3409
sg3394
S'<module>'
p3410
sa(dp3411
g3371
S'/home/ian/web/web2py/gluon/globals.py'
p3412
sg3373
(dp3413
S'self'
p3414
S'undefined'
p3415
sS'f'
S'<function section>'
p3416
ssg3379
I172
sg3380
(dp3417
I167
S'        self.meta = Storage()      # used by web2py_ajax.html'
p3418
sI168
S'        self.menu = []             # used by the default view layout'
p3419
sI169
S'        self.files = []            # used by web2py_ajax.html'
p3420
sI170
S'        self.generic_patterns = [] # patterns to allow generic views'
p3421
sI171
S'        self._vars = None'
p3422
sI172
S'        self._caller = lambda f: f()'
p3423
sI173
S'        self._view_environment = None'
p3424
sI174
S'        self._custom_commit = None'
p3425
sI175
S'        self._custom_rollback = None'
p3426
sI176
S''
ssg3392
S'(f=<function section>)'
p3427
sg3394
S'<lambda>'
p3428
sa(dp3429
g3371
S'/home/ian/web/web2py/applications/grammateus3/controllers/docs.py'
p3430
sg3373
(dp3431
S'p'
g3415
sS'global BookParser'
p3432
S"<class 'applications.grammateus3.modules.parse.BookParser'>"
p3433
sS'book_file'
p3434
S"'applications/grammateus3/static/docs/3Macc.xml'"
p3435
ssg3379
I43
sg3380
(dp3436
I38
S"    print 'start of section() method with url ', request.url, varlist"
p3437
sI39
S'    #get filename from end of url and parse the file with BookParser class'
p3438
sI40
S'    filename = request.args[0]'
p3439
sI41
S"    print 'filename: ', filename"
p3440
sI42
S"    book_file = 'applications/grammateus3/static/docs/%s.xml' % filename"
p3441
sI43
S'    p = BookParser(book_file)'
p3442
sI44
S'    info = p.book_info()'
p3443
sI45
S'    #get title of document'
p3444
sI46
S"    title = info['title']"
p3445
sI47
S''
ssg3392
S'()'
p3446
sg3394
S'section'
p3447
sa(dp3448
g3371
S'/home/ian/web/web2py/applications/grammateus3/modules/parse.py'
p3449
sg3373
(dp3450
S'xml_file'
p3451
S"'applications/grammateus3/static/docs/3Macc.xml'"
p3452
sS'self'
p3453
S'<applications.grammateus3.modules.parse.BookParser object>'
p3454
sS'parser'
p3455
S'<lxml.etree.XMLParser object>'
p3456
sS'self.tree'
p3457
g3415
sS'global etree'
p3458
S"<module 'lxml.etree' from '/usr/lib/python2.7/dist-packages/lxml/etree.so'>"
p3459
sS'etree.parse'
p3460
S'<built-in function parse>'
p3461
ssg3379
I25
sg3380
(dp3462
I20
S'        self.xml_file = xml_file'
p3463
sI21
S''
sI22
S'        # Validate document against its schema'
p3464
sI23
S'        parser = etree.XMLParser(dtd_validation=True)'
p3465
sI24
S'        try:'
p3466
sI25
S'            self.tree = etree.parse(xml_file, parser)'
p3467
sI26
S'        except etree.XMLSyntaxError:'
p3468
sI27
S"            print 'Document does not validate against its schema: %s' % xml_file"
p3469
sI28
S'            raise   # Just reraise for now'
p3470
sI29
S''
ssg3392
S"(self=<applications.grammateus3.modules.parse.BookParser object>, xml_file='applications/grammateus3/static/docs/3Macc.xml')"
p3471
sg3394
g28
sa(dp3472
g3371
S'/home/ian/web/web2py/lxml.etree.pyx'
p3473
sg3373
(dp3474
sg3379
I2953
sg3380
(dp3475
sg3392
S'()'
p3476
sg3394
S'lxml.etree.parse (src/lxml/lxml.etree.c:56204)'
p3477
sa(dp3478
g3371
S'/home/ian/web/web2py/parser.pxi'
p3479
sg3373
(dp3480
sg3379
I1533
sg3380
(dp3481
sg3392
S'()'
p3482
sg3394
S'lxml.etree._parseDocument (src/lxml/lxml.etree.c:82287)'
p3483
sa(dp3484
g3371
S'/home/ian/web/web2py/parser.pxi'
p3485
sg3373
(dp3486
sg3379
I1562
sg3380
(dp3487
sg3392
S'()'
p3488
sg3394
S'lxml.etree._parseDocumentFromURL (src/lxml/lxml.etree.c:82580)'
p3489
sa(dp3490
g3371
S'/home/ian/web/web2py/parser.pxi'
p3491
sg3373
(dp3492
sg3379
I1462
sg3380
(dp3493
sg3392
S'()'
p3494
sg3394
S'lxml.etree._parseDocFromFile (src/lxml/lxml.etree.c:81619)'
p3495
sa(dp3496
g3371
S'/home/ian/web/web2py/parser.pxi'
p3497
sg3373
(dp3498
sg3379
I1002
sg3380
(dp3499
sg3392
S'()'
p3500
sg3394
S'lxml.etree._BaseParser._parseDocFromFile (src/lxml/lxml.etree.c:78528)'
p3501
sa(dp3502
g3371
S'/home/ian/web/web2py/parser.pxi'
p3503
sg3373
(dp3504
sg3379
I569
sg3380
(dp3505
sg3392
S'()'
p3506
sg3394
S'lxml.etree._ParserContext._handleParseResultDoc (src/lxml/lxml.etree.c:74472)'
p3507
sa(dp3508
g3371
S'/home/ian/web/web2py/parser.pxi'
p3509
sg3373
(dp3510
sg3379
I650
sg3380
(dp3511
sg3392
S'()'
p3512
sg3394
S'lxml.etree._handleParseResult (src/lxml/lxml.etree.c:75363)'
p3513
sa(dp3514
g3371
S'/home/ian/web/web2py/parser.pxi'
p3515
sg3373
(dp3516
sg3379
I590
sg3380
(dp3517
sg3392
S'()'
p3518
sg3394
S'lxml.etree._raiseParseError (src/lxml/lxml.etree.c:74696)'
p3519
sasS'pyver'
p3520
S'Python 2.7.3rc1: /usr/bin/python2.7'
p3521
sS'session'
p3522
g77
(g78
g79
NtRp3523
(dp3524
g82
(dp3525
sg84
(lp3526
g77
(g86
g79
NtRp3527
(dp3528
g82
(dp3529
g90
I5
ssg91
Nsg84
(lp3530
g77
(g93
g79
NtRp3531
(dp3532
g82
(dp3533
sg91
g3527
sg84
(lp3534
g77
(g98
g79
NtRp3535
(dp3536
g82
(dp3537
g102
g103
ssg91
g3531
sg84
(lp3538
S'auth'
p3539
asbag77
(g98
g79
NtRp3540
(dp3541
g82
(dp3542
g109
g110
ssg91
g3531
sg84
(lp3543
S':'
asbag77
(g98
g79
NtRp3544
(dp3545
g82
(dp3546
sg91
g3531
sg84
(lp3547
g77
(g78
g79
NtRp3548
(dp3549
g82
(dp3550
g90
I5
ssg91
g3544
sg84
(lp3551
g77
(g86
g79
NtRp3552
(dp3553
g82
(dp3554
g90
I4
ssg91
Nsg84
(lp3555
g77
(g93
g79
NtRp3556
(dp3557
g82
(dp3558
sg91
g3552
sg84
(lp3559
g77
(g98
g79
NtRp3560
(dp3561
g82
(dp3562
g102
g103
ssg91
g3556
sg84
(lp3563
S'expiration'
p3564
asbag77
(g98
g79
NtRp3565
(dp3566
g82
(dp3567
g109
g110
ssg91
g3556
sg84
(lp3568
S':'
asbag77
(g98
g79
NtRp3569
(dp3570
g82
(dp3571
sg91
g3556
sg84
(lp3572
g77
(g78
g79
NtRp3573
(dp3574
g82
(dp3575
g90
I4
ssg91
g3569
sg84
(lp3576
S'3600'
p3577
asbasbasbag77
(g93
g79
NtRp3578
(dp3579
g82
(dp3580
sg91
g3552
sg84
(lp3581
g77
(g98
g79
NtRp3582
(dp3583
g82
(dp3584
g102
g103
ssg91
g3578
sg84
(lp3585
S'hmac_key'
p3586
asbag77
(g98
g79
NtRp3587
(dp3588
g82
(dp3589
g109
g110
ssg91
g3578
sg84
(lp3590
S':'
asbag77
(g98
g79
NtRp3591
(dp3592
g82
(dp3593
sg91
g3578
sg84
(lp3594
g77
(g78
g79
NtRp3595
(dp3596
g82
(dp3597
g90
I4
ssg91
g3591
sg84
(lp3598
S'72def4ea-75f4-4ba0-b0df-93cdac129bd0'
p3599
asbasbasbag77
(g93
g79
NtRp3600
(dp3601
g82
(dp3602
sg91
g3552
sg84
(lp3603
g77
(g98
g79
NtRp3604
(dp3605
g82
(dp3606
g102
g103
ssg91
g3600
sg84
(lp3607
S'last_visit'
p3608
asbag77
(g98
g79
NtRp3609
(dp3610
g82
(dp3611
g109
g110
ssg91
g3600
sg84
(lp3612
S':'
asbag77
(g98
g79
NtRp3613
(dp3614
g82
(dp3615
sg91
g3600
sg84
(lp3616
g77
(g78
g79
NtRp3617
(dp3618
g82
(dp3619
g90
I4
ssg91
g3613
sg84
(lp3620
S'datetime.datetime(2012, 3, 12, 16, 35, 57, 899541)'
p3621
asbasbasbag77
(g93
g79
NtRp3622
(dp3623
g82
(dp3624
sg91
g3552
sg84
(lp3625
g77
(g98
g79
NtRp3626
(dp3627
g82
(dp3628
g102
g103
ssg91
g3622
sg84
(lp3629
S'user'
p3630
asbag77
(g98
g79
NtRp3631
(dp3632
g82
(dp3633
g109
g110
ssg91
g3622
sg84
(lp3634
S':'
asbag77
(g98
g79
NtRp3635
(dp3636
g82
(dp3637
sg91
g3622
sg84
(lp3638
g77
(g78
g79
NtRp3639
(dp3640
g82
(dp3641
g90
I4
ssg91
g3635
sg84
(lp3642
g77
(g86
g79
NtRp3643
(dp3644
g82
(dp3645
g90
I3
ssg91
Nsg84
(lp3646
g77
(g93
g79
NtRp3647
(dp3648
g82
(dp3649
sg91
g3643
sg84
(lp3650
g77
(g98
g79
NtRp3651
(dp3652
g82
(dp3653
g102
g103
ssg91
g3647
sg84
(lp3654
S'email'
p3655
asbag77
(g98
g79
NtRp3656
(dp3657
g82
(dp3658
g109
g110
ssg91
g3647
sg84
(lp3659
S':'
asbag77
(g98
g79
NtRp3660
(dp3661
g82
(dp3662
sg91
g3647
sg84
(lp3663
g77
(g78
g79
NtRp3664
(dp3665
g82
(dp3666
g90
I3
ssg91
g3660
sg84
(lp3667
S'scottianw@gmail.com'
p3668
asbasbasbag77
(g93
g79
NtRp3669
(dp3670
g82
(dp3671
sg91
g3643
sg84
(lp3672
g77
(g98
g79
NtRp3673
(dp3674
g82
(dp3675
g102
g103
ssg91
g3669
sg84
(lp3676
S'first_name'
p3677
asbag77
(g98
g79
NtRp3678
(dp3679
g82
(dp3680
g109
g110
ssg91
g3669
sg84
(lp3681
S':'
asbag77
(g98
g79
NtRp3682
(dp3683
g82
(dp3684
sg91
g3669
sg84
(lp3685
g77
(g78
g79
NtRp3686
(dp3687
g82
(dp3688
g90
I3
ssg91
g3682
sg84
(lp3689
S'Ian'
p3690
asbasbasbag77
(g93
g79
NtRp3691
(dp3692
g82
(dp3693
sg91
g3643
sg84
(lp3694
g77
(g98
g79
NtRp3695
(dp3696
g82
(dp3697
g102
g103
ssg91
g3691
sg84
(lp3698
S'id'
p3699
asbag77
(g98
g79
NtRp3700
(dp3701
g82
(dp3702
g109
g110
ssg91
g3691
sg84
(lp3703
S':'
asbag77
(g98
g79
NtRp3704
(dp3705
g82
(dp3706
sg91
g3691
sg84
(lp3707
g77
(g78
g79
NtRp3708
(dp3709
g82
(dp3710
g90
I3
ssg91
g3704
sg84
(lp3711
S'1'
asbasbasbag77
(g93
g79
NtRp3712
(dp3713
g82
(dp3714
sg91
g3643
sg84
(lp3715
g77
(g98
g79
NtRp3716
(dp3717
g82
(dp3718
g102
g103
ssg91
g3712
sg84
(lp3719
S'last_name'
p3720
asbag77
(g98
g79
NtRp3721
(dp3722
g82
(dp3723
g109
g110
ssg91
g3712
sg84
(lp3724
S':'
asbag77
(g98
g79
NtRp3725
(dp3726
g82
(dp3727
sg91
g3712
sg84
(lp3728
g77
(g78
g79
NtRp3729
(dp3730
g82
(dp3731
g90
I3
ssg91
g3725
sg84
(lp3732
S'Scott'
p3733
asbasbasbag77
(g93
g79
NtRp3734
(dp3735
g82
(dp3736
sg91
g3643
sg84
(lp3737
g77
(g98
g79
NtRp3738
(dp3739
g82
(dp3740
g102
g103
ssg91
g3734
sg84
(lp3741
S'password'
p3742
asbag77
(g98
g79
NtRp3743
(dp3744
g82
(dp3745
g109
g110
ssg91
g3734
sg84
(lp3746
S':'
asbag77
(g98
g79
NtRp3747
(dp3748
g82
(dp3749
sg91
g3734
sg84
(lp3750
g77
(g78
g79
NtRp3751
(dp3752
g82
(dp3753
g90
I3
ssg91
g3747
sg84
(lp3754
S'351bc855a8ae4839e89ee60d2f279ed9'
p3755
asbasbasbag77
(g93
g79
NtRp3756
(dp3757
g82
(dp3758
sg91
g3643
sg84
(lp3759
g77
(g98
g79
NtRp3760
(dp3761
g82
(dp3762
g102
g103
ssg91
g3756
sg84
(lp3763
S'registration_id'
p3764
asbag77
(g98
g79
NtRp3765
(dp3766
g82
(dp3767
g109
g110
ssg91
g3756
sg84
(lp3768
S':'
asbag77
(g98
g79
NtRp3769
(dp3770
g82
(dp3771
sg91
g3756
sg84
(lp3772
g77
(g78
g79
NtRp3773
(dp3774
g82
(dp3775
g90
I3
ssg91
g3769
sg84
(lp3776
S''
asbasbasbag77
(g93
g79
NtRp3777
(dp3778
g82
(dp3779
sg91
g3643
sg84
(lp3780
g77
(g98
g79
NtRp3781
(dp3782
g82
(dp3783
g102
g103
ssg91
g3777
sg84
(lp3784
S'registration_key'
p3785
asbag77
(g98
g79
NtRp3786
(dp3787
g82
(dp3788
g109
g110
ssg91
g3777
sg84
(lp3789
S':'
asbag77
(g98
g79
NtRp3790
(dp3791
g82
(dp3792
sg91
g3777
sg84
(lp3793
g77
(g78
g79
NtRp3794
(dp3795
g82
(dp3796
g90
I3
ssg91
g3790
sg84
(lp3797
S''
asbasbasbag77
(g93
g79
NtRp3798
(dp3799
g82
(dp3800
sg91
g3643
sg84
(lp3801
g77
(g98
g79
NtRp3802
(dp3803
g82
(dp3804
g102
g103
ssg91
g3798
sg84
(lp3805
S'reset_password_key'
p3806
asbag77
(g98
g79
NtRp3807
(dp3808
g82
(dp3809
g109
g110
ssg91
g3798
sg84
(lp3810
S':'
asbag77
(g98
g79
NtRp3811
(dp3812
g82
(dp3813
sg91
g3798
sg84
(lp3814
g77
(g78
g79
NtRp3815
(dp3816
g82
(dp3817
g90
I3
ssg91
g3811
sg84
(lp3818
S''
asbasbasbasbasbasbasbasbasbasbasbasbasbsS'etype'
p3819
S"<class 'lxml.etree.XMLSyntaxError'>"
p3820
sS'date'
p3821
S'Mon Mar 12 16:36:13 2012'
p3822
sS'response'
p3823
g77
(g78
g79
NtRp3824
(dp3825
g82
(dp3826
sg84
(lp3827
g77
(g86
g79
NtRp3828
(dp3829
g82
(dp3830
g90
I5
ssg91
Nsg84
(lp3831
g77
(g93
g79
NtRp3832
(dp3833
g82
(dp3834
sg91
g3828
sg84
(lp3835
g77
(g98
g79
NtRp3836
(dp3837
g82
(dp3838
g102
g103
ssg91
g3832
sg84
(lp3839
g188
asbag77
(g98
g79
NtRp3840
(dp3841
g82
(dp3842
g109
g110
ssg91
g3832
sg84
(lp3843
S':'
asbag77
(g98
g79
NtRp3844
(dp3845
g82
(dp3846
sg91
g3832
sg84
(lp3847
g77
(g78
g79
NtRp3848
(dp3849
g82
(dp3850
g90
I5
ssg91
g3844
sg84
(lp3851
S'<cStringIO.StringO object at 0x7f03d46ea618>'
p3852
asbasbasbag77
(g93
g79
NtRp3853
(dp3854
g82
(dp3855
sg91
g3828
sg84
(lp3856
g77
(g98
g79
NtRp3857
(dp3858
g82
(dp3859
g102
g103
ssg91
g3853
sg84
(lp3860
g276
asbag77
(g98
g79
NtRp3861
(dp3862
g82
(dp3863
g109
g110
ssg91
g3853
sg84
(lp3864
S':'
asbag77
(g98
g79
NtRp3865
(dp3866
g82
(dp3867
sg91
g3853
sg84
(lp3868
g77
(g78
g79
NtRp3869
(dp3870
g82
(dp3871
g90
I5
ssg91
g3865
sg84
(lp3872
g77
(g86
g79
NtRp3873
(dp3874
g82
(dp3875
g90
I4
ssg91
Nsg84
(lp3876
g77
(g93
g79
NtRp3877
(dp3878
g82
(dp3879
sg91
g3873
sg84
(lp3880
g77
(g98
g79
NtRp3881
(dp3882
g82
(dp3883
g102
g103
ssg91
g3877
sg84
(lp3884
S'session_id_grammateus3'
p3885
asbag77
(g98
g79
NtRp3886
(dp3887
g82
(dp3888
g109
g110
ssg91
g3877
sg84
(lp3889
S':'
asbag77
(g98
g79
NtRp3890
(dp3891
g82
(dp3892
sg91
g3877
sg84
(lp3893
g77
(g78
g79
NtRp3894
(dp3895
g82
(dp3896
g90
I4
ssg91
g3890
sg84
(lp3897
g77
(g86
g79
NtRp3898
(dp3899
g82
(dp3900
g90
I3
ssg91
Nsg84
(lp3901
g77
(g93
g79
NtRp3902
(dp3903
g82
(dp3904
sg91
g3898
sg84
(lp3905
g77
(g98
g79
NtRp3906
(dp3907
g82
(dp3908
g102
g103
ssg91
g3902
sg84
(lp3909
g326
asbag77
(g98
g79
NtRp3910
(dp3911
g82
(dp3912
g109
g110
ssg91
g3902
sg84
(lp3913
S':'
asbag77
(g98
g79
NtRp3914
(dp3915
g82
(dp3916
sg91
g3902
sg84
(lp3917
g77
(g78
g79
NtRp3918
(dp3919
g82
(dp3920
g90
I3
ssg91
g3914
sg84
(lp3921
S''
asbasbasbag77
(g93
g79
NtRp3922
(dp3923
g82
(dp3924
sg91
g3898
sg84
(lp3925
g77
(g98
g79
NtRp3926
(dp3927
g82
(dp3928
g102
g103
ssg91
g3922
sg84
(lp3929
g347
asbag77
(g98
g79
NtRp3930
(dp3931
g82
(dp3932
g109
g110
ssg91
g3922
sg84
(lp3933
S':'
asbag77
(g98
g79
NtRp3934
(dp3935
g82
(dp3936
sg91
g3922
sg84
(lp3937
g77
(g78
g79
NtRp3938
(dp3939
g82
(dp3940
g90
I3
ssg91
g3934
sg84
(lp3941
S''
asbasbasbag77
(g93
g79
NtRp3942
(dp3943
g82
(dp3944
sg91
g3898
sg84
(lp3945
g77
(g98
g79
NtRp3946
(dp3947
g82
(dp3948
g102
g103
ssg91
g3942
sg84
(lp3949
g368
asbag77
(g98
g79
NtRp3950
(dp3951
g82
(dp3952
g109
g110
ssg91
g3942
sg84
(lp3953
S':'
asbag77
(g98
g79
NtRp3954
(dp3955
g82
(dp3956
sg91
g3942
sg84
(lp3957
g77
(g78
g79
NtRp3958
(dp3959
g82
(dp3960
g90
I3
ssg91
g3954
sg84
(lp3961
S''
asbasbasbag77
(g93
g79
NtRp3962
(dp3963
g82
(dp3964
sg91
g3898
sg84
(lp3965
g77
(g98
g79
NtRp3966
(dp3967
g82
(dp3968
g102
g103
ssg91
g3962
sg84
(lp3969
g389
asbag77
(g98
g79
NtRp3970
(dp3971
g82
(dp3972
g109
g110
ssg91
g3962
sg84
(lp3973
S':'
asbag77
(g98
g79
NtRp3974
(dp3975
g82
(dp3976
sg91
g3962
sg84
(lp3977
g77
(g78
g79
NtRp3978
(dp3979
g82
(dp3980
g90
I3
ssg91
g3974
sg84
(lp3981
S''
asbasbasbag77
(g93
g79
NtRp3982
(dp3983
g82
(dp3984
sg91
g3898
sg84
(lp3985
g77
(g98
g79
NtRp3986
(dp3987
g82
(dp3988
g102
g103
ssg91
g3982
sg84
(lp3989
g410
asbag77
(g98
g79
NtRp3990
(dp3991
g82
(dp3992
g109
g110
ssg91
g3982
sg84
(lp3993
S':'
asbag77
(g98
g79
NtRp3994
(dp3995
g82
(dp3996
sg91
g3982
sg84
(lp3997
g77
(g78
g79
NtRp3998
(dp3999
g82
(dp4000
g90
I3
ssg91
g3994
sg84
(lp4001
S''
asbasbasbag77
(g93
g79
NtRp4002
(dp4003
g82
(dp4004
sg91
g3898
sg84
(lp4005
g77
(g98
g79
NtRp4006
(dp4007
g82
(dp4008
g102
g103
ssg91
g4002
sg84
(lp4009
g431
asbag77
(g98
g79
NtRp4010
(dp4011
g82
(dp4012
g109
g110
ssg91
g4002
sg84
(lp4013
S':'
asbag77
(g98
g79
NtRp4014
(dp4015
g82
(dp4016
sg91
g4002
sg84
(lp4017
g77
(g78
g79
NtRp4018
(dp4019
g82
(dp4020
g90
I3
ssg91
g4014
sg84
(lp4021
S'/'
asbasbasbag77
(g93
g79
NtRp4022
(dp4023
g82
(dp4024
sg91
g3898
sg84
(lp4025
g77
(g98
g79
NtRp4026
(dp4027
g82
(dp4028
g102
g103
ssg91
g4022
sg84
(lp4029
g452
asbag77
(g98
g79
NtRp4030
(dp4031
g82
(dp4032
g109
g110
ssg91
g4022
sg84
(lp4033
S':'
asbag77
(g98
g79
NtRp4034
(dp4035
g82
(dp4036
sg91
g4022
sg84
(lp4037
g77
(g78
g79
NtRp4038
(dp4039
g82
(dp4040
g90
I3
ssg91
g4034
sg84
(lp4041
S''
asbasbasbag77
(g93
g79
NtRp4042
(dp4043
g82
(dp4044
sg91
g3898
sg84
(lp4045
g77
(g98
g79
NtRp4046
(dp4047
g82
(dp4048
g102
g103
ssg91
g4042
sg84
(lp4049
g473
asbag77
(g98
g79
NtRp4050
(dp4051
g82
(dp4052
g109
g110
ssg91
g4042
sg84
(lp4053
S':'
asbag77
(g98
g79
NtRp4054
(dp4055
g82
(dp4056
sg91
g4042
sg84
(lp4057
g77
(g78
g79
NtRp4058
(dp4059
g82
(dp4060
g90
I3
ssg91
g4054
sg84
(lp4061
S''
asbasbasbasbasbasbasbasbasbasbasbag77
(g93
g79
NtRp4062
(dp4063
g82
(dp4064
sg91
g3828
sg84
(lp4065
g77
(g98
g79
NtRp4066
(dp4067
g82
(dp4068
g102
g103
ssg91
g4062
sg84
(lp4069
S'files'
p4070
asbag77
(g98
g79
NtRp4071
(dp4072
g82
(dp4073
g109
g110
ssg91
g4062
sg84
(lp4074
S':'
asbag77
(g98
g79
NtRp4075
(dp4076
g82
(dp4077
sg91
g4062
sg84
(lp4078
g77
(g78
g79
NtRp4079
(dp4080
g82
(dp4081
g90
I5
ssg91
g4075
sg84
(lp4082
g77
(g86
g79
NtRp4083
(dp4084
g82
(dp4085
g90
I4
ssg91
Nsg84
(lp4086
sbasbasbasbag77
(g93
g79
NtRp4087
(dp4088
g82
(dp4089
sg91
g3828
sg84
(lp4090
g77
(g98
g79
NtRp4091
(dp4092
g82
(dp4093
g102
g103
ssg91
g4087
sg84
(lp4094
S'flash'
p4095
asbag77
(g98
g79
NtRp4096
(dp4097
g82
(dp4098
g109
g110
ssg91
g4087
sg84
(lp4099
S':'
asbag77
(g98
g79
NtRp4100
(dp4101
g82
(dp4102
sg91
g4087
sg84
(lp4103
g77
(g78
g79
NtRp4104
(dp4105
g82
(dp4106
g90
I5
ssg91
g4100
sg84
(lp4107
S''
asbasbasbag77
(g93
g79
NtRp4108
(dp4109
g82
(dp4110
sg91
g3828
sg84
(lp4111
g77
(g98
g79
NtRp4112
(dp4113
g82
(dp4114
g102
g103
ssg91
g4108
sg84
(lp4115
S'generic_patterns'
p4116
asbag77
(g98
g79
NtRp4117
(dp4118
g82
(dp4119
g109
g110
ssg91
g4108
sg84
(lp4120
S':'
asbag77
(g98
g79
NtRp4121
(dp4122
g82
(dp4123
sg91
g4108
sg84
(lp4124
g77
(g78
g79
NtRp4125
(dp4126
g82
(dp4127
g90
I5
ssg91
g4121
sg84
(lp4128
g77
(g86
g79
NtRp4129
(dp4130
g82
(dp4131
g90
I4
ssg91
Nsg84
(lp4132
g77
(g93
g79
NtRp4133
(dp4134
g82
(dp4135
sg91
g4129
sg84
(lp4136
g77
(g98
g79
NtRp4137
(dp4138
g82
(dp4139
sg91
g4133
sg84
(lp4140
g77
(g78
g79
NtRp4141
(dp4142
g82
(dp4143
g90
I4
ssg91
g4137
sg84
(lp4144
S'*'
asbasbasbasbasbasbasbag77
(g93
g79
NtRp4145
(dp4146
g82
(dp4147
sg91
g3828
sg84
(lp4148
g77
(g98
g79
NtRp4149
(dp4150
g82
(dp4151
g102
g103
ssg91
g4145
sg84
(lp4152
S'headers'
p4153
asbag77
(g98
g79
NtRp4154
(dp4155
g82
(dp4156
g109
g110
ssg91
g4145
sg84
(lp4157
S':'
asbag77
(g98
g79
NtRp4158
(dp4159
g82
(dp4160
sg91
g4145
sg84
(lp4161
g77
(g78
g79
NtRp4162
(dp4163
g82
(dp4164
g90
I5
ssg91
g4158
sg84
(lp4165
g77
(g86
g79
NtRp4166
(dp4167
g82
(dp4168
g90
I4
ssg91
Nsg84
(lp4169
g77
(g93
g79
NtRp4170
(dp4171
g82
(dp4172
sg91
g4166
sg84
(lp4173
g77
(g98
g79
NtRp4174
(dp4175
g82
(dp4176
g102
g103
ssg91
g4170
sg84
(lp4177
S'Cache-Control'
p4178
asbag77
(g98
g79
NtRp4179
(dp4180
g82
(dp4181
g109
g110
ssg91
g4170
sg84
(lp4182
S':'
asbag77
(g98
g79
NtRp4183
(dp4184
g82
(dp4185
sg91
g4170
sg84
(lp4186
g77
(g78
g79
NtRp4187
(dp4188
g82
(dp4189
g90
I4
ssg91
g4183
sg84
(lp4190
S'no-store, no-cache, must-revalidate, post-check=0, pre-check=0'
p4191
asbasbasbag77
(g93
g79
NtRp4192
(dp4193
g82
(dp4194
sg91
g4166
sg84
(lp4195
g77
(g98
g79
NtRp4196
(dp4197
g82
(dp4198
g102
g103
ssg91
g4192
sg84
(lp4199
S'Content-Type'
p4200
asbag77
(g98
g79
NtRp4201
(dp4202
g82
(dp4203
g109
g110
ssg91
g4192
sg84
(lp4204
S':'
asbag77
(g98
g79
NtRp4205
(dp4206
g82
(dp4207
sg91
g4192
sg84
(lp4208
g77
(g78
g79
NtRp4209
(dp4210
g82
(dp4211
g90
I4
ssg91
g4205
sg84
(lp4212
S'text/html; charset=utf-8'
p4213
asbasbasbag77
(g93
g79
NtRp4214
(dp4215
g82
(dp4216
sg91
g4166
sg84
(lp4217
g77
(g98
g79
NtRp4218
(dp4219
g82
(dp4220
g102
g103
ssg91
g4214
sg84
(lp4221
S'Expires'
p4222
asbag77
(g98
g79
NtRp4223
(dp4224
g82
(dp4225
g109
g110
ssg91
g4214
sg84
(lp4226
S':'
asbag77
(g98
g79
NtRp4227
(dp4228
g82
(dp4229
sg91
g4214
sg84
(lp4230
g77
(g78
g79
NtRp4231
(dp4232
g82
(dp4233
g90
I4
ssg91
g4227
sg84
(lp4234
S'Mon, 12 Mar 2012 20:36:13 GMT'
p4235
asbasbasbag77
(g93
g79
NtRp4236
(dp4237
g82
(dp4238
sg91
g4166
sg84
(lp4239
g77
(g98
g79
NtRp4240
(dp4241
g82
(dp4242
g102
g103
ssg91
g4236
sg84
(lp4243
S'Pragma'
p4244
asbag77
(g98
g79
NtRp4245
(dp4246
g82
(dp4247
g109
g110
ssg91
g4236
sg84
(lp4248
S':'
asbag77
(g98
g79
NtRp4249
(dp4250
g82
(dp4251
sg91
g4236
sg84
(lp4252
g77
(g78
g79
NtRp4253
(dp4254
g82
(dp4255
g90
I4
ssg91
g4249
sg84
(lp4256
S'no-cache'
p4257
asbasbasbag77
(g93
g79
NtRp4258
(dp4259
g82
(dp4260
sg91
g4166
sg84
(lp4261
g77
(g98
g79
NtRp4262
(dp4263
g82
(dp4264
g102
g103
ssg91
g4258
sg84
(lp4265
S'X-Powered-By'
p4266
asbag77
(g98
g79
NtRp4267
(dp4268
g82
(dp4269
g109
g110
ssg91
g4258
sg84
(lp4270
S':'
asbag77
(g98
g79
NtRp4271
(dp4272
g82
(dp4273
sg91
g4258
sg84
(lp4274
g77
(g78
g79
NtRp4275
(dp4276
g82
(dp4277
g90
I4
ssg91
g4271
sg84
(lp4278
S'web2py'
p4279
asbasbasbasbasbasbasbag77
(g93
g79
NtRp4280
(dp4281
g82
(dp4282
sg91
g3828
sg84
(lp4283
g77
(g98
g79
NtRp4284
(dp4285
g82
(dp4286
g102
g103
ssg91
g4280
sg84
(lp4287
S'menu'
p4288
asbag77
(g98
g79
NtRp4289
(dp4290
g82
(dp4291
g109
g110
ssg91
g4280
sg84
(lp4292
S':'
asbag77
(g98
g79
NtRp4293
(dp4294
g82
(dp4295
sg91
g4280
sg84
(lp4296
g77
(g78
g79
NtRp4297
(dp4298
g82
(dp4299
g90
I5
ssg91
g4293
sg84
(lp4300
g77
(g86
g79
NtRp4301
(dp4302
g82
(dp4303
g90
I4
ssg91
Nsg84
(lp4304
g77
(g93
g79
NtRp4305
(dp4306
g82
(dp4307
sg91
g4301
sg84
(lp4308
g77
(g98
g79
NtRp4309
(dp4310
g82
(dp4311
sg91
g4305
sg84
(lp4312
g77
(g78
g79
NtRp4313
(dp4314
g82
(dp4315
g90
I4
ssg91
g4309
sg84
(lp4316
g77
(g86
g79
NtRp4317
(dp4318
g82
(dp4319
g90
I3
ssg91
Nsg84
(lp4320
g77
(g93
g79
NtRp4321
(dp4322
g82
(dp4323
sg91
g4317
sg84
(lp4324
g77
(g98
g79
NtRp4325
(dp4326
g82
(dp4327
sg91
g4321
sg84
(lp4328
g77
(g78
g79
NtRp4329
(dp4330
g82
(dp4331
g90
I3
ssg91
g4325
sg84
(lp4332
cgluon.languages
lazyT_unpickle
p4333
(S't\x06\x00\x00\x00Drafts'
tRp4334
asbasbasbag77
(g93
g79
NtRp4335
(dp4336
g82
(dp4337
sg91
g4317
sg84
(lp4338
g77
(g98
g79
NtRp4339
(dp4340
g82
(dp4341
sg91
g4335
sg84
(lp4342
g77
(g78
g79
NtRp4343
(dp4344
g82
(dp4345
g90
I3
ssg91
g4339
sg84
(lp4346
g1200
asbasbasbag77
(g93
g79
NtRp4347
(dp4348
g82
(dp4349
sg91
g4317
sg84
(lp4350
g77
(g98
g79
NtRp4351
(dp4352
g82
(dp4353
sg91
g4347
sg84
(lp4354
g77
(g78
g79
NtRp4355
(dp4356
g82
(dp4357
g90
I3
ssg91
g4351
sg84
(lp4358
g77
(cgluon.html
A
p4359
g79
NtRp4360
(dp4361
g82
(dp4362
S'_class'
p4363
S'draftslink'
p4364
sS'_href'
p4365
S'/grammateus3/default/page.load/drafts'
p4366
ssg91
Nsg84
(lp4367
S'Drafts'
p4368
asbasbasbasbag77
(g93
g79
NtRp4369
(dp4370
g82
(dp4371
sg91
g4317
sg84
(lp4372
g77
(g98
g79
NtRp4373
(dp4374
g82
(dp4375
sg91
g4369
sg84
(lp4376
g77
(g78
g79
NtRp4377
(dp4378
g82
(dp4379
g90
I3
ssg91
g4373
sg84
(lp4380
g77
(g86
g79
NtRp4381
(dp4382
g82
(dp4383
g90
I2
ssg91
Nsg84
(lp4384
sbasbasbasbasbasbasbasbag77
(g93
g79
NtRp4385
(dp4386
g82
(dp4387
sg91
g4301
sg84
(lp4388
g77
(g98
g79
NtRp4389
(dp4390
g82
(dp4391
sg91
g4385
sg84
(lp4392
g77
(g78
g79
NtRp4393
(dp4394
g82
(dp4395
g90
I4
ssg91
g4389
sg84
(lp4396
g77
(g86
g79
NtRp4397
(dp4398
g82
(dp4399
g90
I3
ssg91
Nsg84
(lp4400
g77
(g93
g79
NtRp4401
(dp4402
g82
(dp4403
sg91
g4397
sg84
(lp4404
g77
(g98
g79
NtRp4405
(dp4406
g82
(dp4407
sg91
g4401
sg84
(lp4408
g77
(g78
g79
NtRp4409
(dp4410
g82
(dp4411
g90
I3
ssg91
g4405
sg84
(lp4412
g4333
(S't\x05\x00\x00\x00Admin'
tRp4413
asbasbasbag77
(g93
g79
NtRp4414
(dp4415
g82
(dp4416
sg91
g4397
sg84
(lp4417
g77
(g98
g79
NtRp4418
(dp4419
g82
(dp4420
sg91
g4414
sg84
(lp4421
g77
(g78
g79
NtRp4422
(dp4423
g82
(dp4424
g90
I3
ssg91
g4418
sg84
(lp4425
g1200
asbasbasbag77
(g93
g79
NtRp4426
(dp4427
g82
(dp4428
sg91
g4397
sg84
(lp4429
g77
(g98
g79
NtRp4430
(dp4431
g82
(dp4432
sg91
g4426
sg84
(lp4433
g77
(g78
g79
NtRp4434
(dp4435
g82
(dp4436
g90
I3
ssg91
g4430
sg84
(lp4437
g77
(g4359
g79
NtRp4438
(dp4439
g82
(dp4440
g4363
S'adminlink'
p4441
sg4365
S'/grammateus3/default/page.load/admin'
p4442
ssg91
Nsg84
(lp4443
S'Admin'
p4444
asbasbasbasbag77
(g93
g79
NtRp4445
(dp4446
g82
(dp4447
sg91
g4397
sg84
(lp4448
g77
(g98
g79
NtRp4449
(dp4450
g82
(dp4451
sg91
g4445
sg84
(lp4452
g77
(g78
g79
NtRp4453
(dp4454
g82
(dp4455
g90
I3
ssg91
g4449
sg84
(lp4456
g77
(g86
g79
NtRp4457
(dp4458
g82
(dp4459
g90
I2
ssg91
Nsg84
(lp4460
sbasbasbasbasbasbasbasbag77
(g93
g79
NtRp4461
(dp4462
g82
(dp4463
sg91
g4301
sg84
(lp4464
g77
(g98
g79
NtRp4465
(dp4466
g82
(dp4467
sg91
g4461
sg84
(lp4468
g77
(g78
g79
NtRp4469
(dp4470
g82
(dp4471
g90
I4
ssg91
g4465
sg84
(lp4472
g77
(g86
g79
NtRp4473
(dp4474
g82
(dp4475
g90
I3
ssg91
Nsg84
(lp4476
g77
(g93
g79
NtRp4477
(dp4478
g82
(dp4479
sg91
g4473
sg84
(lp4480
g77
(g98
g79
NtRp4481
(dp4482
g82
(dp4483
sg91
g4477
sg84
(lp4484
g77
(g78
g79
NtRp4485
(dp4486
g82
(dp4487
g90
I3
ssg91
g4481
sg84
(lp4488
g4333
(S't\t\x00\x00\x00Copyright'
tRp4489
asbasbasbag77
(g93
g79
NtRp4490
(dp4491
g82
(dp4492
sg91
g4473
sg84
(lp4493
g77
(g98
g79
NtRp4494
(dp4495
g82
(dp4496
sg91
g4490
sg84
(lp4497
g77
(g78
g79
NtRp4498
(dp4499
g82
(dp4500
g90
I3
ssg91
g4494
sg84
(lp4501
g1200
asbasbasbag77
(g93
g79
NtRp4502
(dp4503
g82
(dp4504
sg91
g4473
sg84
(lp4505
g77
(g98
g79
NtRp4506
(dp4507
g82
(dp4508
sg91
g4502
sg84
(lp4509
g77
(g78
g79
NtRp4510
(dp4511
g82
(dp4512
g90
I3
ssg91
g4506
sg84
(lp4513
g77
(g4359
g79
NtRp4514
(dp4515
g82
(dp4516
g4363
S'copyrightlink'
p4517
sg4365
S'/grammateus3/default/page.load/copyright'
p4518
ssg91
Nsg84
(lp4519
S'Copyright'
p4520
asbasbasbasbag77
(g93
g79
NtRp4521
(dp4522
g82
(dp4523
sg91
g4473
sg84
(lp4524
g77
(g98
g79
NtRp4525
(dp4526
g82
(dp4527
sg91
g4521
sg84
(lp4528
g77
(g78
g79
NtRp4529
(dp4530
g82
(dp4531
g90
I3
ssg91
g4525
sg84
(lp4532
g77
(g86
g79
NtRp4533
(dp4534
g82
(dp4535
g90
I2
ssg91
Nsg84
(lp4536
sbasbasbasbasbasbasbasbag77
(g93
g79
NtRp4537
(dp4538
g82
(dp4539
sg91
g4301
sg84
(lp4540
g77
(g98
g79
NtRp4541
(dp4542
g82
(dp4543
sg91
g4537
sg84
(lp4544
g77
(g78
g79
NtRp4545
(dp4546
g82
(dp4547
g90
I4
ssg91
g4541
sg84
(lp4548
g77
(g86
g79
NtRp4549
(dp4550
g82
(dp4551
g90
I3
ssg91
Nsg84
(lp4552
g77
(g93
g79
NtRp4553
(dp4554
g82
(dp4555
sg91
g4549
sg84
(lp4556
g77
(g98
g79
NtRp4557
(dp4558
g82
(dp4559
sg91
g4553
sg84
(lp4560
g77
(g78
g79
NtRp4561
(dp4562
g82
(dp4563
g90
I3
ssg91
g4557
sg84
(lp4564
g4333
(S's\x14\x00\x00\x00Help and Information'
tRp4565
asbasbasbag77
(g93
g79
NtRp4566
(dp4567
g82
(dp4568
sg91
g4549
sg84
(lp4569
g77
(g98
g79
NtRp4570
(dp4571
g82
(dp4572
sg91
g4566
sg84
(lp4573
g77
(g78
g79
NtRp4574
(dp4575
g82
(dp4576
g90
I3
ssg91
g4570
sg84
(lp4577
g1200
asbasbasbag77
(g93
g79
NtRp4578
(dp4579
g82
(dp4580
sg91
g4549
sg84
(lp4581
g77
(g98
g79
NtRp4582
(dp4583
g82
(dp4584
sg91
g4578
sg84
(lp4585
g77
(g78
g79
NtRp4586
(dp4587
g82
(dp4588
g90
I3
ssg91
g4582
sg84
(lp4589
g77
(g4359
g79
NtRp4590
(dp4591
g82
(dp4592
g4363
S'helplink'
p4593
sg4365
S'/grammateus3/default/page.load/help'
p4594
ssg91
Nsg84
(lp4595
S'Help and Information'
p4596
asbasbasbasbag77
(g93
g79
NtRp4597
(dp4598
g82
(dp4599
sg91
g4549
sg84
(lp4600
g77
(g98
g79
NtRp4601
(dp4602
g82
(dp4603
sg91
g4597
sg84
(lp4604
g77
(g78
g79
NtRp4605
(dp4606
g82
(dp4607
g90
I3
ssg91
g4601
sg84
(lp4608
g77
(g86
g79
NtRp4609
(dp4610
g82
(dp4611
g90
I2
ssg91
Nsg84
(lp4612
g77
(g93
g79
NtRp4613
(dp4614
g82
(dp4615
sg91
g4609
sg84
(lp4616
g77
(g98
g79
NtRp4617
(dp4618
g82
(dp4619
sg91
g4613
sg84
(lp4620
g77
(g78
g79
NtRp4621
(dp4622
g82
(dp4623
g90
I2
ssg91
g4617
sg84
(lp4624
g77
(g86
g79
NtRp4625
(dp4626
g82
(dp4627
g90
I1
ssg91
Nsg84
(lp4628
g77
(g93
g79
NtRp4629
(dp4630
g82
(dp4631
sg91
g4625
sg84
(lp4632
g77
(g98
g79
NtRp4633
(dp4634
g82
(dp4635
sg91
g4629
sg84
(lp4636
g77
(g78
g79
NtRp4637
(dp4638
g82
(dp4639
g90
I1
ssg91
g4633
sg84
(lp4640
g4333
(S't\x03\x00\x00\x00FAQ'
tRp4641
asbasbasbag77
(g93
g79
NtRp4642
(dp4643
g82
(dp4644
sg91
g4625
sg84
(lp4645
g77
(g98
g79
NtRp4646
(dp4647
g82
(dp4648
sg91
g4642
sg84
(lp4649
g77
(g78
g79
NtRp4650
(dp4651
g82
(dp4652
g90
I1
ssg91
g4646
sg84
(lp4653
I00
asbasbasbag77
(g93
g79
NtRp4654
(dp4655
g82
(dp4656
sg91
g4625
sg84
(lp4657
g77
(g98
g79
NtRp4658
(dp4659
g82
(dp4660
sg91
g4654
sg84
(lp4661
g77
(g78
g79
NtRp4662
(dp4663
g82
(dp4664
g90
I1
ssg91
g4658
sg84
(lp4665
g77
(g4359
g79
NtRp4666
(dp4667
g82
(dp4668
g4363
S'faqlink'
p4669
sg4365
S'/grammateus3/default/page.load/faq'
p4670
ssg91
Nsg84
(lp4671
S'FAQ'
p4672
asbasbasbasbag77
(g93
g79
NtRp4673
(dp4674
g82
(dp4675
sg91
g4625
sg84
(lp4676
g77
(g98
g79
NtRp4677
(dp4678
g82
(dp4679
sg91
g4673
sg84
(lp4680
g77
(g78
g79
NtRp4681
(dp4682
g82
(dp4683
g90
I1
ssg91
g4677
sg84
(lp4684
(lp4685
asbasbasbasbasbasbasbag77
(g93
g79
NtRp4686
(dp4687
g82
(dp4688
sg91
g4609
sg84
(lp4689
g77
(g98
g79
NtRp4690
(dp4691
g82
(dp4692
sg91
g4686
sg84
(lp4693
g77
(g78
g79
NtRp4694
(dp4695
g82
(dp4696
g90
I2
ssg91
g4690
sg84
(lp4697
g77
(g86
g79
NtRp4698
(dp4699
g82
(dp4700
g90
I1
ssg91
Nsg84
(lp4701
g77
(g93
g79
NtRp4702
(dp4703
g82
(dp4704
sg91
g4698
sg84
(lp4705
g77
(g98
g79
NtRp4706
(dp4707
g82
(dp4708
sg91
g4702
sg84
(lp4709
g77
(g78
g79
NtRp4710
(dp4711
g82
(dp4712
g90
I1
ssg91
g4706
sg84
(lp4713
g4333
(S't\x07\x00\x00\x00Roadmap'
tRp4714
asbasbasbag77
(g93
g79
NtRp4715
(dp4716
g82
(dp4717
sg91
g4698
sg84
(lp4718
g77
(g98
g79
NtRp4719
(dp4720
g82
(dp4721
sg91
g4715
sg84
(lp4722
g77
(g78
g79
NtRp4723
(dp4724
g82
(dp4725
g90
I1
ssg91
g4719
sg84
(lp4726
I00
asbasbasbag77
(g93
g79
NtRp4727
(dp4728
g82
(dp4729
sg91
g4698
sg84
(lp4730
g77
(g98
g79
NtRp4731
(dp4732
g82
(dp4733
sg91
g4727
sg84
(lp4734
g77
(g78
g79
NtRp4735
(dp4736
g82
(dp4737
g90
I1
ssg91
g4731
sg84
(lp4738
g77
(g4359
g79
NtRp4739
(dp4740
g82
(dp4741
g4363
S'roadmaplink'
p4742
sg4365
S'/grammateus3/default/page.load/roadmap'
p4743
ssg91
Nsg84
(lp4744
S'Roadmap'
p4745
asbasbasbasbag77
(g93
g79
NtRp4746
(dp4747
g82
(dp4748
sg91
g4698
sg84
(lp4749
g77
(g98
g79
NtRp4750
(dp4751
g82
(dp4752
sg91
g4746
sg84
(lp4753
g77
(g78
g79
NtRp4754
(dp4755
g82
(dp4756
g90
I1
ssg91
g4750
sg84
(lp4757
(lp4758
asbasbasbasbasbasbasbag77
(g93
g79
NtRp4759
(dp4760
g82
(dp4761
sg91
g4609
sg84
(lp4762
g77
(g98
g79
NtRp4763
(dp4764
g82
(dp4765
sg91
g4759
sg84
(lp4766
g77
(g78
g79
NtRp4767
(dp4768
g82
(dp4769
g90
I2
ssg91
g4763
sg84
(lp4770
g77
(g86
g79
NtRp4771
(dp4772
g82
(dp4773
g90
I1
ssg91
Nsg84
(lp4774
g77
(g93
g79
NtRp4775
(dp4776
g82
(dp4777
sg91
g4771
sg84
(lp4778
g77
(g98
g79
NtRp4779
(dp4780
g82
(dp4781
sg91
g4775
sg84
(lp4782
g77
(g78
g79
NtRp4783
(dp4784
g82
(dp4785
g90
I1
ssg91
g4779
sg84
(lp4786
g4333
(S's\x0c\x00\x00\x00Get involved'
tRp4787
asbasbasbag77
(g93
g79
NtRp4788
(dp4789
g82
(dp4790
sg91
g4771
sg84
(lp4791
g77
(g98
g79
NtRp4792
(dp4793
g82
(dp4794
sg91
g4788
sg84
(lp4795
g77
(g78
g79
NtRp4796
(dp4797
g82
(dp4798
g90
I1
ssg91
g4792
sg84
(lp4799
I00
asbasbasbag77
(g93
g79
NtRp4800
(dp4801
g82
(dp4802
sg91
g4771
sg84
(lp4803
g77
(g98
g79
NtRp4804
(dp4805
g82
(dp4806
sg91
g4800
sg84
(lp4807
g77
(g78
g79
NtRp4808
(dp4809
g82
(dp4810
g90
I1
ssg91
g4804
sg84
(lp4811
g77
(g4359
g79
NtRp4812
(dp4813
g82
(dp4814
g4363
S'involvedlink'
p4815
sg4365
S'/grammateus3/default/page.load/get-involved'
p4816
ssg91
Nsg84
(lp4817
S'Get involved'
p4818
asbasbasbasbag77
(g93
g79
NtRp4819
(dp4820
g82
(dp4821
sg91
g4771
sg84
(lp4822
g77
(g98
g79
NtRp4823
(dp4824
g82
(dp4825
sg91
g4819
sg84
(lp4826
g77
(g78
g79
NtRp4827
(dp4828
g82
(dp4829
g90
I1
ssg91
g4823
sg84
(lp4830
(lp4831
asbasbasbasbasbasbasbasbasbasbasbasbasbasbasbag77
(g93
g79
NtRp4832
(dp4833
g82
(dp4834
sg91
g4301
sg84
(lp4835
g77
(g98
g79
NtRp4836
(dp4837
g82
(dp4838
sg91
g4832
sg84
(lp4839
g77
(g78
g79
NtRp4840
(dp4841
g82
(dp4842
g90
I4
ssg91
g4836
sg84
(lp4843
g77
(g86
g79
NtRp4844
(dp4845
g82
(dp4846
g90
I3
ssg91
Nsg84
(lp4847
g77
(g93
g79
NtRp4848
(dp4849
g82
(dp4850
sg91
g4844
sg84
(lp4851
g77
(g98
g79
NtRp4852
(dp4853
g82
(dp4854
sg91
g4848
sg84
(lp4855
g77
(g78
g79
NtRp4856
(dp4857
g82
(dp4858
g90
I3
ssg91
g4852
sg84
(lp4859
g4333
(S's\x0b\x00\x00\x00Bug reports'
tRp4860
asbasbasbag77
(g93
g79
NtRp4861
(dp4862
g82
(dp4863
sg91
g4844
sg84
(lp4864
g77
(g98
g79
NtRp4865
(dp4866
g82
(dp4867
sg91
g4861
sg84
(lp4868
g77
(g78
g79
NtRp4869
(dp4870
g82
(dp4871
g90
I3
ssg91
g4865
sg84
(lp4872
g1200
asbasbasbag77
(g93
g79
NtRp4873
(dp4874
g82
(dp4875
sg91
g4844
sg84
(lp4876
g77
(g98
g79
NtRp4877
(dp4878
g82
(dp4879
sg91
g4873
sg84
(lp4880
g77
(g78
g79
NtRp4881
(dp4882
g82
(dp4883
g90
I3
ssg91
g4877
sg84
(lp4884
g77
(g4359
g79
NtRp4885
(dp4886
g82
(dp4887
g4363
S'bugslink'
p4888
sg4365
S'/grammateus3/default/page.load/bugs'
p4889
ssg91
Nsg84
(lp4890
S'Bug reports'
p4891
asbasbasbasbag77
(g93
g79
NtRp4892
(dp4893
g82
(dp4894
sg91
g4844
sg84
(lp4895
g77
(g98
g79
NtRp4896
(dp4897
g82
(dp4898
sg91
g4892
sg84
(lp4899
g77
(g78
g79
NtRp4900
(dp4901
g82
(dp4902
g90
I3
ssg91
g4896
sg84
(lp4903
g77
(g86
g79
NtRp4904
(dp4905
g82
(dp4906
g90
I2
ssg91
Nsg84
(lp4907
sbasbasbasbasbasbasbasbag77
(g93
g79
NtRp4908
(dp4909
g82
(dp4910
sg91
g4301
sg84
(lp4911
g77
(g98
g79
NtRp4912
(dp4913
g82
(dp4914
sg91
g4908
sg84
(lp4915
g77
(g78
g79
NtRp4916
(dp4917
g82
(dp4918
g90
I4
ssg91
g4912
sg84
(lp4919
g77
(g86
g79
NtRp4920
(dp4921
g82
(dp4922
g90
I3
ssg91
Nsg84
(lp4923
g77
(g93
g79
NtRp4924
(dp4925
g82
(dp4926
sg91
g4920
sg84
(lp4927
g77
(g98
g79
NtRp4928
(dp4929
g82
(dp4930
sg91
g4924
sg84
(lp4931
g77
(g78
g79
NtRp4932
(dp4933
g82
(dp4934
g90
I3
ssg91
g4928
sg84
(lp4935
g4333
(S't\x0b\x00\x00\x00Suggestions'
tRp4936
asbasbasbag77
(g93
g79
NtRp4937
(dp4938
g82
(dp4939
sg91
g4920
sg84
(lp4940
g77
(g98
g79
NtRp4941
(dp4942
g82
(dp4943
sg91
g4937
sg84
(lp4944
g77
(g78
g79
NtRp4945
(dp4946
g82
(dp4947
g90
I3
ssg91
g4941
sg84
(lp4948
g1200
asbasbasbag77
(g93
g79
NtRp4949
(dp4950
g82
(dp4951
sg91
g4920
sg84
(lp4952
g77
(g98
g79
NtRp4953
(dp4954
g82
(dp4955
sg91
g4949
sg84
(lp4956
g77
(g78
g79
NtRp4957
(dp4958
g82
(dp4959
g90
I3
ssg91
g4953
sg84
(lp4960
g77
(g4359
g79
NtRp4961
(dp4962
g82
(dp4963
g4363
S'suggestionslink'
p4964
sg4365
S'/grammateus3/default/page.load/suggestions'
p4965
ssg91
Nsg84
(lp4966
S'Suggestions'
p4967
asbasbasbasbag77
(g93
g79
NtRp4968
(dp4969
g82
(dp4970
sg91
g4920
sg84
(lp4971
g77
(g98
g79
NtRp4972
(dp4973
g82
(dp4974
sg91
g4968
sg84
(lp4975
g77
(g78
g79
NtRp4976
(dp4977
g82
(dp4978
g90
I3
ssg91
g4972
sg84
(lp4979
g77
(g86
g79
NtRp4980
(dp4981
g82
(dp4982
g90
I2
ssg91
Nsg84
(lp4983
sbasbasbasbasbasbasbasbag77
(g93
g79
NtRp4984
(dp4985
g82
(dp4986
sg91
g4301
sg84
(lp4987
g77
(g98
g79
NtRp4988
(dp4989
g82
(dp4990
sg91
g4984
sg84
(lp4991
g77
(g78
g79
NtRp4992
(dp4993
g82
(dp4994
g90
I4
ssg91
g4988
sg84
(lp4995
g77
(g86
g79
NtRp4996
(dp4997
g82
(dp4998
g90
I3
ssg91
Nsg84
(lp4999
g77
(g93
g79
NtRp5000
(dp5001
g82
(dp5002
sg91
g4996
sg84
(lp5003
g77
(g98
g79
NtRp5004
(dp5005
g82
(dp5006
sg91
g5000
sg84
(lp5007
g77
(g78
g79
NtRp5008
(dp5009
g82
(dp5010
g90
I3
ssg91
g5004
sg84
(lp5011
g4333
(S's\n\x00\x00\x00Contact us'
tRp5012
asbasbasbag77
(g93
g79
NtRp5013
(dp5014
g82
(dp5015
sg91
g4996
sg84
(lp5016
g77
(g98
g79
NtRp5017
(dp5018
g82
(dp5019
sg91
g5013
sg84
(lp5020
g77
(g78
g79
NtRp5021
(dp5022
g82
(dp5023
g90
I3
ssg91
g5017
sg84
(lp5024
g1200
asbasbasbag77
(g93
g79
NtRp5025
(dp5026
g82
(dp5027
sg91
g4996
sg84
(lp5028
g77
(g98
g79
NtRp5029
(dp5030
g82
(dp5031
sg91
g5025
sg84
(lp5032
g77
(g78
g79
NtRp5033
(dp5034
g82
(dp5035
g90
I3
ssg91
g5029
sg84
(lp5036
g77
(g4359
g79
NtRp5037
(dp5038
g82
(dp5039
g4363
S'contactlink'
p5040
sg4365
S'/grammateus3/default/page.load/contact'
p5041
ssg91
Nsg84
(lp5042
S'Contact us'
p5043
asbasbasbasbag77
(g93
g79
NtRp5044
(dp5045
g82
(dp5046
sg91
g4996
sg84
(lp5047
g77
(g98
g79
NtRp5048
(dp5049
g82
(dp5050
sg91
g5044
sg84
(lp5051
g77
(g78
g79
NtRp5052
(dp5053
g82
(dp5054
g90
I3
ssg91
g5048
sg84
(lp5055
g77
(g86
g79
NtRp5056
(dp5057
g82
(dp5058
g90
I2
ssg91
Nsg84
(lp5059
sbasbasbasbasbasbasbasbag77
(g93
g79
NtRp5060
(dp5061
g82
(dp5062
sg91
g4301
sg84
(lp5063
g77
(g98
g79
NtRp5064
(dp5065
g82
(dp5066
sg91
g5060
sg84
(lp5067
g77
(g78
g79
NtRp5068
(dp5069
g82
(dp5070
g90
I4
ssg91
g5064
sg84
(lp5071
g77
(g86
g79
NtRp5072
(dp5073
g82
(dp5074
g90
I3
ssg91
Nsg84
(lp5075
g77
(g93
g79
NtRp5076
(dp5077
g82
(dp5078
sg91
g5072
sg84
(lp5079
g77
(g98
g79
NtRp5080
(dp5081
g82
(dp5082
sg91
g5076
sg84
(lp5083
g77
(g78
g79
NtRp5084
(dp5085
g82
(dp5086
g90
I3
ssg91
g5080
sg84
(lp5087
g4333
(S't\t\x00\x00\x00Documents'
tRp5088
asbasbasbag77
(g93
g79
NtRp5089
(dp5090
g82
(dp5091
sg91
g5072
sg84
(lp5092
g77
(g98
g79
NtRp5093
(dp5094
g82
(dp5095
sg91
g5089
sg84
(lp5096
g77
(g78
g79
NtRp5097
(dp5098
g82
(dp5099
g90
I3
ssg91
g5093
sg84
(lp5100
g1200
asbasbasbag77
(g93
g79
NtRp5101
(dp5102
g82
(dp5103
sg91
g5072
sg84
(lp5104
g77
(g98
g79
NtRp5105
(dp5106
g82
(dp5107
sg91
g5101
sg84
(lp5108
g77
(g78
g79
NtRp5109
(dp5110
g82
(dp5111
g90
I3
ssg91
g5105
sg84
(lp5112
g77
(g4359
g79
NtRp5113
(dp5114
g82
(dp5115
g4363
S'documentslink'
p5116
sg4365
S'/grammateus3/default/index.load'
p5117
ssg91
Nsg84
(lp5118
S'Documents'
p5119
asbasbasbasbag77
(g93
g79
NtRp5120
(dp5121
g82
(dp5122
sg91
g5072
sg84
(lp5123
g77
(g98
g79
NtRp5124
(dp5125
g82
(dp5126
sg91
g5120
sg84
(lp5127
g77
(g78
g79
NtRp5128
(dp5129
g82
(dp5130
g90
I3
ssg91
g5124
sg84
(lp5131
g77
(g86
g79
NtRp5132
(dp5133
g82
(dp5134
g90
I2
ssg91
Nsg84
(lp5135
sbasbasbasbasbasbasbasbasbasbasbasbag77
(g93
g79
NtRp5136
(dp5137
g82
(dp5138
sg91
g3828
sg84
(lp5139
g77
(g98
g79
NtRp5140
(dp5141
g82
(dp5142
g102
g103
ssg91
g5136
sg84
(lp5143
S'meta'
p5144
asbag77
(g98
g79
NtRp5145
(dp5146
g82
(dp5147
g109
g110
ssg91
g5136
sg84
(lp5148
S':'
asbag77
(g98
g79
NtRp5149
(dp5150
g82
(dp5151
sg91
g5136
sg84
(lp5152
g77
(g78
g79
NtRp5153
(dp5154
g82
(dp5155
g90
I5
ssg91
g5149
sg84
(lp5156
g77
(g86
g79
NtRp5157
(dp5158
g82
(dp5159
g90
I4
ssg91
Nsg84
(lp5160
g77
(g93
g79
NtRp5161
(dp5162
g82
(dp5163
sg91
g5157
sg84
(lp5164
g77
(g98
g79
NtRp5165
(dp5166
g82
(dp5167
g102
g103
ssg91
g5161
sg84
(lp5168
S'author'
p5169
asbag77
(g98
g79
NtRp5170
(dp5171
g82
(dp5172
g109
g110
ssg91
g5161
sg84
(lp5173
S':'
asbag77
(g98
g79
NtRp5174
(dp5175
g82
(dp5176
sg91
g5161
sg84
(lp5177
g77
(g78
g79
NtRp5178
(dp5179
g82
(dp5180
g90
I4
ssg91
g5174
sg84
(lp5181
S'Ian W. Scott <you@example.com>'
p5182
asbasbasbag77
(g93
g79
NtRp5183
(dp5184
g82
(dp5185
sg91
g5157
sg84
(lp5186
g77
(g98
g79
NtRp5187
(dp5188
g82
(dp5189
g102
g103
ssg91
g5183
sg84
(lp5190
S'copyright'
p5191
asbag77
(g98
g79
NtRp5192
(dp5193
g82
(dp5194
g109
g110
ssg91
g5183
sg84
(lp5195
S':'
asbag77
(g98
g79
NtRp5196
(dp5197
g82
(dp5198
sg91
g5183
sg84
(lp5199
g77
(g78
g79
NtRp5200
(dp5201
g82
(dp5202
g90
I4
ssg91
g5196
sg84
(lp5203
S'Copyright 2006-2012'
p5204
asbasbasbag77
(g93
g79
NtRp5205
(dp5206
g82
(dp5207
sg91
g5157
sg84
(lp5208
g77
(g98
g79
NtRp5209
(dp5210
g82
(dp5211
g102
g103
ssg91
g5205
sg84
(lp5212
S'description'
p5213
asbag77
(g98
g79
NtRp5214
(dp5215
g82
(dp5216
g109
g110
ssg91
g5205
sg84
(lp5217
S':'
asbag77
(g98
g79
NtRp5218
(dp5219
g82
(dp5220
sg91
g5205
sg84
(lp5221
g77
(g78
g79
NtRp5222
(dp5223
g82
(dp5224
g90
I4
ssg91
g5218
sg84
(lp5225
S'Free-access editions of the "Old Testament Pseudepigrapha"    and related literature'
p5226
asbasbasbag77
(g93
g79
NtRp5227
(dp5228
g82
(dp5229
sg91
g5157
sg84
(lp5230
g77
(g98
g79
NtRp5231
(dp5232
g82
(dp5233
g102
g103
ssg91
g5227
sg84
(lp5234
S'generator'
p5235
asbag77
(g98
g79
NtRp5236
(dp5237
g82
(dp5238
g109
g110
ssg91
g5227
sg84
(lp5239
S':'
asbag77
(g98
g79
NtRp5240
(dp5241
g82
(dp5242
sg91
g5227
sg84
(lp5243
g77
(g78
g79
NtRp5244
(dp5245
g82
(dp5246
g90
I4
ssg91
g5240
sg84
(lp5247
S'Web2py Web Framework'
p5248
asbasbasbag77
(g93
g79
NtRp5249
(dp5250
g82
(dp5251
sg91
g5157
sg84
(lp5252
g77
(g98
g79
NtRp5253
(dp5254
g82
(dp5255
g102
g103
ssg91
g5249
sg84
(lp5256
S'keywords'
p5257
asbag77
(g98
g79
NtRp5258
(dp5259
g82
(dp5260
g109
g110
ssg91
g5249
sg84
(lp5261
S':'
asbag77
(g98
g79
NtRp5262
(dp5263
g82
(dp5264
sg91
g5249
sg84
(lp5265
g77
(g78
g79
NtRp5266
(dp5267
g82
(dp5268
g90
I4
ssg91
g5262
sg84
(lp5269
S'early judaism, religion, ancient, literature, Pseudepigrapha,    apocrypha, textual criticism, primary texts, sources, manuscripts'
p5270
asbasbasbasbasbasbasbag77
(g93
g79
NtRp5271
(dp5272
g82
(dp5273
sg91
g3828
sg84
(lp5274
g77
(g98
g79
NtRp5275
(dp5276
g82
(dp5277
g102
g103
ssg91
g5271
sg84
(lp5278
S'postprocessing'
p5279
asbag77
(g98
g79
NtRp5280
(dp5281
g82
(dp5282
g109
g110
ssg91
g5271
sg84
(lp5283
S':'
asbag77
(g98
g79
NtRp5284
(dp5285
g82
(dp5286
sg91
g5271
sg84
(lp5287
g77
(g78
g79
NtRp5288
(dp5289
g82
(dp5290
g90
I5
ssg91
g5284
sg84
(lp5291
g77
(g86
g79
NtRp5292
(dp5293
g82
(dp5294
g90
I4
ssg91
Nsg84
(lp5295
sbasbasbasbag77
(g93
g79
NtRp5296
(dp5297
g82
(dp5298
sg91
g3828
sg84
(lp5299
g77
(g98
g79
NtRp5300
(dp5301
g82
(dp5302
g102
g103
ssg91
g5296
sg84
(lp5303
S'session_file'
p5304
asbag77
(g98
g79
NtRp5305
(dp5306
g82
(dp5307
g109
g110
ssg91
g5296
sg84
(lp5308
S':'
asbag77
(g98
g79
NtRp5309
(dp5310
g82
(dp5311
sg91
g5296
sg84
(lp5312
g77
(g78
g79
NtRp5313
(dp5314
g82
(dp5315
g90
I5
ssg91
g5309
sg84
(lp5316
S"<open file '/home/ian/web/web2py/applications/grammateus3/sessions/127.0.0.1-ae131346-de62-453a-b308-33d5b317e3e5', mode 'rb+' at 0x7f03b86ef660>"
p5317
asbasbasbag77
(g93
g79
NtRp5318
(dp5319
g82
(dp5320
sg91
g3828
sg84
(lp5321
g77
(g98
g79
NtRp5322
(dp5323
g82
(dp5324
g102
g103
ssg91
g5318
sg84
(lp5325
S'session_filename'
p5326
asbag77
(g98
g79
NtRp5327
(dp5328
g82
(dp5329
g109
g110
ssg91
g5318
sg84
(lp5330
S':'
asbag77
(g98
g79
NtRp5331
(dp5332
g82
(dp5333
sg91
g5318
sg84
(lp5334
g77
(g78
g79
NtRp5335
(dp5336
g82
(dp5337
g90
I5
ssg91
g5331
sg84
(lp5338
S'/home/ian/web/web2py/applications/grammateus3/sessions/127.0.0.1-ae131346-de62-453a-b308-33d5b317e3e5'
p5339
asbasbasbag77
(g93
g79
NtRp5340
(dp5341
g82
(dp5342
sg91
g3828
sg84
(lp5343
g77
(g98
g79
NtRp5344
(dp5345
g82
(dp5346
g102
g103
ssg91
g5340
sg84
(lp5347
S'session_id'
p5348
asbag77
(g98
g79
NtRp5349
(dp5350
g82
(dp5351
g109
g110
ssg91
g5340
sg84
(lp5352
S':'
asbag77
(g98
g79
NtRp5353
(dp5354
g82
(dp5355
sg91
g5340
sg84
(lp5356
g77
(g78
g79
NtRp5357
(dp5358
g82
(dp5359
g90
I5
ssg91
g5353
sg84
(lp5360
S'127.0.0.1-ae131346-de62-453a-b308-33d5b317e3e5'
p5361
asbasbasbag77
(g93
g79
NtRp5362
(dp5363
g82
(dp5364
sg91
g3828
sg84
(lp5365
g77
(g98
g79
NtRp5366
(dp5367
g82
(dp5368
g102
g103
ssg91
g5362
sg84
(lp5369
S'session_id_name'
p5370
asbag77
(g98
g79
NtRp5371
(dp5372
g82
(dp5373
g109
g110
ssg91
g5362
sg84
(lp5374
S':'
asbag77
(g98
g79
NtRp5375
(dp5376
g82
(dp5377
sg91
g5362
sg84
(lp5378
g77
(g78
g79
NtRp5379
(dp5380
g82
(dp5381
g90
I5
ssg91
g5375
sg84
(lp5382
g3885
asbasbasbag77
(g93
g79
NtRp5383
(dp5384
g82
(dp5385
sg91
g3828
sg84
(lp5386
g77
(g98
g79
NtRp5387
(dp5388
g82
(dp5389
g102
g103
ssg91
g5383
sg84
(lp5390
S'session_locked'
p5391
asbag77
(g98
g79
NtRp5392
(dp5393
g82
(dp5394
g109
g110
ssg91
g5383
sg84
(lp5395
S':'
asbag77
(g98
g79
NtRp5396
(dp5397
g82
(dp5398
sg91
g5383
sg84
(lp5399
g77
(g78
g79
NtRp5400
(dp5401
g82
(dp5402
g90
I5
ssg91
g5396
sg84
(lp5403
g120
asbasbasbag77
(g93
g79
NtRp5404
(dp5405
g82
(dp5406
sg91
g3828
sg84
(lp5407
g77
(g98
g79
NtRp5408
(dp5409
g82
(dp5410
g102
g103
ssg91
g5404
sg84
(lp5411
S'session_new'
p5412
asbag77
(g98
g79
NtRp5413
(dp5414
g82
(dp5415
g109
g110
ssg91
g5404
sg84
(lp5416
S':'
asbag77
(g98
g79
NtRp5417
(dp5418
g82
(dp5419
sg91
g5404
sg84
(lp5420
g77
(g78
g79
NtRp5421
(dp5422
g82
(dp5423
g90
I5
ssg91
g5417
sg84
(lp5424
g1200
asbasbasbag77
(g93
g79
NtRp5425
(dp5426
g82
(dp5427
sg91
g3828
sg84
(lp5428
g77
(g98
g79
NtRp5429
(dp5430
g82
(dp5431
g102
g103
ssg91
g5425
sg84
(lp5432
S'status'
p5433
asbag77
(g98
g79
NtRp5434
(dp5435
g82
(dp5436
g109
g110
ssg91
g5425
sg84
(lp5437
S':'
asbag77
(g98
g79
NtRp5438
(dp5439
g82
(dp5440
sg91
g5425
sg84
(lp5441
g77
(g78
g79
NtRp5442
(dp5443
g82
(dp5444
g90
I5
ssg91
g5438
sg84
(lp5445
S'200'
p5446
asbasbasbag77
(g93
g79
NtRp5447
(dp5448
g82
(dp5449
sg91
g3828
sg84
(lp5450
g77
(g98
g79
NtRp5451
(dp5452
g82
(dp5453
g102
g103
ssg91
g5447
sg84
(lp5454
S'subtitle'
p5455
asbag77
(g98
g79
NtRp5456
(dp5457
g82
(dp5458
g109
g110
ssg91
g5447
sg84
(lp5459
S':'
asbag77
(g98
g79
NtRp5460
(dp5461
g82
(dp5462
sg91
g5447
sg84
(lp5463
g77
(g78
g79
NtRp5464
(dp5465
g82
(dp5466
g90
I5
ssg91
g5460
sg84
(lp5467
g4333
(S'sh\x00\x00\x00Developing and Publishing Accurate Texts of the "Old Testament Pseudepigrapha"    and related literature'
tRp5468
asbasbasbag77
(g93
g79
NtRp5469
(dp5470
g82
(dp5471
sg91
g3828
sg84
(lp5472
g77
(g98
g79
NtRp5473
(dp5474
g82
(dp5475
g102
g103
ssg91
g5469
sg84
(lp5476
S'title'
p5477
asbag77
(g98
g79
NtRp5478
(dp5479
g82
(dp5480
g109
g110
ssg91
g5469
sg84
(lp5481
S':'
asbag77
(g98
g79
NtRp5482
(dp5483
g82
(dp5484
sg91
g5469
sg84
(lp5485
g77
(g78
g79
NtRp5486
(dp5487
g82
(dp5488
g90
I5
ssg91
g5482
sg84
(lp5489
S'The Online Critical Pseudepigrapha'
p5490
asbasbasbag77
(g93
g79
NtRp5491
(dp5492
g82
(dp5493
sg91
g3828
sg84
(lp5494
g77
(g98
g79
NtRp5495
(dp5496
g82
(dp5497
g102
g103
ssg91
g5491
sg84
(lp5498
g2667
asbag77
(g98
g79
NtRp5499
(dp5500
g82
(dp5501
g109
g110
ssg91
g5491
sg84
(lp5502
S':'
asbag77
(g98
g79
NtRp5503
(dp5504
g82
(dp5505
sg91
g5491
sg84
(lp5506
g77
(g78
g79
NtRp5507
(dp5508
g82
(dp5509
g90
I5
ssg91
g5503
sg84
(lp5510
g2680
asbasbasbag77
(g93
g79
NtRp5511
(dp5512
g82
(dp5513
sg91
g3828
sg84
(lp5514
g77
(g98
g79
NtRp5515
(dp5516
g82
(dp5517
g102
g103
ssg91
g5511
sg84
(lp5518
S'view'
p5519
asbag77
(g98
g79
NtRp5520
(dp5521
g82
(dp5522
g109
g110
ssg91
g5511
sg84
(lp5523
S':'
asbag77
(g98
g79
NtRp5524
(dp5525
g82
(dp5526
sg91
g5511
sg84
(lp5527
g77
(g78
g79
NtRp5528
(dp5529
g82
(dp5530
g90
I5
ssg91
g5524
sg84
(lp5531
S'docs/section.load'
p5532
asbasbasbasbasbsS'locals'
p5533
(dp5534
S'_ModifyContentOnlyProxy'
p5535
S"<type 'lxml.etree._ModifyContentOnlyProxy'>"
p5536
sS'XPathEvaluator'
p5537
S'<built-in function XPathEvaluator>'
p5538
sS'ParserBasedElementClassLookup'
p5539
S"<type 'lxml.etree.ParserBasedElementClassLookup'>"
p5540
sS'_Attrib'
p5541
S"<type 'lxml.etree._Attrib'>"
p5542
sS'_FilelikeWriter'
p5543
S"<type 'lxml.etree._FilelikeWriter'>"
p5544
sS'strip_attributes'
p5545
S'<built-in function strip_attributes>'
p5546
sS'SiblingsIterator'
p5547
S"<type 'lxml.etree.SiblingsIterator'>"
p5548
sS'LIBXSLT_VERSION'
p5549
S'(1, 1, 26)'
p5550
sS'XMLDTDID'
p5551
S'<built-in function XMLDTDID>'
p5552
sS'ElementTree'
p5553
S'<built-in function ElementTree>'
p5554
sS'cleanup_namespaces'
p5555
S'<built-in function cleanup_namespaces>'
p5556
sS'set_default_parser'
p5557
S'<built-in function set_default_parser>'
p5558
sS'ElementClassLookup'
p5559
S"<type 'lxml.etree.ElementClassLookup'>"
p5560
sS'parseid'
p5561
S'<built-in function parseid>'
p5562
sS'LxmlSyntaxError'
p5563
S"<class 'lxml.etree.LxmlSyntaxError'>"
p5564
sS'_XSLTProcessingInstruction'
p5565
S"<type 'lxml.etree._XSLTProcessingInstruction'>"
p5566
sS'_ParserContext'
p5567
S"<type 'lxml.etree._ParserContext'>"
p5568
sS'__pyx_capi__'
p5569
S'{\'appendChild\': <capsule object "void (struct LxmlElement *, struct LxmlElement *)">, \'attributeValue\': <capsule object "PyObject *(xmlNode *, xmlAttr *)">, \'attributeValueFromNsName\': <capsule object "PyObject *(xmlNode *, char *, char *)">, \'callLookupFallback\': <capsule object "PyObject *(struct LxmlFallbackE...lassLookup *, struct LxmlDocument *, xmlNode *)">, \'collectAttributes\': <capsule object "PyObject *(xmlNode *, int)">, \'deepcopyNodeToDocument\': <capsule object "struct LxmlElement *(struct LxmlDocument *, xmlNode *)">, \'delAttribute\': <capsule object "int (struct LxmlElement *, PyObject *)">, \'delAttributeFromNsName\': <capsule object "int (xmlNode *, char *, char *)">, \'documentOrRaise\': <capsule object "struct LxmlDocument *(PyObject *)">, \'elementFactory\': <capsule object "struct LxmlElement *(struct LxmlDocument *, xmlNode *)">, ...}'
p5570
sS'_ModifyContentOnlyEntityProxy'
p5571
S"<type 'lxml.etree._ModifyContentOnlyEntityProxy'>"
p5572
sS'_IDDict'
p5573
S"<type 'lxml.etree._IDDict'>"
p5574
sS'XSLTParseError'
p5575
S"<class 'lxml.etree.XSLTParseError'>"
p5576
sS'__ContentOnlyElement'
p5577
S"<type 'lxml.etree.__ContentOnlyElement'>"
p5578
sS'CustomElementClassLookup'
p5579
S"<type 'lxml.etree.CustomElementClassLookup'>"
p5580
sS'_OpaqueNodeWrapper'
p5581
S"<type 'lxml.etree._OpaqueNodeWrapper'>"
p5582
sS'_XPathFunctionNamespaceRegistry'
p5583
S"<type 'lxml.etree._XPathFunctionNamespaceRegistry'>"
p5584
sS'_ReadOnlyElementProxy'
p5585
S"<type 'lxml.etree._ReadOnlyElementProxy'>"
p5586
sS'LxmlRegistryError'
p5587
S"<class 'lxml.etree.LxmlRegistryError'>"
p5588
sS'__file__'
p5589
S"'/usr/lib/python2.7/dist-packages/lxml/etree.so'"
p5590
sS'TreeBuilder'
p5591
S"<type 'lxml.etree.TreeBuilder'>"
p5592
sS'_FileReaderContext'
p5593
S"<type 'lxml.etree._FileReaderContext'>"
p5594
sS'C14NError'
p5595
S"<class 'lxml.etree.C14NError'>"
p5596
sS'CommentBase'
p5597
S"<type 'lxml.etree.CommentBase'>"
p5598
sS'tostring'
p5599
S'<built-in function tostring>'
p5600
sS'iselement'
p5601
S'<built-in function iselement>'
p5602
sS'_FeedParser'
p5603
S"<type 'lxml.etree._FeedParser'>"
p5604
sS'XPathError'
p5605
S"<class 'lxml.etree.XPathError'>"
p5606
sS'LxmlError'
p5607
S"<class 'lxml.etree.LxmlError'>"
p5608
sS'__version__'
p5609
S"u'2.3.2'"
p5610
sS'_ExsltRegExp'
p5611
S"<type 'lxml.etree._ExsltRegExp'>"
p5612
sS'XMLID'
p5613
S'<built-in function XMLID>'
p5614
sS'DocumentInvalid'
p5615
S"<class 'lxml.etree.DocumentInvalid'>"
p5616
sS'FunctionNamespace'
p5617
S'<built-in function FunctionNamespace>'
p5618
sS'XSLTExtensionError'
p5619
S"<class 'lxml.etree.XSLTExtensionError'>"
p5620
sS'_IterparseContext'
p5621
S"<type 'lxml.etree._IterparseContext'>"
p5622
sS'Entity'
p5623
S'<built-in function Entity>'
p5624
sS'_Entity'
p5625
S"<type 'lxml.etree._Entity'>"
p5626
sS'iterparse'
p5627
S"<type 'lxml.etree.iterparse'>"
p5628
sS'_XPathContext'
p5629
S"<type 'lxml.etree._XPathContext'>"
p5630
sS'__package__'
p5631
S"'lxml'"
p5632
sS'ElementChildIterator'
p5633
S"<type 'lxml.etree.ElementChildIterator'>"
p5634
sS'XPath'
p5635
S"<type 'lxml.etree.XPath'>"
p5636
sS'_LogEntry'
p5637
S"<type 'lxml.etree._LogEntry'>"
p5638
sS'_ResolverContext'
p5639
S"<type 'lxml.etree._ResolverContext'>"
p5640
sS'_AttribIterator'
p5641
S"<type 'lxml.etree._AttribIterator'>"
p5642
sS'_ReadOnlyEntityProxy'
p5643
S"<type 'lxml.etree._ReadOnlyEntityProxy'>"
p5644
sS'PyErrorLog'
p5645
S"<type 'lxml.etree.PyErrorLog'>"
p5646
sS'_SaxParserContext'
p5647
S"<type 'lxml.etree._SaxParserContext'>"
p5648
sS'_ElementTree'
p5649
S"<type 'lxml.etree._ElementTree'>"
p5650
sS'_ListErrorLog'
p5651
S"<type 'lxml.etree._ListErrorLog'>"
p5652
sS'DTD'
p5653
S"<type 'lxml.etree.DTD'>"
p5654
sS'AttributeBasedElementClassLookup'
p5655
S"<type 'lxml.etree.AttributeBasedElementClassLookup'>"
p5656
sS'HTMLParser'
p5657
S"<type 'lxml.etree.HTMLParser'>"
p5658
sS'ElementNamespaceClassLookup'
p5659
S"<type 'lxml.etree.ElementNamespaceClassLookup'>"
p5660
sS'XPathFunctionError'
p5661
S"<class 'lxml.etree.XPathFunctionError'>"
p5662
sS'ElementDepthFirstIterator'
p5663
S"<type 'lxml.etree.ElementDepthFirstIterator'>"
p5664
sS'XMLParser'
p5665
S"<type 'lxml.etree.XMLParser'>"
p5666
sS'XInclude'
p5667
S"<type 'lxml.etree.XInclude'>"
p5668
sS'Schematron'
p5669
S"<type 'lxml.etree.Schematron'>"
p5670
sS'__all__'
p5671
S"['AttributeBasedElementClassLookup', 'C14NError', 'CDATA', 'Comment', 'CommentBase', 'CustomElementClassLookup', 'DEBUG', 'DTD', 'DTDError', 'DTDParseError', 'DTDValidateError', 'DocumentInvalid', 'ETCompatXMLParser', 'ETXPath', 'Element', 'ElementBase', 'ElementClassLookup', 'ElementDefaultClassLookup', 'ElementNamespaceClassLookup', 'ElementTree', ...]"
p5672
sS'NamespaceRegistryError'
p5673
S"<class 'lxml.etree.NamespaceRegistryError'>"
p5674
sS'_Document'
p5675
S"<type 'lxml.etree._Document'>"
p5676
sS'strip_elements'
p5677
S'<built-in function strip_elements>'
p5678
sS'_XSLTContext'
p5679
S"<type 'lxml.etree._XSLTContext'>"
p5680
sS'HTML'
p5681
S'<built-in function HTML>'
p5682
sS'RelaxNG'
p5683
S"<type 'lxml.etree.RelaxNG'>"
p5684
sS'_BaseErrorLog'
p5685
S"<type 'lxml.etree._BaseErrorLog'>"
p5686
sS'PI'
p5687
S'<built-in function ProcessingInstruction>'
p5688
sS'_ParserSchemaValidationContext'
p5689
S"<type 'lxml.etree._ParserSchemaValidationContext'>"
p5690
sS'Extension'
p5691
S'<built-in function Extension>'
p5692
sS'__builtins__'
p5693
S"<module '__builtin__' (built-in)>"
p5694
sS'SchematronParseError'
p5695
S"<class 'lxml.etree.SchematronParseError'>"
p5696
sS'_Element'
p5697
S"<type 'lxml.etree._Element'>"
p5698
sS'XSLTExtension'
p5699
S"<type 'lxml.etree.XSLTExtension'>"
p5700
sS'XMLSchemaValidateError'
p5701
S"<class 'lxml.etree.XMLSchemaValidateError'>"
p5702
sS'XMLSchema'
p5703
S"<type 'lxml.etree.XMLSchema'>"
p5704
sS'DEBUG'
p5705
S'1'
sS'__name__'
p5706
S"'lxml.etree'"
p5707
sS'_ElementUnicodeResult'
p5708
S"<type 'lxml.etree._ElementUnicodeResult'>"
p5709
sS'ErrorTypes'
p5710
S"<class 'lxml.etree.ErrorTypes'>"
p5711
sS'Comment'
p5712
S'<built-in function Comment>'
p5713
sS'XMLTreeBuilder'
p5714
S"<type 'lxml.etree.ETCompatXMLParser'>"
p5715
sS'RelaxNGErrorTypes'
p5716
S"<class 'lxml.etree.RelaxNGErrorTypes'>"
p5717
sS'iterwalk'
p5718
S"<type 'lxml.etree.iterwalk'>"
p5719
sS'ProcessingInstruction'
p5720
S'<built-in function ProcessingInstruction>'
p5721
sS'LXML_VERSION'
p5722
S'(2, 3, 2, 0)'
p5723
sS'_InputDocument'
p5724
S"<type 'lxml.etree._InputDocument'>"
p5725
sS'RelaxNGValidateError'
p5726
S"<class 'lxml.etree.RelaxNGValidateError'>"
p5727
sS'strip_tags'
p5728
S'<built-in function strip_tags>'
p5729
sS'XIncludeError'
p5730
S"<class 'lxml.etree.XIncludeError'>"
p5731
sS'tounicode'
p5732
S'<built-in function tounicode>'
p5733
sS'PIBase'
p5734
S"<type 'lxml.etree.PIBase'>"
p5735
sS'_XSLTResolverContext'
p5736
S"<type 'lxml.etree._XSLTResolverContext'>"
p5737
sS'_ParserDictionaryContext'
p5738
S"<type 'lxml.etree._ParserDictionaryContext'>"
p5739
sS'ParserError'
p5740
S"<class 'lxml.etree.ParserError'>"
p5741
sS'_ElementIterator'
p5742
S"<type 'lxml.etree._ElementIterator'>"
p5743
sS'__docformat__'
p5744
S"u'restructuredtext en'"
p5745
sS'SerialisationError'
p5746
S"<class 'lxml.etree.SerialisationError'>"
p5747
sS'_ReadOnlyProxy'
p5748
S"<type 'lxml.etree._ReadOnlyProxy'>"
p5749
sS'_ReadOnlyPIProxy'
p5750
S"<type 'lxml.etree._ReadOnlyPIProxy'>"
p5751
sS'DocInfo'
p5752
S"<type 'lxml.etree.DocInfo'>"
p5753
sg3373
S'<built-in function dump>'
p5754
sS'XSLTSaveError'
p5755
S"<class 'lxml.etree.XSLTSaveError'>"
p5756
sS'LIBXSLT_COMPILED_VERSION'
p5757
S'(1, 1, 26)'
p5758
sS'ElementTextIterator'
p5759
S"<type 'lxml.etree.ElementTextIterator'>"
p5760
sg46
S"'The ``lxml.etree`` module implements the extended ElementTree API\\nfor XML.\\n'"
p5761
sS'_AppendOnlyElementProxy'
p5762
S"<type 'lxml.etree._AppendOnlyElementProxy'>"
p5763
sS'XPathElementEvaluator'
p5764
S"<type 'lxml.etree.XPathElementEvaluator'>"
p5765
sS'XML'
p5766
S'<built-in function XML>'
p5767
sS'XSLTError'
p5768
S"<class 'lxml.etree.XSLTError'>"
p5769
sS'XSLT'
p5770
S"<type 'lxml.etree.XSLT'>"
p5771
sS'_DomainErrorLog'
p5772
S"<type 'lxml.etree._DomainErrorLog'>"
p5773
sS'AncestorsIterator'
p5774
S"<type 'lxml.etree.AncestorsIterator'>"
p5775
sS'_BaseContext'
p5776
S"<type 'lxml.etree._BaseContext'>"
p5777
sS'_ModifyContentOnlyPIProxy'
p5778
S"<type 'lxml.etree._ModifyContentOnlyPIProxy'>"
p5779
sS'_BaseParser'
p5780
S"<type 'lxml.etree._BaseParser'>"
p5781
sS'Error'
p5782
S"<class 'lxml.etree.Error'>"
p5783
sS'ErrorLevels'
p5784
S"<class 'lxml.etree.ErrorLevels'>"
p5785
sS'_TargetParserContext'
p5786
S"<type 'lxml.etree._TargetParserContext'>"
p5787
sS'LIBXML_VERSION'
p5788
S'(2, 7, 8)'
p5789
sS'XPathResultError'
p5790
S"<class 'lxml.etree.XPathResultError'>"
p5791
sS'_OpaqueDocumentWrapper'
p5792
S"<type 'lxml.etree._OpaqueDocumentWrapper'>"
p5793
sS'XSLTAccessControl'
p5794
S"<type 'lxml.etree.XSLTAccessControl'>"
p5795
sS'XMLSyntaxError'
p5796
S"<class 'lxml.etree.XMLSyntaxError'>"
p5797
sS'XMLSchemaParseError'
p5798
S"<class 'lxml.etree.XMLSchemaParseError'>"
p5799
sS'EntityBase'
p5800
S"<type 'lxml.etree.EntityBase'>"
p5801
sS'_ExceptionContext'
p5802
S"<type 'lxml.etree._ExceptionContext'>"
p5803
sS'SubElement'
p5804
S'<built-in function SubElement>'
p5805
sS'CDATA'
p5806
S"<type 'lxml.etree.CDATA'>"
p5807
sS'_ElementTagMatcher'
p5808
S"<type 'lxml.etree._ElementTagMatcher'>"
p5809
sS'DTDError'
p5810
S"<class 'lxml.etree.DTDError'>"
p5811
sS'_ProcessingInstruction'
p5812
S"<type 'lxml.etree._ProcessingInstruction'>"
p5813
sS'get_default_parser'
p5814
S'<built-in function get_default_parser>'
p5815
sS'register_namespace'
p5816
S'<built-in function register_namespace>'
p5817
sS'ErrorDomains'
p5818
S"<class 'lxml.etree.ErrorDomains'>"
p5819
sS'LIBXML_COMPILED_VERSION'
p5820
S'(2, 7, 8)'
p5821
sS'DTDValidateError'
p5822
S"<class 'lxml.etree.DTDValidateError'>"
p5823
sS'_SaxParserTarget'
p5824
S"<type 'lxml.etree._SaxParserTarget'>"
p5825
sS'parse'
p5826
S'<built-in function parse>'
p5827
sS'set_element_class_lookup'
p5828
S'<built-in function set_element_class_lookup>'
p5829
sS'_TargetParserResult'
p5830
S"<class 'lxml.etree._TargetParserResult'>"
p5831
sS'FallbackElementClassLookup'
p5832
S"<type 'lxml.etree.FallbackElementClassLookup'>"
p5833
sS'RelaxNGError'
p5834
S"<class 'lxml.etree.RelaxNGError'>"
p5835
sS'XPathEvalError'
p5836
S"<class 'lxml.etree.XPathEvalError'>"
p5837
sS'PythonElementClassLookup'
p5838
S"<type 'lxml.etree.PythonElementClassLookup'>"
p5839
sS'_FunctionNamespaceRegistry'
p5840
S"<type 'lxml.etree._FunctionNamespaceRegistry'>"
p5841
sS'clear_error_log'
p5842
S'<built-in function clear_error_log>'
p5843
sS'_RotatingErrorLog'
p5844
S"<type 'lxml.etree._RotatingErrorLog'>"
p5845
sS'XPathDocumentEvaluator'
p5846
S"<type 'lxml.etree.XPathDocumentEvaluator'>"
p5847
sS'_XSLTQuotedStringParam'
p5848
S"<type 'lxml.etree._XSLTQuotedStringParam'>"
p5849
sS'ETXPath'
p5850
S"<type 'lxml.etree.ETXPath'>"
p5851
sS'SchematronError'
p5852
S"<class 'lxml.etree.SchematronError'>"
p5853
sS'Resolver'
p5854
S"<type 'lxml.etree.Resolver'>"
p5855
sS'_NamespaceRegistry'
p5856
S"<type 'lxml.etree._NamespaceRegistry'>"
p5857
sS'fromstringlist'
p5858
S'<built-in function fromstringlist>'
p5859
sS'XSLTApplyError'
p5860
S"<class 'lxml.etree.XSLTApplyError'>"
p5861
sS'_Comment'
p5862
S"<type 'lxml.etree._Comment'>"
p5863
sS'_Validator'
p5864
S"<type 'lxml.etree._Validator'>"
p5865
sS'DTDParseError'
p5866
S"<class 'lxml.etree.DTDParseError'>"
p5867
sS'_ResolverRegistry'
p5868
S"<type 'lxml.etree._ResolverRegistry'>"
p5869
sS'_XPathEvaluatorBase'
p5870
S"<type 'lxml.etree._XPathEvaluatorBase'>"
p5871
sS'_ErrorLog'
p5872
S"<type 'lxml.etree._ErrorLog'>"
p5873
sS'Element'
p5874
S'<built-in function Element>'
p5875
sS'ElementBase'
p5876
S"<type 'lxml.etree.ElementBase'>"
p5877
sS'_ElementStringResult'
p5878
S"<class 'lxml.etree._ElementStringResult'>"
p5879
sS'XPathSyntaxError'
p5880
S"<class 'lxml.etree.XPathSyntaxError'>"
p5881
sS'ParseError'
p5882
S"<class 'lxml.etree.ParseError'>"
p5883
sS'_ClassNamespaceRegistry'
p5884
S"<type 'lxml.etree._ClassNamespaceRegistry'>"
p5885
sS'_PythonSaxParserTarget'
p5886
S"<type 'lxml.etree._PythonSaxParserTarget'>"
p5887
sS'_XSLTResultTree'
p5888
S"<type 'lxml.etree._XSLTResultTree'>"
p5889
sS'_TempStore'
p5890
S"<type 'lxml.etree._TempStore'>"
p5891
sS'XMLSchemaError'
p5892
S"<class 'lxml.etree.XMLSchemaError'>"
p5893
sS'use_global_python_log'
p5894
S'<built-in function use_global_python_log>'
p5895
sS'tostringlist'
p5896
S'<built-in function tostringlist>'
p5897
sS'fromstring'
p5898
S'<built-in function fromstring>'
p5899
sS'QName'
p5900
S"<type 'lxml.etree.QName'>"
p5901
sS'SchematronValidateError'
p5902
S"<class 'lxml.etree.SchematronValidateError'>"
p5903
sS'ETCompatXMLParser'
p5904
S"<type 'lxml.etree.ETCompatXMLParser'>"
p5905
sS'RelaxNGParseError'
p5906
S"<class 'lxml.etree.RelaxNGParseError'>"
p5907
sS'__test__'
p5908
S"{u'XML (line 2711)': u'XML(text, parser=None, base_url=None)\\n\\n    P...ternal entities\\n    (DTD, XInclude, ...).\\n    '}"
p5909
sS'ElementDefaultClassLookup'
p5910
S"<type 'lxml.etree.ElementDefaultClassLookup'>"
p5911
sssS'traceback'
p5912
S'Traceback (most recent call last):\n  File "/home/ian/web/web2py/gluon/restricted.py", line 204, in restricted\n    exec ccode in environment\n  File "/home/ian/web/web2py/applications/grammateus3/controllers/docs.py", line 194, in <module>\n  File "/home/ian/web/web2py/gluon/globals.py", line 172, in <lambda>\n    self._caller = lambda f: f()\n  File "/home/ian/web/web2py/applications/grammateus3/controllers/docs.py", line 43, in section\n    p = BookParser(book_file)\n  File "applications/grammateus3/modules/parse.py", line 25, in __init__\n    self.tree = etree.parse(xml_file, parser)\n  File "lxml.etree.pyx", line 2953, in lxml.etree.parse (src/lxml/lxml.etree.c:56204)\n  File "parser.pxi", line 1533, in lxml.etree._parseDocument (src/lxml/lxml.etree.c:82287)\n  File "parser.pxi", line 1562, in lxml.etree._parseDocumentFromURL (src/lxml/lxml.etree.c:82580)\n  File "parser.pxi", line 1462, in lxml.etree._parseDocFromFile (src/lxml/lxml.etree.c:81619)\n  File "parser.pxi", line 1002, in lxml.etree._BaseParser._parseDocFromFile (src/lxml/lxml.etree.c:78528)\n  File "parser.pxi", line 569, in lxml.etree._ParserContext._handleParseResultDoc (src/lxml/lxml.etree.c:74472)\n  File "parser.pxi", line 650, in lxml.etree._handleParseResult (src/lxml/lxml.etree.c:75363)\n  File "parser.pxi", line 590, in lxml.etree._raiseParseError (src/lxml/lxml.etree.c:74696)\nXMLSyntaxError: Document is empty, line 1, column 1\n'
p5913
s.