(dp1
S'output'
p2
S"<type 'exceptions.IndexError'> list index out of range"
p3
sS'layer'
p4
S'/home/iscott/web/web2py/applications/grammateus3/controllers/docs.py'
p5
sS'code'
p6
S"# coding: utf8\nfrom lxml import etree\n\nfrom parse import BookParser\n\ndef index():\n    filename = request.args[0]\n    return dict(filename = filename)\n\ndef text():\n    filename = request.args[0]\n    book_file = 'applications/grammateus3/static/docs/%s.xml' % filename\n    p = BookParser(book_file)\n    info = p.book_info()\n\n    title = info['title']\n\n    versions = [version['title'] for version in info['versions']]\n    print versions        \n\n    return dict(filename = filename)\n\ndef test():\n    filename = request.args[0]\n    book_file = 'applications/grammateus3/static/docs/%s.xml' % filename\n    p = BookParser(book_file)\n    info = p.book_info()\n\n    title = info['title']\n    for version in info['versions']:\n        for key, value in version.items():\n            if key != 'text_structure':\n                print 'Version', key, '-->', value\n\n            else:\n                print 'Version textstructure'\n                for ref, ref_val in value.items():\n                    for unit, unit_val in ref_val.items():\n                        for mss, mss_val in unit_val.items():\n                            print '\\t', ref, '-->', unit, '-->', mss, '-->', mss_val\n        print '************'\n    print\n    print\n\n    return dict(title = title, info = info)\n\nresponse._vars=response._caller(text)\n"
p7
sS'snapshot'
p8
(dp9
S'exception'
p10
(dp11
S'__hash__'
p12
S"<method-wrapper '__hash__' of exceptions.IndexError object>"
p13
sS'__setattr__'
p14
S"<method-wrapper '__setattr__' of exceptions.IndexError object>"
p15
sS'__reduce_ex__'
p16
S'<built-in method __reduce_ex__ of exceptions.IndexError object>'
p17
sS'__getslice__'
p18
S"<method-wrapper '__getslice__' of exceptions.IndexError object>"
p19
sS'__getitem__'
p20
S"<method-wrapper '__getitem__' of exceptions.IndexError object>"
p21
sS'__setstate__'
p22
S'<built-in method __setstate__ of exceptions.IndexError object>'
p23
sS'__reduce__'
p24
S'<built-in method __reduce__ of exceptions.IndexError object>'
p25
sS'__str__'
p26
S"<method-wrapper '__str__' of exceptions.IndexError object>"
p27
sS'__format__'
p28
S'<built-in method __format__ of exceptions.IndexError object>'
p29
sS'__getattribute__'
p30
S"<method-wrapper '__getattribute__' of exceptions.IndexError object>"
p31
sS'__class__'
p32
S"<type 'exceptions.IndexError'>"
p33
sS'__unicode__'
p34
S'<built-in method __unicode__ of exceptions.IndexError object>'
p35
sS'__delattr__'
p36
S"<method-wrapper '__delattr__' of exceptions.IndexError object>"
p37
sS'__subclasshook__'
p38
S'<built-in method __subclasshook__ of type object>'
p39
sS'__repr__'
p40
S"<method-wrapper '__repr__' of exceptions.IndexError object>"
p41
sS'args'
p42
S"('list index out of range',)"
p43
sS'__dict__'
p44
S'{}'
p45
sS'__sizeof__'
p46
S'<built-in method __sizeof__ of exceptions.IndexError object>'
p47
sS'__doc__'
p48
S"'Sequence index out of range.'"
p49
sS'__init__'
p50
S"<method-wrapper '__init__' of exceptions.IndexError object>"
p51
sS'__new__'
p52
S'<built-in method __new__ of type object>'
p53
ssS'evalue'
p54
S'list index out of range'
p55
sS'request'
p56
ccopy_reg
_reconstructor
p57
(cgluon.html
BEAUTIFY
p58
c__builtin__
object
p59
NtRp60
(dp61
S'attributes'
p62
(dp63
sS'components'
p64
(lp65
g57
(cgluon.html
TABLE
p66
g59
NtRp67
(dp68
g62
(dp69
S'level'
p70
I5
ssS'parent'
p71
Nsg64
(lp72
g57
(cgluon.html
TR
p73
g59
NtRp74
(dp75
g62
(dp76
sg71
g67
sg64
(lp77
g57
(cgluon.html
TD
p78
g59
NtRp79
(dp80
g62
(dp81
S'_style'
p82
S'font-weight:bold;vertical-align:top'
p83
ssg71
g74
sg64
(lp84
S'ajax'
p85
asbag57
(g78
g59
NtRp86
(dp87
g62
(dp88
S'_valign'
p89
S'top'
p90
ssg71
g74
sg64
(lp91
S':'
asbag57
(g78
g59
NtRp92
(dp93
g62
(dp94
sg71
g74
sg64
(lp95
g57
(g58
g59
NtRp96
(dp97
g62
(dp98
g70
I5
ssg71
g92
sg64
(lp99
S'False'
p100
asbasbasbag57
(g73
g59
NtRp101
(dp102
g62
(dp103
sg71
g67
sg64
(lp104
g57
(g78
g59
NtRp105
(dp106
g62
(dp107
g82
g83
ssg71
g101
sg64
(lp108
S'application'
p109
asbag57
(g78
g59
NtRp110
(dp111
g62
(dp112
g89
g90
ssg71
g101
sg64
(lp113
S':'
asbag57
(g78
g59
NtRp114
(dp115
g62
(dp116
sg71
g101
sg64
(lp117
g57
(g58
g59
NtRp118
(dp119
g62
(dp120
g70
I5
ssg71
g114
sg64
(lp121
S'grammateus3'
p122
asbasbasbag57
(g73
g59
NtRp123
(dp124
g62
(dp125
sg71
g67
sg64
(lp126
g57
(g78
g59
NtRp127
(dp128
g62
(dp129
g82
g83
ssg71
g123
sg64
(lp130
g42
asbag57
(g78
g59
NtRp131
(dp132
g62
(dp133
g89
g90
ssg71
g123
sg64
(lp134
S':'
asbag57
(g78
g59
NtRp135
(dp136
g62
(dp137
sg71
g123
sg64
(lp138
g57
(g58
g59
NtRp139
(dp140
g62
(dp141
g70
I5
ssg71
g135
sg64
(lp142
g57
(g66
g59
NtRp143
(dp144
g62
(dp145
g70
I4
ssg71
Nsg64
(lp146
sbasbasbasbag57
(g73
g59
NtRp147
(dp148
g62
(dp149
sg71
g67
sg64
(lp150
g57
(g78
g59
NtRp151
(dp152
g62
(dp153
g82
g83
ssg71
g147
sg64
(lp154
S'body'
p155
asbag57
(g78
g59
NtRp156
(dp157
g62
(dp158
g89
g90
ssg71
g147
sg64
(lp159
S':'
asbag57
(g78
g59
NtRp160
(dp161
g62
(dp162
sg71
g147
sg64
(lp163
g57
(g58
g59
NtRp164
(dp165
g62
(dp166
g70
I5
ssg71
g160
sg64
(lp167
S'<cStringIO.StringO object at 0xb175820>'
p168
asbasbasbag57
(g73
g59
NtRp169
(dp170
g62
(dp171
sg71
g67
sg64
(lp172
g57
(g78
g59
NtRp173
(dp174
g62
(dp175
g82
g83
ssg71
g169
sg64
(lp176
S'client'
p177
asbag57
(g78
g59
NtRp178
(dp179
g62
(dp180
g89
g90
ssg71
g169
sg64
(lp181
S':'
asbag57
(g78
g59
NtRp182
(dp183
g62
(dp184
sg71
g169
sg64
(lp185
g57
(g58
g59
NtRp186
(dp187
g62
(dp188
g70
I5
ssg71
g182
sg64
(lp189
S'127.0.0.1'
p190
asbasbasbag57
(g73
g59
NtRp191
(dp192
g62
(dp193
sg71
g67
sg64
(lp194
g57
(g78
g59
NtRp195
(dp196
g62
(dp197
g82
g83
ssg71
g191
sg64
(lp198
S'controller'
p199
asbag57
(g78
g59
NtRp200
(dp201
g62
(dp202
g89
g90
ssg71
g191
sg64
(lp203
S':'
asbag57
(g78
g59
NtRp204
(dp205
g62
(dp206
sg71
g191
sg64
(lp207
g57
(g58
g59
NtRp208
(dp209
g62
(dp210
g70
I5
ssg71
g204
sg64
(lp211
S'docs'
p212
asbasbasbag57
(g73
g59
NtRp213
(dp214
g62
(dp215
sg71
g67
sg64
(lp216
g57
(g78
g59
NtRp217
(dp218
g62
(dp219
g82
g83
ssg71
g213
sg64
(lp220
S'cookies'
p221
asbag57
(g78
g59
NtRp222
(dp223
g62
(dp224
g89
g90
ssg71
g213
sg64
(lp225
S':'
asbag57
(g78
g59
NtRp226
(dp227
g62
(dp228
sg71
g213
sg64
(lp229
g57
(g58
g59
NtRp230
(dp231
g62
(dp232
g70
I5
ssg71
g226
sg64
(lp233
g57
(g66
g59
NtRp234
(dp235
g62
(dp236
g70
I4
ssg71
Nsg64
(lp237
g57
(g73
g59
NtRp238
(dp239
g62
(dp240
sg71
g234
sg64
(lp241
g57
(g78
g59
NtRp242
(dp243
g62
(dp244
g82
g83
ssg71
g238
sg64
(lp245
S'session_id_admin'
p246
asbag57
(g78
g59
NtRp247
(dp248
g62
(dp249
g89
g90
ssg71
g238
sg64
(lp250
S':'
asbag57
(g78
g59
NtRp251
(dp252
g62
(dp253
sg71
g238
sg64
(lp254
g57
(g58
g59
NtRp255
(dp256
g62
(dp257
g70
I4
ssg71
g251
sg64
(lp258
g57
(g66
g59
NtRp259
(dp260
g62
(dp261
g70
I3
ssg71
Nsg64
(lp262
g57
(g73
g59
NtRp263
(dp264
g62
(dp265
sg71
g259
sg64
(lp266
g57
(g78
g59
NtRp267
(dp268
g62
(dp269
g82
g83
ssg71
g263
sg64
(lp270
S'comment'
p271
asbag57
(g78
g59
NtRp272
(dp273
g62
(dp274
g89
g90
ssg71
g263
sg64
(lp275
S':'
asbag57
(g78
g59
NtRp276
(dp277
g62
(dp278
sg71
g263
sg64
(lp279
g57
(g58
g59
NtRp280
(dp281
g62
(dp282
g70
I3
ssg71
g276
sg64
(lp283
S''
asbasbasbag57
(g73
g59
NtRp284
(dp285
g62
(dp286
sg71
g259
sg64
(lp287
g57
(g78
g59
NtRp288
(dp289
g62
(dp290
g82
g83
ssg71
g284
sg64
(lp291
S'domain'
p292
asbag57
(g78
g59
NtRp293
(dp294
g62
(dp295
g89
g90
ssg71
g284
sg64
(lp296
S':'
asbag57
(g78
g59
NtRp297
(dp298
g62
(dp299
sg71
g284
sg64
(lp300
g57
(g58
g59
NtRp301
(dp302
g62
(dp303
g70
I3
ssg71
g297
sg64
(lp304
S''
asbasbasbag57
(g73
g59
NtRp305
(dp306
g62
(dp307
sg71
g259
sg64
(lp308
g57
(g78
g59
NtRp309
(dp310
g62
(dp311
g82
g83
ssg71
g305
sg64
(lp312
S'expires'
p313
asbag57
(g78
g59
NtRp314
(dp315
g62
(dp316
g89
g90
ssg71
g305
sg64
(lp317
S':'
asbag57
(g78
g59
NtRp318
(dp319
g62
(dp320
sg71
g305
sg64
(lp321
g57
(g58
g59
NtRp322
(dp323
g62
(dp324
g70
I3
ssg71
g318
sg64
(lp325
S''
asbasbasbag57
(g73
g59
NtRp326
(dp327
g62
(dp328
sg71
g259
sg64
(lp329
g57
(g78
g59
NtRp330
(dp331
g62
(dp332
g82
g83
ssg71
g326
sg64
(lp333
S'httponly'
p334
asbag57
(g78
g59
NtRp335
(dp336
g62
(dp337
g89
g90
ssg71
g326
sg64
(lp338
S':'
asbag57
(g78
g59
NtRp339
(dp340
g62
(dp341
sg71
g326
sg64
(lp342
g57
(g58
g59
NtRp343
(dp344
g62
(dp345
g70
I3
ssg71
g339
sg64
(lp346
S''
asbasbasbag57
(g73
g59
NtRp347
(dp348
g62
(dp349
sg71
g259
sg64
(lp350
g57
(g78
g59
NtRp351
(dp352
g62
(dp353
g82
g83
ssg71
g347
sg64
(lp354
S'max-age'
p355
asbag57
(g78
g59
NtRp356
(dp357
g62
(dp358
g89
g90
ssg71
g347
sg64
(lp359
S':'
asbag57
(g78
g59
NtRp360
(dp361
g62
(dp362
sg71
g347
sg64
(lp363
g57
(g58
g59
NtRp364
(dp365
g62
(dp366
g70
I3
ssg71
g360
sg64
(lp367
S''
asbasbasbag57
(g73
g59
NtRp368
(dp369
g62
(dp370
sg71
g259
sg64
(lp371
g57
(g78
g59
NtRp372
(dp373
g62
(dp374
g82
g83
ssg71
g368
sg64
(lp375
S'path'
p376
asbag57
(g78
g59
NtRp377
(dp378
g62
(dp379
g89
g90
ssg71
g368
sg64
(lp380
S':'
asbag57
(g78
g59
NtRp381
(dp382
g62
(dp383
sg71
g368
sg64
(lp384
g57
(g58
g59
NtRp385
(dp386
g62
(dp387
g70
I3
ssg71
g381
sg64
(lp388
S''
asbasbasbag57
(g73
g59
NtRp389
(dp390
g62
(dp391
sg71
g259
sg64
(lp392
g57
(g78
g59
NtRp393
(dp394
g62
(dp395
g82
g83
ssg71
g389
sg64
(lp396
S'secure'
p397
asbag57
(g78
g59
NtRp398
(dp399
g62
(dp400
g89
g90
ssg71
g389
sg64
(lp401
S':'
asbag57
(g78
g59
NtRp402
(dp403
g62
(dp404
sg71
g389
sg64
(lp405
g57
(g58
g59
NtRp406
(dp407
g62
(dp408
g70
I3
ssg71
g402
sg64
(lp409
S''
asbasbasbag57
(g73
g59
NtRp410
(dp411
g62
(dp412
sg71
g259
sg64
(lp413
g57
(g78
g59
NtRp414
(dp415
g62
(dp416
g82
g83
ssg71
g410
sg64
(lp417
S'version'
p418
asbag57
(g78
g59
NtRp419
(dp420
g62
(dp421
g89
g90
ssg71
g410
sg64
(lp422
S':'
asbag57
(g78
g59
NtRp423
(dp424
g62
(dp425
sg71
g410
sg64
(lp426
g57
(g58
g59
NtRp427
(dp428
g62
(dp429
g70
I3
ssg71
g423
sg64
(lp430
S''
asbasbasbasbasbasbasbag57
(g73
g59
NtRp431
(dp432
g62
(dp433
sg71
g234
sg64
(lp434
g57
(g78
g59
NtRp435
(dp436
g62
(dp437
g82
g83
ssg71
g431
sg64
(lp438
S'session_id_bloglet'
p439
asbag57
(g78
g59
NtRp440
(dp441
g62
(dp442
g89
g90
ssg71
g431
sg64
(lp443
S':'
asbag57
(g78
g59
NtRp444
(dp445
g62
(dp446
sg71
g431
sg64
(lp447
g57
(g58
g59
NtRp448
(dp449
g62
(dp450
g70
I4
ssg71
g444
sg64
(lp451
g57
(g66
g59
NtRp452
(dp453
g62
(dp454
g70
I3
ssg71
Nsg64
(lp455
g57
(g73
g59
NtRp456
(dp457
g62
(dp458
sg71
g452
sg64
(lp459
g57
(g78
g59
NtRp460
(dp461
g62
(dp462
g82
g83
ssg71
g456
sg64
(lp463
g271
asbag57
(g78
g59
NtRp464
(dp465
g62
(dp466
g89
g90
ssg71
g456
sg64
(lp467
S':'
asbag57
(g78
g59
NtRp468
(dp469
g62
(dp470
sg71
g456
sg64
(lp471
g57
(g58
g59
NtRp472
(dp473
g62
(dp474
g70
I3
ssg71
g468
sg64
(lp475
S''
asbasbasbag57
(g73
g59
NtRp476
(dp477
g62
(dp478
sg71
g452
sg64
(lp479
g57
(g78
g59
NtRp480
(dp481
g62
(dp482
g82
g83
ssg71
g476
sg64
(lp483
g292
asbag57
(g78
g59
NtRp484
(dp485
g62
(dp486
g89
g90
ssg71
g476
sg64
(lp487
S':'
asbag57
(g78
g59
NtRp488
(dp489
g62
(dp490
sg71
g476
sg64
(lp491
g57
(g58
g59
NtRp492
(dp493
g62
(dp494
g70
I3
ssg71
g488
sg64
(lp495
S''
asbasbasbag57
(g73
g59
NtRp496
(dp497
g62
(dp498
sg71
g452
sg64
(lp499
g57
(g78
g59
NtRp500
(dp501
g62
(dp502
g82
g83
ssg71
g496
sg64
(lp503
g313
asbag57
(g78
g59
NtRp504
(dp505
g62
(dp506
g89
g90
ssg71
g496
sg64
(lp507
S':'
asbag57
(g78
g59
NtRp508
(dp509
g62
(dp510
sg71
g496
sg64
(lp511
g57
(g58
g59
NtRp512
(dp513
g62
(dp514
g70
I3
ssg71
g508
sg64
(lp515
S''
asbasbasbag57
(g73
g59
NtRp516
(dp517
g62
(dp518
sg71
g452
sg64
(lp519
g57
(g78
g59
NtRp520
(dp521
g62
(dp522
g82
g83
ssg71
g516
sg64
(lp523
g334
asbag57
(g78
g59
NtRp524
(dp525
g62
(dp526
g89
g90
ssg71
g516
sg64
(lp527
S':'
asbag57
(g78
g59
NtRp528
(dp529
g62
(dp530
sg71
g516
sg64
(lp531
g57
(g58
g59
NtRp532
(dp533
g62
(dp534
g70
I3
ssg71
g528
sg64
(lp535
S''
asbasbasbag57
(g73
g59
NtRp536
(dp537
g62
(dp538
sg71
g452
sg64
(lp539
g57
(g78
g59
NtRp540
(dp541
g62
(dp542
g82
g83
ssg71
g536
sg64
(lp543
g355
asbag57
(g78
g59
NtRp544
(dp545
g62
(dp546
g89
g90
ssg71
g536
sg64
(lp547
S':'
asbag57
(g78
g59
NtRp548
(dp549
g62
(dp550
sg71
g536
sg64
(lp551
g57
(g58
g59
NtRp552
(dp553
g62
(dp554
g70
I3
ssg71
g548
sg64
(lp555
S''
asbasbasbag57
(g73
g59
NtRp556
(dp557
g62
(dp558
sg71
g452
sg64
(lp559
g57
(g78
g59
NtRp560
(dp561
g62
(dp562
g82
g83
ssg71
g556
sg64
(lp563
g376
asbag57
(g78
g59
NtRp564
(dp565
g62
(dp566
g89
g90
ssg71
g556
sg64
(lp567
S':'
asbag57
(g78
g59
NtRp568
(dp569
g62
(dp570
sg71
g556
sg64
(lp571
g57
(g58
g59
NtRp572
(dp573
g62
(dp574
g70
I3
ssg71
g568
sg64
(lp575
S''
asbasbasbag57
(g73
g59
NtRp576
(dp577
g62
(dp578
sg71
g452
sg64
(lp579
g57
(g78
g59
NtRp580
(dp581
g62
(dp582
g82
g83
ssg71
g576
sg64
(lp583
g397
asbag57
(g78
g59
NtRp584
(dp585
g62
(dp586
g89
g90
ssg71
g576
sg64
(lp587
S':'
asbag57
(g78
g59
NtRp588
(dp589
g62
(dp590
sg71
g576
sg64
(lp591
g57
(g58
g59
NtRp592
(dp593
g62
(dp594
g70
I3
ssg71
g588
sg64
(lp595
S''
asbasbasbag57
(g73
g59
NtRp596
(dp597
g62
(dp598
sg71
g452
sg64
(lp599
g57
(g78
g59
NtRp600
(dp601
g62
(dp602
g82
g83
ssg71
g596
sg64
(lp603
g418
asbag57
(g78
g59
NtRp604
(dp605
g62
(dp606
g89
g90
ssg71
g596
sg64
(lp607
S':'
asbag57
(g78
g59
NtRp608
(dp609
g62
(dp610
sg71
g596
sg64
(lp611
g57
(g58
g59
NtRp612
(dp613
g62
(dp614
g70
I3
ssg71
g608
sg64
(lp615
S''
asbasbasbasbasbasbasbag57
(g73
g59
NtRp616
(dp617
g62
(dp618
sg71
g234
sg64
(lp619
g57
(g78
g59
NtRp620
(dp621
g62
(dp622
g82
g83
ssg71
g616
sg64
(lp623
S'session_id_grammateus3'
p624
asbag57
(g78
g59
NtRp625
(dp626
g62
(dp627
g89
g90
ssg71
g616
sg64
(lp628
S':'
asbag57
(g78
g59
NtRp629
(dp630
g62
(dp631
sg71
g616
sg64
(lp632
g57
(g58
g59
NtRp633
(dp634
g62
(dp635
g70
I4
ssg71
g629
sg64
(lp636
g57
(g66
g59
NtRp637
(dp638
g62
(dp639
g70
I3
ssg71
Nsg64
(lp640
g57
(g73
g59
NtRp641
(dp642
g62
(dp643
sg71
g637
sg64
(lp644
g57
(g78
g59
NtRp645
(dp646
g62
(dp647
g82
g83
ssg71
g641
sg64
(lp648
g271
asbag57
(g78
g59
NtRp649
(dp650
g62
(dp651
g89
g90
ssg71
g641
sg64
(lp652
S':'
asbag57
(g78
g59
NtRp653
(dp654
g62
(dp655
sg71
g641
sg64
(lp656
g57
(g58
g59
NtRp657
(dp658
g62
(dp659
g70
I3
ssg71
g653
sg64
(lp660
S''
asbasbasbag57
(g73
g59
NtRp661
(dp662
g62
(dp663
sg71
g637
sg64
(lp664
g57
(g78
g59
NtRp665
(dp666
g62
(dp667
g82
g83
ssg71
g661
sg64
(lp668
g292
asbag57
(g78
g59
NtRp669
(dp670
g62
(dp671
g89
g90
ssg71
g661
sg64
(lp672
S':'
asbag57
(g78
g59
NtRp673
(dp674
g62
(dp675
sg71
g661
sg64
(lp676
g57
(g58
g59
NtRp677
(dp678
g62
(dp679
g70
I3
ssg71
g673
sg64
(lp680
S''
asbasbasbag57
(g73
g59
NtRp681
(dp682
g62
(dp683
sg71
g637
sg64
(lp684
g57
(g78
g59
NtRp685
(dp686
g62
(dp687
g82
g83
ssg71
g681
sg64
(lp688
g313
asbag57
(g78
g59
NtRp689
(dp690
g62
(dp691
g89
g90
ssg71
g681
sg64
(lp692
S':'
asbag57
(g78
g59
NtRp693
(dp694
g62
(dp695
sg71
g681
sg64
(lp696
g57
(g58
g59
NtRp697
(dp698
g62
(dp699
g70
I3
ssg71
g693
sg64
(lp700
S''
asbasbasbag57
(g73
g59
NtRp701
(dp702
g62
(dp703
sg71
g637
sg64
(lp704
g57
(g78
g59
NtRp705
(dp706
g62
(dp707
g82
g83
ssg71
g701
sg64
(lp708
g334
asbag57
(g78
g59
NtRp709
(dp710
g62
(dp711
g89
g90
ssg71
g701
sg64
(lp712
S':'
asbag57
(g78
g59
NtRp713
(dp714
g62
(dp715
sg71
g701
sg64
(lp716
g57
(g58
g59
NtRp717
(dp718
g62
(dp719
g70
I3
ssg71
g713
sg64
(lp720
S''
asbasbasbag57
(g73
g59
NtRp721
(dp722
g62
(dp723
sg71
g637
sg64
(lp724
g57
(g78
g59
NtRp725
(dp726
g62
(dp727
g82
g83
ssg71
g721
sg64
(lp728
g355
asbag57
(g78
g59
NtRp729
(dp730
g62
(dp731
g89
g90
ssg71
g721
sg64
(lp732
S':'
asbag57
(g78
g59
NtRp733
(dp734
g62
(dp735
sg71
g721
sg64
(lp736
g57
(g58
g59
NtRp737
(dp738
g62
(dp739
g70
I3
ssg71
g733
sg64
(lp740
S''
asbasbasbag57
(g73
g59
NtRp741
(dp742
g62
(dp743
sg71
g637
sg64
(lp744
g57
(g78
g59
NtRp745
(dp746
g62
(dp747
g82
g83
ssg71
g741
sg64
(lp748
g376
asbag57
(g78
g59
NtRp749
(dp750
g62
(dp751
g89
g90
ssg71
g741
sg64
(lp752
S':'
asbag57
(g78
g59
NtRp753
(dp754
g62
(dp755
sg71
g741
sg64
(lp756
g57
(g58
g59
NtRp757
(dp758
g62
(dp759
g70
I3
ssg71
g753
sg64
(lp760
S''
asbasbasbag57
(g73
g59
NtRp761
(dp762
g62
(dp763
sg71
g637
sg64
(lp764
g57
(g78
g59
NtRp765
(dp766
g62
(dp767
g82
g83
ssg71
g761
sg64
(lp768
g397
asbag57
(g78
g59
NtRp769
(dp770
g62
(dp771
g89
g90
ssg71
g761
sg64
(lp772
S':'
asbag57
(g78
g59
NtRp773
(dp774
g62
(dp775
sg71
g761
sg64
(lp776
g57
(g58
g59
NtRp777
(dp778
g62
(dp779
g70
I3
ssg71
g773
sg64
(lp780
S''
asbasbasbag57
(g73
g59
NtRp781
(dp782
g62
(dp783
sg71
g637
sg64
(lp784
g57
(g78
g59
NtRp785
(dp786
g62
(dp787
g82
g83
ssg71
g781
sg64
(lp788
g418
asbag57
(g78
g59
NtRp789
(dp790
g62
(dp791
g89
g90
ssg71
g781
sg64
(lp792
S':'
asbag57
(g78
g59
NtRp793
(dp794
g62
(dp795
sg71
g781
sg64
(lp796
g57
(g58
g59
NtRp797
(dp798
g62
(dp799
g70
I3
ssg71
g793
sg64
(lp800
S''
asbasbasbasbasbasbasbag57
(g73
g59
NtRp801
(dp802
g62
(dp803
sg71
g234
sg64
(lp804
g57
(g78
g59
NtRp805
(dp806
g62
(dp807
g82
g83
ssg71
g801
sg64
(lp808
S'session_id_paideia'
p809
asbag57
(g78
g59
NtRp810
(dp811
g62
(dp812
g89
g90
ssg71
g801
sg64
(lp813
S':'
asbag57
(g78
g59
NtRp814
(dp815
g62
(dp816
sg71
g801
sg64
(lp817
g57
(g58
g59
NtRp818
(dp819
g62
(dp820
g70
I4
ssg71
g814
sg64
(lp821
g57
(g66
g59
NtRp822
(dp823
g62
(dp824
g70
I3
ssg71
Nsg64
(lp825
g57
(g73
g59
NtRp826
(dp827
g62
(dp828
sg71
g822
sg64
(lp829
g57
(g78
g59
NtRp830
(dp831
g62
(dp832
g82
g83
ssg71
g826
sg64
(lp833
g271
asbag57
(g78
g59
NtRp834
(dp835
g62
(dp836
g89
g90
ssg71
g826
sg64
(lp837
S':'
asbag57
(g78
g59
NtRp838
(dp839
g62
(dp840
sg71
g826
sg64
(lp841
g57
(g58
g59
NtRp842
(dp843
g62
(dp844
g70
I3
ssg71
g838
sg64
(lp845
S''
asbasbasbag57
(g73
g59
NtRp846
(dp847
g62
(dp848
sg71
g822
sg64
(lp849
g57
(g78
g59
NtRp850
(dp851
g62
(dp852
g82
g83
ssg71
g846
sg64
(lp853
g292
asbag57
(g78
g59
NtRp854
(dp855
g62
(dp856
g89
g90
ssg71
g846
sg64
(lp857
S':'
asbag57
(g78
g59
NtRp858
(dp859
g62
(dp860
sg71
g846
sg64
(lp861
g57
(g58
g59
NtRp862
(dp863
g62
(dp864
g70
I3
ssg71
g858
sg64
(lp865
S''
asbasbasbag57
(g73
g59
NtRp866
(dp867
g62
(dp868
sg71
g822
sg64
(lp869
g57
(g78
g59
NtRp870
(dp871
g62
(dp872
g82
g83
ssg71
g866
sg64
(lp873
g313
asbag57
(g78
g59
NtRp874
(dp875
g62
(dp876
g89
g90
ssg71
g866
sg64
(lp877
S':'
asbag57
(g78
g59
NtRp878
(dp879
g62
(dp880
sg71
g866
sg64
(lp881
g57
(g58
g59
NtRp882
(dp883
g62
(dp884
g70
I3
ssg71
g878
sg64
(lp885
S''
asbasbasbag57
(g73
g59
NtRp886
(dp887
g62
(dp888
sg71
g822
sg64
(lp889
g57
(g78
g59
NtRp890
(dp891
g62
(dp892
g82
g83
ssg71
g886
sg64
(lp893
g334
asbag57
(g78
g59
NtRp894
(dp895
g62
(dp896
g89
g90
ssg71
g886
sg64
(lp897
S':'
asbag57
(g78
g59
NtRp898
(dp899
g62
(dp900
sg71
g886
sg64
(lp901
g57
(g58
g59
NtRp902
(dp903
g62
(dp904
g70
I3
ssg71
g898
sg64
(lp905
S''
asbasbasbag57
(g73
g59
NtRp906
(dp907
g62
(dp908
sg71
g822
sg64
(lp909
g57
(g78
g59
NtRp910
(dp911
g62
(dp912
g82
g83
ssg71
g906
sg64
(lp913
g355
asbag57
(g78
g59
NtRp914
(dp915
g62
(dp916
g89
g90
ssg71
g906
sg64
(lp917
S':'
asbag57
(g78
g59
NtRp918
(dp919
g62
(dp920
sg71
g906
sg64
(lp921
g57
(g58
g59
NtRp922
(dp923
g62
(dp924
g70
I3
ssg71
g918
sg64
(lp925
S''
asbasbasbag57
(g73
g59
NtRp926
(dp927
g62
(dp928
sg71
g822
sg64
(lp929
g57
(g78
g59
NtRp930
(dp931
g62
(dp932
g82
g83
ssg71
g926
sg64
(lp933
g376
asbag57
(g78
g59
NtRp934
(dp935
g62
(dp936
g89
g90
ssg71
g926
sg64
(lp937
S':'
asbag57
(g78
g59
NtRp938
(dp939
g62
(dp940
sg71
g926
sg64
(lp941
g57
(g58
g59
NtRp942
(dp943
g62
(dp944
g70
I3
ssg71
g938
sg64
(lp945
S''
asbasbasbag57
(g73
g59
NtRp946
(dp947
g62
(dp948
sg71
g822
sg64
(lp949
g57
(g78
g59
NtRp950
(dp951
g62
(dp952
g82
g83
ssg71
g946
sg64
(lp953
g397
asbag57
(g78
g59
NtRp954
(dp955
g62
(dp956
g89
g90
ssg71
g946
sg64
(lp957
S':'
asbag57
(g78
g59
NtRp958
(dp959
g62
(dp960
sg71
g946
sg64
(lp961
g57
(g58
g59
NtRp962
(dp963
g62
(dp964
g70
I3
ssg71
g958
sg64
(lp965
S''
asbasbasbag57
(g73
g59
NtRp966
(dp967
g62
(dp968
sg71
g822
sg64
(lp969
g57
(g78
g59
NtRp970
(dp971
g62
(dp972
g82
g83
ssg71
g966
sg64
(lp973
g418
asbag57
(g78
g59
NtRp974
(dp975
g62
(dp976
g89
g90
ssg71
g966
sg64
(lp977
S':'
asbag57
(g78
g59
NtRp978
(dp979
g62
(dp980
sg71
g966
sg64
(lp981
g57
(g58
g59
NtRp982
(dp983
g62
(dp984
g70
I3
ssg71
g978
sg64
(lp985
S''
asbasbasbasbasbasbasbag57
(g73
g59
NtRp986
(dp987
g62
(dp988
sg71
g234
sg64
(lp989
g57
(g78
g59
NtRp990
(dp991
g62
(dp992
g82
g83
ssg71
g986
sg64
(lp993
S'session_id_welcome'
p994
asbag57
(g78
g59
NtRp995
(dp996
g62
(dp997
g89
g90
ssg71
g986
sg64
(lp998
S':'
asbag57
(g78
g59
NtRp999
(dp1000
g62
(dp1001
sg71
g986
sg64
(lp1002
g57
(g58
g59
NtRp1003
(dp1004
g62
(dp1005
g70
I4
ssg71
g999
sg64
(lp1006
g57
(g66
g59
NtRp1007
(dp1008
g62
(dp1009
g70
I3
ssg71
Nsg64
(lp1010
g57
(g73
g59
NtRp1011
(dp1012
g62
(dp1013
sg71
g1007
sg64
(lp1014
g57
(g78
g59
NtRp1015
(dp1016
g62
(dp1017
g82
g83
ssg71
g1011
sg64
(lp1018
g271
asbag57
(g78
g59
NtRp1019
(dp1020
g62
(dp1021
g89
g90
ssg71
g1011
sg64
(lp1022
S':'
asbag57
(g78
g59
NtRp1023
(dp1024
g62
(dp1025
sg71
g1011
sg64
(lp1026
g57
(g58
g59
NtRp1027
(dp1028
g62
(dp1029
g70
I3
ssg71
g1023
sg64
(lp1030
S''
asbasbasbag57
(g73
g59
NtRp1031
(dp1032
g62
(dp1033
sg71
g1007
sg64
(lp1034
g57
(g78
g59
NtRp1035
(dp1036
g62
(dp1037
g82
g83
ssg71
g1031
sg64
(lp1038
g292
asbag57
(g78
g59
NtRp1039
(dp1040
g62
(dp1041
g89
g90
ssg71
g1031
sg64
(lp1042
S':'
asbag57
(g78
g59
NtRp1043
(dp1044
g62
(dp1045
sg71
g1031
sg64
(lp1046
g57
(g58
g59
NtRp1047
(dp1048
g62
(dp1049
g70
I3
ssg71
g1043
sg64
(lp1050
S''
asbasbasbag57
(g73
g59
NtRp1051
(dp1052
g62
(dp1053
sg71
g1007
sg64
(lp1054
g57
(g78
g59
NtRp1055
(dp1056
g62
(dp1057
g82
g83
ssg71
g1051
sg64
(lp1058
g313
asbag57
(g78
g59
NtRp1059
(dp1060
g62
(dp1061
g89
g90
ssg71
g1051
sg64
(lp1062
S':'
asbag57
(g78
g59
NtRp1063
(dp1064
g62
(dp1065
sg71
g1051
sg64
(lp1066
g57
(g58
g59
NtRp1067
(dp1068
g62
(dp1069
g70
I3
ssg71
g1063
sg64
(lp1070
S''
asbasbasbag57
(g73
g59
NtRp1071
(dp1072
g62
(dp1073
sg71
g1007
sg64
(lp1074
g57
(g78
g59
NtRp1075
(dp1076
g62
(dp1077
g82
g83
ssg71
g1071
sg64
(lp1078
g334
asbag57
(g78
g59
NtRp1079
(dp1080
g62
(dp1081
g89
g90
ssg71
g1071
sg64
(lp1082
S':'
asbag57
(g78
g59
NtRp1083
(dp1084
g62
(dp1085
sg71
g1071
sg64
(lp1086
g57
(g58
g59
NtRp1087
(dp1088
g62
(dp1089
g70
I3
ssg71
g1083
sg64
(lp1090
S''
asbasbasbag57
(g73
g59
NtRp1091
(dp1092
g62
(dp1093
sg71
g1007
sg64
(lp1094
g57
(g78
g59
NtRp1095
(dp1096
g62
(dp1097
g82
g83
ssg71
g1091
sg64
(lp1098
g355
asbag57
(g78
g59
NtRp1099
(dp1100
g62
(dp1101
g89
g90
ssg71
g1091
sg64
(lp1102
S':'
asbag57
(g78
g59
NtRp1103
(dp1104
g62
(dp1105
sg71
g1091
sg64
(lp1106
g57
(g58
g59
NtRp1107
(dp1108
g62
(dp1109
g70
I3
ssg71
g1103
sg64
(lp1110
S''
asbasbasbag57
(g73
g59
NtRp1111
(dp1112
g62
(dp1113
sg71
g1007
sg64
(lp1114
g57
(g78
g59
NtRp1115
(dp1116
g62
(dp1117
g82
g83
ssg71
g1111
sg64
(lp1118
g376
asbag57
(g78
g59
NtRp1119
(dp1120
g62
(dp1121
g89
g90
ssg71
g1111
sg64
(lp1122
S':'
asbag57
(g78
g59
NtRp1123
(dp1124
g62
(dp1125
sg71
g1111
sg64
(lp1126
g57
(g58
g59
NtRp1127
(dp1128
g62
(dp1129
g70
I3
ssg71
g1123
sg64
(lp1130
S''
asbasbasbag57
(g73
g59
NtRp1131
(dp1132
g62
(dp1133
sg71
g1007
sg64
(lp1134
g57
(g78
g59
NtRp1135
(dp1136
g62
(dp1137
g82
g83
ssg71
g1131
sg64
(lp1138
g397
asbag57
(g78
g59
NtRp1139
(dp1140
g62
(dp1141
g89
g90
ssg71
g1131
sg64
(lp1142
S':'
asbag57
(g78
g59
NtRp1143
(dp1144
g62
(dp1145
sg71
g1131
sg64
(lp1146
g57
(g58
g59
NtRp1147
(dp1148
g62
(dp1149
g70
I3
ssg71
g1143
sg64
(lp1150
S''
asbasbasbag57
(g73
g59
NtRp1151
(dp1152
g62
(dp1153
sg71
g1007
sg64
(lp1154
g57
(g78
g59
NtRp1155
(dp1156
g62
(dp1157
g82
g83
ssg71
g1151
sg64
(lp1158
g418
asbag57
(g78
g59
NtRp1159
(dp1160
g62
(dp1161
g89
g90
ssg71
g1151
sg64
(lp1162
S':'
asbag57
(g78
g59
NtRp1163
(dp1164
g62
(dp1165
sg71
g1151
sg64
(lp1166
g57
(g58
g59
NtRp1167
(dp1168
g62
(dp1169
g70
I3
ssg71
g1163
sg64
(lp1170
S''
asbasbasbasbasbasbasbasbasbasbasbag57
(g73
g59
NtRp1171
(dp1172
g62
(dp1173
sg71
g67
sg64
(lp1174
g57
(g78
g59
NtRp1175
(dp1176
g62
(dp1177
g82
g83
ssg71
g1171
sg64
(lp1178
S'env'
p1179
asbag57
(g78
g59
NtRp1180
(dp1181
g62
(dp1182
g89
g90
ssg71
g1171
sg64
(lp1183
S':'
asbag57
(g78
g59
NtRp1184
(dp1185
g62
(dp1186
sg71
g1171
sg64
(lp1187
g57
(g58
g59
NtRp1188
(dp1189
g62
(dp1190
g70
I5
ssg71
g1184
sg64
(lp1191
g57
(g66
g59
NtRp1192
(dp1193
g62
(dp1194
g70
I4
ssg71
Nsg64
(lp1195
g57
(g73
g59
NtRp1196
(dp1197
g62
(dp1198
sg71
g1192
sg64
(lp1199
g57
(g78
g59
NtRp1200
(dp1201
g62
(dp1202
g82
g83
ssg71
g1196
sg64
(lp1203
S'app_folders'
p1204
asbag57
(g78
g59
NtRp1205
(dp1206
g62
(dp1207
g89
g90
ssg71
g1196
sg64
(lp1208
S':'
asbag57
(g78
g59
NtRp1209
(dp1210
g62
(dp1211
sg71
g1196
sg64
(lp1212
g57
(g58
g59
NtRp1213
(dp1214
g62
(dp1215
g70
I4
ssg71
g1209
sg64
(lp1216
S"set(['/home/iscott/web/web2py/applications/grammateus3/', '/home/iscott/web/web2py/applications/admin/', '/home/iscott/web/web2py/applications/welcome/'])"
p1217
asbasbasbag57
(g73
g59
NtRp1218
(dp1219
g62
(dp1220
sg71
g1192
sg64
(lp1221
g57
(g78
g59
NtRp1222
(dp1223
g62
(dp1224
g82
g83
ssg71
g1218
sg64
(lp1225
S'applications_parent'
p1226
asbag57
(g78
g59
NtRp1227
(dp1228
g62
(dp1229
g89
g90
ssg71
g1218
sg64
(lp1230
S':'
asbag57
(g78
g59
NtRp1231
(dp1232
g62
(dp1233
sg71
g1218
sg64
(lp1234
g57
(g58
g59
NtRp1235
(dp1236
g62
(dp1237
g70
I4
ssg71
g1231
sg64
(lp1238
S'/home/iscott/web/web2py'
p1239
asbasbasbag57
(g73
g59
NtRp1240
(dp1241
g62
(dp1242
sg71
g1192
sg64
(lp1243
g57
(g78
g59
NtRp1244
(dp1245
g62
(dp1246
g82
g83
ssg71
g1240
sg64
(lp1247
S'cmd_args'
p1248
asbag57
(g78
g59
NtRp1249
(dp1250
g62
(dp1251
g89
g90
ssg71
g1240
sg64
(lp1252
S':'
asbag57
(g78
g59
NtRp1253
(dp1254
g62
(dp1255
sg71
g1240
sg64
(lp1256
g57
(g58
g59
NtRp1257
(dp1258
g62
(dp1259
g70
I4
ssg71
g1253
sg64
(lp1260
g57
(g66
g59
NtRp1261
(dp1262
g62
(dp1263
g70
I3
ssg71
Nsg64
(lp1264
sbasbasbasbag57
(g73
g59
NtRp1265
(dp1266
g62
(dp1267
sg71
g1192
sg64
(lp1268
g57
(g78
g59
NtRp1269
(dp1270
g62
(dp1271
g82
g83
ssg71
g1265
sg64
(lp1272
S'cmd_options'
p1273
asbag57
(g78
g59
NtRp1274
(dp1275
g62
(dp1276
g89
g90
ssg71
g1265
sg64
(lp1277
S':'
asbag57
(g78
g59
NtRp1278
(dp1279
g62
(dp1280
sg71
g1265
sg64
(lp1281
g57
(g58
g59
NtRp1282
(dp1283
g62
(dp1284
g70
I4
ssg71
g1278
sg64
(lp1285
S"<Values at 0xa5e5b8c: {'verbose': False, 'ip': '127.0.0.1', 'shutdown_timeout': 5, 'taskbar': False, 'nocron': False, 'pid_filename': 'httpserver.pid', 'maxthreads': None, 'softcron': False, 'server_name': 'ubuntu', 'bpython': False, 'nogui': False, 'port': 8000, 'extcron': False, 'debuglevel': 30, 'test': None, 'folder': '/home/iscott/web/web2py', 'config': '', 'import_models': False, 'winservice': '', 'shell': None, 'run': '', 'log_filename': 'httpserver.log', 'args': [''], 'socket_timeout': 1, 'ssl_ca_certificate': None, 'scheduler': None, 'profiler_filename': None, 'ssl_private_key': '', 'password': '<ask>', 'request_queue_size': 5, 'ssl_certificate': '', 'cronjob': False, 'numthreads': None, 'quiet': False, 'interfaces': None, 'minthreads': None, 'timeout': 10, 'plain': False, 'nobanner': False}>"
p1286
asbasbasbag57
(g73
g59
NtRp1287
(dp1288
g62
(dp1289
sg71
g1192
sg64
(lp1290
g57
(g78
g59
NtRp1291
(dp1292
g62
(dp1293
g82
g83
ssg71
g1287
sg64
(lp1294
S'db_sessions'
p1295
asbag57
(g78
g59
NtRp1296
(dp1297
g62
(dp1298
g89
g90
ssg71
g1287
sg64
(lp1299
S':'
asbag57
(g78
g59
NtRp1300
(dp1301
g62
(dp1302
sg71
g1287
sg64
(lp1303
g57
(g58
g59
NtRp1304
(dp1305
g62
(dp1306
g70
I4
ssg71
g1300
sg64
(lp1307
S'set([])'
p1308
asbasbasbag57
(g73
g59
NtRp1309
(dp1310
g62
(dp1311
sg71
g1192
sg64
(lp1312
g57
(g78
g59
NtRp1313
(dp1314
g62
(dp1315
g82
g83
ssg71
g1309
sg64
(lp1316
S'debugging'
p1317
asbag57
(g78
g59
NtRp1318
(dp1319
g62
(dp1320
g89
g90
ssg71
g1309
sg64
(lp1321
S':'
asbag57
(g78
g59
NtRp1322
(dp1323
g62
(dp1324
sg71
g1309
sg64
(lp1325
g57
(g58
g59
NtRp1326
(dp1327
g62
(dp1328
g70
I4
ssg71
g1322
sg64
(lp1329
g100
asbasbasbag57
(g73
g59
NtRp1330
(dp1331
g62
(dp1332
sg71
g1192
sg64
(lp1333
g57
(g78
g59
NtRp1334
(dp1335
g62
(dp1336
g82
g83
ssg71
g1330
sg64
(lp1337
S'gluon_parent'
p1338
asbag57
(g78
g59
NtRp1339
(dp1340
g62
(dp1341
g89
g90
ssg71
g1330
sg64
(lp1342
S':'
asbag57
(g78
g59
NtRp1343
(dp1344
g62
(dp1345
sg71
g1330
sg64
(lp1346
g57
(g58
g59
NtRp1347
(dp1348
g62
(dp1349
g70
I4
ssg71
g1343
sg64
(lp1350
S'/home/iscott/web/web2py'
p1351
asbasbasbag57
(g73
g59
NtRp1352
(dp1353
g62
(dp1354
sg71
g1192
sg64
(lp1355
g57
(g78
g59
NtRp1356
(dp1357
g62
(dp1358
g82
g83
ssg71
g1352
sg64
(lp1359
S'http_accept'
p1360
asbag57
(g78
g59
NtRp1361
(dp1362
g62
(dp1363
g89
g90
ssg71
g1352
sg64
(lp1364
S':'
asbag57
(g78
g59
NtRp1365
(dp1366
g62
(dp1367
sg71
g1352
sg64
(lp1368
g57
(g58
g59
NtRp1369
(dp1370
g62
(dp1371
g70
I4
ssg71
g1365
sg64
(lp1372
S'text/html,application/xhtml+xml,application/xml;q=0.9,*/*;q=0.8'
p1373
asbasbasbag57
(g73
g59
NtRp1374
(dp1375
g62
(dp1376
sg71
g1192
sg64
(lp1377
g57
(g78
g59
NtRp1378
(dp1379
g62
(dp1380
g82
g83
ssg71
g1374
sg64
(lp1381
S'http_accept_encoding'
p1382
asbag57
(g78
g59
NtRp1383
(dp1384
g62
(dp1385
g89
g90
ssg71
g1374
sg64
(lp1386
S':'
asbag57
(g78
g59
NtRp1387
(dp1388
g62
(dp1389
sg71
g1374
sg64
(lp1390
g57
(g58
g59
NtRp1391
(dp1392
g62
(dp1393
g70
I4
ssg71
g1387
sg64
(lp1394
S'gzip, deflate'
p1395
asbasbasbag57
(g73
g59
NtRp1396
(dp1397
g62
(dp1398
sg71
g1192
sg64
(lp1399
g57
(g78
g59
NtRp1400
(dp1401
g62
(dp1402
g82
g83
ssg71
g1396
sg64
(lp1403
S'http_accept_language'
p1404
asbag57
(g78
g59
NtRp1405
(dp1406
g62
(dp1407
g89
g90
ssg71
g1396
sg64
(lp1408
S':'
asbag57
(g78
g59
NtRp1409
(dp1410
g62
(dp1411
sg71
g1396
sg64
(lp1412
g57
(g58
g59
NtRp1413
(dp1414
g62
(dp1415
g70
I4
ssg71
g1409
sg64
(lp1416
S'en-us,en;q=0.5'
p1417
asbasbasbag57
(g73
g59
NtRp1418
(dp1419
g62
(dp1420
sg71
g1192
sg64
(lp1421
g57
(g78
g59
NtRp1422
(dp1423
g62
(dp1424
g82
g83
ssg71
g1418
sg64
(lp1425
S'http_connection'
p1426
asbag57
(g78
g59
NtRp1427
(dp1428
g62
(dp1429
g89
g90
ssg71
g1418
sg64
(lp1430
S':'
asbag57
(g78
g59
NtRp1431
(dp1432
g62
(dp1433
sg71
g1418
sg64
(lp1434
g57
(g58
g59
NtRp1435
(dp1436
g62
(dp1437
g70
I4
ssg71
g1431
sg64
(lp1438
S'keep-alive'
p1439
asbasbasbag57
(g73
g59
NtRp1440
(dp1441
g62
(dp1442
sg71
g1192
sg64
(lp1443
g57
(g78
g59
NtRp1444
(dp1445
g62
(dp1446
g82
g83
ssg71
g1440
sg64
(lp1447
S'http_cookie'
p1448
asbag57
(g78
g59
NtRp1449
(dp1450
g62
(dp1451
g89
g90
ssg71
g1440
sg64
(lp1452
S':'
asbag57
(g78
g59
NtRp1453
(dp1454
g62
(dp1455
sg71
g1440
sg64
(lp1456
g57
(g58
g59
NtRp1457
(dp1458
g62
(dp1459
g70
I4
ssg71
g1453
sg64
(lp1460
S'session_id_paideia=127.0.0.1-2edda130-d654-4b0f-a819-06652e443aa6; session_id_bloglet=127.0.0.1-e84b0934-9abc-4375-99c8-24980b610007; session_id_welcome=127.0.0.1-875183c3-33d3-41d0-8035-815b0ac6dec9; session_id_admin=127.0.0.1-e6804d9f-b6d5-42a4-85e7-86ca1654e322; session_id_grammateus3=127.0.0.1-4f98ec66-c173-46dc-a836-3a6d8de0d450'
p1461
asbasbasbag57
(g73
g59
NtRp1462
(dp1463
g62
(dp1464
sg71
g1192
sg64
(lp1465
g57
(g78
g59
NtRp1466
(dp1467
g62
(dp1468
g82
g83
ssg71
g1462
sg64
(lp1469
S'http_host'
p1470
asbag57
(g78
g59
NtRp1471
(dp1472
g62
(dp1473
g89
g90
ssg71
g1462
sg64
(lp1474
S':'
asbag57
(g78
g59
NtRp1475
(dp1476
g62
(dp1477
sg71
g1462
sg64
(lp1478
g57
(g58
g59
NtRp1479
(dp1480
g62
(dp1481
g70
I4
ssg71
g1475
sg64
(lp1482
S'127.0.0.1:8000'
p1483
asbasbasbag57
(g73
g59
NtRp1484
(dp1485
g62
(dp1486
sg71
g1192
sg64
(lp1487
g57
(g78
g59
NtRp1488
(dp1489
g62
(dp1490
g82
g83
ssg71
g1484
sg64
(lp1491
S'http_user_agent'
p1492
asbag57
(g78
g59
NtRp1493
(dp1494
g62
(dp1495
g89
g90
ssg71
g1484
sg64
(lp1496
S':'
asbag57
(g78
g59
NtRp1497
(dp1498
g62
(dp1499
sg71
g1484
sg64
(lp1500
g57
(g58
g59
NtRp1501
(dp1502
g62
(dp1503
g70
I4
ssg71
g1497
sg64
(lp1504
S'Mozilla/5.0 (X11; Ubuntu; Linux i686; rv:10.0.2) Gecko/20100101 Firefox/10.0.2'
p1505
asbasbasbag57
(g73
g59
NtRp1506
(dp1507
g62
(dp1508
sg71
g1192
sg64
(lp1509
g57
(g78
g59
NtRp1510
(dp1511
g62
(dp1512
g82
g83
ssg71
g1506
sg64
(lp1513
S'is_jython'
p1514
asbag57
(g78
g59
NtRp1515
(dp1516
g62
(dp1517
g89
g90
ssg71
g1506
sg64
(lp1518
S':'
asbag57
(g78
g59
NtRp1519
(dp1520
g62
(dp1521
sg71
g1506
sg64
(lp1522
g57
(g58
g59
NtRp1523
(dp1524
g62
(dp1525
g70
I4
ssg71
g1519
sg64
(lp1526
g100
asbasbasbag57
(g73
g59
NtRp1527
(dp1528
g62
(dp1529
sg71
g1192
sg64
(lp1530
g57
(g78
g59
NtRp1531
(dp1532
g62
(dp1533
g82
g83
ssg71
g1527
sg64
(lp1534
S'is_pypy'
p1535
asbag57
(g78
g59
NtRp1536
(dp1537
g62
(dp1538
g89
g90
ssg71
g1527
sg64
(lp1539
S':'
asbag57
(g78
g59
NtRp1540
(dp1541
g62
(dp1542
sg71
g1527
sg64
(lp1543
g57
(g58
g59
NtRp1544
(dp1545
g62
(dp1546
g70
I4
ssg71
g1540
sg64
(lp1547
g100
asbasbasbag57
(g73
g59
NtRp1548
(dp1549
g62
(dp1550
sg71
g1192
sg64
(lp1551
g57
(g78
g59
NtRp1552
(dp1553
g62
(dp1554
g82
g83
ssg71
g1548
sg64
(lp1555
S'path_info'
p1556
asbag57
(g78
g59
NtRp1557
(dp1558
g62
(dp1559
g89
g90
ssg71
g1548
sg64
(lp1560
S':'
asbag57
(g78
g59
NtRp1561
(dp1562
g62
(dp1563
sg71
g1548
sg64
(lp1564
g57
(g58
g59
NtRp1565
(dp1566
g62
(dp1567
g70
I4
ssg71
g1561
sg64
(lp1568
S'/grammateus3/docs/text/'
p1569
asbasbasbag57
(g73
g59
NtRp1570
(dp1571
g62
(dp1572
sg71
g1192
sg64
(lp1573
g57
(g78
g59
NtRp1574
(dp1575
g62
(dp1576
g82
g83
ssg71
g1570
sg64
(lp1577
S'query_string'
p1578
asbag57
(g78
g59
NtRp1579
(dp1580
g62
(dp1581
g89
g90
ssg71
g1570
sg64
(lp1582
S':'
asbag57
(g78
g59
NtRp1583
(dp1584
g62
(dp1585
sg71
g1570
sg64
(lp1586
g57
(g58
g59
NtRp1587
(dp1588
g62
(dp1589
g70
I4
ssg71
g1583
sg64
(lp1590
S''
asbasbasbag57
(g73
g59
NtRp1591
(dp1592
g62
(dp1593
sg71
g1192
sg64
(lp1594
g57
(g78
g59
NtRp1595
(dp1596
g62
(dp1597
g82
g83
ssg71
g1591
sg64
(lp1598
S'remote_addr'
p1599
asbag57
(g78
g59
NtRp1600
(dp1601
g62
(dp1602
g89
g90
ssg71
g1591
sg64
(lp1603
S':'
asbag57
(g78
g59
NtRp1604
(dp1605
g62
(dp1606
sg71
g1591
sg64
(lp1607
g57
(g58
g59
NtRp1608
(dp1609
g62
(dp1610
g70
I4
ssg71
g1604
sg64
(lp1611
g190
asbasbasbag57
(g73
g59
NtRp1612
(dp1613
g62
(dp1614
sg71
g1192
sg64
(lp1615
g57
(g78
g59
NtRp1616
(dp1617
g62
(dp1618
g82
g83
ssg71
g1612
sg64
(lp1619
S'remote_port'
p1620
asbag57
(g78
g59
NtRp1621
(dp1622
g62
(dp1623
g89
g90
ssg71
g1612
sg64
(lp1624
S':'
asbag57
(g78
g59
NtRp1625
(dp1626
g62
(dp1627
sg71
g1612
sg64
(lp1628
g57
(g58
g59
NtRp1629
(dp1630
g62
(dp1631
g70
I4
ssg71
g1625
sg64
(lp1632
S'40020'
p1633
asbasbasbag57
(g73
g59
NtRp1634
(dp1635
g62
(dp1636
sg71
g1192
sg64
(lp1637
g57
(g78
g59
NtRp1638
(dp1639
g62
(dp1640
g82
g83
ssg71
g1634
sg64
(lp1641
S'request_method'
p1642
asbag57
(g78
g59
NtRp1643
(dp1644
g62
(dp1645
g89
g90
ssg71
g1634
sg64
(lp1646
S':'
asbag57
(g78
g59
NtRp1647
(dp1648
g62
(dp1649
sg71
g1634
sg64
(lp1650
g57
(g58
g59
NtRp1651
(dp1652
g62
(dp1653
g70
I4
ssg71
g1647
sg64
(lp1654
S'GET'
p1655
asbasbasbag57
(g73
g59
NtRp1656
(dp1657
g62
(dp1658
sg71
g1192
sg64
(lp1659
g57
(g78
g59
NtRp1660
(dp1661
g62
(dp1662
g82
g83
ssg71
g1656
sg64
(lp1663
S'script_name'
p1664
asbag57
(g78
g59
NtRp1665
(dp1666
g62
(dp1667
g89
g90
ssg71
g1656
sg64
(lp1668
S':'
asbag57
(g78
g59
NtRp1669
(dp1670
g62
(dp1671
sg71
g1656
sg64
(lp1672
g57
(g58
g59
NtRp1673
(dp1674
g62
(dp1675
g70
I4
ssg71
g1669
sg64
(lp1676
S''
asbasbasbag57
(g73
g59
NtRp1677
(dp1678
g62
(dp1679
sg71
g1192
sg64
(lp1680
g57
(g78
g59
NtRp1681
(dp1682
g62
(dp1683
g82
g83
ssg71
g1677
sg64
(lp1684
S'server_name'
p1685
asbag57
(g78
g59
NtRp1686
(dp1687
g62
(dp1688
g89
g90
ssg71
g1677
sg64
(lp1689
S':'
asbag57
(g78
g59
NtRp1690
(dp1691
g62
(dp1692
sg71
g1677
sg64
(lp1693
g57
(g58
g59
NtRp1694
(dp1695
g62
(dp1696
g70
I4
ssg71
g1690
sg64
(lp1697
S'ubuntu'
p1698
asbasbasbag57
(g73
g59
NtRp1699
(dp1700
g62
(dp1701
sg71
g1192
sg64
(lp1702
g57
(g78
g59
NtRp1703
(dp1704
g62
(dp1705
g82
g83
ssg71
g1699
sg64
(lp1706
S'server_port'
p1707
asbag57
(g78
g59
NtRp1708
(dp1709
g62
(dp1710
g89
g90
ssg71
g1699
sg64
(lp1711
S':'
asbag57
(g78
g59
NtRp1712
(dp1713
g62
(dp1714
sg71
g1699
sg64
(lp1715
g57
(g58
g59
NtRp1716
(dp1717
g62
(dp1718
g70
I4
ssg71
g1712
sg64
(lp1719
S'8000'
p1720
asbasbasbag57
(g73
g59
NtRp1721
(dp1722
g62
(dp1723
sg71
g1192
sg64
(lp1724
g57
(g78
g59
NtRp1725
(dp1726
g62
(dp1727
g82
g83
ssg71
g1721
sg64
(lp1728
S'server_protocol'
p1729
asbag57
(g78
g59
NtRp1730
(dp1731
g62
(dp1732
g89
g90
ssg71
g1721
sg64
(lp1733
S':'
asbag57
(g78
g59
NtRp1734
(dp1735
g62
(dp1736
sg71
g1721
sg64
(lp1737
g57
(g58
g59
NtRp1738
(dp1739
g62
(dp1740
g70
I4
ssg71
g1734
sg64
(lp1741
S'HTTP/1.1'
p1742
asbasbasbag57
(g73
g59
NtRp1743
(dp1744
g62
(dp1745
sg71
g1192
sg64
(lp1746
g57
(g78
g59
NtRp1747
(dp1748
g62
(dp1749
g82
g83
ssg71
g1743
sg64
(lp1750
S'server_software'
p1751
asbag57
(g78
g59
NtRp1752
(dp1753
g62
(dp1754
g89
g90
ssg71
g1743
sg64
(lp1755
S':'
asbag57
(g78
g59
NtRp1756
(dp1757
g62
(dp1758
sg71
g1743
sg64
(lp1759
g57
(g58
g59
NtRp1760
(dp1761
g62
(dp1762
g70
I4
ssg71
g1756
sg64
(lp1763
S'Rocket 1.2.4'
p1764
asbasbasbag57
(g73
g59
NtRp1765
(dp1766
g62
(dp1767
sg71
g1192
sg64
(lp1768
g57
(g78
g59
NtRp1769
(dp1770
g62
(dp1771
g82
g83
ssg71
g1765
sg64
(lp1772
S'web2py_crontype'
p1773
asbag57
(g78
g59
NtRp1774
(dp1775
g62
(dp1776
g89
g90
ssg71
g1765
sg64
(lp1777
S':'
asbag57
(g78
g59
NtRp1778
(dp1779
g62
(dp1780
sg71
g1765
sg64
(lp1781
g57
(g58
g59
NtRp1782
(dp1783
g62
(dp1784
g70
I4
ssg71
g1778
sg64
(lp1785
S'hard'
p1786
asbasbasbag57
(g73
g59
NtRp1787
(dp1788
g62
(dp1789
sg71
g1192
sg64
(lp1790
g57
(g78
g59
NtRp1791
(dp1792
g62
(dp1793
g82
g83
ssg71
g1787
sg64
(lp1794
S'web2py_path'
p1795
asbag57
(g78
g59
NtRp1796
(dp1797
g62
(dp1798
g89
g90
ssg71
g1787
sg64
(lp1799
S':'
asbag57
(g78
g59
NtRp1800
(dp1801
g62
(dp1802
sg71
g1787
sg64
(lp1803
g57
(g58
g59
NtRp1804
(dp1805
g62
(dp1806
g70
I4
ssg71
g1800
sg64
(lp1807
g1239
asbasbasbag57
(g73
g59
NtRp1808
(dp1809
g62
(dp1810
sg71
g1192
sg64
(lp1811
g57
(g78
g59
NtRp1812
(dp1813
g62
(dp1814
g82
g83
ssg71
g1808
sg64
(lp1815
S'web2py_version'
p1816
asbag57
(g78
g59
NtRp1817
(dp1818
g62
(dp1819
g89
g90
ssg71
g1808
sg64
(lp1820
S':'
asbag57
(g78
g59
NtRp1821
(dp1822
g62
(dp1823
sg71
g1808
sg64
(lp1824
g57
(g58
g59
NtRp1825
(dp1826
g62
(dp1827
g70
I4
ssg71
g1821
sg64
(lp1828
g57
(g66
g59
NtRp1829
(dp1830
g62
(dp1831
g70
I3
ssg71
Nsg64
(lp1832
g57
(g73
g59
NtRp1833
(dp1834
g62
(dp1835
sg71
g1829
sg64
(lp1836
g57
(g78
g59
NtRp1837
(dp1838
g62
(dp1839
sg71
g1833
sg64
(lp1840
g57
(g58
g59
NtRp1841
(dp1842
g62
(dp1843
g70
I3
ssg71
g1837
sg64
(lp1844
S'1'
asbasbasbag57
(g73
g59
NtRp1845
(dp1846
g62
(dp1847
sg71
g1829
sg64
(lp1848
g57
(g78
g59
NtRp1849
(dp1850
g62
(dp1851
sg71
g1845
sg64
(lp1852
g57
(g58
g59
NtRp1853
(dp1854
g62
(dp1855
g70
I3
ssg71
g1849
sg64
(lp1856
S'99'
p1857
asbasbasbag57
(g73
g59
NtRp1858
(dp1859
g62
(dp1860
sg71
g1829
sg64
(lp1861
g57
(g78
g59
NtRp1862
(dp1863
g62
(dp1864
sg71
g1858
sg64
(lp1865
g57
(g58
g59
NtRp1866
(dp1867
g62
(dp1868
g70
I3
ssg71
g1862
sg64
(lp1869
S'4'
asbasbasbag57
(g73
g59
NtRp1870
(dp1871
g62
(dp1872
sg71
g1829
sg64
(lp1873
g57
(g78
g59
NtRp1874
(dp1875
g62
(dp1876
sg71
g1870
sg64
(lp1877
g57
(g58
g59
NtRp1878
(dp1879
g62
(dp1880
g70
I3
ssg71
g1874
sg64
(lp1881
S'datetime.datetime(2011, 12, 14, 14, 46, 14)'
p1882
asbasbasbag57
(g73
g59
NtRp1883
(dp1884
g62
(dp1885
sg71
g1829
sg64
(lp1886
g57
(g78
g59
NtRp1887
(dp1888
g62
(dp1889
sg71
g1883
sg64
(lp1890
g57
(g58
g59
NtRp1891
(dp1892
g62
(dp1893
g70
I3
ssg71
g1887
sg64
(lp1894
S'stable'
p1895
asbasbasbasbasbasbasbag57
(g73
g59
NtRp1896
(dp1897
g62
(dp1898
sg71
g1192
sg64
(lp1899
g57
(g78
g59
NtRp1900
(dp1901
g62
(dp1902
g82
g83
ssg71
g1896
sg64
(lp1903
S'wsgi_errors'
p1904
asbag57
(g78
g59
NtRp1905
(dp1906
g62
(dp1907
g89
g90
ssg71
g1896
sg64
(lp1908
S':'
asbag57
(g78
g59
NtRp1909
(dp1910
g62
(dp1911
sg71
g1896
sg64
(lp1912
g57
(g58
g59
NtRp1913
(dp1914
g62
(dp1915
g70
I4
ssg71
g1909
sg64
(lp1916
S"<open file '<stderr>', mode 'w' at 0xb777d0d0>"
p1917
asbasbasbag57
(g73
g59
NtRp1918
(dp1919
g62
(dp1920
sg71
g1192
sg64
(lp1921
g57
(g78
g59
NtRp1922
(dp1923
g62
(dp1924
g82
g83
ssg71
g1918
sg64
(lp1925
S'wsgi_file_wrapper'
p1926
asbag57
(g78
g59
NtRp1927
(dp1928
g62
(dp1929
g89
g90
ssg71
g1918
sg64
(lp1930
S':'
asbag57
(g78
g59
NtRp1931
(dp1932
g62
(dp1933
sg71
g1918
sg64
(lp1934
g57
(g58
g59
NtRp1935
(dp1936
g62
(dp1937
g70
I4
ssg71
g1931
sg64
(lp1938
S'<class wsgiref.util.FileWrapper at 0xa52e20c>'
p1939
asbasbasbag57
(g73
g59
NtRp1940
(dp1941
g62
(dp1942
sg71
g1192
sg64
(lp1943
g57
(g78
g59
NtRp1944
(dp1945
g62
(dp1946
g82
g83
ssg71
g1940
sg64
(lp1947
S'wsgi_input'
p1948
asbag57
(g78
g59
NtRp1949
(dp1950
g62
(dp1951
g89
g90
ssg71
g1940
sg64
(lp1952
S':'
asbag57
(g78
g59
NtRp1953
(dp1954
g62
(dp1955
sg71
g1940
sg64
(lp1956
g57
(g58
g59
NtRp1957
(dp1958
g62
(dp1959
g70
I4
ssg71
g1953
sg64
(lp1960
S'<socket._fileobject object at 0xa9cd42c>'
p1961
asbasbasbag57
(g73
g59
NtRp1962
(dp1963
g62
(dp1964
sg71
g1192
sg64
(lp1965
g57
(g78
g59
NtRp1966
(dp1967
g62
(dp1968
g82
g83
ssg71
g1962
sg64
(lp1969
S'wsgi_multiprocess'
p1970
asbag57
(g78
g59
NtRp1971
(dp1972
g62
(dp1973
g89
g90
ssg71
g1962
sg64
(lp1974
S':'
asbag57
(g78
g59
NtRp1975
(dp1976
g62
(dp1977
sg71
g1962
sg64
(lp1978
g57
(g58
g59
NtRp1979
(dp1980
g62
(dp1981
g70
I4
ssg71
g1975
sg64
(lp1982
g100
asbasbasbag57
(g73
g59
NtRp1983
(dp1984
g62
(dp1985
sg71
g1192
sg64
(lp1986
g57
(g78
g59
NtRp1987
(dp1988
g62
(dp1989
g82
g83
ssg71
g1983
sg64
(lp1990
S'wsgi_multithread'
p1991
asbag57
(g78
g59
NtRp1992
(dp1993
g62
(dp1994
g89
g90
ssg71
g1983
sg64
(lp1995
S':'
asbag57
(g78
g59
NtRp1996
(dp1997
g62
(dp1998
sg71
g1983
sg64
(lp1999
g57
(g58
g59
NtRp2000
(dp2001
g62
(dp2002
g70
I4
ssg71
g1996
sg64
(lp2003
S'True'
p2004
asbasbasbag57
(g73
g59
NtRp2005
(dp2006
g62
(dp2007
sg71
g1192
sg64
(lp2008
g57
(g78
g59
NtRp2009
(dp2010
g62
(dp2011
g82
g83
ssg71
g2005
sg64
(lp2012
S'wsgi_run_once'
p2013
asbag57
(g78
g59
NtRp2014
(dp2015
g62
(dp2016
g89
g90
ssg71
g2005
sg64
(lp2017
S':'
asbag57
(g78
g59
NtRp2018
(dp2019
g62
(dp2020
sg71
g2005
sg64
(lp2021
g57
(g58
g59
NtRp2022
(dp2023
g62
(dp2024
g70
I4
ssg71
g2018
sg64
(lp2025
g100
asbasbasbag57
(g73
g59
NtRp2026
(dp2027
g62
(dp2028
sg71
g1192
sg64
(lp2029
g57
(g78
g59
NtRp2030
(dp2031
g62
(dp2032
g82
g83
ssg71
g2026
sg64
(lp2033
S'wsgi_url_scheme'
p2034
asbag57
(g78
g59
NtRp2035
(dp2036
g62
(dp2037
g89
g90
ssg71
g2026
sg64
(lp2038
S':'
asbag57
(g78
g59
NtRp2039
(dp2040
g62
(dp2041
sg71
g2026
sg64
(lp2042
g57
(g58
g59
NtRp2043
(dp2044
g62
(dp2045
g70
I4
ssg71
g2039
sg64
(lp2046
S'http'
p2047
asbasbasbag57
(g73
g59
NtRp2048
(dp2049
g62
(dp2050
sg71
g1192
sg64
(lp2051
g57
(g78
g59
NtRp2052
(dp2053
g62
(dp2054
g82
g83
ssg71
g2048
sg64
(lp2055
S'wsgi_version'
p2056
asbag57
(g78
g59
NtRp2057
(dp2058
g62
(dp2059
g89
g90
ssg71
g2048
sg64
(lp2060
S':'
asbag57
(g78
g59
NtRp2061
(dp2062
g62
(dp2063
sg71
g2048
sg64
(lp2064
g57
(g58
g59
NtRp2065
(dp2066
g62
(dp2067
g70
I4
ssg71
g2061
sg64
(lp2068
g57
(g66
g59
NtRp2069
(dp2070
g62
(dp2071
g70
I3
ssg71
Nsg64
(lp2072
g57
(g73
g59
NtRp2073
(dp2074
g62
(dp2075
sg71
g2069
sg64
(lp2076
g57
(g78
g59
NtRp2077
(dp2078
g62
(dp2079
sg71
g2073
sg64
(lp2080
g57
(g58
g59
NtRp2081
(dp2082
g62
(dp2083
g70
I3
ssg71
g2077
sg64
(lp2084
S'1'
asbasbasbag57
(g73
g59
NtRp2085
(dp2086
g62
(dp2087
sg71
g2069
sg64
(lp2088
g57
(g78
g59
NtRp2089
(dp2090
g62
(dp2091
sg71
g2085
sg64
(lp2092
g57
(g58
g59
NtRp2093
(dp2094
g62
(dp2095
g70
I3
ssg71
g2089
sg64
(lp2096
S'0'
asbasbasbasbasbasbasbasbasbasbasbag57
(g73
g59
NtRp2097
(dp2098
g62
(dp2099
sg71
g67
sg64
(lp2100
g57
(g78
g59
NtRp2101
(dp2102
g62
(dp2103
g82
g83
ssg71
g2097
sg64
(lp2104
S'extension'
p2105
asbag57
(g78
g59
NtRp2106
(dp2107
g62
(dp2108
g89
g90
ssg71
g2097
sg64
(lp2109
S':'
asbag57
(g78
g59
NtRp2110
(dp2111
g62
(dp2112
sg71
g2097
sg64
(lp2113
g57
(g58
g59
NtRp2114
(dp2115
g62
(dp2116
g70
I5
ssg71
g2110
sg64
(lp2117
S'html'
p2118
asbasbasbag57
(g73
g59
NtRp2119
(dp2120
g62
(dp2121
sg71
g67
sg64
(lp2122
g57
(g78
g59
NtRp2123
(dp2124
g62
(dp2125
g82
g83
ssg71
g2119
sg64
(lp2126
S'folder'
p2127
asbag57
(g78
g59
NtRp2128
(dp2129
g62
(dp2130
g89
g90
ssg71
g2119
sg64
(lp2131
S':'
asbag57
(g78
g59
NtRp2132
(dp2133
g62
(dp2134
sg71
g2119
sg64
(lp2135
g57
(g58
g59
NtRp2136
(dp2137
g62
(dp2138
g70
I5
ssg71
g2132
sg64
(lp2139
S'/home/iscott/web/web2py/applications/grammateus3/'
p2140
asbasbasbag57
(g73
g59
NtRp2141
(dp2142
g62
(dp2143
sg71
g67
sg64
(lp2144
g57
(g78
g59
NtRp2145
(dp2146
g62
(dp2147
g82
g83
ssg71
g2141
sg64
(lp2148
S'function'
p2149
asbag57
(g78
g59
NtRp2150
(dp2151
g62
(dp2152
g89
g90
ssg71
g2141
sg64
(lp2153
S':'
asbag57
(g78
g59
NtRp2154
(dp2155
g62
(dp2156
sg71
g2141
sg64
(lp2157
g57
(g58
g59
NtRp2158
(dp2159
g62
(dp2160
g70
I5
ssg71
g2154
sg64
(lp2161
S'text'
p2162
asbasbasbag57
(g73
g59
NtRp2163
(dp2164
g62
(dp2165
sg71
g67
sg64
(lp2166
g57
(g78
g59
NtRp2167
(dp2168
g62
(dp2169
g82
g83
ssg71
g2163
sg64
(lp2170
S'get_vars'
p2171
asbag57
(g78
g59
NtRp2172
(dp2173
g62
(dp2174
g89
g90
ssg71
g2163
sg64
(lp2175
S':'
asbag57
(g78
g59
NtRp2176
(dp2177
g62
(dp2178
sg71
g2163
sg64
(lp2179
g57
(g58
g59
NtRp2180
(dp2181
g62
(dp2182
g70
I5
ssg71
g2176
sg64
(lp2183
g57
(g66
g59
NtRp2184
(dp2185
g62
(dp2186
g70
I4
ssg71
Nsg64
(lp2187
sbasbasbasbag57
(g73
g59
NtRp2188
(dp2189
g62
(dp2190
sg71
g67
sg64
(lp2191
g57
(g78
g59
NtRp2192
(dp2193
g62
(dp2194
g82
g83
ssg71
g2188
sg64
(lp2195
S'global_settings'
p2196
asbag57
(g78
g59
NtRp2197
(dp2198
g62
(dp2199
g89
g90
ssg71
g2188
sg64
(lp2200
S':'
asbag57
(g78
g59
NtRp2201
(dp2202
g62
(dp2203
sg71
g2188
sg64
(lp2204
g57
(g58
g59
NtRp2205
(dp2206
g62
(dp2207
g70
I5
ssg71
g2201
sg64
(lp2208
g57
(g66
g59
NtRp2209
(dp2210
g62
(dp2211
g70
I4
ssg71
Nsg64
(lp2212
g57
(g73
g59
NtRp2213
(dp2214
g62
(dp2215
sg71
g2209
sg64
(lp2216
g57
(g78
g59
NtRp2217
(dp2218
g62
(dp2219
g82
g83
ssg71
g2213
sg64
(lp2220
g1204
asbag57
(g78
g59
NtRp2221
(dp2222
g62
(dp2223
g89
g90
ssg71
g2213
sg64
(lp2224
S':'
asbag57
(g78
g59
NtRp2225
(dp2226
g62
(dp2227
sg71
g2213
sg64
(lp2228
g57
(g58
g59
NtRp2229
(dp2230
g62
(dp2231
g70
I4
ssg71
g2225
sg64
(lp2232
S"set(['/home/iscott/web/web2py/applications/grammateus3/', '/home/iscott/web/web2py/applications/admin/', '/home/iscott/web/web2py/applications/welcome/'])"
p2233
asbasbasbag57
(g73
g59
NtRp2234
(dp2235
g62
(dp2236
sg71
g2209
sg64
(lp2237
g57
(g78
g59
NtRp2238
(dp2239
g62
(dp2240
g82
g83
ssg71
g2234
sg64
(lp2241
g1226
asbag57
(g78
g59
NtRp2242
(dp2243
g62
(dp2244
g89
g90
ssg71
g2234
sg64
(lp2245
S':'
asbag57
(g78
g59
NtRp2246
(dp2247
g62
(dp2248
sg71
g2234
sg64
(lp2249
g57
(g58
g59
NtRp2250
(dp2251
g62
(dp2252
g70
I4
ssg71
g2246
sg64
(lp2253
g1239
asbasbasbag57
(g73
g59
NtRp2254
(dp2255
g62
(dp2256
sg71
g2209
sg64
(lp2257
g57
(g78
g59
NtRp2258
(dp2259
g62
(dp2260
g82
g83
ssg71
g2254
sg64
(lp2261
g1248
asbag57
(g78
g59
NtRp2262
(dp2263
g62
(dp2264
g89
g90
ssg71
g2254
sg64
(lp2265
S':'
asbag57
(g78
g59
NtRp2266
(dp2267
g62
(dp2268
sg71
g2254
sg64
(lp2269
g57
(g58
g59
NtRp2270
(dp2271
g62
(dp2272
g70
I4
ssg71
g2266
sg64
(lp2273
g57
(g66
g59
NtRp2274
(dp2275
g62
(dp2276
g70
I3
ssg71
Nsg64
(lp2277
sbasbasbasbag57
(g73
g59
NtRp2278
(dp2279
g62
(dp2280
sg71
g2209
sg64
(lp2281
g57
(g78
g59
NtRp2282
(dp2283
g62
(dp2284
g82
g83
ssg71
g2278
sg64
(lp2285
g1273
asbag57
(g78
g59
NtRp2286
(dp2287
g62
(dp2288
g89
g90
ssg71
g2278
sg64
(lp2289
S':'
asbag57
(g78
g59
NtRp2290
(dp2291
g62
(dp2292
sg71
g2278
sg64
(lp2293
g57
(g58
g59
NtRp2294
(dp2295
g62
(dp2296
g70
I4
ssg71
g2290
sg64
(lp2297
S"<Values at 0xa5e5b8c: {'verbose': False, 'ip': '127.0.0.1', 'shutdown_timeout': 5, 'taskbar': False, 'nocron': False, 'pid_filename': 'httpserver.pid', 'maxthreads': None, 'softcron': False, 'server_name': 'ubuntu', 'bpython': False, 'nogui': False, 'port': 8000, 'extcron': False, 'debuglevel': 30, 'test': None, 'folder': '/home/iscott/web/web2py', 'config': '', 'import_models': False, 'winservice': '', 'shell': None, 'run': '', 'log_filename': 'httpserver.log', 'args': [''], 'socket_timeout': 1, 'ssl_ca_certificate': None, 'scheduler': None, 'profiler_filename': None, 'ssl_private_key': '', 'password': '<ask>', 'request_queue_size': 5, 'ssl_certificate': '', 'cronjob': False, 'numthreads': None, 'quiet': False, 'interfaces': None, 'minthreads': None, 'timeout': 10, 'plain': False, 'nobanner': False}>"
p2298
asbasbasbag57
(g73
g59
NtRp2299
(dp2300
g62
(dp2301
sg71
g2209
sg64
(lp2302
g57
(g78
g59
NtRp2303
(dp2304
g62
(dp2305
g82
g83
ssg71
g2299
sg64
(lp2306
g1295
asbag57
(g78
g59
NtRp2307
(dp2308
g62
(dp2309
g89
g90
ssg71
g2299
sg64
(lp2310
S':'
asbag57
(g78
g59
NtRp2311
(dp2312
g62
(dp2313
sg71
g2299
sg64
(lp2314
g57
(g58
g59
NtRp2315
(dp2316
g62
(dp2317
g70
I4
ssg71
g2311
sg64
(lp2318
S'set([])'
p2319
asbasbasbag57
(g73
g59
NtRp2320
(dp2321
g62
(dp2322
sg71
g2209
sg64
(lp2323
g57
(g78
g59
NtRp2324
(dp2325
g62
(dp2326
g82
g83
ssg71
g2320
sg64
(lp2327
g1317
asbag57
(g78
g59
NtRp2328
(dp2329
g62
(dp2330
g89
g90
ssg71
g2320
sg64
(lp2331
S':'
asbag57
(g78
g59
NtRp2332
(dp2333
g62
(dp2334
sg71
g2320
sg64
(lp2335
g57
(g58
g59
NtRp2336
(dp2337
g62
(dp2338
g70
I4
ssg71
g2332
sg64
(lp2339
g100
asbasbasbag57
(g73
g59
NtRp2340
(dp2341
g62
(dp2342
sg71
g2209
sg64
(lp2343
g57
(g78
g59
NtRp2344
(dp2345
g62
(dp2346
g82
g83
ssg71
g2340
sg64
(lp2347
g1338
asbag57
(g78
g59
NtRp2348
(dp2349
g62
(dp2350
g89
g90
ssg71
g2340
sg64
(lp2351
S':'
asbag57
(g78
g59
NtRp2352
(dp2353
g62
(dp2354
sg71
g2340
sg64
(lp2355
g57
(g58
g59
NtRp2356
(dp2357
g62
(dp2358
g70
I4
ssg71
g2352
sg64
(lp2359
g1351
asbasbasbag57
(g73
g59
NtRp2360
(dp2361
g62
(dp2362
sg71
g2209
sg64
(lp2363
g57
(g78
g59
NtRp2364
(dp2365
g62
(dp2366
g82
g83
ssg71
g2360
sg64
(lp2367
g1514
asbag57
(g78
g59
NtRp2368
(dp2369
g62
(dp2370
g89
g90
ssg71
g2360
sg64
(lp2371
S':'
asbag57
(g78
g59
NtRp2372
(dp2373
g62
(dp2374
sg71
g2360
sg64
(lp2375
g57
(g58
g59
NtRp2376
(dp2377
g62
(dp2378
g70
I4
ssg71
g2372
sg64
(lp2379
g100
asbasbasbag57
(g73
g59
NtRp2380
(dp2381
g62
(dp2382
sg71
g2209
sg64
(lp2383
g57
(g78
g59
NtRp2384
(dp2385
g62
(dp2386
g82
g83
ssg71
g2380
sg64
(lp2387
g1535
asbag57
(g78
g59
NtRp2388
(dp2389
g62
(dp2390
g89
g90
ssg71
g2380
sg64
(lp2391
S':'
asbag57
(g78
g59
NtRp2392
(dp2393
g62
(dp2394
sg71
g2380
sg64
(lp2395
g57
(g58
g59
NtRp2396
(dp2397
g62
(dp2398
g70
I4
ssg71
g2392
sg64
(lp2399
g100
asbasbasbag57
(g73
g59
NtRp2400
(dp2401
g62
(dp2402
sg71
g2209
sg64
(lp2403
g57
(g78
g59
NtRp2404
(dp2405
g62
(dp2406
g82
g83
ssg71
g2400
sg64
(lp2407
g1773
asbag57
(g78
g59
NtRp2408
(dp2409
g62
(dp2410
g89
g90
ssg71
g2400
sg64
(lp2411
S':'
asbag57
(g78
g59
NtRp2412
(dp2413
g62
(dp2414
sg71
g2400
sg64
(lp2415
g57
(g58
g59
NtRp2416
(dp2417
g62
(dp2418
g70
I4
ssg71
g2412
sg64
(lp2419
g1786
asbasbasbag57
(g73
g59
NtRp2420
(dp2421
g62
(dp2422
sg71
g2209
sg64
(lp2423
g57
(g78
g59
NtRp2424
(dp2425
g62
(dp2426
g82
g83
ssg71
g2420
sg64
(lp2427
g1816
asbag57
(g78
g59
NtRp2428
(dp2429
g62
(dp2430
g89
g90
ssg71
g2420
sg64
(lp2431
S':'
asbag57
(g78
g59
NtRp2432
(dp2433
g62
(dp2434
sg71
g2420
sg64
(lp2435
g57
(g58
g59
NtRp2436
(dp2437
g62
(dp2438
g70
I4
ssg71
g2432
sg64
(lp2439
g57
(g66
g59
NtRp2440
(dp2441
g62
(dp2442
g70
I3
ssg71
Nsg64
(lp2443
g57
(g73
g59
NtRp2444
(dp2445
g62
(dp2446
sg71
g2440
sg64
(lp2447
g57
(g78
g59
NtRp2448
(dp2449
g62
(dp2450
sg71
g2444
sg64
(lp2451
g57
(g58
g59
NtRp2452
(dp2453
g62
(dp2454
g70
I3
ssg71
g2448
sg64
(lp2455
S'1'
asbasbasbag57
(g73
g59
NtRp2456
(dp2457
g62
(dp2458
sg71
g2440
sg64
(lp2459
g57
(g78
g59
NtRp2460
(dp2461
g62
(dp2462
sg71
g2456
sg64
(lp2463
g57
(g58
g59
NtRp2464
(dp2465
g62
(dp2466
g70
I3
ssg71
g2460
sg64
(lp2467
S'99'
p2468
asbasbasbag57
(g73
g59
NtRp2469
(dp2470
g62
(dp2471
sg71
g2440
sg64
(lp2472
g57
(g78
g59
NtRp2473
(dp2474
g62
(dp2475
sg71
g2469
sg64
(lp2476
g57
(g58
g59
NtRp2477
(dp2478
g62
(dp2479
g70
I3
ssg71
g2473
sg64
(lp2480
S'4'
asbasbasbag57
(g73
g59
NtRp2481
(dp2482
g62
(dp2483
sg71
g2440
sg64
(lp2484
g57
(g78
g59
NtRp2485
(dp2486
g62
(dp2487
sg71
g2481
sg64
(lp2488
g57
(g58
g59
NtRp2489
(dp2490
g62
(dp2491
g70
I3
ssg71
g2485
sg64
(lp2492
S'datetime.datetime(2011, 12, 14, 14, 46, 14)'
p2493
asbasbasbag57
(g73
g59
NtRp2494
(dp2495
g62
(dp2496
sg71
g2440
sg64
(lp2497
g57
(g78
g59
NtRp2498
(dp2499
g62
(dp2500
sg71
g2494
sg64
(lp2501
g57
(g58
g59
NtRp2502
(dp2503
g62
(dp2504
g70
I3
ssg71
g2498
sg64
(lp2505
g1895
asbasbasbasbasbasbasbasbasbasbasbag57
(g73
g59
NtRp2506
(dp2507
g62
(dp2508
sg71
g67
sg64
(lp2509
g57
(g78
g59
NtRp2510
(dp2511
g62
(dp2512
g82
g83
ssg71
g2506
sg64
(lp2513
S'is_https'
p2514
asbag57
(g78
g59
NtRp2515
(dp2516
g62
(dp2517
g89
g90
ssg71
g2506
sg64
(lp2518
S':'
asbag57
(g78
g59
NtRp2519
(dp2520
g62
(dp2521
sg71
g2506
sg64
(lp2522
g57
(g58
g59
NtRp2523
(dp2524
g62
(dp2525
g70
I5
ssg71
g2519
sg64
(lp2526
g100
asbasbasbag57
(g73
g59
NtRp2527
(dp2528
g62
(dp2529
sg71
g67
sg64
(lp2530
g57
(g78
g59
NtRp2531
(dp2532
g62
(dp2533
g82
g83
ssg71
g2527
sg64
(lp2534
S'is_local'
p2535
asbag57
(g78
g59
NtRp2536
(dp2537
g62
(dp2538
g89
g90
ssg71
g2527
sg64
(lp2539
S':'
asbag57
(g78
g59
NtRp2540
(dp2541
g62
(dp2542
sg71
g2527
sg64
(lp2543
g57
(g58
g59
NtRp2544
(dp2545
g62
(dp2546
g70
I5
ssg71
g2540
sg64
(lp2547
g2004
asbasbasbag57
(g73
g59
NtRp2548
(dp2549
g62
(dp2550
sg71
g67
sg64
(lp2551
g57
(g78
g59
NtRp2552
(dp2553
g62
(dp2554
g82
g83
ssg71
g2548
sg64
(lp2555
S'is_restful'
p2556
asbag57
(g78
g59
NtRp2557
(dp2558
g62
(dp2559
g89
g90
ssg71
g2548
sg64
(lp2560
S':'
asbag57
(g78
g59
NtRp2561
(dp2562
g62
(dp2563
sg71
g2548
sg64
(lp2564
g57
(g58
g59
NtRp2565
(dp2566
g62
(dp2567
g70
I5
ssg71
g2561
sg64
(lp2568
g100
asbasbasbag57
(g73
g59
NtRp2569
(dp2570
g62
(dp2571
sg71
g67
sg64
(lp2572
g57
(g78
g59
NtRp2573
(dp2574
g62
(dp2575
g82
g83
ssg71
g2569
sg64
(lp2576
S'now'
p2577
asbag57
(g78
g59
NtRp2578
(dp2579
g62
(dp2580
g89
g90
ssg71
g2569
sg64
(lp2581
S':'
asbag57
(g78
g59
NtRp2582
(dp2583
g62
(dp2584
sg71
g2569
sg64
(lp2585
g57
(g58
g59
NtRp2586
(dp2587
g62
(dp2588
g70
I5
ssg71
g2582
sg64
(lp2589
S'datetime.datetime(2012, 3, 6, 8, 19, 40, 876603)'
p2590
asbasbasbag57
(g73
g59
NtRp2591
(dp2592
g62
(dp2593
sg71
g67
sg64
(lp2594
g57
(g78
g59
NtRp2595
(dp2596
g62
(dp2597
g82
g83
ssg71
g2591
sg64
(lp2598
S'post_vars'
p2599
asbag57
(g78
g59
NtRp2600
(dp2601
g62
(dp2602
g89
g90
ssg71
g2591
sg64
(lp2603
S':'
asbag57
(g78
g59
NtRp2604
(dp2605
g62
(dp2606
sg71
g2591
sg64
(lp2607
g57
(g58
g59
NtRp2608
(dp2609
g62
(dp2610
g70
I5
ssg71
g2604
sg64
(lp2611
g57
(g66
g59
NtRp2612
(dp2613
g62
(dp2614
g70
I4
ssg71
Nsg64
(lp2615
sbasbasbasbag57
(g73
g59
NtRp2616
(dp2617
g62
(dp2618
sg71
g67
sg64
(lp2619
g57
(g78
g59
NtRp2620
(dp2621
g62
(dp2622
g82
g83
ssg71
g2616
sg64
(lp2623
S'raw_args'
p2624
asbag57
(g78
g59
NtRp2625
(dp2626
g62
(dp2627
g89
g90
ssg71
g2616
sg64
(lp2628
S':'
asbag57
(g78
g59
NtRp2629
(dp2630
g62
(dp2631
sg71
g2616
sg64
(lp2632
g57
(g58
g59
NtRp2633
(dp2634
g62
(dp2635
g70
I5
ssg71
g2629
sg64
(lp2636
S''
asbasbasbag57
(g73
g59
NtRp2637
(dp2638
g62
(dp2639
sg71
g67
sg64
(lp2640
g57
(g78
g59
NtRp2641
(dp2642
g62
(dp2643
g82
g83
ssg71
g2637
sg64
(lp2644
S'url'
p2645
asbag57
(g78
g59
NtRp2646
(dp2647
g62
(dp2648
g89
g90
ssg71
g2637
sg64
(lp2649
S':'
asbag57
(g78
g59
NtRp2650
(dp2651
g62
(dp2652
sg71
g2637
sg64
(lp2653
g57
(g58
g59
NtRp2654
(dp2655
g62
(dp2656
g70
I5
ssg71
g2650
sg64
(lp2657
S'/grammateus3/docs/text'
p2658
asbasbasbag57
(g73
g59
NtRp2659
(dp2660
g62
(dp2661
sg71
g67
sg64
(lp2662
g57
(g78
g59
NtRp2663
(dp2664
g62
(dp2665
g82
g83
ssg71
g2659
sg64
(lp2666
S'utcnow'
p2667
asbag57
(g78
g59
NtRp2668
(dp2669
g62
(dp2670
g89
g90
ssg71
g2659
sg64
(lp2671
S':'
asbag57
(g78
g59
NtRp2672
(dp2673
g62
(dp2674
sg71
g2659
sg64
(lp2675
g57
(g58
g59
NtRp2676
(dp2677
g62
(dp2678
g70
I5
ssg71
g2672
sg64
(lp2679
S'datetime.datetime(2012, 3, 6, 13, 19, 40, 876632)'
p2680
asbasbasbag57
(g73
g59
NtRp2681
(dp2682
g62
(dp2683
sg71
g67
sg64
(lp2684
g57
(g78
g59
NtRp2685
(dp2686
g62
(dp2687
g82
g83
ssg71
g2681
sg64
(lp2688
S'uuid'
p2689
asbag57
(g78
g59
NtRp2690
(dp2691
g62
(dp2692
g89
g90
ssg71
g2681
sg64
(lp2693
S':'
asbag57
(g78
g59
NtRp2694
(dp2695
g62
(dp2696
sg71
g2681
sg64
(lp2697
g57
(g58
g59
NtRp2698
(dp2699
g62
(dp2700
g70
I5
ssg71
g2694
sg64
(lp2701
S'grammateus3/127.0.0.1.2012-03-06.08-19-40.87ab0f84-dabb-402d-8828-fea89c408c5e'
p2702
asbasbasbag57
(g73
g59
NtRp2703
(dp2704
g62
(dp2705
sg71
g67
sg64
(lp2706
g57
(g78
g59
NtRp2707
(dp2708
g62
(dp2709
g82
g83
ssg71
g2703
sg64
(lp2710
S'vars'
p2711
asbag57
(g78
g59
NtRp2712
(dp2713
g62
(dp2714
g89
g90
ssg71
g2703
sg64
(lp2715
S':'
asbag57
(g78
g59
NtRp2716
(dp2717
g62
(dp2718
sg71
g2703
sg64
(lp2719
g57
(g58
g59
NtRp2720
(dp2721
g62
(dp2722
g70
I5
ssg71
g2716
sg64
(lp2723
g57
(g66
g59
NtRp2724
(dp2725
g62
(dp2726
g70
I4
ssg71
Nsg64
(lp2727
sbasbasbasbag57
(g73
g59
NtRp2728
(dp2729
g62
(dp2730
sg71
g67
sg64
(lp2731
g57
(g78
g59
NtRp2732
(dp2733
g62
(dp2734
g82
g83
ssg71
g2728
sg64
(lp2735
S'wsgi'
p2736
asbag57
(g78
g59
NtRp2737
(dp2738
g62
(dp2739
g89
g90
ssg71
g2728
sg64
(lp2740
S':'
asbag57
(g78
g59
NtRp2741
(dp2742
g62
(dp2743
sg71
g2728
sg64
(lp2744
g57
(g58
g59
NtRp2745
(dp2746
g62
(dp2747
g70
I5
ssg71
g2741
sg64
(lp2748
g57
(g66
g59
NtRp2749
(dp2750
g62
(dp2751
g70
I4
ssg71
Nsg64
(lp2752
g57
(g73
g59
NtRp2753
(dp2754
g62
(dp2755
sg71
g2749
sg64
(lp2756
g57
(g78
g59
NtRp2757
(dp2758
g62
(dp2759
g82
g83
ssg71
g2753
sg64
(lp2760
S'environ'
p2761
asbag57
(g78
g59
NtRp2762
(dp2763
g62
(dp2764
g89
g90
ssg71
g2753
sg64
(lp2765
S':'
asbag57
(g78
g59
NtRp2766
(dp2767
g62
(dp2768
sg71
g2753
sg64
(lp2769
g57
(g58
g59
NtRp2770
(dp2771
g62
(dp2772
g70
I4
ssg71
g2766
sg64
(lp2773
g57
(g66
g59
NtRp2774
(dp2775
g62
(dp2776
g70
I3
ssg71
Nsg64
(lp2777
g57
(g73
g59
NtRp2778
(dp2779
g62
(dp2780
sg71
g2774
sg64
(lp2781
g57
(g78
g59
NtRp2782
(dp2783
g62
(dp2784
g82
g83
ssg71
g2778
sg64
(lp2785
S'HTTP_ACCEPT'
p2786
asbag57
(g78
g59
NtRp2787
(dp2788
g62
(dp2789
g89
g90
ssg71
g2778
sg64
(lp2790
S':'
asbag57
(g78
g59
NtRp2791
(dp2792
g62
(dp2793
sg71
g2778
sg64
(lp2794
g57
(g58
g59
NtRp2795
(dp2796
g62
(dp2797
g70
I3
ssg71
g2791
sg64
(lp2798
g1373
asbasbasbag57
(g73
g59
NtRp2799
(dp2800
g62
(dp2801
sg71
g2774
sg64
(lp2802
g57
(g78
g59
NtRp2803
(dp2804
g62
(dp2805
g82
g83
ssg71
g2799
sg64
(lp2806
S'HTTP_ACCEPT_ENCODING'
p2807
asbag57
(g78
g59
NtRp2808
(dp2809
g62
(dp2810
g89
g90
ssg71
g2799
sg64
(lp2811
S':'
asbag57
(g78
g59
NtRp2812
(dp2813
g62
(dp2814
sg71
g2799
sg64
(lp2815
g57
(g58
g59
NtRp2816
(dp2817
g62
(dp2818
g70
I3
ssg71
g2812
sg64
(lp2819
g1395
asbasbasbag57
(g73
g59
NtRp2820
(dp2821
g62
(dp2822
sg71
g2774
sg64
(lp2823
g57
(g78
g59
NtRp2824
(dp2825
g62
(dp2826
g82
g83
ssg71
g2820
sg64
(lp2827
S'HTTP_ACCEPT_LANGUAGE'
p2828
asbag57
(g78
g59
NtRp2829
(dp2830
g62
(dp2831
g89
g90
ssg71
g2820
sg64
(lp2832
S':'
asbag57
(g78
g59
NtRp2833
(dp2834
g62
(dp2835
sg71
g2820
sg64
(lp2836
g57
(g58
g59
NtRp2837
(dp2838
g62
(dp2839
g70
I3
ssg71
g2833
sg64
(lp2840
g1417
asbasbasbag57
(g73
g59
NtRp2841
(dp2842
g62
(dp2843
sg71
g2774
sg64
(lp2844
g57
(g78
g59
NtRp2845
(dp2846
g62
(dp2847
g82
g83
ssg71
g2841
sg64
(lp2848
S'HTTP_CONNECTION'
p2849
asbag57
(g78
g59
NtRp2850
(dp2851
g62
(dp2852
g89
g90
ssg71
g2841
sg64
(lp2853
S':'
asbag57
(g78
g59
NtRp2854
(dp2855
g62
(dp2856
sg71
g2841
sg64
(lp2857
g57
(g58
g59
NtRp2858
(dp2859
g62
(dp2860
g70
I3
ssg71
g2854
sg64
(lp2861
g1439
asbasbasbag57
(g73
g59
NtRp2862
(dp2863
g62
(dp2864
sg71
g2774
sg64
(lp2865
g57
(g78
g59
NtRp2866
(dp2867
g62
(dp2868
g82
g83
ssg71
g2862
sg64
(lp2869
S'HTTP_COOKIE'
p2870
asbag57
(g78
g59
NtRp2871
(dp2872
g62
(dp2873
g89
g90
ssg71
g2862
sg64
(lp2874
S':'
asbag57
(g78
g59
NtRp2875
(dp2876
g62
(dp2877
sg71
g2862
sg64
(lp2878
g57
(g58
g59
NtRp2879
(dp2880
g62
(dp2881
g70
I3
ssg71
g2875
sg64
(lp2882
g1461
asbasbasbag57
(g73
g59
NtRp2883
(dp2884
g62
(dp2885
sg71
g2774
sg64
(lp2886
g57
(g78
g59
NtRp2887
(dp2888
g62
(dp2889
g82
g83
ssg71
g2883
sg64
(lp2890
S'HTTP_HOST'
p2891
asbag57
(g78
g59
NtRp2892
(dp2893
g62
(dp2894
g89
g90
ssg71
g2883
sg64
(lp2895
S':'
asbag57
(g78
g59
NtRp2896
(dp2897
g62
(dp2898
sg71
g2883
sg64
(lp2899
g57
(g58
g59
NtRp2900
(dp2901
g62
(dp2902
g70
I3
ssg71
g2896
sg64
(lp2903
g1483
asbasbasbag57
(g73
g59
NtRp2904
(dp2905
g62
(dp2906
sg71
g2774
sg64
(lp2907
g57
(g78
g59
NtRp2908
(dp2909
g62
(dp2910
g82
g83
ssg71
g2904
sg64
(lp2911
S'HTTP_USER_AGENT'
p2912
asbag57
(g78
g59
NtRp2913
(dp2914
g62
(dp2915
g89
g90
ssg71
g2904
sg64
(lp2916
S':'
asbag57
(g78
g59
NtRp2917
(dp2918
g62
(dp2919
sg71
g2904
sg64
(lp2920
g57
(g58
g59
NtRp2921
(dp2922
g62
(dp2923
g70
I3
ssg71
g2917
sg64
(lp2924
g1505
asbasbasbag57
(g73
g59
NtRp2925
(dp2926
g62
(dp2927
sg71
g2774
sg64
(lp2928
g57
(g78
g59
NtRp2929
(dp2930
g62
(dp2931
g82
g83
ssg71
g2925
sg64
(lp2932
S'PATH_INFO'
p2933
asbag57
(g78
g59
NtRp2934
(dp2935
g62
(dp2936
g89
g90
ssg71
g2925
sg64
(lp2937
S':'
asbag57
(g78
g59
NtRp2938
(dp2939
g62
(dp2940
sg71
g2925
sg64
(lp2941
g57
(g58
g59
NtRp2942
(dp2943
g62
(dp2944
g70
I3
ssg71
g2938
sg64
(lp2945
g1569
asbasbasbag57
(g73
g59
NtRp2946
(dp2947
g62
(dp2948
sg71
g2774
sg64
(lp2949
g57
(g78
g59
NtRp2950
(dp2951
g62
(dp2952
g82
g83
ssg71
g2946
sg64
(lp2953
S'QUERY_STRING'
p2954
asbag57
(g78
g59
NtRp2955
(dp2956
g62
(dp2957
g89
g90
ssg71
g2946
sg64
(lp2958
S':'
asbag57
(g78
g59
NtRp2959
(dp2960
g62
(dp2961
sg71
g2946
sg64
(lp2962
g57
(g58
g59
NtRp2963
(dp2964
g62
(dp2965
g70
I3
ssg71
g2959
sg64
(lp2966
S''
asbasbasbag57
(g73
g59
NtRp2967
(dp2968
g62
(dp2969
sg71
g2774
sg64
(lp2970
g57
(g78
g59
NtRp2971
(dp2972
g62
(dp2973
g82
g83
ssg71
g2967
sg64
(lp2974
S'REMOTE_ADDR'
p2975
asbag57
(g78
g59
NtRp2976
(dp2977
g62
(dp2978
g89
g90
ssg71
g2967
sg64
(lp2979
S':'
asbag57
(g78
g59
NtRp2980
(dp2981
g62
(dp2982
sg71
g2967
sg64
(lp2983
g57
(g58
g59
NtRp2984
(dp2985
g62
(dp2986
g70
I3
ssg71
g2980
sg64
(lp2987
g190
asbasbasbag57
(g73
g59
NtRp2988
(dp2989
g62
(dp2990
sg71
g2774
sg64
(lp2991
g57
(g78
g59
NtRp2992
(dp2993
g62
(dp2994
g82
g83
ssg71
g2988
sg64
(lp2995
S'REMOTE_PORT'
p2996
asbag57
(g78
g59
NtRp2997
(dp2998
g62
(dp2999
g89
g90
ssg71
g2988
sg64
(lp3000
S':'
asbag57
(g78
g59
NtRp3001
(dp3002
g62
(dp3003
sg71
g2988
sg64
(lp3004
g57
(g58
g59
NtRp3005
(dp3006
g62
(dp3007
g70
I3
ssg71
g3001
sg64
(lp3008
g1633
asbasbasbag57
(g73
g59
NtRp3009
(dp3010
g62
(dp3011
sg71
g2774
sg64
(lp3012
g57
(g78
g59
NtRp3013
(dp3014
g62
(dp3015
g82
g83
ssg71
g3009
sg64
(lp3016
S'REQUEST_METHOD'
p3017
asbag57
(g78
g59
NtRp3018
(dp3019
g62
(dp3020
g89
g90
ssg71
g3009
sg64
(lp3021
S':'
asbag57
(g78
g59
NtRp3022
(dp3023
g62
(dp3024
sg71
g3009
sg64
(lp3025
g57
(g58
g59
NtRp3026
(dp3027
g62
(dp3028
g70
I3
ssg71
g3022
sg64
(lp3029
g1655
asbasbasbag57
(g73
g59
NtRp3030
(dp3031
g62
(dp3032
sg71
g2774
sg64
(lp3033
g57
(g78
g59
NtRp3034
(dp3035
g62
(dp3036
g82
g83
ssg71
g3030
sg64
(lp3037
S'SCRIPT_NAME'
p3038
asbag57
(g78
g59
NtRp3039
(dp3040
g62
(dp3041
g89
g90
ssg71
g3030
sg64
(lp3042
S':'
asbag57
(g78
g59
NtRp3043
(dp3044
g62
(dp3045
sg71
g3030
sg64
(lp3046
g57
(g58
g59
NtRp3047
(dp3048
g62
(dp3049
g70
I3
ssg71
g3043
sg64
(lp3050
S''
asbasbasbag57
(g73
g59
NtRp3051
(dp3052
g62
(dp3053
sg71
g2774
sg64
(lp3054
g57
(g78
g59
NtRp3055
(dp3056
g62
(dp3057
g82
g83
ssg71
g3051
sg64
(lp3058
S'SERVER_NAME'
p3059
asbag57
(g78
g59
NtRp3060
(dp3061
g62
(dp3062
g89
g90
ssg71
g3051
sg64
(lp3063
S':'
asbag57
(g78
g59
NtRp3064
(dp3065
g62
(dp3066
sg71
g3051
sg64
(lp3067
g57
(g58
g59
NtRp3068
(dp3069
g62
(dp3070
g70
I3
ssg71
g3064
sg64
(lp3071
g1698
asbasbasbag57
(g73
g59
NtRp3072
(dp3073
g62
(dp3074
sg71
g2774
sg64
(lp3075
g57
(g78
g59
NtRp3076
(dp3077
g62
(dp3078
g82
g83
ssg71
g3072
sg64
(lp3079
S'SERVER_PORT'
p3080
asbag57
(g78
g59
NtRp3081
(dp3082
g62
(dp3083
g89
g90
ssg71
g3072
sg64
(lp3084
S':'
asbag57
(g78
g59
NtRp3085
(dp3086
g62
(dp3087
sg71
g3072
sg64
(lp3088
g57
(g58
g59
NtRp3089
(dp3090
g62
(dp3091
g70
I3
ssg71
g3085
sg64
(lp3092
g1720
asbasbasbag57
(g73
g59
NtRp3093
(dp3094
g62
(dp3095
sg71
g2774
sg64
(lp3096
g57
(g78
g59
NtRp3097
(dp3098
g62
(dp3099
g82
g83
ssg71
g3093
sg64
(lp3100
S'SERVER_PROTOCOL'
p3101
asbag57
(g78
g59
NtRp3102
(dp3103
g62
(dp3104
g89
g90
ssg71
g3093
sg64
(lp3105
S':'
asbag57
(g78
g59
NtRp3106
(dp3107
g62
(dp3108
sg71
g3093
sg64
(lp3109
g57
(g58
g59
NtRp3110
(dp3111
g62
(dp3112
g70
I3
ssg71
g3106
sg64
(lp3113
g1742
asbasbasbag57
(g73
g59
NtRp3114
(dp3115
g62
(dp3116
sg71
g2774
sg64
(lp3117
g57
(g78
g59
NtRp3118
(dp3119
g62
(dp3120
g82
g83
ssg71
g3114
sg64
(lp3121
S'SERVER_SOFTWARE'
p3122
asbag57
(g78
g59
NtRp3123
(dp3124
g62
(dp3125
g89
g90
ssg71
g3114
sg64
(lp3126
S':'
asbag57
(g78
g59
NtRp3127
(dp3128
g62
(dp3129
sg71
g3114
sg64
(lp3130
g57
(g58
g59
NtRp3131
(dp3132
g62
(dp3133
g70
I3
ssg71
g3127
sg64
(lp3134
g1764
asbasbasbag57
(g73
g59
NtRp3135
(dp3136
g62
(dp3137
sg71
g2774
sg64
(lp3138
g57
(g78
g59
NtRp3139
(dp3140
g62
(dp3141
g82
g83
ssg71
g3135
sg64
(lp3142
S'wsgi.errors'
p3143
asbag57
(g78
g59
NtRp3144
(dp3145
g62
(dp3146
g89
g90
ssg71
g3135
sg64
(lp3147
S':'
asbag57
(g78
g59
NtRp3148
(dp3149
g62
(dp3150
sg71
g3135
sg64
(lp3151
g57
(g58
g59
NtRp3152
(dp3153
g62
(dp3154
g70
I3
ssg71
g3148
sg64
(lp3155
S"<open file '<stderr>', mode 'w' at 0xb777d0d0>"
p3156
asbasbasbag57
(g73
g59
NtRp3157
(dp3158
g62
(dp3159
sg71
g2774
sg64
(lp3160
g57
(g78
g59
NtRp3161
(dp3162
g62
(dp3163
g82
g83
ssg71
g3157
sg64
(lp3164
S'wsgi.file_wrapper'
p3165
asbag57
(g78
g59
NtRp3166
(dp3167
g62
(dp3168
g89
g90
ssg71
g3157
sg64
(lp3169
S':'
asbag57
(g78
g59
NtRp3170
(dp3171
g62
(dp3172
sg71
g3157
sg64
(lp3173
g57
(g58
g59
NtRp3174
(dp3175
g62
(dp3176
g70
I3
ssg71
g3170
sg64
(lp3177
S'<class wsgiref.util.FileWrapper at 0xa52e20c>'
p3178
asbasbasbag57
(g73
g59
NtRp3179
(dp3180
g62
(dp3181
sg71
g2774
sg64
(lp3182
g57
(g78
g59
NtRp3183
(dp3184
g62
(dp3185
g82
g83
ssg71
g3179
sg64
(lp3186
S'wsgi.input'
p3187
asbag57
(g78
g59
NtRp3188
(dp3189
g62
(dp3190
g89
g90
ssg71
g3179
sg64
(lp3191
S':'
asbag57
(g78
g59
NtRp3192
(dp3193
g62
(dp3194
sg71
g3179
sg64
(lp3195
g57
(g58
g59
NtRp3196
(dp3197
g62
(dp3198
g70
I3
ssg71
g3192
sg64
(lp3199
S'<cStringIO.StringO object at 0xb175820>'
p3200
asbasbasbag57
(g73
g59
NtRp3201
(dp3202
g62
(dp3203
sg71
g2774
sg64
(lp3204
g57
(g78
g59
NtRp3205
(dp3206
g62
(dp3207
g82
g83
ssg71
g3201
sg64
(lp3208
S'wsgi.multiprocess'
p3209
asbag57
(g78
g59
NtRp3210
(dp3211
g62
(dp3212
g89
g90
ssg71
g3201
sg64
(lp3213
S':'
asbag57
(g78
g59
NtRp3214
(dp3215
g62
(dp3216
sg71
g3201
sg64
(lp3217
g57
(g58
g59
NtRp3218
(dp3219
g62
(dp3220
g70
I3
ssg71
g3214
sg64
(lp3221
g100
asbasbasbag57
(g73
g59
NtRp3222
(dp3223
g62
(dp3224
sg71
g2774
sg64
(lp3225
g57
(g78
g59
NtRp3226
(dp3227
g62
(dp3228
g82
g83
ssg71
g3222
sg64
(lp3229
S'wsgi.multithread'
p3230
asbag57
(g78
g59
NtRp3231
(dp3232
g62
(dp3233
g89
g90
ssg71
g3222
sg64
(lp3234
S':'
asbag57
(g78
g59
NtRp3235
(dp3236
g62
(dp3237
sg71
g3222
sg64
(lp3238
g57
(g58
g59
NtRp3239
(dp3240
g62
(dp3241
g70
I3
ssg71
g3235
sg64
(lp3242
g2004
asbasbasbag57
(g73
g59
NtRp3243
(dp3244
g62
(dp3245
sg71
g2774
sg64
(lp3246
g57
(g78
g59
NtRp3247
(dp3248
g62
(dp3249
g82
g83
ssg71
g3243
sg64
(lp3250
S'wsgi.run_once'
p3251
asbag57
(g78
g59
NtRp3252
(dp3253
g62
(dp3254
g89
g90
ssg71
g3243
sg64
(lp3255
S':'
asbag57
(g78
g59
NtRp3256
(dp3257
g62
(dp3258
sg71
g3243
sg64
(lp3259
g57
(g58
g59
NtRp3260
(dp3261
g62
(dp3262
g70
I3
ssg71
g3256
sg64
(lp3263
g100
asbasbasbag57
(g73
g59
NtRp3264
(dp3265
g62
(dp3266
sg71
g2774
sg64
(lp3267
g57
(g78
g59
NtRp3268
(dp3269
g62
(dp3270
g82
g83
ssg71
g3264
sg64
(lp3271
S'wsgi.url_scheme'
p3272
asbag57
(g78
g59
NtRp3273
(dp3274
g62
(dp3275
g89
g90
ssg71
g3264
sg64
(lp3276
S':'
asbag57
(g78
g59
NtRp3277
(dp3278
g62
(dp3279
sg71
g3264
sg64
(lp3280
g57
(g58
g59
NtRp3281
(dp3282
g62
(dp3283
g70
I3
ssg71
g3277
sg64
(lp3284
g2047
asbasbasbag57
(g73
g59
NtRp3285
(dp3286
g62
(dp3287
sg71
g2774
sg64
(lp3288
g57
(g78
g59
NtRp3289
(dp3290
g62
(dp3291
g82
g83
ssg71
g3285
sg64
(lp3292
S'wsgi.version'
p3293
asbag57
(g78
g59
NtRp3294
(dp3295
g62
(dp3296
g89
g90
ssg71
g3285
sg64
(lp3297
S':'
asbag57
(g78
g59
NtRp3298
(dp3299
g62
(dp3300
sg71
g3285
sg64
(lp3301
g57
(g58
g59
NtRp3302
(dp3303
g62
(dp3304
g70
I3
ssg71
g3298
sg64
(lp3305
S'1'
asbasbasbasbasbasbasbasbasbasbasbasbasbsS'frames'
p3306
(lp3307
(dp3308
S'file'
p3309
S'/home/iscott/web/web2py/gluon/restricted.py'
p3310
sS'dump'
p3311
(dp3312
S'environment'
p3313
S"{'A': <class 'gluon.html.A'>, 'Auth': <class 'gluon.tools.Auth'>, 'B': <class 'gluon.html.B'>, 'BEAUTIFY': <class 'gluon.html.BEAUTIFY'>, 'BODY': <class 'gluon.html.BODY'>, 'BR': <class 'gluon.html.BR'>, 'BUTTON': <class 'gluon.html.BUTTON'>, 'BookParser': <class 'applications.grammateus3.modules.parse.BookParser'>, 'CAT': <class 'gluon.html.CAT'>, 'CENTER': <class 'gluon.html.CENTER'>, ...}"
p3314
sS'ccode'
p3315
S'<code object <module> at 0xba36770, file "/home/...cations/grammateus3/controllers/docs.py", line 2>'
p3316
ssS'lnum'
p3317
I204
sS'lines'
p3318
(dp3319
I199
S'    try:'
p3320
sI200
S'        if type(code) == types.CodeType:'
p3321
sI201
S'            ccode = code'
p3322
sI202
S'        else:'
p3323
sI203
S'            ccode = compile2(code,layer)'
p3324
sI204
S'        exec ccode in environment'
p3325
sI205
S'    except HTTP:'
p3326
sI206
S'        raise'
p3327
sI207
S'    except RestrictedError:'
p3328
sI208
S'        # do not encapsulate (obfuscate) the original RestrictedError'
p3329
ssS'call'
p3330
S"(code='# coding: utf8\\nfrom lxml import etree\\n\\nfrom pars...o = info)\\n\\nresponse._vars=response._caller(text)\\n', environment={'A': <class 'gluon.html.A'>, 'Auth': <class 'gluon.tools.Auth'>, 'B': <class 'gluon.html.B'>, 'BEAUTIFY': <class 'gluon.html.BEAUTIFY'>, 'BODY': <class 'gluon.html.BODY'>, 'BR': <class 'gluon.html.BR'>, 'BUTTON': <class 'gluon.html.BUTTON'>, 'BookParser': <class 'applications.grammateus3.modules.parse.BookParser'>, 'CAT': <class 'gluon.html.CAT'>, 'CENTER': <class 'gluon.html.CENTER'>, ...}, layer='/home/iscott/web/web2py/applications/grammateus3/controllers/docs.py')"
p3331
sS'func'
p3332
S'restricted'
p3333
sa(dp3334
g3309
S'/home/iscott/web/web2py/applications/grammateus3/controllers/docs.py'
p3335
sg3311
(dp3336
sg3317
I47
sg3318
(dp3337
I36
S"                print 'Version textstructure'"
p3338
sI37
S'                for ref, ref_val in value.items():'
p3339
sI38
S'                    for unit, unit_val in ref_val.items():'
p3340
sI39
S'                        for mss, mss_val in unit_val.items():'
p3341
sI40
S"                            print '\\t', ref, '-->', unit, '-->', mss, '-->', mss_val"
p3342
sI41
S"        print '************'"
p3343
sI42
S'    print'
p3344
sI43
S'    print'
p3345
sI44
S''
sI45
S'    return dict(title = title, info = info)'
p3346
ssg3330
S'()'
p3347
sg3332
S'<module>'
p3348
sa(dp3349
g3309
S'/home/iscott/web/web2py/gluon/globals.py'
p3350
sg3311
(dp3351
S'self'
p3352
S'undefined'
p3353
sS'f'
S'<function text>'
p3354
ssg3317
I172
sg3318
(dp3355
I167
S'        self.meta = Storage()      # used by web2py_ajax.html'
p3356
sI168
S'        self.menu = []             # used by the default view layout'
p3357
sI169
S'        self.files = []            # used by web2py_ajax.html'
p3358
sI170
S'        self.generic_patterns = [] # patterns to allow generic views'
p3359
sI171
S'        self._vars = None'
p3360
sI172
S'        self._caller = lambda f: f()'
p3361
sI173
S'        self._view_environment = None'
p3362
sI174
S'        self._custom_commit = None'
p3363
sI175
S'        self._custom_rollback = None'
p3364
sI176
S''
ssg3330
S'(f=<function text>)'
p3365
sg3332
S'<lambda>'
p3366
sa(dp3367
g3309
S'/home/iscott/web/web2py/applications/grammateus3/controllers/docs.py'
p3368
sg3311
(dp3369
S'global request'
p3370
S"<Storage {'body': <cStringIO.StringO object at 0..._vars': <Storage {}>, 'post_vars': <Storage {}>}>"
p3371
sS'request.args'
p3372
S'[]'
p3373
sS'filename'
p3374
g3353
ssg3317
I11
sg3318
(dp3375
I6
S'def index():'
p3376
sI7
S'    filename = request.args[0]'
p3377
sI8
S'    return dict(filename = filename)'
p3378
sI9
S''
sI10
S'def text():'
p3379
sI11
S'    filename = request.args[0]'
p3380
sI12
S"    book_file = 'applications/grammateus3/static/docs/%s.xml' % filename"
p3381
sI13
S'    p = BookParser(book_file)'
p3382
sI14
S'    info = p.book_info()'
p3383
sI15
S''
ssg3330
S'()'
p3384
sg3332
S'text'
p3385
sasS'pyver'
p3386
S'Python 2.7.2+: /usr/bin/python2.7'
p3387
sS'session'
p3388
g57
(g58
g59
NtRp3389
(dp3390
g62
(dp3391
sg64
(lp3392
g57
(g66
g59
NtRp3393
(dp3394
g62
(dp3395
g70
I5
ssg71
Nsg64
(lp3396
sbasbsS'etype'
p3397
S"<type 'exceptions.IndexError'>"
p3398
sS'date'
p3399
S'Tue Mar  6 08:19:41 2012'
p3400
sS'response'
p3401
g57
(g58
g59
NtRp3402
(dp3403
g62
(dp3404
sg64
(lp3405
g57
(g66
g59
NtRp3406
(dp3407
g62
(dp3408
g70
I5
ssg71
Nsg64
(lp3409
g57
(g73
g59
NtRp3410
(dp3411
g62
(dp3412
sg71
g3406
sg64
(lp3413
g57
(g78
g59
NtRp3414
(dp3415
g62
(dp3416
g82
g83
ssg71
g3410
sg64
(lp3417
g155
asbag57
(g78
g59
NtRp3418
(dp3419
g62
(dp3420
g89
g90
ssg71
g3410
sg64
(lp3421
S':'
asbag57
(g78
g59
NtRp3422
(dp3423
g62
(dp3424
sg71
g3410
sg64
(lp3425
g57
(g58
g59
NtRp3426
(dp3427
g62
(dp3428
g70
I5
ssg71
g3422
sg64
(lp3429
S'<cStringIO.StringO object at 0xaef6640>'
p3430
asbasbasbag57
(g73
g59
NtRp3431
(dp3432
g62
(dp3433
sg71
g3406
sg64
(lp3434
g57
(g78
g59
NtRp3435
(dp3436
g62
(dp3437
g82
g83
ssg71
g3431
sg64
(lp3438
g221
asbag57
(g78
g59
NtRp3439
(dp3440
g62
(dp3441
g89
g90
ssg71
g3431
sg64
(lp3442
S':'
asbag57
(g78
g59
NtRp3443
(dp3444
g62
(dp3445
sg71
g3431
sg64
(lp3446
g57
(g58
g59
NtRp3447
(dp3448
g62
(dp3449
g70
I5
ssg71
g3443
sg64
(lp3450
g57
(g66
g59
NtRp3451
(dp3452
g62
(dp3453
g70
I4
ssg71
Nsg64
(lp3454
g57
(g73
g59
NtRp3455
(dp3456
g62
(dp3457
sg71
g3451
sg64
(lp3458
g57
(g78
g59
NtRp3459
(dp3460
g62
(dp3461
g82
g83
ssg71
g3455
sg64
(lp3462
S'session_id_grammateus3'
p3463
asbag57
(g78
g59
NtRp3464
(dp3465
g62
(dp3466
g89
g90
ssg71
g3455
sg64
(lp3467
S':'
asbag57
(g78
g59
NtRp3468
(dp3469
g62
(dp3470
sg71
g3455
sg64
(lp3471
g57
(g58
g59
NtRp3472
(dp3473
g62
(dp3474
g70
I4
ssg71
g3468
sg64
(lp3475
g57
(g66
g59
NtRp3476
(dp3477
g62
(dp3478
g70
I3
ssg71
Nsg64
(lp3479
g57
(g73
g59
NtRp3480
(dp3481
g62
(dp3482
sg71
g3476
sg64
(lp3483
g57
(g78
g59
NtRp3484
(dp3485
g62
(dp3486
g82
g83
ssg71
g3480
sg64
(lp3487
g271
asbag57
(g78
g59
NtRp3488
(dp3489
g62
(dp3490
g89
g90
ssg71
g3480
sg64
(lp3491
S':'
asbag57
(g78
g59
NtRp3492
(dp3493
g62
(dp3494
sg71
g3480
sg64
(lp3495
g57
(g58
g59
NtRp3496
(dp3497
g62
(dp3498
g70
I3
ssg71
g3492
sg64
(lp3499
S''
asbasbasbag57
(g73
g59
NtRp3500
(dp3501
g62
(dp3502
sg71
g3476
sg64
(lp3503
g57
(g78
g59
NtRp3504
(dp3505
g62
(dp3506
g82
g83
ssg71
g3500
sg64
(lp3507
g292
asbag57
(g78
g59
NtRp3508
(dp3509
g62
(dp3510
g89
g90
ssg71
g3500
sg64
(lp3511
S':'
asbag57
(g78
g59
NtRp3512
(dp3513
g62
(dp3514
sg71
g3500
sg64
(lp3515
g57
(g58
g59
NtRp3516
(dp3517
g62
(dp3518
g70
I3
ssg71
g3512
sg64
(lp3519
S''
asbasbasbag57
(g73
g59
NtRp3520
(dp3521
g62
(dp3522
sg71
g3476
sg64
(lp3523
g57
(g78
g59
NtRp3524
(dp3525
g62
(dp3526
g82
g83
ssg71
g3520
sg64
(lp3527
g313
asbag57
(g78
g59
NtRp3528
(dp3529
g62
(dp3530
g89
g90
ssg71
g3520
sg64
(lp3531
S':'
asbag57
(g78
g59
NtRp3532
(dp3533
g62
(dp3534
sg71
g3520
sg64
(lp3535
g57
(g58
g59
NtRp3536
(dp3537
g62
(dp3538
g70
I3
ssg71
g3532
sg64
(lp3539
S''
asbasbasbag57
(g73
g59
NtRp3540
(dp3541
g62
(dp3542
sg71
g3476
sg64
(lp3543
g57
(g78
g59
NtRp3544
(dp3545
g62
(dp3546
g82
g83
ssg71
g3540
sg64
(lp3547
g334
asbag57
(g78
g59
NtRp3548
(dp3549
g62
(dp3550
g89
g90
ssg71
g3540
sg64
(lp3551
S':'
asbag57
(g78
g59
NtRp3552
(dp3553
g62
(dp3554
sg71
g3540
sg64
(lp3555
g57
(g58
g59
NtRp3556
(dp3557
g62
(dp3558
g70
I3
ssg71
g3552
sg64
(lp3559
S''
asbasbasbag57
(g73
g59
NtRp3560
(dp3561
g62
(dp3562
sg71
g3476
sg64
(lp3563
g57
(g78
g59
NtRp3564
(dp3565
g62
(dp3566
g82
g83
ssg71
g3560
sg64
(lp3567
g355
asbag57
(g78
g59
NtRp3568
(dp3569
g62
(dp3570
g89
g90
ssg71
g3560
sg64
(lp3571
S':'
asbag57
(g78
g59
NtRp3572
(dp3573
g62
(dp3574
sg71
g3560
sg64
(lp3575
g57
(g58
g59
NtRp3576
(dp3577
g62
(dp3578
g70
I3
ssg71
g3572
sg64
(lp3579
S''
asbasbasbag57
(g73
g59
NtRp3580
(dp3581
g62
(dp3582
sg71
g3476
sg64
(lp3583
g57
(g78
g59
NtRp3584
(dp3585
g62
(dp3586
g82
g83
ssg71
g3580
sg64
(lp3587
g376
asbag57
(g78
g59
NtRp3588
(dp3589
g62
(dp3590
g89
g90
ssg71
g3580
sg64
(lp3591
S':'
asbag57
(g78
g59
NtRp3592
(dp3593
g62
(dp3594
sg71
g3580
sg64
(lp3595
g57
(g58
g59
NtRp3596
(dp3597
g62
(dp3598
g70
I3
ssg71
g3592
sg64
(lp3599
S'/'
asbasbasbag57
(g73
g59
NtRp3600
(dp3601
g62
(dp3602
sg71
g3476
sg64
(lp3603
g57
(g78
g59
NtRp3604
(dp3605
g62
(dp3606
g82
g83
ssg71
g3600
sg64
(lp3607
g397
asbag57
(g78
g59
NtRp3608
(dp3609
g62
(dp3610
g89
g90
ssg71
g3600
sg64
(lp3611
S':'
asbag57
(g78
g59
NtRp3612
(dp3613
g62
(dp3614
sg71
g3600
sg64
(lp3615
g57
(g58
g59
NtRp3616
(dp3617
g62
(dp3618
g70
I3
ssg71
g3612
sg64
(lp3619
S''
asbasbasbag57
(g73
g59
NtRp3620
(dp3621
g62
(dp3622
sg71
g3476
sg64
(lp3623
g57
(g78
g59
NtRp3624
(dp3625
g62
(dp3626
g82
g83
ssg71
g3620
sg64
(lp3627
g418
asbag57
(g78
g59
NtRp3628
(dp3629
g62
(dp3630
g89
g90
ssg71
g3620
sg64
(lp3631
S':'
asbag57
(g78
g59
NtRp3632
(dp3633
g62
(dp3634
sg71
g3620
sg64
(lp3635
g57
(g58
g59
NtRp3636
(dp3637
g62
(dp3638
g70
I3
ssg71
g3632
sg64
(lp3639
S''
asbasbasbasbasbasbasbasbasbasbasbag57
(g73
g59
NtRp3640
(dp3641
g62
(dp3642
sg71
g3406
sg64
(lp3643
g57
(g78
g59
NtRp3644
(dp3645
g62
(dp3646
g82
g83
ssg71
g3640
sg64
(lp3647
S'files'
p3648
asbag57
(g78
g59
NtRp3649
(dp3650
g62
(dp3651
g89
g90
ssg71
g3640
sg64
(lp3652
S':'
asbag57
(g78
g59
NtRp3653
(dp3654
g62
(dp3655
sg71
g3640
sg64
(lp3656
g57
(g58
g59
NtRp3657
(dp3658
g62
(dp3659
g70
I5
ssg71
g3653
sg64
(lp3660
g57
(g66
g59
NtRp3661
(dp3662
g62
(dp3663
g70
I4
ssg71
Nsg64
(lp3664
sbasbasbasbag57
(g73
g59
NtRp3665
(dp3666
g62
(dp3667
sg71
g3406
sg64
(lp3668
g57
(g78
g59
NtRp3669
(dp3670
g62
(dp3671
g82
g83
ssg71
g3665
sg64
(lp3672
S'flash'
p3673
asbag57
(g78
g59
NtRp3674
(dp3675
g62
(dp3676
g89
g90
ssg71
g3665
sg64
(lp3677
S':'
asbag57
(g78
g59
NtRp3678
(dp3679
g62
(dp3680
sg71
g3665
sg64
(lp3681
g57
(g58
g59
NtRp3682
(dp3683
g62
(dp3684
g70
I5
ssg71
g3678
sg64
(lp3685
S''
asbasbasbag57
(g73
g59
NtRp3686
(dp3687
g62
(dp3688
sg71
g3406
sg64
(lp3689
g57
(g78
g59
NtRp3690
(dp3691
g62
(dp3692
g82
g83
ssg71
g3686
sg64
(lp3693
S'generic_patterns'
p3694
asbag57
(g78
g59
NtRp3695
(dp3696
g62
(dp3697
g89
g90
ssg71
g3686
sg64
(lp3698
S':'
asbag57
(g78
g59
NtRp3699
(dp3700
g62
(dp3701
sg71
g3686
sg64
(lp3702
g57
(g58
g59
NtRp3703
(dp3704
g62
(dp3705
g70
I5
ssg71
g3699
sg64
(lp3706
g57
(g66
g59
NtRp3707
(dp3708
g62
(dp3709
g70
I4
ssg71
Nsg64
(lp3710
g57
(g73
g59
NtRp3711
(dp3712
g62
(dp3713
sg71
g3707
sg64
(lp3714
g57
(g78
g59
NtRp3715
(dp3716
g62
(dp3717
sg71
g3711
sg64
(lp3718
g57
(g58
g59
NtRp3719
(dp3720
g62
(dp3721
g70
I4
ssg71
g3715
sg64
(lp3722
S'*'
asbasbasbasbasbasbasbag57
(g73
g59
NtRp3723
(dp3724
g62
(dp3725
sg71
g3406
sg64
(lp3726
g57
(g78
g59
NtRp3727
(dp3728
g62
(dp3729
g82
g83
ssg71
g3723
sg64
(lp3730
S'headers'
p3731
asbag57
(g78
g59
NtRp3732
(dp3733
g62
(dp3734
g89
g90
ssg71
g3723
sg64
(lp3735
S':'
asbag57
(g78
g59
NtRp3736
(dp3737
g62
(dp3738
sg71
g3723
sg64
(lp3739
g57
(g58
g59
NtRp3740
(dp3741
g62
(dp3742
g70
I5
ssg71
g3736
sg64
(lp3743
g57
(g66
g59
NtRp3744
(dp3745
g62
(dp3746
g70
I4
ssg71
Nsg64
(lp3747
g57
(g73
g59
NtRp3748
(dp3749
g62
(dp3750
sg71
g3744
sg64
(lp3751
g57
(g78
g59
NtRp3752
(dp3753
g62
(dp3754
g82
g83
ssg71
g3748
sg64
(lp3755
S'Cache-Control'
p3756
asbag57
(g78
g59
NtRp3757
(dp3758
g62
(dp3759
g89
g90
ssg71
g3748
sg64
(lp3760
S':'
asbag57
(g78
g59
NtRp3761
(dp3762
g62
(dp3763
sg71
g3748
sg64
(lp3764
g57
(g58
g59
NtRp3765
(dp3766
g62
(dp3767
g70
I4
ssg71
g3761
sg64
(lp3768
S'no-store, no-cache, must-revalidate, post-check=0, pre-check=0'
p3769
asbasbasbag57
(g73
g59
NtRp3770
(dp3771
g62
(dp3772
sg71
g3744
sg64
(lp3773
g57
(g78
g59
NtRp3774
(dp3775
g62
(dp3776
g82
g83
ssg71
g3770
sg64
(lp3777
S'Content-Type'
p3778
asbag57
(g78
g59
NtRp3779
(dp3780
g62
(dp3781
g89
g90
ssg71
g3770
sg64
(lp3782
S':'
asbag57
(g78
g59
NtRp3783
(dp3784
g62
(dp3785
sg71
g3770
sg64
(lp3786
g57
(g58
g59
NtRp3787
(dp3788
g62
(dp3789
g70
I4
ssg71
g3783
sg64
(lp3790
S'text/html; charset=utf-8'
p3791
asbasbasbag57
(g73
g59
NtRp3792
(dp3793
g62
(dp3794
sg71
g3744
sg64
(lp3795
g57
(g78
g59
NtRp3796
(dp3797
g62
(dp3798
g82
g83
ssg71
g3792
sg64
(lp3799
S'Expires'
p3800
asbag57
(g78
g59
NtRp3801
(dp3802
g62
(dp3803
g89
g90
ssg71
g3792
sg64
(lp3804
S':'
asbag57
(g78
g59
NtRp3805
(dp3806
g62
(dp3807
sg71
g3792
sg64
(lp3808
g57
(g58
g59
NtRp3809
(dp3810
g62
(dp3811
g70
I4
ssg71
g3805
sg64
(lp3812
S'Tue, 06 Mar 2012 13:19:40 GMT'
p3813
asbasbasbag57
(g73
g59
NtRp3814
(dp3815
g62
(dp3816
sg71
g3744
sg64
(lp3817
g57
(g78
g59
NtRp3818
(dp3819
g62
(dp3820
g82
g83
ssg71
g3814
sg64
(lp3821
S'Pragma'
p3822
asbag57
(g78
g59
NtRp3823
(dp3824
g62
(dp3825
g89
g90
ssg71
g3814
sg64
(lp3826
S':'
asbag57
(g78
g59
NtRp3827
(dp3828
g62
(dp3829
sg71
g3814
sg64
(lp3830
g57
(g58
g59
NtRp3831
(dp3832
g62
(dp3833
g70
I4
ssg71
g3827
sg64
(lp3834
S'no-cache'
p3835
asbasbasbag57
(g73
g59
NtRp3836
(dp3837
g62
(dp3838
sg71
g3744
sg64
(lp3839
g57
(g78
g59
NtRp3840
(dp3841
g62
(dp3842
g82
g83
ssg71
g3836
sg64
(lp3843
S'X-Powered-By'
p3844
asbag57
(g78
g59
NtRp3845
(dp3846
g62
(dp3847
g89
g90
ssg71
g3836
sg64
(lp3848
S':'
asbag57
(g78
g59
NtRp3849
(dp3850
g62
(dp3851
sg71
g3836
sg64
(lp3852
g57
(g58
g59
NtRp3853
(dp3854
g62
(dp3855
g70
I4
ssg71
g3849
sg64
(lp3856
S'web2py'
p3857
asbasbasbasbasbasbasbag57
(g73
g59
NtRp3858
(dp3859
g62
(dp3860
sg71
g3406
sg64
(lp3861
g57
(g78
g59
NtRp3862
(dp3863
g62
(dp3864
g82
g83
ssg71
g3858
sg64
(lp3865
S'menu'
p3866
asbag57
(g78
g59
NtRp3867
(dp3868
g62
(dp3869
g89
g90
ssg71
g3858
sg64
(lp3870
S':'
asbag57
(g78
g59
NtRp3871
(dp3872
g62
(dp3873
sg71
g3858
sg64
(lp3874
g57
(g58
g59
NtRp3875
(dp3876
g62
(dp3877
g70
I5
ssg71
g3871
sg64
(lp3878
g57
(g66
g59
NtRp3879
(dp3880
g62
(dp3881
g70
I4
ssg71
Nsg64
(lp3882
g57
(g73
g59
NtRp3883
(dp3884
g62
(dp3885
sg71
g3879
sg64
(lp3886
g57
(g78
g59
NtRp3887
(dp3888
g62
(dp3889
sg71
g3883
sg64
(lp3890
g57
(g58
g59
NtRp3891
(dp3892
g62
(dp3893
g70
I4
ssg71
g3887
sg64
(lp3894
g57
(g66
g59
NtRp3895
(dp3896
g62
(dp3897
g70
I3
ssg71
Nsg64
(lp3898
g57
(g73
g59
NtRp3899
(dp3900
g62
(dp3901
sg71
g3895
sg64
(lp3902
g57
(g78
g59
NtRp3903
(dp3904
g62
(dp3905
sg71
g3899
sg64
(lp3906
g57
(g58
g59
NtRp3907
(dp3908
g62
(dp3909
g70
I3
ssg71
g3903
sg64
(lp3910
cgluon.languages
lazyT_unpickle
p3911
(S't\x04\x00\x00\x00Home'
tRp3912
asbasbasbag57
(g73
g59
NtRp3913
(dp3914
g62
(dp3915
sg71
g3895
sg64
(lp3916
g57
(g78
g59
NtRp3917
(dp3918
g62
(dp3919
sg71
g3913
sg64
(lp3920
g57
(g58
g59
NtRp3921
(dp3922
g62
(dp3923
g70
I3
ssg71
g3917
sg64
(lp3924
g100
asbasbasbag57
(g73
g59
NtRp3925
(dp3926
g62
(dp3927
sg71
g3895
sg64
(lp3928
g57
(g78
g59
NtRp3929
(dp3930
g62
(dp3931
sg71
g3925
sg64
(lp3932
g57
(g58
g59
NtRp3933
(dp3934
g62
(dp3935
g70
I3
ssg71
g3929
sg64
(lp3936
S'/grammateus3/default/index'
p3937
asbasbasbag57
(g73
g59
NtRp3938
(dp3939
g62
(dp3940
sg71
g3895
sg64
(lp3941
g57
(g78
g59
NtRp3942
(dp3943
g62
(dp3944
sg71
g3938
sg64
(lp3945
g57
(g58
g59
NtRp3946
(dp3947
g62
(dp3948
g70
I3
ssg71
g3942
sg64
(lp3949
g57
(g66
g59
NtRp3950
(dp3951
g62
(dp3952
g70
I2
ssg71
Nsg64
(lp3953
sbasbasbasbasbasbasbasbag57
(g73
g59
NtRp3954
(dp3955
g62
(dp3956
sg71
g3879
sg64
(lp3957
g57
(g78
g59
NtRp3958
(dp3959
g62
(dp3960
sg71
g3954
sg64
(lp3961
g57
(g58
g59
NtRp3962
(dp3963
g62
(dp3964
g70
I4
ssg71
g3958
sg64
(lp3965
g57
(g66
g59
NtRp3966
(dp3967
g62
(dp3968
g70
I3
ssg71
Nsg64
(lp3969
g57
(g73
g59
NtRp3970
(dp3971
g62
(dp3972
sg71
g3966
sg64
(lp3973
g57
(g78
g59
NtRp3974
(dp3975
g62
(dp3976
sg71
g3970
sg64
(lp3977
g57
(g58
g59
NtRp3978
(dp3979
g62
(dp3980
g70
I3
ssg71
g3974
sg64
(lp3981
g57
(cgluon.html
SPAN
p3982
g59
NtRp3983
(dp3984
g62
(dp3985
g82
S'color:yellow'
p3986
ssg71
Nsg64
(lp3987
g3857
asbasbasbasbag57
(g73
g59
NtRp3988
(dp3989
g62
(dp3990
sg71
g3966
sg64
(lp3991
g57
(g78
g59
NtRp3992
(dp3993
g62
(dp3994
sg71
g3988
sg64
(lp3995
g57
(g58
g59
NtRp3996
(dp3997
g62
(dp3998
g70
I3
ssg71
g3992
sg64
(lp3999
g100
asbasbasbag57
(g73
g59
NtRp4000
(dp4001
g62
(dp4002
sg71
g3966
sg64
(lp4003
g57
(g78
g59
NtRp4004
(dp4005
g62
(dp4006
sg71
g4000
sg64
(lp4007
g57
(g58
g59
NtRp4008
(dp4009
g62
(dp4010
g70
I3
ssg71
g4004
sg64
(lp4011
S'None'
p4012
asbasbasbag57
(g73
g59
NtRp4013
(dp4014
g62
(dp4015
sg71
g3966
sg64
(lp4016
g57
(g78
g59
NtRp4017
(dp4018
g62
(dp4019
sg71
g4013
sg64
(lp4020
g57
(g58
g59
NtRp4021
(dp4022
g62
(dp4023
g70
I3
ssg71
g4017
sg64
(lp4024
g57
(g66
g59
NtRp4025
(dp4026
g62
(dp4027
g70
I2
ssg71
Nsg64
(lp4028
g57
(g73
g59
NtRp4029
(dp4030
g62
(dp4031
sg71
g4025
sg64
(lp4032
g57
(g78
g59
NtRp4033
(dp4034
g62
(dp4035
sg71
g4029
sg64
(lp4036
g57
(g58
g59
NtRp4037
(dp4038
g62
(dp4039
g70
I2
ssg71
g4033
sg64
(lp4040
g57
(g66
g59
NtRp4041
(dp4042
g62
(dp4043
g70
I1
ssg71
Nsg64
(lp4044
g57
(g73
g59
NtRp4045
(dp4046
g62
(dp4047
sg71
g4041
sg64
(lp4048
g57
(g78
g59
NtRp4049
(dp4050
g62
(dp4051
sg71
g4045
sg64
(lp4052
g57
(g58
g59
NtRp4053
(dp4054
g62
(dp4055
g70
I1
ssg71
g4049
sg64
(lp4056
g3911
(S's\x08\x00\x00\x00My Sites'
tRp4057
asbasbasbag57
(g73
g59
NtRp4058
(dp4059
g62
(dp4060
sg71
g4041
sg64
(lp4061
g57
(g78
g59
NtRp4062
(dp4063
g62
(dp4064
sg71
g4058
sg64
(lp4065
g57
(g58
g59
NtRp4066
(dp4067
g62
(dp4068
g70
I1
ssg71
g4062
sg64
(lp4069
I00
asbasbasbag57
(g73
g59
NtRp4070
(dp4071
g62
(dp4072
sg71
g4041
sg64
(lp4073
g57
(g78
g59
NtRp4074
(dp4075
g62
(dp4076
sg71
g4070
sg64
(lp4077
g57
(g58
g59
NtRp4078
(dp4079
g62
(dp4080
g70
I1
ssg71
g4074
sg64
(lp4081
S'/admin/default/site'
p4082
asbasbasbasbasbasbasbag57
(g73
g59
NtRp4083
(dp4084
g62
(dp4085
sg71
g4025
sg64
(lp4086
g57
(g78
g59
NtRp4087
(dp4088
g62
(dp4089
sg71
g4083
sg64
(lp4090
g57
(g58
g59
NtRp4091
(dp4092
g62
(dp4093
g70
I2
ssg71
g4087
sg64
(lp4094
g57
(g66
g59
NtRp4095
(dp4096
g62
(dp4097
g70
I1
ssg71
Nsg64
(lp4098
g57
(g73
g59
NtRp4099
(dp4100
g62
(dp4101
sg71
g4095
sg64
(lp4102
g57
(g78
g59
NtRp4103
(dp4104
g62
(dp4105
sg71
g4099
sg64
(lp4106
g57
(g58
g59
NtRp4107
(dp4108
g62
(dp4109
g70
I1
ssg71
g4103
sg64
(lp4110
g3911
(S's\x08\x00\x00\x00This App'
tRp4111
asbasbasbag57
(g73
g59
NtRp4112
(dp4113
g62
(dp4114
sg71
g4095
sg64
(lp4115
g57
(g78
g59
NtRp4116
(dp4117
g62
(dp4118
sg71
g4112
sg64
(lp4119
g57
(g58
g59
NtRp4120
(dp4121
g62
(dp4122
g70
I1
ssg71
g4116
sg64
(lp4123
I00
asbasbasbag57
(g73
g59
NtRp4124
(dp4125
g62
(dp4126
sg71
g4095
sg64
(lp4127
g57
(g78
g59
NtRp4128
(dp4129
g62
(dp4130
sg71
g4124
sg64
(lp4131
g57
(g58
g59
NtRp4132
(dp4133
g62
(dp4134
g70
I1
ssg71
g4128
sg64
(lp4135
S'/admin/default/design/grammateus3'
p4136
asbasbasbag57
(g73
g59
NtRp4137
(dp4138
g62
(dp4139
sg71
g4095
sg64
(lp4140
g57
(g78
g59
NtRp4141
(dp4142
g62
(dp4143
sg71
g4137
sg64
(lp4144
g57
(g58
g59
NtRp4145
(dp4146
g62
(dp4147
g70
I1
ssg71
g4141
sg64
(lp4148
(lp4149
(g3911
(S't\n\x00\x00\x00Controller'
tRp4150
I00
S'/admin/default/edit/grammateus3/controllers/docs.py'
tp4151
a(g3911
(S't\x04\x00\x00\x00View'
tRp4152
I00
S'/admin/default/edit/grammateus3/views/docs/text.html'
tp4153
a(g3911
(S't\x06\x00\x00\x00Layout'
tRp4154
I00
S'/admin/default/edit/grammateus3/views/layout.html'
tp4155
a(g3911
(S't\n\x00\x00\x00Stylesheet'
tRp4156
I00
S'/admin/default/edit/grammateus3/static/css/web2py.css'
tp4157
a(g3911
(S's\x08\x00\x00\x00DB Model'
tRp4158
I00
S'/admin/default/edit/grammateus3/models/db.py'
tp4159
a(g3911
(S's\n\x00\x00\x00Menu Model'
tRp4160
I00
S'/admin/default/edit/grammateus3/models/menu.py'
tp4161
a(g3911
(S't\x08\x00\x00\x00Database'
tRp4162
I00
S'/grammateus3/appadmin/index'
tp4163
a(g3911
(S't\x06\x00\x00\x00Errors'
tRp4164
I00
S'/admin/default/errors/grammateus3'
tp4165
a(g3911
(S't\x05\x00\x00\x00About'
tRp4166
I00
S'/admin/default/about/grammateus3'
tp4167
aasbasbasbasbasbasbasbag57
(g73
g59
NtRp4168
(dp4169
g62
(dp4170
sg71
g4025
sg64
(lp4171
g57
(g78
g59
NtRp4172
(dp4173
g62
(dp4174
sg71
g4168
sg64
(lp4175
g57
(g58
g59
NtRp4176
(dp4177
g62
(dp4178
g70
I2
ssg71
g4172
sg64
(lp4179
g57
(g66
g59
NtRp4180
(dp4181
g62
(dp4182
g70
I1
ssg71
Nsg64
(lp4183
g57
(g73
g59
NtRp4184
(dp4185
g62
(dp4186
sg71
g4180
sg64
(lp4187
g57
(g78
g59
NtRp4188
(dp4189
g62
(dp4190
sg71
g4184
sg64
(lp4191
g57
(g58
g59
NtRp4192
(dp4193
g62
(dp4194
g70
I1
ssg71
g4188
sg64
(lp4195
S'web2py.com'
p4196
asbasbasbag57
(g73
g59
NtRp4197
(dp4198
g62
(dp4199
sg71
g4180
sg64
(lp4200
g57
(g78
g59
NtRp4201
(dp4202
g62
(dp4203
sg71
g4197
sg64
(lp4204
g57
(g58
g59
NtRp4205
(dp4206
g62
(dp4207
g70
I1
ssg71
g4201
sg64
(lp4208
I00
asbasbasbag57
(g73
g59
NtRp4209
(dp4210
g62
(dp4211
sg71
g4180
sg64
(lp4212
g57
(g78
g59
NtRp4213
(dp4214
g62
(dp4215
sg71
g4209
sg64
(lp4216
g57
(g58
g59
NtRp4217
(dp4218
g62
(dp4219
g70
I1
ssg71
g4213
sg64
(lp4220
S'http://www.web2py.com'
p4221
asbasbasbag57
(g73
g59
NtRp4222
(dp4223
g62
(dp4224
sg71
g4180
sg64
(lp4225
g57
(g78
g59
NtRp4226
(dp4227
g62
(dp4228
sg71
g4222
sg64
(lp4229
g57
(g58
g59
NtRp4230
(dp4231
g62
(dp4232
g70
I1
ssg71
g4226
sg64
(lp4233
(lp4234
(g3911
(S't\x08\x00\x00\x00Download'
tRp4235
I00
S'http://www.web2py.com/examples/default/download'
p4236
tp4237
a(g3911
(S't\x07\x00\x00\x00Support'
tRp4238
I00
S'http://www.web2py.com/examples/default/support'
p4239
tp4240
a(g3911
(S't\x04\x00\x00\x00Demo'
tRp4241
I00
S'http://web2py.com/demo_admin'
p4242
tp4243
a(g3911
(S's\x0e\x00\x00\x00Quick Examples'
tRp4244
I00
S'http://web2py.com/examples/default/examples'
p4245
tp4246
a(g3911
(S't\x03\x00\x00\x00FAQ'
tRp4247
I00
S'http://web2py.com/AlterEgo'
p4248
tp4249
a(g3911
(S't\x06\x00\x00\x00Videos'
tRp4250
I00
S'http://www.web2py.com/examples/default/videos/'
p4251
tp4252
a(g3911
(S's\x11\x00\x00\x00Free Applications'
tRp4253
I00
S'http://web2py.com/appliances'
p4254
tp4255
a(g3911
(S't\x07\x00\x00\x00Plugins'
tRp4256
I00
S'http://web2py.com/plugins'
p4257
tp4258
a(g3911
(S't\x07\x00\x00\x00Layouts'
tRp4259
I00
S'http://web2py.com/layouts'
p4260
tp4261
a(g3911
(S't\x07\x00\x00\x00Recipes'
tRp4262
I00
S'http://web2pyslices.com/'
p4263
tp4264
a(g3911
(S't\x08\x00\x00\x00Semantic'
tRp4265
I00
S'http://web2py.com/semantic'
p4266
tp4267
aasbasbasbasbasbasbasbag57
(g73
g59
NtRp4268
(dp4269
g62
(dp4270
sg71
g4025
sg64
(lp4271
g57
(g78
g59
NtRp4272
(dp4273
g62
(dp4274
sg71
g4268
sg64
(lp4275
g57
(g58
g59
NtRp4276
(dp4277
g62
(dp4278
g70
I2
ssg71
g4272
sg64
(lp4279
g57
(g66
g59
NtRp4280
(dp4281
g62
(dp4282
g70
I1
ssg71
Nsg64
(lp4283
g57
(g73
g59
NtRp4284
(dp4285
g62
(dp4286
sg71
g4280
sg64
(lp4287
g57
(g78
g59
NtRp4288
(dp4289
g62
(dp4290
sg71
g4284
sg64
(lp4291
g57
(g58
g59
NtRp4292
(dp4293
g62
(dp4294
g70
I1
ssg71
g4288
sg64
(lp4295
g3911
(S't\r\x00\x00\x00Documentation'
tRp4296
asbasbasbag57
(g73
g59
NtRp4297
(dp4298
g62
(dp4299
sg71
g4280
sg64
(lp4300
g57
(g78
g59
NtRp4301
(dp4302
g62
(dp4303
sg71
g4297
sg64
(lp4304
g57
(g58
g59
NtRp4305
(dp4306
g62
(dp4307
g70
I1
ssg71
g4301
sg64
(lp4308
I00
asbasbasbag57
(g73
g59
NtRp4309
(dp4310
g62
(dp4311
sg71
g4280
sg64
(lp4312
g57
(g78
g59
NtRp4313
(dp4314
g62
(dp4315
sg71
g4309
sg64
(lp4316
g57
(g58
g59
NtRp4317
(dp4318
g62
(dp4319
g70
I1
ssg71
g4313
sg64
(lp4320
S'http://www.web2py.com/book'
p4321
asbasbasbag57
(g73
g59
NtRp4322
(dp4323
g62
(dp4324
sg71
g4280
sg64
(lp4325
g57
(g78
g59
NtRp4326
(dp4327
g62
(dp4328
sg71
g4322
sg64
(lp4329
g57
(g58
g59
NtRp4330
(dp4331
g62
(dp4332
g70
I1
ssg71
g4326
sg64
(lp4333
(lp4334
(g3911
(S't\x07\x00\x00\x00Preface'
tRp4335
I00
S'http://www.web2py.com/book/default/chapter/00'
p4336
tp4337
a(g3911
(S't\x0c\x00\x00\x00Introduction'
tRp4338
I00
S'http://www.web2py.com/book/default/chapter/01'
p4339
tp4340
a(g3911
(S't\x06\x00\x00\x00Python'
tRp4341
I00
S'http://www.web2py.com/book/default/chapter/02'
p4342
tp4343
a(g3911
(S't\x08\x00\x00\x00Overview'
tRp4344
I00
S'http://www.web2py.com/book/default/chapter/03'
p4345
tp4346
a(g3911
(S's\x08\x00\x00\x00The Core'
tRp4347
I00
S'http://www.web2py.com/book/default/chapter/04'
p4348
tp4349
a(g3911
(S's\t\x00\x00\x00The Views'
tRp4350
I00
S'http://www.web2py.com/book/default/chapter/05'
p4351
tp4352
a(g3911
(S't\x08\x00\x00\x00Database'
tRp4353
I00
S'http://www.web2py.com/book/default/chapter/06'
p4354
tp4355
a(g3911
(S's\x14\x00\x00\x00Forms and Validators'
tRp4356
I00
S'http://www.web2py.com/book/default/chapter/07'
p4357
tp4358
a(g3911
(S's\r\x00\x00\x00Email and SMS'
tRp4359
I00
S'http://www.web2py.com/book/default/chapter/08'
p4360
tp4361
a(g3911
(S's\x0e\x00\x00\x00Access Control'
tRp4362
I00
S'http://www.web2py.com/book/default/chapter/09'
p4363
tp4364
a(g3911
(S't\x08\x00\x00\x00Services'
tRp4365
I00
S'http://www.web2py.com/book/default/chapter/10'
p4366
tp4367
a(g3911
(S's\x0c\x00\x00\x00Ajax Recipes'
tRp4368
I00
S'http://www.web2py.com/book/default/chapter/11'
p4369
tp4370
a(g3911
(S's\x16\x00\x00\x00Components and Plugins'
tRp4371
I00
S'http://www.web2py.com/book/default/chapter/12'
p4372
tp4373
a(g3911
(S's\x12\x00\x00\x00Deployment Recipes'
tRp4374
I00
S'http://www.web2py.com/book/default/chapter/13'
p4375
tp4376
a(g3911
(S's\r\x00\x00\x00Other Recipes'
tRp4377
I00
S'http://www.web2py.com/book/default/chapter/14'
p4378
tp4379
a(g3911
(S's\r\x00\x00\x00Buy this book'
tRp4380
I00
S'http://stores.lulu.com/web2py'
p4381
tp4382
aasbasbasbasbasbasbasbag57
(g73
g59
NtRp4383
(dp4384
g62
(dp4385
sg71
g4025
sg64
(lp4386
g57
(g78
g59
NtRp4387
(dp4388
g62
(dp4389
sg71
g4383
sg64
(lp4390
g57
(g58
g59
NtRp4391
(dp4392
g62
(dp4393
g70
I2
ssg71
g4387
sg64
(lp4394
g57
(g66
g59
NtRp4395
(dp4396
g62
(dp4397
g70
I1
ssg71
Nsg64
(lp4398
g57
(g73
g59
NtRp4399
(dp4400
g62
(dp4401
sg71
g4395
sg64
(lp4402
g57
(g78
g59
NtRp4403
(dp4404
g62
(dp4405
sg71
g4399
sg64
(lp4406
g57
(g58
g59
NtRp4407
(dp4408
g62
(dp4409
g70
I1
ssg71
g4403
sg64
(lp4410
g3911
(S't\t\x00\x00\x00Community'
tRp4411
asbasbasbag57
(g73
g59
NtRp4412
(dp4413
g62
(dp4414
sg71
g4395
sg64
(lp4415
g57
(g78
g59
NtRp4416
(dp4417
g62
(dp4418
sg71
g4412
sg64
(lp4419
g57
(g58
g59
NtRp4420
(dp4421
g62
(dp4422
g70
I1
ssg71
g4416
sg64
(lp4423
I00
asbasbasbag57
(g73
g59
NtRp4424
(dp4425
g62
(dp4426
sg71
g4395
sg64
(lp4427
g57
(g78
g59
NtRp4428
(dp4429
g62
(dp4430
sg71
g4424
sg64
(lp4431
g57
(g58
g59
NtRp4432
(dp4433
g62
(dp4434
g70
I1
ssg71
g4428
sg64
(lp4435
Nasbasbasbag57
(g73
g59
NtRp4436
(dp4437
g62
(dp4438
sg71
g4395
sg64
(lp4439
g57
(g78
g59
NtRp4440
(dp4441
g62
(dp4442
sg71
g4436
sg64
(lp4443
g57
(g58
g59
NtRp4444
(dp4445
g62
(dp4446
g70
I1
ssg71
g4440
sg64
(lp4447
(lp4448
(g3911
(S't\x06\x00\x00\x00Groups'
tRp4449
I00
S'http://www.web2py.com/examples/default/usergroups'
p4450
tp4451
a(g3911
(S't\x07\x00\x00\x00Twitter'
tRp4452
I00
S'http://twitter.com/web2py'
p4453
tp4454
a(g3911
(S's\t\x00\x00\x00Live Chat'
tRp4455
I00
S'http://webchat.freenode.net/?channels=web2py'
p4456
tp4457
aasbasbasbasbasbasbasbag57
(g73
g59
NtRp4458
(dp4459
g62
(dp4460
sg71
g4025
sg64
(lp4461
g57
(g78
g59
NtRp4462
(dp4463
g62
(dp4464
sg71
g4458
sg64
(lp4465
g57
(g58
g59
NtRp4466
(dp4467
g62
(dp4468
g70
I2
ssg71
g4462
sg64
(lp4469
g57
(g66
g59
NtRp4470
(dp4471
g62
(dp4472
g70
I1
ssg71
Nsg64
(lp4473
g57
(g73
g59
NtRp4474
(dp4475
g62
(dp4476
sg71
g4470
sg64
(lp4477
g57
(g78
g59
NtRp4478
(dp4479
g62
(dp4480
sg71
g4474
sg64
(lp4481
g57
(g58
g59
NtRp4482
(dp4483
g62
(dp4484
g70
I1
ssg71
g4478
sg64
(lp4485
g3911
(S't\x07\x00\x00\x00Plugins'
tRp4486
asbasbasbag57
(g73
g59
NtRp4487
(dp4488
g62
(dp4489
sg71
g4470
sg64
(lp4490
g57
(g78
g59
NtRp4491
(dp4492
g62
(dp4493
sg71
g4487
sg64
(lp4494
g57
(g58
g59
NtRp4495
(dp4496
g62
(dp4497
g70
I1
ssg71
g4491
sg64
(lp4498
I00
asbasbasbag57
(g73
g59
NtRp4499
(dp4500
g62
(dp4501
sg71
g4470
sg64
(lp4502
g57
(g78
g59
NtRp4503
(dp4504
g62
(dp4505
sg71
g4499
sg64
(lp4506
g57
(g58
g59
NtRp4507
(dp4508
g62
(dp4509
g70
I1
ssg71
g4503
sg64
(lp4510
Nasbasbasbag57
(g73
g59
NtRp4511
(dp4512
g62
(dp4513
sg71
g4470
sg64
(lp4514
g57
(g78
g59
NtRp4515
(dp4516
g62
(dp4517
sg71
g4511
sg64
(lp4518
g57
(g58
g59
NtRp4519
(dp4520
g62
(dp4521
g70
I1
ssg71
g4515
sg64
(lp4522
(lp4523
(S'plugin_wiki'
p4524
I00
S'http://web2py.com/examples/default/download'
p4525
tp4526
a(g3911
(S's\r\x00\x00\x00Other Plugins'
tRp4527
I00
g4257
tp4528
a(g3911
(S's\x0e\x00\x00\x00Layout Plugins'
tRp4529
I00
g4260
tp4530
aasbasbasbasbasbasbasbasbasbasbasbasbasbasbasbasbasbasbasbag57
(g73
g59
NtRp4531
(dp4532
g62
(dp4533
sg71
g3406
sg64
(lp4534
g57
(g78
g59
NtRp4535
(dp4536
g62
(dp4537
g82
g83
ssg71
g4531
sg64
(lp4538
S'meta'
p4539
asbag57
(g78
g59
NtRp4540
(dp4541
g62
(dp4542
g89
g90
ssg71
g4531
sg64
(lp4543
S':'
asbag57
(g78
g59
NtRp4544
(dp4545
g62
(dp4546
sg71
g4531
sg64
(lp4547
g57
(g58
g59
NtRp4548
(dp4549
g62
(dp4550
g70
I5
ssg71
g4544
sg64
(lp4551
g57
(g66
g59
NtRp4552
(dp4553
g62
(dp4554
g70
I4
ssg71
Nsg64
(lp4555
g57
(g73
g59
NtRp4556
(dp4557
g62
(dp4558
sg71
g4552
sg64
(lp4559
g57
(g78
g59
NtRp4560
(dp4561
g62
(dp4562
g82
g83
ssg71
g4556
sg64
(lp4563
S'author'
p4564
asbag57
(g78
g59
NtRp4565
(dp4566
g62
(dp4567
g89
g90
ssg71
g4556
sg64
(lp4568
S':'
asbag57
(g78
g59
NtRp4569
(dp4570
g62
(dp4571
sg71
g4556
sg64
(lp4572
g57
(g58
g59
NtRp4573
(dp4574
g62
(dp4575
g70
I4
ssg71
g4569
sg64
(lp4576
S'Your Name <you@example.com>'
p4577
asbasbasbag57
(g73
g59
NtRp4578
(dp4579
g62
(dp4580
sg71
g4552
sg64
(lp4581
g57
(g78
g59
NtRp4582
(dp4583
g62
(dp4584
g82
g83
ssg71
g4578
sg64
(lp4585
S'copyright'
p4586
asbag57
(g78
g59
NtRp4587
(dp4588
g62
(dp4589
g89
g90
ssg71
g4578
sg64
(lp4590
S':'
asbag57
(g78
g59
NtRp4591
(dp4592
g62
(dp4593
sg71
g4578
sg64
(lp4594
g57
(g58
g59
NtRp4595
(dp4596
g62
(dp4597
g70
I4
ssg71
g4591
sg64
(lp4598
S'Copyright 2011'
p4599
asbasbasbag57
(g73
g59
NtRp4600
(dp4601
g62
(dp4602
sg71
g4552
sg64
(lp4603
g57
(g78
g59
NtRp4604
(dp4605
g62
(dp4606
g82
g83
ssg71
g4600
sg64
(lp4607
S'description'
p4608
asbag57
(g78
g59
NtRp4609
(dp4610
g62
(dp4611
g89
g90
ssg71
g4600
sg64
(lp4612
S':'
asbag57
(g78
g59
NtRp4613
(dp4614
g62
(dp4615
sg71
g4600
sg64
(lp4616
g57
(g58
g59
NtRp4617
(dp4618
g62
(dp4619
g70
I4
ssg71
g4613
sg64
(lp4620
S'a cool new app'
p4621
asbasbasbag57
(g73
g59
NtRp4622
(dp4623
g62
(dp4624
sg71
g4552
sg64
(lp4625
g57
(g78
g59
NtRp4626
(dp4627
g62
(dp4628
g82
g83
ssg71
g4622
sg64
(lp4629
S'generator'
p4630
asbag57
(g78
g59
NtRp4631
(dp4632
g62
(dp4633
g89
g90
ssg71
g4622
sg64
(lp4634
S':'
asbag57
(g78
g59
NtRp4635
(dp4636
g62
(dp4637
sg71
g4622
sg64
(lp4638
g57
(g58
g59
NtRp4639
(dp4640
g62
(dp4641
g70
I4
ssg71
g4635
sg64
(lp4642
S'Web2py Web Framework'
p4643
asbasbasbag57
(g73
g59
NtRp4644
(dp4645
g62
(dp4646
sg71
g4552
sg64
(lp4647
g57
(g78
g59
NtRp4648
(dp4649
g62
(dp4650
g82
g83
ssg71
g4644
sg64
(lp4651
S'keywords'
p4652
asbag57
(g78
g59
NtRp4653
(dp4654
g62
(dp4655
g89
g90
ssg71
g4644
sg64
(lp4656
S':'
asbag57
(g78
g59
NtRp4657
(dp4658
g62
(dp4659
sg71
g4644
sg64
(lp4660
g57
(g58
g59
NtRp4661
(dp4662
g62
(dp4663
g70
I4
ssg71
g4657
sg64
(lp4664
S'web2py, python, framework'
p4665
asbasbasbasbasbasbasbag57
(g73
g59
NtRp4666
(dp4667
g62
(dp4668
sg71
g3406
sg64
(lp4669
g57
(g78
g59
NtRp4670
(dp4671
g62
(dp4672
g82
g83
ssg71
g4666
sg64
(lp4673
S'postprocessing'
p4674
asbag57
(g78
g59
NtRp4675
(dp4676
g62
(dp4677
g89
g90
ssg71
g4666
sg64
(lp4678
S':'
asbag57
(g78
g59
NtRp4679
(dp4680
g62
(dp4681
sg71
g4666
sg64
(lp4682
g57
(g58
g59
NtRp4683
(dp4684
g62
(dp4685
g70
I5
ssg71
g4679
sg64
(lp4686
g57
(g66
g59
NtRp4687
(dp4688
g62
(dp4689
g70
I4
ssg71
Nsg64
(lp4690
sbasbasbasbag57
(g73
g59
NtRp4691
(dp4692
g62
(dp4693
sg71
g3406
sg64
(lp4694
g57
(g78
g59
NtRp4695
(dp4696
g62
(dp4697
g82
g83
ssg71
g4691
sg64
(lp4698
S'session_file'
p4699
asbag57
(g78
g59
NtRp4700
(dp4701
g62
(dp4702
g89
g90
ssg71
g4691
sg64
(lp4703
S':'
asbag57
(g78
g59
NtRp4704
(dp4705
g62
(dp4706
sg71
g4691
sg64
(lp4707
g57
(g58
g59
NtRp4708
(dp4709
g62
(dp4710
g70
I5
ssg71
g4704
sg64
(lp4711
S"<open file '/home/iscott/web/web2py/applications/grammateus3/sessions/127.0.0.1-4f98ec66-c173-46dc-a836-3a6d8de0d450', mode 'rb+' at 0xae82bd0>"
p4712
asbasbasbag57
(g73
g59
NtRp4713
(dp4714
g62
(dp4715
sg71
g3406
sg64
(lp4716
g57
(g78
g59
NtRp4717
(dp4718
g62
(dp4719
g82
g83
ssg71
g4713
sg64
(lp4720
S'session_filename'
p4721
asbag57
(g78
g59
NtRp4722
(dp4723
g62
(dp4724
g89
g90
ssg71
g4713
sg64
(lp4725
S':'
asbag57
(g78
g59
NtRp4726
(dp4727
g62
(dp4728
sg71
g4713
sg64
(lp4729
g57
(g58
g59
NtRp4730
(dp4731
g62
(dp4732
g70
I5
ssg71
g4726
sg64
(lp4733
S'/home/iscott/web/web2py/applications/grammateus3/sessions/127.0.0.1-4f98ec66-c173-46dc-a836-3a6d8de0d450'
p4734
asbasbasbag57
(g73
g59
NtRp4735
(dp4736
g62
(dp4737
sg71
g3406
sg64
(lp4738
g57
(g78
g59
NtRp4739
(dp4740
g62
(dp4741
g82
g83
ssg71
g4735
sg64
(lp4742
S'session_id'
p4743
asbag57
(g78
g59
NtRp4744
(dp4745
g62
(dp4746
g89
g90
ssg71
g4735
sg64
(lp4747
S':'
asbag57
(g78
g59
NtRp4748
(dp4749
g62
(dp4750
sg71
g4735
sg64
(lp4751
g57
(g58
g59
NtRp4752
(dp4753
g62
(dp4754
g70
I5
ssg71
g4748
sg64
(lp4755
S'127.0.0.1-4f98ec66-c173-46dc-a836-3a6d8de0d450'
p4756
asbasbasbag57
(g73
g59
NtRp4757
(dp4758
g62
(dp4759
sg71
g3406
sg64
(lp4760
g57
(g78
g59
NtRp4761
(dp4762
g62
(dp4763
g82
g83
ssg71
g4757
sg64
(lp4764
S'session_id_name'
p4765
asbag57
(g78
g59
NtRp4766
(dp4767
g62
(dp4768
g89
g90
ssg71
g4757
sg64
(lp4769
S':'
asbag57
(g78
g59
NtRp4770
(dp4771
g62
(dp4772
sg71
g4757
sg64
(lp4773
g57
(g58
g59
NtRp4774
(dp4775
g62
(dp4776
g70
I5
ssg71
g4770
sg64
(lp4777
g3463
asbasbasbag57
(g73
g59
NtRp4778
(dp4779
g62
(dp4780
sg71
g3406
sg64
(lp4781
g57
(g78
g59
NtRp4782
(dp4783
g62
(dp4784
g82
g83
ssg71
g4778
sg64
(lp4785
S'session_locked'
p4786
asbag57
(g78
g59
NtRp4787
(dp4788
g62
(dp4789
g89
g90
ssg71
g4778
sg64
(lp4790
S':'
asbag57
(g78
g59
NtRp4791
(dp4792
g62
(dp4793
sg71
g4778
sg64
(lp4794
g57
(g58
g59
NtRp4795
(dp4796
g62
(dp4797
g70
I5
ssg71
g4791
sg64
(lp4798
g2004
asbasbasbag57
(g73
g59
NtRp4799
(dp4800
g62
(dp4801
sg71
g3406
sg64
(lp4802
g57
(g78
g59
NtRp4803
(dp4804
g62
(dp4805
g82
g83
ssg71
g4799
sg64
(lp4806
S'session_new'
p4807
asbag57
(g78
g59
NtRp4808
(dp4809
g62
(dp4810
g89
g90
ssg71
g4799
sg64
(lp4811
S':'
asbag57
(g78
g59
NtRp4812
(dp4813
g62
(dp4814
sg71
g4799
sg64
(lp4815
g57
(g58
g59
NtRp4816
(dp4817
g62
(dp4818
g70
I5
ssg71
g4812
sg64
(lp4819
g100
asbasbasbag57
(g73
g59
NtRp4820
(dp4821
g62
(dp4822
sg71
g3406
sg64
(lp4823
g57
(g78
g59
NtRp4824
(dp4825
g62
(dp4826
g82
g83
ssg71
g4820
sg64
(lp4827
S'status'
p4828
asbag57
(g78
g59
NtRp4829
(dp4830
g62
(dp4831
g89
g90
ssg71
g4820
sg64
(lp4832
S':'
asbag57
(g78
g59
NtRp4833
(dp4834
g62
(dp4835
sg71
g4820
sg64
(lp4836
g57
(g58
g59
NtRp4837
(dp4838
g62
(dp4839
g70
I5
ssg71
g4833
sg64
(lp4840
S'200'
p4841
asbasbasbag57
(g73
g59
NtRp4842
(dp4843
g62
(dp4844
sg71
g3406
sg64
(lp4845
g57
(g78
g59
NtRp4846
(dp4847
g62
(dp4848
g82
g83
ssg71
g4842
sg64
(lp4849
S'subtitle'
p4850
asbag57
(g78
g59
NtRp4851
(dp4852
g62
(dp4853
g89
g90
ssg71
g4842
sg64
(lp4854
S':'
asbag57
(g78
g59
NtRp4855
(dp4856
g62
(dp4857
sg71
g4842
sg64
(lp4858
g57
(g58
g59
NtRp4859
(dp4860
g62
(dp4861
g70
I5
ssg71
g4855
sg64
(lp4862
g3911
(S's\r\x00\x00\x00customize me!'
tRp4863
asbasbasbag57
(g73
g59
NtRp4864
(dp4865
g62
(dp4866
sg71
g3406
sg64
(lp4867
g57
(g78
g59
NtRp4868
(dp4869
g62
(dp4870
g82
g83
ssg71
g4864
sg64
(lp4871
S'title'
p4872
asbag57
(g78
g59
NtRp4873
(dp4874
g62
(dp4875
g89
g90
ssg71
g4864
sg64
(lp4876
S':'
asbag57
(g78
g59
NtRp4877
(dp4878
g62
(dp4879
sg71
g4864
sg64
(lp4880
g57
(g58
g59
NtRp4881
(dp4882
g62
(dp4883
g70
I5
ssg71
g4877
sg64
(lp4884
S'Grammateus3'
p4885
asbasbasbag57
(g73
g59
NtRp4886
(dp4887
g62
(dp4888
sg71
g3406
sg64
(lp4889
g57
(g78
g59
NtRp4890
(dp4891
g62
(dp4892
g82
g83
ssg71
g4886
sg64
(lp4893
g2689
asbag57
(g78
g59
NtRp4894
(dp4895
g62
(dp4896
g89
g90
ssg71
g4886
sg64
(lp4897
S':'
asbag57
(g78
g59
NtRp4898
(dp4899
g62
(dp4900
sg71
g4886
sg64
(lp4901
g57
(g58
g59
NtRp4902
(dp4903
g62
(dp4904
g70
I5
ssg71
g4898
sg64
(lp4905
g2702
asbasbasbag57
(g73
g59
NtRp4906
(dp4907
g62
(dp4908
sg71
g3406
sg64
(lp4909
g57
(g78
g59
NtRp4910
(dp4911
g62
(dp4912
g82
g83
ssg71
g4906
sg64
(lp4913
S'view'
p4914
asbag57
(g78
g59
NtRp4915
(dp4916
g62
(dp4917
g89
g90
ssg71
g4906
sg64
(lp4918
S':'
asbag57
(g78
g59
NtRp4919
(dp4920
g62
(dp4921
sg71
g4906
sg64
(lp4922
g57
(g58
g59
NtRp4923
(dp4924
g62
(dp4925
g70
I5
ssg71
g4919
sg64
(lp4926
S'docs/text.html'
p4927
asbasbasbasbasbsS'locals'
p4928
(dp4929
ssS'traceback'
p4930
S'Traceback (most recent call last):\n  File "/home/iscott/web/web2py/gluon/restricted.py", line 204, in restricted\n    exec ccode in environment\n  File "/home/iscott/web/web2py/applications/grammateus3/controllers/docs.py", line 47, in <module>\n  File "/home/iscott/web/web2py/gluon/globals.py", line 172, in <lambda>\n    self._caller = lambda f: f()\n  File "/home/iscott/web/web2py/applications/grammateus3/controllers/docs.py", line 11, in text\n    filename = request.args[0]\nIndexError: list index out of range\n'
p4931
s.