(dp1
S'output'
p2
S'<type \'exceptions.IOError\'> Error reading file \'applications/grammateus3/static/docs/8.xml\': failed to load external entity "applications/grammateus3/static/docs/8.xml"'
p3
sS'layer'
p4
S'/home/iscott/web/web2py/applications/grammateus3/controllers/docs.py'
p5
sS'code'
p6
S'# coding: utf8\nfrom lxml import etree\n\nfrom parse import BookParser\n\nimport pprint\n\nimport re\n\n"""\nList of session objects used in text display:\nsession.filename\nsession.info -- dict; parsed results of BookParser class for current doc\nsession.title -- string; title of current doc\nsession.versions -- list; names of all versions in current doc\n"""\n\ndef index():\n    filename = request.args[0]\n    return dict(filename = filename)\n\ndef text():\n    filename = request.args[0]\n    #TODO: provide fallback and prompt if no filename is given in url\n    \n    #url to pass to web2py load helper in view to load doc section via ajax\n    load_url = URL(\'docs\', \'section.load\', args=filename)\n\n    return dict(load_url = load_url, filename = filename)\n\ndef section():\n    """\n    populates a single text pane via the section.load view (refreshable via ajax)\n    """\n    #get filename from end of url and parse the file with BookParser class\n    filename = request.args[0]\n    print filename\n    book_file = \'applications/grammateus3/static/docs/%s.xml\' % filename\n    p = BookParser(book_file)\n    info = p.book_info()\n    #get title of document\n    title = info[\'title\']\n\n    #get names of all versions of current doc and select the version to display\n    versions = [version[\'title\'] for version in info[\'versions\']]     \n    if \'version\' in request.vars:\n        current_version = request.vars[\'version\'].replace(\'_\', \' \')\n        #move selected version to top of list for selectbox\n        i = versions.index(current_version)\n        versions.insert(0, versions.pop(i))\n    else:\n        current_version = versions[0]\n\n    #find selected version in parsed text\n    for version in info[\'versions\']:\n        for k, v in version.items():\n            if k == \'title\' and v == current_version:\n                curv = version\n                vlang = curv[\'language\']\n            else:\n                pass\n\n    #get list of mss\n    mslist = [k.strip() for k, v in curv[\'manuscript\'].items()]\n    print \'mslist\', mslist\n    #use the third url argument as manuscript name if present, otherwise default to first version\n    #check for \'newval\' value, indicating the version has changed\n    if \'type\' in request.vars and request.vars[\'type\'] != \'newval\':\n        current_ms = request.vars[\'type\'].replace(\'_\', \' \')\n        current_ms = current_ms.strip()\n        print \'current_ms\', current_ms\n        #move selected text type to top of list for ms selectbox\n        i = mslist.index(current_ms)\n        mslist.insert(0, mslist.pop(i))        \n    else:\n        current_ms = mslist[0]\n\n    #build tuple for starting ref\n    start_sel = (1, 1)\n    end_sel = (3, 2)\n\n    #gather text from units within the selected section of the doc\n    #filters the current version for only readings in the current\n    #text type\n    sel_text = []\n    for ref, units in curv[\'text_structure\'].items():\n        ref_parts = re.split(\'[:\\.,;_-]\', ref)\n        if int(ref_parts[0]) >= 1 and int(ref_parts[0]) <= end_sel[0]:\n                print ref\n                for unit_ref, unit_val in units.items():\n                    for mss, raw_text in unit_val.items():\n                        if current_ms[-1] != \' \':\n                            current_ms += \' \'\n                        if current_ms in (mss + \' \'):\n                            if len(units) > 1:\n                                sel_text.append(A(raw_text, _class = vlang, _href=unit_ref))\n                            else:\n                                sel_text.append(SPAN(raw_text, _class = vlang))\n                        else:\n                            pass\n\n    return dict(title = title, versions = versions, current_version = current_version, \n                info = info, filename = filename, mslist = mslist, sel_text = sel_text)\n\n\ndef test():\n    filename = request.args[0]\n    book_file = \'applications/grammateus3/static/docs/%s.xml\' % filename\n    p = BookParser(book_file)\n    info = p.book_info()\n\n    title = info[\'title\']\n    for version in info[\'versions\']:\n        for key, value in version.items():\n            if key != \'text_structure\':\n                print \'Version\', key, \'-->\', value\n\n            else:\n                print \'Version textstructure\'\n                for ref, ref_val in value.items():\n                    for unit, unit_val in ref_val.items():\n                        for mss, mss_val in unit_val.items():\n                            print \'\\t\', ref, \'-->\', unit, \'-->\', mss, \'-->\', mss_val\n        print \'************\'\n    print\n    print\n\n    return dict(title = title, info = info)\n\nresponse._vars=response._caller(section)\n'
p7
sS'snapshot'
p8
(dp9
S'exception'
p10
(dp11
S'__getslice__'
p12
S"<method-wrapper '__getslice__' of exceptions.IOError object>"
p13
sS'__str__'
p14
S"<method-wrapper '__str__' of exceptions.IOError object>"
p15
sS'__reduce__'
p16
S'<built-in method __reduce__ of exceptions.IOError object>'
p17
sS'__dict__'
p18
S'{}'
p19
sS'__sizeof__'
p20
S'<built-in method __sizeof__ of exceptions.IOError object>'
p21
sS'__init__'
p22
S"<method-wrapper '__init__' of exceptions.IOError object>"
p23
sS'__setattr__'
p24
S"<method-wrapper '__setattr__' of exceptions.IOError object>"
p25
sS'__reduce_ex__'
p26
S'<built-in method __reduce_ex__ of exceptions.IOError object>'
p27
sS'__new__'
p28
S'<built-in method __new__ of type object>'
p29
sS'errno'
p30
S'None'
p31
sS'__format__'
p32
S'<built-in method __format__ of exceptions.IOError object>'
p33
sS'__class__'
p34
S"<type 'exceptions.IOError'>"
p35
sS'filename'
p36
S'None'
p37
sS'__doc__'
p38
S"'I/O operation failed.'"
p39
sS'__getitem__'
p40
S"<method-wrapper '__getitem__' of exceptions.IOError object>"
p41
sS'__setstate__'
p42
S'<built-in method __setstate__ of exceptions.IOError object>'
p43
sS'__getattribute__'
p44
S"<method-wrapper '__getattribute__' of exceptions.IOError object>"
p45
sS'args'
p46
S'(u\'Error reading file \\\'applications/grammateus3/...ity "applications/grammateus3/static/docs/8.xml"\',)'
p47
sS'__subclasshook__'
p48
S'<built-in method __subclasshook__ of type object>'
p49
sS'__unicode__'
p50
S'<built-in method __unicode__ of exceptions.IOError object>'
p51
sS'strerror'
p52
S'None'
p53
sS'__delattr__'
p54
S"<method-wrapper '__delattr__' of exceptions.IOError object>"
p55
sS'__repr__'
p56
S"<method-wrapper '__repr__' of exceptions.IOError object>"
p57
sS'__hash__'
p58
S"<method-wrapper '__hash__' of exceptions.IOError object>"
p59
ssS'evalue'
p60
S'Error reading file \'applications/grammateus3/static/docs/8.xml\': failed to load external entity "applications/grammateus3/static/docs/8.xml"'
p61
sS'request'
p62
ccopy_reg
_reconstructor
p63
(cgluon.html
BEAUTIFY
p64
c__builtin__
object
p65
NtRp66
(dp67
S'attributes'
p68
(dp69
sS'components'
p70
(lp71
g63
(cgluon.html
TABLE
p72
g65
NtRp73
(dp74
g68
(dp75
S'level'
p76
I5
ssS'parent'
p77
Nsg70
(lp78
g63
(cgluon.html
TR
p79
g65
NtRp80
(dp81
g68
(dp82
sg77
g73
sg70
(lp83
g63
(cgluon.html
TD
p84
g65
NtRp85
(dp86
g68
(dp87
S'_style'
p88
S'font-weight:bold;vertical-align:top'
p89
ssg77
g80
sg70
(lp90
S'ajax'
p91
asbag63
(g84
g65
NtRp92
(dp93
g68
(dp94
S'_valign'
p95
S'top'
p96
ssg77
g80
sg70
(lp97
S':'
asbag63
(g84
g65
NtRp98
(dp99
g68
(dp100
sg77
g80
sg70
(lp101
g63
(g64
g65
NtRp102
(dp103
g68
(dp104
g76
I5
ssg77
g98
sg70
(lp105
S'True'
p106
asbasbasbag63
(g79
g65
NtRp107
(dp108
g68
(dp109
sg77
g73
sg70
(lp110
g63
(g84
g65
NtRp111
(dp112
g68
(dp113
g88
g89
ssg77
g107
sg70
(lp114
S'application'
p115
asbag63
(g84
g65
NtRp116
(dp117
g68
(dp118
g95
g96
ssg77
g107
sg70
(lp119
S':'
asbag63
(g84
g65
NtRp120
(dp121
g68
(dp122
sg77
g107
sg70
(lp123
g63
(g64
g65
NtRp124
(dp125
g68
(dp126
g76
I5
ssg77
g120
sg70
(lp127
S'grammateus3'
p128
asbasbasbag63
(g79
g65
NtRp129
(dp130
g68
(dp131
sg77
g73
sg70
(lp132
g63
(g84
g65
NtRp133
(dp134
g68
(dp135
g88
g89
ssg77
g129
sg70
(lp136
g46
asbag63
(g84
g65
NtRp137
(dp138
g68
(dp139
g95
g96
ssg77
g129
sg70
(lp140
S':'
asbag63
(g84
g65
NtRp141
(dp142
g68
(dp143
sg77
g129
sg70
(lp144
g63
(g64
g65
NtRp145
(dp146
g68
(dp147
g76
I5
ssg77
g141
sg70
(lp148
g63
(g72
g65
NtRp149
(dp150
g68
(dp151
g76
I4
ssg77
Nsg70
(lp152
g63
(g79
g65
NtRp153
(dp154
g68
(dp155
sg77
g149
sg70
(lp156
g63
(g84
g65
NtRp157
(dp158
g68
(dp159
sg77
g153
sg70
(lp160
g63
(g64
g65
NtRp161
(dp162
g68
(dp163
g76
I4
ssg77
g157
sg70
(lp164
S'8'
asbasbasbasbasbasbasbag63
(g79
g65
NtRp165
(dp166
g68
(dp167
sg77
g73
sg70
(lp168
g63
(g84
g65
NtRp169
(dp170
g68
(dp171
g88
g89
ssg77
g165
sg70
(lp172
S'body'
p173
asbag63
(g84
g65
NtRp174
(dp175
g68
(dp176
g95
g96
ssg77
g165
sg70
(lp177
S':'
asbag63
(g84
g65
NtRp178
(dp179
g68
(dp180
sg77
g165
sg70
(lp181
g63
(g64
g65
NtRp182
(dp183
g68
(dp184
g76
I5
ssg77
g178
sg70
(lp185
S'<cStringIO.StringO object at 0xce99560>'
p186
asbasbasbag63
(g79
g65
NtRp187
(dp188
g68
(dp189
sg77
g73
sg70
(lp190
g63
(g84
g65
NtRp191
(dp192
g68
(dp193
g88
g89
ssg77
g187
sg70
(lp194
S'cid'
p195
asbag63
(g84
g65
NtRp196
(dp197
g68
(dp198
g95
g96
ssg77
g187
sg70
(lp199
S':'
asbag63
(g84
g65
NtRp200
(dp201
g68
(dp202
sg77
g187
sg70
(lp203
g63
(g64
g65
NtRp204
(dp205
g68
(dp206
g76
I5
ssg77
g200
sg70
(lp207
S'c586968791548'
p208
asbasbasbag63
(g79
g65
NtRp209
(dp210
g68
(dp211
sg77
g73
sg70
(lp212
g63
(g84
g65
NtRp213
(dp214
g68
(dp215
g88
g89
ssg77
g209
sg70
(lp216
S'client'
p217
asbag63
(g84
g65
NtRp218
(dp219
g68
(dp220
g95
g96
ssg77
g209
sg70
(lp221
S':'
asbag63
(g84
g65
NtRp222
(dp223
g68
(dp224
sg77
g209
sg70
(lp225
g63
(g64
g65
NtRp226
(dp227
g68
(dp228
g76
I5
ssg77
g222
sg70
(lp229
S'127.0.0.1'
p230
asbasbasbag63
(g79
g65
NtRp231
(dp232
g68
(dp233
sg77
g73
sg70
(lp234
g63
(g84
g65
NtRp235
(dp236
g68
(dp237
g88
g89
ssg77
g231
sg70
(lp238
S'controller'
p239
asbag63
(g84
g65
NtRp240
(dp241
g68
(dp242
g95
g96
ssg77
g231
sg70
(lp243
S':'
asbag63
(g84
g65
NtRp244
(dp245
g68
(dp246
sg77
g231
sg70
(lp247
g63
(g64
g65
NtRp248
(dp249
g68
(dp250
g76
I5
ssg77
g244
sg70
(lp251
S'docs'
p252
asbasbasbag63
(g79
g65
NtRp253
(dp254
g68
(dp255
sg77
g73
sg70
(lp256
g63
(g84
g65
NtRp257
(dp258
g68
(dp259
g88
g89
ssg77
g253
sg70
(lp260
S'cookies'
p261
asbag63
(g84
g65
NtRp262
(dp263
g68
(dp264
g95
g96
ssg77
g253
sg70
(lp265
S':'
asbag63
(g84
g65
NtRp266
(dp267
g68
(dp268
sg77
g253
sg70
(lp269
g63
(g64
g65
NtRp270
(dp271
g68
(dp272
g76
I5
ssg77
g266
sg70
(lp273
g63
(g72
g65
NtRp274
(dp275
g68
(dp276
g76
I4
ssg77
Nsg70
(lp277
g63
(g79
g65
NtRp278
(dp279
g68
(dp280
sg77
g274
sg70
(lp281
g63
(g84
g65
NtRp282
(dp283
g68
(dp284
g88
g89
ssg77
g278
sg70
(lp285
S'session_id_admin'
p286
asbag63
(g84
g65
NtRp287
(dp288
g68
(dp289
g95
g96
ssg77
g278
sg70
(lp290
S':'
asbag63
(g84
g65
NtRp291
(dp292
g68
(dp293
sg77
g278
sg70
(lp294
g63
(g64
g65
NtRp295
(dp296
g68
(dp297
g76
I4
ssg77
g291
sg70
(lp298
g63
(g72
g65
NtRp299
(dp300
g68
(dp301
g76
I3
ssg77
Nsg70
(lp302
g63
(g79
g65
NtRp303
(dp304
g68
(dp305
sg77
g299
sg70
(lp306
g63
(g84
g65
NtRp307
(dp308
g68
(dp309
g88
g89
ssg77
g303
sg70
(lp310
S'comment'
p311
asbag63
(g84
g65
NtRp312
(dp313
g68
(dp314
g95
g96
ssg77
g303
sg70
(lp315
S':'
asbag63
(g84
g65
NtRp316
(dp317
g68
(dp318
sg77
g303
sg70
(lp319
g63
(g64
g65
NtRp320
(dp321
g68
(dp322
g76
I3
ssg77
g316
sg70
(lp323
S''
asbasbasbag63
(g79
g65
NtRp324
(dp325
g68
(dp326
sg77
g299
sg70
(lp327
g63
(g84
g65
NtRp328
(dp329
g68
(dp330
g88
g89
ssg77
g324
sg70
(lp331
S'domain'
p332
asbag63
(g84
g65
NtRp333
(dp334
g68
(dp335
g95
g96
ssg77
g324
sg70
(lp336
S':'
asbag63
(g84
g65
NtRp337
(dp338
g68
(dp339
sg77
g324
sg70
(lp340
g63
(g64
g65
NtRp341
(dp342
g68
(dp343
g76
I3
ssg77
g337
sg70
(lp344
S''
asbasbasbag63
(g79
g65
NtRp345
(dp346
g68
(dp347
sg77
g299
sg70
(lp348
g63
(g84
g65
NtRp349
(dp350
g68
(dp351
g88
g89
ssg77
g345
sg70
(lp352
S'expires'
p353
asbag63
(g84
g65
NtRp354
(dp355
g68
(dp356
g95
g96
ssg77
g345
sg70
(lp357
S':'
asbag63
(g84
g65
NtRp358
(dp359
g68
(dp360
sg77
g345
sg70
(lp361
g63
(g64
g65
NtRp362
(dp363
g68
(dp364
g76
I3
ssg77
g358
sg70
(lp365
S''
asbasbasbag63
(g79
g65
NtRp366
(dp367
g68
(dp368
sg77
g299
sg70
(lp369
g63
(g84
g65
NtRp370
(dp371
g68
(dp372
g88
g89
ssg77
g366
sg70
(lp373
S'httponly'
p374
asbag63
(g84
g65
NtRp375
(dp376
g68
(dp377
g95
g96
ssg77
g366
sg70
(lp378
S':'
asbag63
(g84
g65
NtRp379
(dp380
g68
(dp381
sg77
g366
sg70
(lp382
g63
(g64
g65
NtRp383
(dp384
g68
(dp385
g76
I3
ssg77
g379
sg70
(lp386
S''
asbasbasbag63
(g79
g65
NtRp387
(dp388
g68
(dp389
sg77
g299
sg70
(lp390
g63
(g84
g65
NtRp391
(dp392
g68
(dp393
g88
g89
ssg77
g387
sg70
(lp394
S'max-age'
p395
asbag63
(g84
g65
NtRp396
(dp397
g68
(dp398
g95
g96
ssg77
g387
sg70
(lp399
S':'
asbag63
(g84
g65
NtRp400
(dp401
g68
(dp402
sg77
g387
sg70
(lp403
g63
(g64
g65
NtRp404
(dp405
g68
(dp406
g76
I3
ssg77
g400
sg70
(lp407
S''
asbasbasbag63
(g79
g65
NtRp408
(dp409
g68
(dp410
sg77
g299
sg70
(lp411
g63
(g84
g65
NtRp412
(dp413
g68
(dp414
g88
g89
ssg77
g408
sg70
(lp415
S'path'
p416
asbag63
(g84
g65
NtRp417
(dp418
g68
(dp419
g95
g96
ssg77
g408
sg70
(lp420
S':'
asbag63
(g84
g65
NtRp421
(dp422
g68
(dp423
sg77
g408
sg70
(lp424
g63
(g64
g65
NtRp425
(dp426
g68
(dp427
g76
I3
ssg77
g421
sg70
(lp428
S''
asbasbasbag63
(g79
g65
NtRp429
(dp430
g68
(dp431
sg77
g299
sg70
(lp432
g63
(g84
g65
NtRp433
(dp434
g68
(dp435
g88
g89
ssg77
g429
sg70
(lp436
S'secure'
p437
asbag63
(g84
g65
NtRp438
(dp439
g68
(dp440
g95
g96
ssg77
g429
sg70
(lp441
S':'
asbag63
(g84
g65
NtRp442
(dp443
g68
(dp444
sg77
g429
sg70
(lp445
g63
(g64
g65
NtRp446
(dp447
g68
(dp448
g76
I3
ssg77
g442
sg70
(lp449
S''
asbasbasbag63
(g79
g65
NtRp450
(dp451
g68
(dp452
sg77
g299
sg70
(lp453
g63
(g84
g65
NtRp454
(dp455
g68
(dp456
g88
g89
ssg77
g450
sg70
(lp457
S'version'
p458
asbag63
(g84
g65
NtRp459
(dp460
g68
(dp461
g95
g96
ssg77
g450
sg70
(lp462
S':'
asbag63
(g84
g65
NtRp463
(dp464
g68
(dp465
sg77
g450
sg70
(lp466
g63
(g64
g65
NtRp467
(dp468
g68
(dp469
g76
I3
ssg77
g463
sg70
(lp470
S''
asbasbasbasbasbasbasbag63
(g79
g65
NtRp471
(dp472
g68
(dp473
sg77
g274
sg70
(lp474
g63
(g84
g65
NtRp475
(dp476
g68
(dp477
g88
g89
ssg77
g471
sg70
(lp478
S'session_id_bloglet'
p479
asbag63
(g84
g65
NtRp480
(dp481
g68
(dp482
g95
g96
ssg77
g471
sg70
(lp483
S':'
asbag63
(g84
g65
NtRp484
(dp485
g68
(dp486
sg77
g471
sg70
(lp487
g63
(g64
g65
NtRp488
(dp489
g68
(dp490
g76
I4
ssg77
g484
sg70
(lp491
g63
(g72
g65
NtRp492
(dp493
g68
(dp494
g76
I3
ssg77
Nsg70
(lp495
g63
(g79
g65
NtRp496
(dp497
g68
(dp498
sg77
g492
sg70
(lp499
g63
(g84
g65
NtRp500
(dp501
g68
(dp502
g88
g89
ssg77
g496
sg70
(lp503
g311
asbag63
(g84
g65
NtRp504
(dp505
g68
(dp506
g95
g96
ssg77
g496
sg70
(lp507
S':'
asbag63
(g84
g65
NtRp508
(dp509
g68
(dp510
sg77
g496
sg70
(lp511
g63
(g64
g65
NtRp512
(dp513
g68
(dp514
g76
I3
ssg77
g508
sg70
(lp515
S''
asbasbasbag63
(g79
g65
NtRp516
(dp517
g68
(dp518
sg77
g492
sg70
(lp519
g63
(g84
g65
NtRp520
(dp521
g68
(dp522
g88
g89
ssg77
g516
sg70
(lp523
g332
asbag63
(g84
g65
NtRp524
(dp525
g68
(dp526
g95
g96
ssg77
g516
sg70
(lp527
S':'
asbag63
(g84
g65
NtRp528
(dp529
g68
(dp530
sg77
g516
sg70
(lp531
g63
(g64
g65
NtRp532
(dp533
g68
(dp534
g76
I3
ssg77
g528
sg70
(lp535
S''
asbasbasbag63
(g79
g65
NtRp536
(dp537
g68
(dp538
sg77
g492
sg70
(lp539
g63
(g84
g65
NtRp540
(dp541
g68
(dp542
g88
g89
ssg77
g536
sg70
(lp543
g353
asbag63
(g84
g65
NtRp544
(dp545
g68
(dp546
g95
g96
ssg77
g536
sg70
(lp547
S':'
asbag63
(g84
g65
NtRp548
(dp549
g68
(dp550
sg77
g536
sg70
(lp551
g63
(g64
g65
NtRp552
(dp553
g68
(dp554
g76
I3
ssg77
g548
sg70
(lp555
S''
asbasbasbag63
(g79
g65
NtRp556
(dp557
g68
(dp558
sg77
g492
sg70
(lp559
g63
(g84
g65
NtRp560
(dp561
g68
(dp562
g88
g89
ssg77
g556
sg70
(lp563
g374
asbag63
(g84
g65
NtRp564
(dp565
g68
(dp566
g95
g96
ssg77
g556
sg70
(lp567
S':'
asbag63
(g84
g65
NtRp568
(dp569
g68
(dp570
sg77
g556
sg70
(lp571
g63
(g64
g65
NtRp572
(dp573
g68
(dp574
g76
I3
ssg77
g568
sg70
(lp575
S''
asbasbasbag63
(g79
g65
NtRp576
(dp577
g68
(dp578
sg77
g492
sg70
(lp579
g63
(g84
g65
NtRp580
(dp581
g68
(dp582
g88
g89
ssg77
g576
sg70
(lp583
g395
asbag63
(g84
g65
NtRp584
(dp585
g68
(dp586
g95
g96
ssg77
g576
sg70
(lp587
S':'
asbag63
(g84
g65
NtRp588
(dp589
g68
(dp590
sg77
g576
sg70
(lp591
g63
(g64
g65
NtRp592
(dp593
g68
(dp594
g76
I3
ssg77
g588
sg70
(lp595
S''
asbasbasbag63
(g79
g65
NtRp596
(dp597
g68
(dp598
sg77
g492
sg70
(lp599
g63
(g84
g65
NtRp600
(dp601
g68
(dp602
g88
g89
ssg77
g596
sg70
(lp603
g416
asbag63
(g84
g65
NtRp604
(dp605
g68
(dp606
g95
g96
ssg77
g596
sg70
(lp607
S':'
asbag63
(g84
g65
NtRp608
(dp609
g68
(dp610
sg77
g596
sg70
(lp611
g63
(g64
g65
NtRp612
(dp613
g68
(dp614
g76
I3
ssg77
g608
sg70
(lp615
S''
asbasbasbag63
(g79
g65
NtRp616
(dp617
g68
(dp618
sg77
g492
sg70
(lp619
g63
(g84
g65
NtRp620
(dp621
g68
(dp622
g88
g89
ssg77
g616
sg70
(lp623
g437
asbag63
(g84
g65
NtRp624
(dp625
g68
(dp626
g95
g96
ssg77
g616
sg70
(lp627
S':'
asbag63
(g84
g65
NtRp628
(dp629
g68
(dp630
sg77
g616
sg70
(lp631
g63
(g64
g65
NtRp632
(dp633
g68
(dp634
g76
I3
ssg77
g628
sg70
(lp635
S''
asbasbasbag63
(g79
g65
NtRp636
(dp637
g68
(dp638
sg77
g492
sg70
(lp639
g63
(g84
g65
NtRp640
(dp641
g68
(dp642
g88
g89
ssg77
g636
sg70
(lp643
g458
asbag63
(g84
g65
NtRp644
(dp645
g68
(dp646
g95
g96
ssg77
g636
sg70
(lp647
S':'
asbag63
(g84
g65
NtRp648
(dp649
g68
(dp650
sg77
g636
sg70
(lp651
g63
(g64
g65
NtRp652
(dp653
g68
(dp654
g76
I3
ssg77
g648
sg70
(lp655
S''
asbasbasbasbasbasbasbag63
(g79
g65
NtRp656
(dp657
g68
(dp658
sg77
g274
sg70
(lp659
g63
(g84
g65
NtRp660
(dp661
g68
(dp662
g88
g89
ssg77
g656
sg70
(lp663
S'session_id_grammateus3'
p664
asbag63
(g84
g65
NtRp665
(dp666
g68
(dp667
g95
g96
ssg77
g656
sg70
(lp668
S':'
asbag63
(g84
g65
NtRp669
(dp670
g68
(dp671
sg77
g656
sg70
(lp672
g63
(g64
g65
NtRp673
(dp674
g68
(dp675
g76
I4
ssg77
g669
sg70
(lp676
g63
(g72
g65
NtRp677
(dp678
g68
(dp679
g76
I3
ssg77
Nsg70
(lp680
g63
(g79
g65
NtRp681
(dp682
g68
(dp683
sg77
g677
sg70
(lp684
g63
(g84
g65
NtRp685
(dp686
g68
(dp687
g88
g89
ssg77
g681
sg70
(lp688
g311
asbag63
(g84
g65
NtRp689
(dp690
g68
(dp691
g95
g96
ssg77
g681
sg70
(lp692
S':'
asbag63
(g84
g65
NtRp693
(dp694
g68
(dp695
sg77
g681
sg70
(lp696
g63
(g64
g65
NtRp697
(dp698
g68
(dp699
g76
I3
ssg77
g693
sg70
(lp700
S''
asbasbasbag63
(g79
g65
NtRp701
(dp702
g68
(dp703
sg77
g677
sg70
(lp704
g63
(g84
g65
NtRp705
(dp706
g68
(dp707
g88
g89
ssg77
g701
sg70
(lp708
g332
asbag63
(g84
g65
NtRp709
(dp710
g68
(dp711
g95
g96
ssg77
g701
sg70
(lp712
S':'
asbag63
(g84
g65
NtRp713
(dp714
g68
(dp715
sg77
g701
sg70
(lp716
g63
(g64
g65
NtRp717
(dp718
g68
(dp719
g76
I3
ssg77
g713
sg70
(lp720
S''
asbasbasbag63
(g79
g65
NtRp721
(dp722
g68
(dp723
sg77
g677
sg70
(lp724
g63
(g84
g65
NtRp725
(dp726
g68
(dp727
g88
g89
ssg77
g721
sg70
(lp728
g353
asbag63
(g84
g65
NtRp729
(dp730
g68
(dp731
g95
g96
ssg77
g721
sg70
(lp732
S':'
asbag63
(g84
g65
NtRp733
(dp734
g68
(dp735
sg77
g721
sg70
(lp736
g63
(g64
g65
NtRp737
(dp738
g68
(dp739
g76
I3
ssg77
g733
sg70
(lp740
S''
asbasbasbag63
(g79
g65
NtRp741
(dp742
g68
(dp743
sg77
g677
sg70
(lp744
g63
(g84
g65
NtRp745
(dp746
g68
(dp747
g88
g89
ssg77
g741
sg70
(lp748
g374
asbag63
(g84
g65
NtRp749
(dp750
g68
(dp751
g95
g96
ssg77
g741
sg70
(lp752
S':'
asbag63
(g84
g65
NtRp753
(dp754
g68
(dp755
sg77
g741
sg70
(lp756
g63
(g64
g65
NtRp757
(dp758
g68
(dp759
g76
I3
ssg77
g753
sg70
(lp760
S''
asbasbasbag63
(g79
g65
NtRp761
(dp762
g68
(dp763
sg77
g677
sg70
(lp764
g63
(g84
g65
NtRp765
(dp766
g68
(dp767
g88
g89
ssg77
g761
sg70
(lp768
g395
asbag63
(g84
g65
NtRp769
(dp770
g68
(dp771
g95
g96
ssg77
g761
sg70
(lp772
S':'
asbag63
(g84
g65
NtRp773
(dp774
g68
(dp775
sg77
g761
sg70
(lp776
g63
(g64
g65
NtRp777
(dp778
g68
(dp779
g76
I3
ssg77
g773
sg70
(lp780
S''
asbasbasbag63
(g79
g65
NtRp781
(dp782
g68
(dp783
sg77
g677
sg70
(lp784
g63
(g84
g65
NtRp785
(dp786
g68
(dp787
g88
g89
ssg77
g781
sg70
(lp788
g416
asbag63
(g84
g65
NtRp789
(dp790
g68
(dp791
g95
g96
ssg77
g781
sg70
(lp792
S':'
asbag63
(g84
g65
NtRp793
(dp794
g68
(dp795
sg77
g781
sg70
(lp796
g63
(g64
g65
NtRp797
(dp798
g68
(dp799
g76
I3
ssg77
g793
sg70
(lp800
S''
asbasbasbag63
(g79
g65
NtRp801
(dp802
g68
(dp803
sg77
g677
sg70
(lp804
g63
(g84
g65
NtRp805
(dp806
g68
(dp807
g88
g89
ssg77
g801
sg70
(lp808
g437
asbag63
(g84
g65
NtRp809
(dp810
g68
(dp811
g95
g96
ssg77
g801
sg70
(lp812
S':'
asbag63
(g84
g65
NtRp813
(dp814
g68
(dp815
sg77
g801
sg70
(lp816
g63
(g64
g65
NtRp817
(dp818
g68
(dp819
g76
I3
ssg77
g813
sg70
(lp820
S''
asbasbasbag63
(g79
g65
NtRp821
(dp822
g68
(dp823
sg77
g677
sg70
(lp824
g63
(g84
g65
NtRp825
(dp826
g68
(dp827
g88
g89
ssg77
g821
sg70
(lp828
g458
asbag63
(g84
g65
NtRp829
(dp830
g68
(dp831
g95
g96
ssg77
g821
sg70
(lp832
S':'
asbag63
(g84
g65
NtRp833
(dp834
g68
(dp835
sg77
g821
sg70
(lp836
g63
(g64
g65
NtRp837
(dp838
g68
(dp839
g76
I3
ssg77
g833
sg70
(lp840
S''
asbasbasbasbasbasbasbag63
(g79
g65
NtRp841
(dp842
g68
(dp843
sg77
g274
sg70
(lp844
g63
(g84
g65
NtRp845
(dp846
g68
(dp847
g88
g89
ssg77
g841
sg70
(lp848
S'session_id_paideia'
p849
asbag63
(g84
g65
NtRp850
(dp851
g68
(dp852
g95
g96
ssg77
g841
sg70
(lp853
S':'
asbag63
(g84
g65
NtRp854
(dp855
g68
(dp856
sg77
g841
sg70
(lp857
g63
(g64
g65
NtRp858
(dp859
g68
(dp860
g76
I4
ssg77
g854
sg70
(lp861
g63
(g72
g65
NtRp862
(dp863
g68
(dp864
g76
I3
ssg77
Nsg70
(lp865
g63
(g79
g65
NtRp866
(dp867
g68
(dp868
sg77
g862
sg70
(lp869
g63
(g84
g65
NtRp870
(dp871
g68
(dp872
g88
g89
ssg77
g866
sg70
(lp873
g311
asbag63
(g84
g65
NtRp874
(dp875
g68
(dp876
g95
g96
ssg77
g866
sg70
(lp877
S':'
asbag63
(g84
g65
NtRp878
(dp879
g68
(dp880
sg77
g866
sg70
(lp881
g63
(g64
g65
NtRp882
(dp883
g68
(dp884
g76
I3
ssg77
g878
sg70
(lp885
S''
asbasbasbag63
(g79
g65
NtRp886
(dp887
g68
(dp888
sg77
g862
sg70
(lp889
g63
(g84
g65
NtRp890
(dp891
g68
(dp892
g88
g89
ssg77
g886
sg70
(lp893
g332
asbag63
(g84
g65
NtRp894
(dp895
g68
(dp896
g95
g96
ssg77
g886
sg70
(lp897
S':'
asbag63
(g84
g65
NtRp898
(dp899
g68
(dp900
sg77
g886
sg70
(lp901
g63
(g64
g65
NtRp902
(dp903
g68
(dp904
g76
I3
ssg77
g898
sg70
(lp905
S''
asbasbasbag63
(g79
g65
NtRp906
(dp907
g68
(dp908
sg77
g862
sg70
(lp909
g63
(g84
g65
NtRp910
(dp911
g68
(dp912
g88
g89
ssg77
g906
sg70
(lp913
g353
asbag63
(g84
g65
NtRp914
(dp915
g68
(dp916
g95
g96
ssg77
g906
sg70
(lp917
S':'
asbag63
(g84
g65
NtRp918
(dp919
g68
(dp920
sg77
g906
sg70
(lp921
g63
(g64
g65
NtRp922
(dp923
g68
(dp924
g76
I3
ssg77
g918
sg70
(lp925
S''
asbasbasbag63
(g79
g65
NtRp926
(dp927
g68
(dp928
sg77
g862
sg70
(lp929
g63
(g84
g65
NtRp930
(dp931
g68
(dp932
g88
g89
ssg77
g926
sg70
(lp933
g374
asbag63
(g84
g65
NtRp934
(dp935
g68
(dp936
g95
g96
ssg77
g926
sg70
(lp937
S':'
asbag63
(g84
g65
NtRp938
(dp939
g68
(dp940
sg77
g926
sg70
(lp941
g63
(g64
g65
NtRp942
(dp943
g68
(dp944
g76
I3
ssg77
g938
sg70
(lp945
S''
asbasbasbag63
(g79
g65
NtRp946
(dp947
g68
(dp948
sg77
g862
sg70
(lp949
g63
(g84
g65
NtRp950
(dp951
g68
(dp952
g88
g89
ssg77
g946
sg70
(lp953
g395
asbag63
(g84
g65
NtRp954
(dp955
g68
(dp956
g95
g96
ssg77
g946
sg70
(lp957
S':'
asbag63
(g84
g65
NtRp958
(dp959
g68
(dp960
sg77
g946
sg70
(lp961
g63
(g64
g65
NtRp962
(dp963
g68
(dp964
g76
I3
ssg77
g958
sg70
(lp965
S''
asbasbasbag63
(g79
g65
NtRp966
(dp967
g68
(dp968
sg77
g862
sg70
(lp969
g63
(g84
g65
NtRp970
(dp971
g68
(dp972
g88
g89
ssg77
g966
sg70
(lp973
g416
asbag63
(g84
g65
NtRp974
(dp975
g68
(dp976
g95
g96
ssg77
g966
sg70
(lp977
S':'
asbag63
(g84
g65
NtRp978
(dp979
g68
(dp980
sg77
g966
sg70
(lp981
g63
(g64
g65
NtRp982
(dp983
g68
(dp984
g76
I3
ssg77
g978
sg70
(lp985
S''
asbasbasbag63
(g79
g65
NtRp986
(dp987
g68
(dp988
sg77
g862
sg70
(lp989
g63
(g84
g65
NtRp990
(dp991
g68
(dp992
g88
g89
ssg77
g986
sg70
(lp993
g437
asbag63
(g84
g65
NtRp994
(dp995
g68
(dp996
g95
g96
ssg77
g986
sg70
(lp997
S':'
asbag63
(g84
g65
NtRp998
(dp999
g68
(dp1000
sg77
g986
sg70
(lp1001
g63
(g64
g65
NtRp1002
(dp1003
g68
(dp1004
g76
I3
ssg77
g998
sg70
(lp1005
S''
asbasbasbag63
(g79
g65
NtRp1006
(dp1007
g68
(dp1008
sg77
g862
sg70
(lp1009
g63
(g84
g65
NtRp1010
(dp1011
g68
(dp1012
g88
g89
ssg77
g1006
sg70
(lp1013
g458
asbag63
(g84
g65
NtRp1014
(dp1015
g68
(dp1016
g95
g96
ssg77
g1006
sg70
(lp1017
S':'
asbag63
(g84
g65
NtRp1018
(dp1019
g68
(dp1020
sg77
g1006
sg70
(lp1021
g63
(g64
g65
NtRp1022
(dp1023
g68
(dp1024
g76
I3
ssg77
g1018
sg70
(lp1025
S''
asbasbasbasbasbasbasbag63
(g79
g65
NtRp1026
(dp1027
g68
(dp1028
sg77
g274
sg70
(lp1029
g63
(g84
g65
NtRp1030
(dp1031
g68
(dp1032
g88
g89
ssg77
g1026
sg70
(lp1033
S'session_id_welcome'
p1034
asbag63
(g84
g65
NtRp1035
(dp1036
g68
(dp1037
g95
g96
ssg77
g1026
sg70
(lp1038
S':'
asbag63
(g84
g65
NtRp1039
(dp1040
g68
(dp1041
sg77
g1026
sg70
(lp1042
g63
(g64
g65
NtRp1043
(dp1044
g68
(dp1045
g76
I4
ssg77
g1039
sg70
(lp1046
g63
(g72
g65
NtRp1047
(dp1048
g68
(dp1049
g76
I3
ssg77
Nsg70
(lp1050
g63
(g79
g65
NtRp1051
(dp1052
g68
(dp1053
sg77
g1047
sg70
(lp1054
g63
(g84
g65
NtRp1055
(dp1056
g68
(dp1057
g88
g89
ssg77
g1051
sg70
(lp1058
g311
asbag63
(g84
g65
NtRp1059
(dp1060
g68
(dp1061
g95
g96
ssg77
g1051
sg70
(lp1062
S':'
asbag63
(g84
g65
NtRp1063
(dp1064
g68
(dp1065
sg77
g1051
sg70
(lp1066
g63
(g64
g65
NtRp1067
(dp1068
g68
(dp1069
g76
I3
ssg77
g1063
sg70
(lp1070
S''
asbasbasbag63
(g79
g65
NtRp1071
(dp1072
g68
(dp1073
sg77
g1047
sg70
(lp1074
g63
(g84
g65
NtRp1075
(dp1076
g68
(dp1077
g88
g89
ssg77
g1071
sg70
(lp1078
g332
asbag63
(g84
g65
NtRp1079
(dp1080
g68
(dp1081
g95
g96
ssg77
g1071
sg70
(lp1082
S':'
asbag63
(g84
g65
NtRp1083
(dp1084
g68
(dp1085
sg77
g1071
sg70
(lp1086
g63
(g64
g65
NtRp1087
(dp1088
g68
(dp1089
g76
I3
ssg77
g1083
sg70
(lp1090
S''
asbasbasbag63
(g79
g65
NtRp1091
(dp1092
g68
(dp1093
sg77
g1047
sg70
(lp1094
g63
(g84
g65
NtRp1095
(dp1096
g68
(dp1097
g88
g89
ssg77
g1091
sg70
(lp1098
g353
asbag63
(g84
g65
NtRp1099
(dp1100
g68
(dp1101
g95
g96
ssg77
g1091
sg70
(lp1102
S':'
asbag63
(g84
g65
NtRp1103
(dp1104
g68
(dp1105
sg77
g1091
sg70
(lp1106
g63
(g64
g65
NtRp1107
(dp1108
g68
(dp1109
g76
I3
ssg77
g1103
sg70
(lp1110
S''
asbasbasbag63
(g79
g65
NtRp1111
(dp1112
g68
(dp1113
sg77
g1047
sg70
(lp1114
g63
(g84
g65
NtRp1115
(dp1116
g68
(dp1117
g88
g89
ssg77
g1111
sg70
(lp1118
g374
asbag63
(g84
g65
NtRp1119
(dp1120
g68
(dp1121
g95
g96
ssg77
g1111
sg70
(lp1122
S':'
asbag63
(g84
g65
NtRp1123
(dp1124
g68
(dp1125
sg77
g1111
sg70
(lp1126
g63
(g64
g65
NtRp1127
(dp1128
g68
(dp1129
g76
I3
ssg77
g1123
sg70
(lp1130
S''
asbasbasbag63
(g79
g65
NtRp1131
(dp1132
g68
(dp1133
sg77
g1047
sg70
(lp1134
g63
(g84
g65
NtRp1135
(dp1136
g68
(dp1137
g88
g89
ssg77
g1131
sg70
(lp1138
g395
asbag63
(g84
g65
NtRp1139
(dp1140
g68
(dp1141
g95
g96
ssg77
g1131
sg70
(lp1142
S':'
asbag63
(g84
g65
NtRp1143
(dp1144
g68
(dp1145
sg77
g1131
sg70
(lp1146
g63
(g64
g65
NtRp1147
(dp1148
g68
(dp1149
g76
I3
ssg77
g1143
sg70
(lp1150
S''
asbasbasbag63
(g79
g65
NtRp1151
(dp1152
g68
(dp1153
sg77
g1047
sg70
(lp1154
g63
(g84
g65
NtRp1155
(dp1156
g68
(dp1157
g88
g89
ssg77
g1151
sg70
(lp1158
g416
asbag63
(g84
g65
NtRp1159
(dp1160
g68
(dp1161
g95
g96
ssg77
g1151
sg70
(lp1162
S':'
asbag63
(g84
g65
NtRp1163
(dp1164
g68
(dp1165
sg77
g1151
sg70
(lp1166
g63
(g64
g65
NtRp1167
(dp1168
g68
(dp1169
g76
I3
ssg77
g1163
sg70
(lp1170
S''
asbasbasbag63
(g79
g65
NtRp1171
(dp1172
g68
(dp1173
sg77
g1047
sg70
(lp1174
g63
(g84
g65
NtRp1175
(dp1176
g68
(dp1177
g88
g89
ssg77
g1171
sg70
(lp1178
g437
asbag63
(g84
g65
NtRp1179
(dp1180
g68
(dp1181
g95
g96
ssg77
g1171
sg70
(lp1182
S':'
asbag63
(g84
g65
NtRp1183
(dp1184
g68
(dp1185
sg77
g1171
sg70
(lp1186
g63
(g64
g65
NtRp1187
(dp1188
g68
(dp1189
g76
I3
ssg77
g1183
sg70
(lp1190
S''
asbasbasbag63
(g79
g65
NtRp1191
(dp1192
g68
(dp1193
sg77
g1047
sg70
(lp1194
g63
(g84
g65
NtRp1195
(dp1196
g68
(dp1197
g88
g89
ssg77
g1191
sg70
(lp1198
g458
asbag63
(g84
g65
NtRp1199
(dp1200
g68
(dp1201
g95
g96
ssg77
g1191
sg70
(lp1202
S':'
asbag63
(g84
g65
NtRp1203
(dp1204
g68
(dp1205
sg77
g1191
sg70
(lp1206
g63
(g64
g65
NtRp1207
(dp1208
g68
(dp1209
g76
I3
ssg77
g1203
sg70
(lp1210
S''
asbasbasbasbasbasbasbasbasbasbasbag63
(g79
g65
NtRp1211
(dp1212
g68
(dp1213
sg77
g73
sg70
(lp1214
g63
(g84
g65
NtRp1215
(dp1216
g68
(dp1217
g88
g89
ssg77
g1211
sg70
(lp1218
S'env'
p1219
asbag63
(g84
g65
NtRp1220
(dp1221
g68
(dp1222
g95
g96
ssg77
g1211
sg70
(lp1223
S':'
asbag63
(g84
g65
NtRp1224
(dp1225
g68
(dp1226
sg77
g1211
sg70
(lp1227
g63
(g64
g65
NtRp1228
(dp1229
g68
(dp1230
g76
I5
ssg77
g1224
sg70
(lp1231
g63
(g72
g65
NtRp1232
(dp1233
g68
(dp1234
g76
I4
ssg77
Nsg70
(lp1235
g63
(g79
g65
NtRp1236
(dp1237
g68
(dp1238
sg77
g1232
sg70
(lp1239
g63
(g84
g65
NtRp1240
(dp1241
g68
(dp1242
g88
g89
ssg77
g1236
sg70
(lp1243
S'app_folders'
p1244
asbag63
(g84
g65
NtRp1245
(dp1246
g68
(dp1247
g95
g96
ssg77
g1236
sg70
(lp1248
S':'
asbag63
(g84
g65
NtRp1249
(dp1250
g68
(dp1251
sg77
g1236
sg70
(lp1252
g63
(g64
g65
NtRp1253
(dp1254
g68
(dp1255
g76
I4
ssg77
g1249
sg70
(lp1256
S"set(['/home/iscott/web/web2py/applications/grammateus3/', '/home/iscott/web/web2py/applications/admin/', '/home/iscott/web/web2py/applications/welcome/'])"
p1257
asbasbasbag63
(g79
g65
NtRp1258
(dp1259
g68
(dp1260
sg77
g1232
sg70
(lp1261
g63
(g84
g65
NtRp1262
(dp1263
g68
(dp1264
g88
g89
ssg77
g1258
sg70
(lp1265
S'applications_parent'
p1266
asbag63
(g84
g65
NtRp1267
(dp1268
g68
(dp1269
g95
g96
ssg77
g1258
sg70
(lp1270
S':'
asbag63
(g84
g65
NtRp1271
(dp1272
g68
(dp1273
sg77
g1258
sg70
(lp1274
g63
(g64
g65
NtRp1275
(dp1276
g68
(dp1277
g76
I4
ssg77
g1271
sg70
(lp1278
S'/home/iscott/web/web2py'
p1279
asbasbasbag63
(g79
g65
NtRp1280
(dp1281
g68
(dp1282
sg77
g1232
sg70
(lp1283
g63
(g84
g65
NtRp1284
(dp1285
g68
(dp1286
g88
g89
ssg77
g1280
sg70
(lp1287
S'cmd_args'
p1288
asbag63
(g84
g65
NtRp1289
(dp1290
g68
(dp1291
g95
g96
ssg77
g1280
sg70
(lp1292
S':'
asbag63
(g84
g65
NtRp1293
(dp1294
g68
(dp1295
sg77
g1280
sg70
(lp1296
g63
(g64
g65
NtRp1297
(dp1298
g68
(dp1299
g76
I4
ssg77
g1293
sg70
(lp1300
g63
(g72
g65
NtRp1301
(dp1302
g68
(dp1303
g76
I3
ssg77
Nsg70
(lp1304
sbasbasbasbag63
(g79
g65
NtRp1305
(dp1306
g68
(dp1307
sg77
g1232
sg70
(lp1308
g63
(g84
g65
NtRp1309
(dp1310
g68
(dp1311
g88
g89
ssg77
g1305
sg70
(lp1312
S'cmd_options'
p1313
asbag63
(g84
g65
NtRp1314
(dp1315
g68
(dp1316
g95
g96
ssg77
g1305
sg70
(lp1317
S':'
asbag63
(g84
g65
NtRp1318
(dp1319
g68
(dp1320
sg77
g1305
sg70
(lp1321
g63
(g64
g65
NtRp1322
(dp1323
g68
(dp1324
g76
I4
ssg77
g1318
sg70
(lp1325
S"<Values at 0x911db8c: {'verbose': False, 'ip': '127.0.0.1', 'shutdown_timeout': 5, 'taskbar': False, 'nocron': False, 'pid_filename': 'httpserver.pid', 'maxthreads': None, 'softcron': False, 'server_name': 'ubuntu', 'bpython': False, 'nogui': False, 'port': 8000, 'extcron': False, 'debuglevel': 30, 'test': None, 'folder': '/home/iscott/web/web2py', 'config': '', 'import_models': False, 'winservice': '', 'shell': None, 'run': '', 'log_filename': 'httpserver.log', 'args': [''], 'socket_timeout': 1, 'ssl_ca_certificate': None, 'scheduler': None, 'profiler_filename': None, 'ssl_private_key': '', 'password': '<ask>', 'request_queue_size': 5, 'ssl_certificate': '', 'cronjob': False, 'numthreads': None, 'quiet': False, 'interfaces': None, 'minthreads': None, 'timeout': 10, 'plain': False, 'nobanner': False}>"
p1326
asbasbasbag63
(g79
g65
NtRp1327
(dp1328
g68
(dp1329
sg77
g1232
sg70
(lp1330
g63
(g84
g65
NtRp1331
(dp1332
g68
(dp1333
g88
g89
ssg77
g1327
sg70
(lp1334
S'db_sessions'
p1335
asbag63
(g84
g65
NtRp1336
(dp1337
g68
(dp1338
g95
g96
ssg77
g1327
sg70
(lp1339
S':'
asbag63
(g84
g65
NtRp1340
(dp1341
g68
(dp1342
sg77
g1327
sg70
(lp1343
g63
(g64
g65
NtRp1344
(dp1345
g68
(dp1346
g76
I4
ssg77
g1340
sg70
(lp1347
S'set([])'
p1348
asbasbasbag63
(g79
g65
NtRp1349
(dp1350
g68
(dp1351
sg77
g1232
sg70
(lp1352
g63
(g84
g65
NtRp1353
(dp1354
g68
(dp1355
g88
g89
ssg77
g1349
sg70
(lp1356
S'debugging'
p1357
asbag63
(g84
g65
NtRp1358
(dp1359
g68
(dp1360
g95
g96
ssg77
g1349
sg70
(lp1361
S':'
asbag63
(g84
g65
NtRp1362
(dp1363
g68
(dp1364
sg77
g1349
sg70
(lp1365
g63
(g64
g65
NtRp1366
(dp1367
g68
(dp1368
g76
I4
ssg77
g1362
sg70
(lp1369
S'False'
p1370
asbasbasbag63
(g79
g65
NtRp1371
(dp1372
g68
(dp1373
sg77
g1232
sg70
(lp1374
g63
(g84
g65
NtRp1375
(dp1376
g68
(dp1377
g88
g89
ssg77
g1371
sg70
(lp1378
S'gluon_parent'
p1379
asbag63
(g84
g65
NtRp1380
(dp1381
g68
(dp1382
g95
g96
ssg77
g1371
sg70
(lp1383
S':'
asbag63
(g84
g65
NtRp1384
(dp1385
g68
(dp1386
sg77
g1371
sg70
(lp1387
g63
(g64
g65
NtRp1388
(dp1389
g68
(dp1390
g76
I4
ssg77
g1384
sg70
(lp1391
S'/home/iscott/web/web2py'
p1392
asbasbasbag63
(g79
g65
NtRp1393
(dp1394
g68
(dp1395
sg77
g1232
sg70
(lp1396
g63
(g84
g65
NtRp1397
(dp1398
g68
(dp1399
g88
g89
ssg77
g1393
sg70
(lp1400
S'http_accept'
p1401
asbag63
(g84
g65
NtRp1402
(dp1403
g68
(dp1404
g95
g96
ssg77
g1393
sg70
(lp1405
S':'
asbag63
(g84
g65
NtRp1406
(dp1407
g68
(dp1408
sg77
g1393
sg70
(lp1409
g63
(g64
g65
NtRp1410
(dp1411
g68
(dp1412
g76
I4
ssg77
g1406
sg70
(lp1413
S'*/*'
p1414
asbasbasbag63
(g79
g65
NtRp1415
(dp1416
g68
(dp1417
sg77
g1232
sg70
(lp1418
g63
(g84
g65
NtRp1419
(dp1420
g68
(dp1421
g88
g89
ssg77
g1415
sg70
(lp1422
S'http_accept_encoding'
p1423
asbag63
(g84
g65
NtRp1424
(dp1425
g68
(dp1426
g95
g96
ssg77
g1415
sg70
(lp1427
S':'
asbag63
(g84
g65
NtRp1428
(dp1429
g68
(dp1430
sg77
g1415
sg70
(lp1431
g63
(g64
g65
NtRp1432
(dp1433
g68
(dp1434
g76
I4
ssg77
g1428
sg70
(lp1435
S'gzip, deflate'
p1436
asbasbasbag63
(g79
g65
NtRp1437
(dp1438
g68
(dp1439
sg77
g1232
sg70
(lp1440
g63
(g84
g65
NtRp1441
(dp1442
g68
(dp1443
g88
g89
ssg77
g1437
sg70
(lp1444
S'http_accept_language'
p1445
asbag63
(g84
g65
NtRp1446
(dp1447
g68
(dp1448
g95
g96
ssg77
g1437
sg70
(lp1449
S':'
asbag63
(g84
g65
NtRp1450
(dp1451
g68
(dp1452
sg77
g1437
sg70
(lp1453
g63
(g64
g65
NtRp1454
(dp1455
g68
(dp1456
g76
I4
ssg77
g1450
sg70
(lp1457
S'en-us,en;q=0.5'
p1458
asbasbasbag63
(g79
g65
NtRp1459
(dp1460
g68
(dp1461
sg77
g1232
sg70
(lp1462
g63
(g84
g65
NtRp1463
(dp1464
g68
(dp1465
g88
g89
ssg77
g1459
sg70
(lp1466
S'http_connection'
p1467
asbag63
(g84
g65
NtRp1468
(dp1469
g68
(dp1470
g95
g96
ssg77
g1459
sg70
(lp1471
S':'
asbag63
(g84
g65
NtRp1472
(dp1473
g68
(dp1474
sg77
g1459
sg70
(lp1475
g63
(g64
g65
NtRp1476
(dp1477
g68
(dp1478
g76
I4
ssg77
g1472
sg70
(lp1479
S'keep-alive'
p1480
asbasbasbag63
(g79
g65
NtRp1481
(dp1482
g68
(dp1483
sg77
g1232
sg70
(lp1484
g63
(g84
g65
NtRp1485
(dp1486
g68
(dp1487
g88
g89
ssg77
g1481
sg70
(lp1488
S'http_cookie'
p1489
asbag63
(g84
g65
NtRp1490
(dp1491
g68
(dp1492
g95
g96
ssg77
g1481
sg70
(lp1493
S':'
asbag63
(g84
g65
NtRp1494
(dp1495
g68
(dp1496
sg77
g1481
sg70
(lp1497
g63
(g64
g65
NtRp1498
(dp1499
g68
(dp1500
g76
I4
ssg77
g1494
sg70
(lp1501
S'session_id_paideia=127.0.0.1-2edda130-d654-4b0f-a819-06652e443aa6; session_id_bloglet=127.0.0.1-e84b0934-9abc-4375-99c8-24980b610007; session_id_welcome=127.0.0.1-875183c3-33d3-41d0-8035-815b0ac6dec9; session_id_admin=127.0.0.1-7161103b-6e62-408c-a4af-c9de7c3a1a30; session_id_grammateus3=127.0.0.1-03d15d8e-e891-4307-a6bf-5717208181cd'
p1502
asbasbasbag63
(g79
g65
NtRp1503
(dp1504
g68
(dp1505
sg77
g1232
sg70
(lp1506
g63
(g84
g65
NtRp1507
(dp1508
g68
(dp1509
g88
g89
ssg77
g1503
sg70
(lp1510
S'http_host'
p1511
asbag63
(g84
g65
NtRp1512
(dp1513
g68
(dp1514
g95
g96
ssg77
g1503
sg70
(lp1515
S':'
asbag63
(g84
g65
NtRp1516
(dp1517
g68
(dp1518
sg77
g1503
sg70
(lp1519
g63
(g64
g65
NtRp1520
(dp1521
g68
(dp1522
g76
I4
ssg77
g1516
sg70
(lp1523
S'127.0.0.1:8000'
p1524
asbasbasbag63
(g79
g65
NtRp1525
(dp1526
g68
(dp1527
sg77
g1232
sg70
(lp1528
g63
(g84
g65
NtRp1529
(dp1530
g68
(dp1531
g88
g89
ssg77
g1525
sg70
(lp1532
S'http_referer'
p1533
asbag63
(g84
g65
NtRp1534
(dp1535
g68
(dp1536
g95
g96
ssg77
g1525
sg70
(lp1537
S':'
asbag63
(g84
g65
NtRp1538
(dp1539
g68
(dp1540
sg77
g1525
sg70
(lp1541
g63
(g64
g65
NtRp1542
(dp1543
g68
(dp1544
g76
I4
ssg77
g1538
sg70
(lp1545
S'http://127.0.0.1:8000/grammateus3/docs/text/8'
p1546
asbasbasbag63
(g79
g65
NtRp1547
(dp1548
g68
(dp1549
sg77
g1232
sg70
(lp1550
g63
(g84
g65
NtRp1551
(dp1552
g68
(dp1553
g88
g89
ssg77
g1547
sg70
(lp1554
S'http_user_agent'
p1555
asbag63
(g84
g65
NtRp1556
(dp1557
g68
(dp1558
g95
g96
ssg77
g1547
sg70
(lp1559
S':'
asbag63
(g84
g65
NtRp1560
(dp1561
g68
(dp1562
sg77
g1547
sg70
(lp1563
g63
(g64
g65
NtRp1564
(dp1565
g68
(dp1566
g76
I4
ssg77
g1560
sg70
(lp1567
S'Mozilla/5.0 (X11; Ubuntu; Linux i686; rv:10.0.2) Gecko/20100101 Firefox/10.0.2'
p1568
asbasbasbag63
(g79
g65
NtRp1569
(dp1570
g68
(dp1571
sg77
g1232
sg70
(lp1572
g63
(g84
g65
NtRp1573
(dp1574
g68
(dp1575
g88
g89
ssg77
g1569
sg70
(lp1576
S'http_web2py_component_element'
p1577
asbag63
(g84
g65
NtRp1578
(dp1579
g68
(dp1580
g95
g96
ssg77
g1569
sg70
(lp1581
S':'
asbag63
(g84
g65
NtRp1582
(dp1583
g68
(dp1584
sg77
g1569
sg70
(lp1585
g63
(g64
g65
NtRp1586
(dp1587
g68
(dp1588
g76
I4
ssg77
g1582
sg70
(lp1589
g208
asbasbasbag63
(g79
g65
NtRp1590
(dp1591
g68
(dp1592
sg77
g1232
sg70
(lp1593
g63
(g84
g65
NtRp1594
(dp1595
g68
(dp1596
g88
g89
ssg77
g1590
sg70
(lp1597
S'http_web2py_component_location'
p1598
asbag63
(g84
g65
NtRp1599
(dp1600
g68
(dp1601
g95
g96
ssg77
g1590
sg70
(lp1602
S':'
asbag63
(g84
g65
NtRp1603
(dp1604
g68
(dp1605
sg77
g1590
sg70
(lp1606
g63
(g64
g65
NtRp1607
(dp1608
g68
(dp1609
g76
I4
ssg77
g1603
sg70
(lp1610
S'http://127.0.0.1:8000/grammateus3/docs/text/8'
p1611
asbasbasbag63
(g79
g65
NtRp1612
(dp1613
g68
(dp1614
sg77
g1232
sg70
(lp1615
g63
(g84
g65
NtRp1616
(dp1617
g68
(dp1618
g88
g89
ssg77
g1612
sg70
(lp1619
S'http_x_requested_with'
p1620
asbag63
(g84
g65
NtRp1621
(dp1622
g68
(dp1623
g95
g96
ssg77
g1612
sg70
(lp1624
S':'
asbag63
(g84
g65
NtRp1625
(dp1626
g68
(dp1627
sg77
g1612
sg70
(lp1628
g63
(g64
g65
NtRp1629
(dp1630
g68
(dp1631
g76
I4
ssg77
g1625
sg70
(lp1632
S'XMLHttpRequest'
p1633
asbasbasbag63
(g79
g65
NtRp1634
(dp1635
g68
(dp1636
sg77
g1232
sg70
(lp1637
g63
(g84
g65
NtRp1638
(dp1639
g68
(dp1640
g88
g89
ssg77
g1634
sg70
(lp1641
S'is_jython'
p1642
asbag63
(g84
g65
NtRp1643
(dp1644
g68
(dp1645
g95
g96
ssg77
g1634
sg70
(lp1646
S':'
asbag63
(g84
g65
NtRp1647
(dp1648
g68
(dp1649
sg77
g1634
sg70
(lp1650
g63
(g64
g65
NtRp1651
(dp1652
g68
(dp1653
g76
I4
ssg77
g1647
sg70
(lp1654
g1370
asbasbasbag63
(g79
g65
NtRp1655
(dp1656
g68
(dp1657
sg77
g1232
sg70
(lp1658
g63
(g84
g65
NtRp1659
(dp1660
g68
(dp1661
g88
g89
ssg77
g1655
sg70
(lp1662
S'is_pypy'
p1663
asbag63
(g84
g65
NtRp1664
(dp1665
g68
(dp1666
g95
g96
ssg77
g1655
sg70
(lp1667
S':'
asbag63
(g84
g65
NtRp1668
(dp1669
g68
(dp1670
sg77
g1655
sg70
(lp1671
g63
(g64
g65
NtRp1672
(dp1673
g68
(dp1674
g76
I4
ssg77
g1668
sg70
(lp1675
g1370
asbasbasbag63
(g79
g65
NtRp1676
(dp1677
g68
(dp1678
sg77
g1232
sg70
(lp1679
g63
(g84
g65
NtRp1680
(dp1681
g68
(dp1682
g88
g89
ssg77
g1676
sg70
(lp1683
S'path_info'
p1684
asbag63
(g84
g65
NtRp1685
(dp1686
g68
(dp1687
g95
g96
ssg77
g1676
sg70
(lp1688
S':'
asbag63
(g84
g65
NtRp1689
(dp1690
g68
(dp1691
sg77
g1676
sg70
(lp1692
g63
(g64
g65
NtRp1693
(dp1694
g68
(dp1695
g76
I4
ssg77
g1689
sg70
(lp1696
S'/grammateus3/docs/section.load/8'
p1697
asbasbasbag63
(g79
g65
NtRp1698
(dp1699
g68
(dp1700
sg77
g1232
sg70
(lp1701
g63
(g84
g65
NtRp1702
(dp1703
g68
(dp1704
g88
g89
ssg77
g1698
sg70
(lp1705
S'query_string'
p1706
asbag63
(g84
g65
NtRp1707
(dp1708
g68
(dp1709
g95
g96
ssg77
g1698
sg70
(lp1710
S':'
asbag63
(g84
g65
NtRp1711
(dp1712
g68
(dp1713
sg77
g1698
sg70
(lp1714
g63
(g64
g65
NtRp1715
(dp1716
g68
(dp1717
g76
I4
ssg77
g1711
sg70
(lp1718
S''
asbasbasbag63
(g79
g65
NtRp1719
(dp1720
g68
(dp1721
sg77
g1232
sg70
(lp1722
g63
(g84
g65
NtRp1723
(dp1724
g68
(dp1725
g88
g89
ssg77
g1719
sg70
(lp1726
S'remote_addr'
p1727
asbag63
(g84
g65
NtRp1728
(dp1729
g68
(dp1730
g95
g96
ssg77
g1719
sg70
(lp1731
S':'
asbag63
(g84
g65
NtRp1732
(dp1733
g68
(dp1734
sg77
g1719
sg70
(lp1735
g63
(g64
g65
NtRp1736
(dp1737
g68
(dp1738
g76
I4
ssg77
g1732
sg70
(lp1739
g230
asbasbasbag63
(g79
g65
NtRp1740
(dp1741
g68
(dp1742
sg77
g1232
sg70
(lp1743
g63
(g84
g65
NtRp1744
(dp1745
g68
(dp1746
g88
g89
ssg77
g1740
sg70
(lp1747
S'remote_port'
p1748
asbag63
(g84
g65
NtRp1749
(dp1750
g68
(dp1751
g95
g96
ssg77
g1740
sg70
(lp1752
S':'
asbag63
(g84
g65
NtRp1753
(dp1754
g68
(dp1755
sg77
g1740
sg70
(lp1756
g63
(g64
g65
NtRp1757
(dp1758
g68
(dp1759
g76
I4
ssg77
g1753
sg70
(lp1760
S'52324'
p1761
asbasbasbag63
(g79
g65
NtRp1762
(dp1763
g68
(dp1764
sg77
g1232
sg70
(lp1765
g63
(g84
g65
NtRp1766
(dp1767
g68
(dp1768
g88
g89
ssg77
g1762
sg70
(lp1769
S'request_method'
p1770
asbag63
(g84
g65
NtRp1771
(dp1772
g68
(dp1773
g95
g96
ssg77
g1762
sg70
(lp1774
S':'
asbag63
(g84
g65
NtRp1775
(dp1776
g68
(dp1777
sg77
g1762
sg70
(lp1778
g63
(g64
g65
NtRp1779
(dp1780
g68
(dp1781
g76
I4
ssg77
g1775
sg70
(lp1782
S'GET'
p1783
asbasbasbag63
(g79
g65
NtRp1784
(dp1785
g68
(dp1786
sg77
g1232
sg70
(lp1787
g63
(g84
g65
NtRp1788
(dp1789
g68
(dp1790
g88
g89
ssg77
g1784
sg70
(lp1791
S'script_name'
p1792
asbag63
(g84
g65
NtRp1793
(dp1794
g68
(dp1795
g95
g96
ssg77
g1784
sg70
(lp1796
S':'
asbag63
(g84
g65
NtRp1797
(dp1798
g68
(dp1799
sg77
g1784
sg70
(lp1800
g63
(g64
g65
NtRp1801
(dp1802
g68
(dp1803
g76
I4
ssg77
g1797
sg70
(lp1804
S''
asbasbasbag63
(g79
g65
NtRp1805
(dp1806
g68
(dp1807
sg77
g1232
sg70
(lp1808
g63
(g84
g65
NtRp1809
(dp1810
g68
(dp1811
g88
g89
ssg77
g1805
sg70
(lp1812
S'server_name'
p1813
asbag63
(g84
g65
NtRp1814
(dp1815
g68
(dp1816
g95
g96
ssg77
g1805
sg70
(lp1817
S':'
asbag63
(g84
g65
NtRp1818
(dp1819
g68
(dp1820
sg77
g1805
sg70
(lp1821
g63
(g64
g65
NtRp1822
(dp1823
g68
(dp1824
g76
I4
ssg77
g1818
sg70
(lp1825
S'ubuntu'
p1826
asbasbasbag63
(g79
g65
NtRp1827
(dp1828
g68
(dp1829
sg77
g1232
sg70
(lp1830
g63
(g84
g65
NtRp1831
(dp1832
g68
(dp1833
g88
g89
ssg77
g1827
sg70
(lp1834
S'server_port'
p1835
asbag63
(g84
g65
NtRp1836
(dp1837
g68
(dp1838
g95
g96
ssg77
g1827
sg70
(lp1839
S':'
asbag63
(g84
g65
NtRp1840
(dp1841
g68
(dp1842
sg77
g1827
sg70
(lp1843
g63
(g64
g65
NtRp1844
(dp1845
g68
(dp1846
g76
I4
ssg77
g1840
sg70
(lp1847
S'8000'
p1848
asbasbasbag63
(g79
g65
NtRp1849
(dp1850
g68
(dp1851
sg77
g1232
sg70
(lp1852
g63
(g84
g65
NtRp1853
(dp1854
g68
(dp1855
g88
g89
ssg77
g1849
sg70
(lp1856
S'server_protocol'
p1857
asbag63
(g84
g65
NtRp1858
(dp1859
g68
(dp1860
g95
g96
ssg77
g1849
sg70
(lp1861
S':'
asbag63
(g84
g65
NtRp1862
(dp1863
g68
(dp1864
sg77
g1849
sg70
(lp1865
g63
(g64
g65
NtRp1866
(dp1867
g68
(dp1868
g76
I4
ssg77
g1862
sg70
(lp1869
S'HTTP/1.1'
p1870
asbasbasbag63
(g79
g65
NtRp1871
(dp1872
g68
(dp1873
sg77
g1232
sg70
(lp1874
g63
(g84
g65
NtRp1875
(dp1876
g68
(dp1877
g88
g89
ssg77
g1871
sg70
(lp1878
S'server_software'
p1879
asbag63
(g84
g65
NtRp1880
(dp1881
g68
(dp1882
g95
g96
ssg77
g1871
sg70
(lp1883
S':'
asbag63
(g84
g65
NtRp1884
(dp1885
g68
(dp1886
sg77
g1871
sg70
(lp1887
g63
(g64
g65
NtRp1888
(dp1889
g68
(dp1890
g76
I4
ssg77
g1884
sg70
(lp1891
S'Rocket 1.2.4'
p1892
asbasbasbag63
(g79
g65
NtRp1893
(dp1894
g68
(dp1895
sg77
g1232
sg70
(lp1896
g63
(g84
g65
NtRp1897
(dp1898
g68
(dp1899
g88
g89
ssg77
g1893
sg70
(lp1900
S'web2py_crontype'
p1901
asbag63
(g84
g65
NtRp1902
(dp1903
g68
(dp1904
g95
g96
ssg77
g1893
sg70
(lp1905
S':'
asbag63
(g84
g65
NtRp1906
(dp1907
g68
(dp1908
sg77
g1893
sg70
(lp1909
g63
(g64
g65
NtRp1910
(dp1911
g68
(dp1912
g76
I4
ssg77
g1906
sg70
(lp1913
S'hard'
p1914
asbasbasbag63
(g79
g65
NtRp1915
(dp1916
g68
(dp1917
sg77
g1232
sg70
(lp1918
g63
(g84
g65
NtRp1919
(dp1920
g68
(dp1921
g88
g89
ssg77
g1915
sg70
(lp1922
S'web2py_path'
p1923
asbag63
(g84
g65
NtRp1924
(dp1925
g68
(dp1926
g95
g96
ssg77
g1915
sg70
(lp1927
S':'
asbag63
(g84
g65
NtRp1928
(dp1929
g68
(dp1930
sg77
g1915
sg70
(lp1931
g63
(g64
g65
NtRp1932
(dp1933
g68
(dp1934
g76
I4
ssg77
g1928
sg70
(lp1935
g1279
asbasbasbag63
(g79
g65
NtRp1936
(dp1937
g68
(dp1938
sg77
g1232
sg70
(lp1939
g63
(g84
g65
NtRp1940
(dp1941
g68
(dp1942
g88
g89
ssg77
g1936
sg70
(lp1943
S'web2py_version'
p1944
asbag63
(g84
g65
NtRp1945
(dp1946
g68
(dp1947
g95
g96
ssg77
g1936
sg70
(lp1948
S':'
asbag63
(g84
g65
NtRp1949
(dp1950
g68
(dp1951
sg77
g1936
sg70
(lp1952
g63
(g64
g65
NtRp1953
(dp1954
g68
(dp1955
g76
I4
ssg77
g1949
sg70
(lp1956
g63
(g72
g65
NtRp1957
(dp1958
g68
(dp1959
g76
I3
ssg77
Nsg70
(lp1960
g63
(g79
g65
NtRp1961
(dp1962
g68
(dp1963
sg77
g1957
sg70
(lp1964
g63
(g84
g65
NtRp1965
(dp1966
g68
(dp1967
sg77
g1961
sg70
(lp1968
g63
(g64
g65
NtRp1969
(dp1970
g68
(dp1971
g76
I3
ssg77
g1965
sg70
(lp1972
S'1'
asbasbasbag63
(g79
g65
NtRp1973
(dp1974
g68
(dp1975
sg77
g1957
sg70
(lp1976
g63
(g84
g65
NtRp1977
(dp1978
g68
(dp1979
sg77
g1973
sg70
(lp1980
g63
(g64
g65
NtRp1981
(dp1982
g68
(dp1983
g76
I3
ssg77
g1977
sg70
(lp1984
S'99'
p1985
asbasbasbag63
(g79
g65
NtRp1986
(dp1987
g68
(dp1988
sg77
g1957
sg70
(lp1989
g63
(g84
g65
NtRp1990
(dp1991
g68
(dp1992
sg77
g1986
sg70
(lp1993
g63
(g64
g65
NtRp1994
(dp1995
g68
(dp1996
g76
I3
ssg77
g1990
sg70
(lp1997
S'4'
asbasbasbag63
(g79
g65
NtRp1998
(dp1999
g68
(dp2000
sg77
g1957
sg70
(lp2001
g63
(g84
g65
NtRp2002
(dp2003
g68
(dp2004
sg77
g1998
sg70
(lp2005
g63
(g64
g65
NtRp2006
(dp2007
g68
(dp2008
g76
I3
ssg77
g2002
sg70
(lp2009
S'datetime.datetime(2011, 12, 14, 14, 46, 14)'
p2010
asbasbasbag63
(g79
g65
NtRp2011
(dp2012
g68
(dp2013
sg77
g1957
sg70
(lp2014
g63
(g84
g65
NtRp2015
(dp2016
g68
(dp2017
sg77
g2011
sg70
(lp2018
g63
(g64
g65
NtRp2019
(dp2020
g68
(dp2021
g76
I3
ssg77
g2015
sg70
(lp2022
S'stable'
p2023
asbasbasbasbasbasbasbag63
(g79
g65
NtRp2024
(dp2025
g68
(dp2026
sg77
g1232
sg70
(lp2027
g63
(g84
g65
NtRp2028
(dp2029
g68
(dp2030
g88
g89
ssg77
g2024
sg70
(lp2031
S'wsgi_errors'
p2032
asbag63
(g84
g65
NtRp2033
(dp2034
g68
(dp2035
g95
g96
ssg77
g2024
sg70
(lp2036
S':'
asbag63
(g84
g65
NtRp2037
(dp2038
g68
(dp2039
sg77
g2024
sg70
(lp2040
g63
(g64
g65
NtRp2041
(dp2042
g68
(dp2043
g76
I4
ssg77
g2037
sg70
(lp2044
S"<open file '<stderr>', mode 'w' at 0xb76f00d0>"
p2045
asbasbasbag63
(g79
g65
NtRp2046
(dp2047
g68
(dp2048
sg77
g1232
sg70
(lp2049
g63
(g84
g65
NtRp2050
(dp2051
g68
(dp2052
g88
g89
ssg77
g2046
sg70
(lp2053
S'wsgi_file_wrapper'
p2054
asbag63
(g84
g65
NtRp2055
(dp2056
g68
(dp2057
g95
g96
ssg77
g2046
sg70
(lp2058
S':'
asbag63
(g84
g65
NtRp2059
(dp2060
g68
(dp2061
sg77
g2046
sg70
(lp2062
g63
(g64
g65
NtRp2063
(dp2064
g68
(dp2065
g76
I4
ssg77
g2059
sg70
(lp2066
S'<class wsgiref.util.FileWrapper at 0x906620c>'
p2067
asbasbasbag63
(g79
g65
NtRp2068
(dp2069
g68
(dp2070
sg77
g1232
sg70
(lp2071
g63
(g84
g65
NtRp2072
(dp2073
g68
(dp2074
g88
g89
ssg77
g2068
sg70
(lp2075
S'wsgi_input'
p2076
asbag63
(g84
g65
NtRp2077
(dp2078
g68
(dp2079
g95
g96
ssg77
g2068
sg70
(lp2080
S':'
asbag63
(g84
g65
NtRp2081
(dp2082
g68
(dp2083
sg77
g2068
sg70
(lp2084
g63
(g64
g65
NtRp2085
(dp2086
g68
(dp2087
g76
I4
ssg77
g2081
sg70
(lp2088
S'<socket._fileobject object at 0xa01a0ec>'
p2089
asbasbasbag63
(g79
g65
NtRp2090
(dp2091
g68
(dp2092
sg77
g1232
sg70
(lp2093
g63
(g84
g65
NtRp2094
(dp2095
g68
(dp2096
g88
g89
ssg77
g2090
sg70
(lp2097
S'wsgi_multiprocess'
p2098
asbag63
(g84
g65
NtRp2099
(dp2100
g68
(dp2101
g95
g96
ssg77
g2090
sg70
(lp2102
S':'
asbag63
(g84
g65
NtRp2103
(dp2104
g68
(dp2105
sg77
g2090
sg70
(lp2106
g63
(g64
g65
NtRp2107
(dp2108
g68
(dp2109
g76
I4
ssg77
g2103
sg70
(lp2110
g1370
asbasbasbag63
(g79
g65
NtRp2111
(dp2112
g68
(dp2113
sg77
g1232
sg70
(lp2114
g63
(g84
g65
NtRp2115
(dp2116
g68
(dp2117
g88
g89
ssg77
g2111
sg70
(lp2118
S'wsgi_multithread'
p2119
asbag63
(g84
g65
NtRp2120
(dp2121
g68
(dp2122
g95
g96
ssg77
g2111
sg70
(lp2123
S':'
asbag63
(g84
g65
NtRp2124
(dp2125
g68
(dp2126
sg77
g2111
sg70
(lp2127
g63
(g64
g65
NtRp2128
(dp2129
g68
(dp2130
g76
I4
ssg77
g2124
sg70
(lp2131
g106
asbasbasbag63
(g79
g65
NtRp2132
(dp2133
g68
(dp2134
sg77
g1232
sg70
(lp2135
g63
(g84
g65
NtRp2136
(dp2137
g68
(dp2138
g88
g89
ssg77
g2132
sg70
(lp2139
S'wsgi_run_once'
p2140
asbag63
(g84
g65
NtRp2141
(dp2142
g68
(dp2143
g95
g96
ssg77
g2132
sg70
(lp2144
S':'
asbag63
(g84
g65
NtRp2145
(dp2146
g68
(dp2147
sg77
g2132
sg70
(lp2148
g63
(g64
g65
NtRp2149
(dp2150
g68
(dp2151
g76
I4
ssg77
g2145
sg70
(lp2152
g1370
asbasbasbag63
(g79
g65
NtRp2153
(dp2154
g68
(dp2155
sg77
g1232
sg70
(lp2156
g63
(g84
g65
NtRp2157
(dp2158
g68
(dp2159
g88
g89
ssg77
g2153
sg70
(lp2160
S'wsgi_url_scheme'
p2161
asbag63
(g84
g65
NtRp2162
(dp2163
g68
(dp2164
g95
g96
ssg77
g2153
sg70
(lp2165
S':'
asbag63
(g84
g65
NtRp2166
(dp2167
g68
(dp2168
sg77
g2153
sg70
(lp2169
g63
(g64
g65
NtRp2170
(dp2171
g68
(dp2172
g76
I4
ssg77
g2166
sg70
(lp2173
S'http'
p2174
asbasbasbag63
(g79
g65
NtRp2175
(dp2176
g68
(dp2177
sg77
g1232
sg70
(lp2178
g63
(g84
g65
NtRp2179
(dp2180
g68
(dp2181
g88
g89
ssg77
g2175
sg70
(lp2182
S'wsgi_version'
p2183
asbag63
(g84
g65
NtRp2184
(dp2185
g68
(dp2186
g95
g96
ssg77
g2175
sg70
(lp2187
S':'
asbag63
(g84
g65
NtRp2188
(dp2189
g68
(dp2190
sg77
g2175
sg70
(lp2191
g63
(g64
g65
NtRp2192
(dp2193
g68
(dp2194
g76
I4
ssg77
g2188
sg70
(lp2195
g63
(g72
g65
NtRp2196
(dp2197
g68
(dp2198
g76
I3
ssg77
Nsg70
(lp2199
g63
(g79
g65
NtRp2200
(dp2201
g68
(dp2202
sg77
g2196
sg70
(lp2203
g63
(g84
g65
NtRp2204
(dp2205
g68
(dp2206
sg77
g2200
sg70
(lp2207
g63
(g64
g65
NtRp2208
(dp2209
g68
(dp2210
g76
I3
ssg77
g2204
sg70
(lp2211
S'1'
asbasbasbag63
(g79
g65
NtRp2212
(dp2213
g68
(dp2214
sg77
g2196
sg70
(lp2215
g63
(g84
g65
NtRp2216
(dp2217
g68
(dp2218
sg77
g2212
sg70
(lp2219
g63
(g64
g65
NtRp2220
(dp2221
g68
(dp2222
g76
I3
ssg77
g2216
sg70
(lp2223
S'0'
asbasbasbasbasbasbasbasbasbasbasbag63
(g79
g65
NtRp2224
(dp2225
g68
(dp2226
sg77
g73
sg70
(lp2227
g63
(g84
g65
NtRp2228
(dp2229
g68
(dp2230
g88
g89
ssg77
g2224
sg70
(lp2231
S'extension'
p2232
asbag63
(g84
g65
NtRp2233
(dp2234
g68
(dp2235
g95
g96
ssg77
g2224
sg70
(lp2236
S':'
asbag63
(g84
g65
NtRp2237
(dp2238
g68
(dp2239
sg77
g2224
sg70
(lp2240
g63
(g64
g65
NtRp2241
(dp2242
g68
(dp2243
g76
I5
ssg77
g2237
sg70
(lp2244
S'load'
p2245
asbasbasbag63
(g79
g65
NtRp2246
(dp2247
g68
(dp2248
sg77
g73
sg70
(lp2249
g63
(g84
g65
NtRp2250
(dp2251
g68
(dp2252
g88
g89
ssg77
g2246
sg70
(lp2253
S'folder'
p2254
asbag63
(g84
g65
NtRp2255
(dp2256
g68
(dp2257
g95
g96
ssg77
g2246
sg70
(lp2258
S':'
asbag63
(g84
g65
NtRp2259
(dp2260
g68
(dp2261
sg77
g2246
sg70
(lp2262
g63
(g64
g65
NtRp2263
(dp2264
g68
(dp2265
g76
I5
ssg77
g2259
sg70
(lp2266
S'/home/iscott/web/web2py/applications/grammateus3/'
p2267
asbasbasbag63
(g79
g65
NtRp2268
(dp2269
g68
(dp2270
sg77
g73
sg70
(lp2271
g63
(g84
g65
NtRp2272
(dp2273
g68
(dp2274
g88
g89
ssg77
g2268
sg70
(lp2275
S'function'
p2276
asbag63
(g84
g65
NtRp2277
(dp2278
g68
(dp2279
g95
g96
ssg77
g2268
sg70
(lp2280
S':'
asbag63
(g84
g65
NtRp2281
(dp2282
g68
(dp2283
sg77
g2268
sg70
(lp2284
g63
(g64
g65
NtRp2285
(dp2286
g68
(dp2287
g76
I5
ssg77
g2281
sg70
(lp2288
S'section'
p2289
asbasbasbag63
(g79
g65
NtRp2290
(dp2291
g68
(dp2292
sg77
g73
sg70
(lp2293
g63
(g84
g65
NtRp2294
(dp2295
g68
(dp2296
g88
g89
ssg77
g2290
sg70
(lp2297
S'get_vars'
p2298
asbag63
(g84
g65
NtRp2299
(dp2300
g68
(dp2301
g95
g96
ssg77
g2290
sg70
(lp2302
S':'
asbag63
(g84
g65
NtRp2303
(dp2304
g68
(dp2305
sg77
g2290
sg70
(lp2306
g63
(g64
g65
NtRp2307
(dp2308
g68
(dp2309
g76
I5
ssg77
g2303
sg70
(lp2310
g63
(g72
g65
NtRp2311
(dp2312
g68
(dp2313
g76
I4
ssg77
Nsg70
(lp2314
sbasbasbasbag63
(g79
g65
NtRp2315
(dp2316
g68
(dp2317
sg77
g73
sg70
(lp2318
g63
(g84
g65
NtRp2319
(dp2320
g68
(dp2321
g88
g89
ssg77
g2315
sg70
(lp2322
S'global_settings'
p2323
asbag63
(g84
g65
NtRp2324
(dp2325
g68
(dp2326
g95
g96
ssg77
g2315
sg70
(lp2327
S':'
asbag63
(g84
g65
NtRp2328
(dp2329
g68
(dp2330
sg77
g2315
sg70
(lp2331
g63
(g64
g65
NtRp2332
(dp2333
g68
(dp2334
g76
I5
ssg77
g2328
sg70
(lp2335
g63
(g72
g65
NtRp2336
(dp2337
g68
(dp2338
g76
I4
ssg77
Nsg70
(lp2339
g63
(g79
g65
NtRp2340
(dp2341
g68
(dp2342
sg77
g2336
sg70
(lp2343
g63
(g84
g65
NtRp2344
(dp2345
g68
(dp2346
g88
g89
ssg77
g2340
sg70
(lp2347
g1244
asbag63
(g84
g65
NtRp2348
(dp2349
g68
(dp2350
g95
g96
ssg77
g2340
sg70
(lp2351
S':'
asbag63
(g84
g65
NtRp2352
(dp2353
g68
(dp2354
sg77
g2340
sg70
(lp2355
g63
(g64
g65
NtRp2356
(dp2357
g68
(dp2358
g76
I4
ssg77
g2352
sg70
(lp2359
S"set(['/home/iscott/web/web2py/applications/grammateus3/', '/home/iscott/web/web2py/applications/admin/', '/home/iscott/web/web2py/applications/welcome/'])"
p2360
asbasbasbag63
(g79
g65
NtRp2361
(dp2362
g68
(dp2363
sg77
g2336
sg70
(lp2364
g63
(g84
g65
NtRp2365
(dp2366
g68
(dp2367
g88
g89
ssg77
g2361
sg70
(lp2368
g1266
asbag63
(g84
g65
NtRp2369
(dp2370
g68
(dp2371
g95
g96
ssg77
g2361
sg70
(lp2372
S':'
asbag63
(g84
g65
NtRp2373
(dp2374
g68
(dp2375
sg77
g2361
sg70
(lp2376
g63
(g64
g65
NtRp2377
(dp2378
g68
(dp2379
g76
I4
ssg77
g2373
sg70
(lp2380
g1279
asbasbasbag63
(g79
g65
NtRp2381
(dp2382
g68
(dp2383
sg77
g2336
sg70
(lp2384
g63
(g84
g65
NtRp2385
(dp2386
g68
(dp2387
g88
g89
ssg77
g2381
sg70
(lp2388
g1288
asbag63
(g84
g65
NtRp2389
(dp2390
g68
(dp2391
g95
g96
ssg77
g2381
sg70
(lp2392
S':'
asbag63
(g84
g65
NtRp2393
(dp2394
g68
(dp2395
sg77
g2381
sg70
(lp2396
g63
(g64
g65
NtRp2397
(dp2398
g68
(dp2399
g76
I4
ssg77
g2393
sg70
(lp2400
g63
(g72
g65
NtRp2401
(dp2402
g68
(dp2403
g76
I3
ssg77
Nsg70
(lp2404
sbasbasbasbag63
(g79
g65
NtRp2405
(dp2406
g68
(dp2407
sg77
g2336
sg70
(lp2408
g63
(g84
g65
NtRp2409
(dp2410
g68
(dp2411
g88
g89
ssg77
g2405
sg70
(lp2412
g1313
asbag63
(g84
g65
NtRp2413
(dp2414
g68
(dp2415
g95
g96
ssg77
g2405
sg70
(lp2416
S':'
asbag63
(g84
g65
NtRp2417
(dp2418
g68
(dp2419
sg77
g2405
sg70
(lp2420
g63
(g64
g65
NtRp2421
(dp2422
g68
(dp2423
g76
I4
ssg77
g2417
sg70
(lp2424
S"<Values at 0x911db8c: {'verbose': False, 'ip': '127.0.0.1', 'shutdown_timeout': 5, 'taskbar': False, 'nocron': False, 'pid_filename': 'httpserver.pid', 'maxthreads': None, 'softcron': False, 'server_name': 'ubuntu', 'bpython': False, 'nogui': False, 'port': 8000, 'extcron': False, 'debuglevel': 30, 'test': None, 'folder': '/home/iscott/web/web2py', 'config': '', 'import_models': False, 'winservice': '', 'shell': None, 'run': '', 'log_filename': 'httpserver.log', 'args': [''], 'socket_timeout': 1, 'ssl_ca_certificate': None, 'scheduler': None, 'profiler_filename': None, 'ssl_private_key': '', 'password': '<ask>', 'request_queue_size': 5, 'ssl_certificate': '', 'cronjob': False, 'numthreads': None, 'quiet': False, 'interfaces': None, 'minthreads': None, 'timeout': 10, 'plain': False, 'nobanner': False}>"
p2425
asbasbasbag63
(g79
g65
NtRp2426
(dp2427
g68
(dp2428
sg77
g2336
sg70
(lp2429
g63
(g84
g65
NtRp2430
(dp2431
g68
(dp2432
g88
g89
ssg77
g2426
sg70
(lp2433
g1335
asbag63
(g84
g65
NtRp2434
(dp2435
g68
(dp2436
g95
g96
ssg77
g2426
sg70
(lp2437
S':'
asbag63
(g84
g65
NtRp2438
(dp2439
g68
(dp2440
sg77
g2426
sg70
(lp2441
g63
(g64
g65
NtRp2442
(dp2443
g68
(dp2444
g76
I4
ssg77
g2438
sg70
(lp2445
S'set([])'
p2446
asbasbasbag63
(g79
g65
NtRp2447
(dp2448
g68
(dp2449
sg77
g2336
sg70
(lp2450
g63
(g84
g65
NtRp2451
(dp2452
g68
(dp2453
g88
g89
ssg77
g2447
sg70
(lp2454
g1357
asbag63
(g84
g65
NtRp2455
(dp2456
g68
(dp2457
g95
g96
ssg77
g2447
sg70
(lp2458
S':'
asbag63
(g84
g65
NtRp2459
(dp2460
g68
(dp2461
sg77
g2447
sg70
(lp2462
g63
(g64
g65
NtRp2463
(dp2464
g68
(dp2465
g76
I4
ssg77
g2459
sg70
(lp2466
g1370
asbasbasbag63
(g79
g65
NtRp2467
(dp2468
g68
(dp2469
sg77
g2336
sg70
(lp2470
g63
(g84
g65
NtRp2471
(dp2472
g68
(dp2473
g88
g89
ssg77
g2467
sg70
(lp2474
g1379
asbag63
(g84
g65
NtRp2475
(dp2476
g68
(dp2477
g95
g96
ssg77
g2467
sg70
(lp2478
S':'
asbag63
(g84
g65
NtRp2479
(dp2480
g68
(dp2481
sg77
g2467
sg70
(lp2482
g63
(g64
g65
NtRp2483
(dp2484
g68
(dp2485
g76
I4
ssg77
g2479
sg70
(lp2486
g1392
asbasbasbag63
(g79
g65
NtRp2487
(dp2488
g68
(dp2489
sg77
g2336
sg70
(lp2490
g63
(g84
g65
NtRp2491
(dp2492
g68
(dp2493
g88
g89
ssg77
g2487
sg70
(lp2494
g1642
asbag63
(g84
g65
NtRp2495
(dp2496
g68
(dp2497
g95
g96
ssg77
g2487
sg70
(lp2498
S':'
asbag63
(g84
g65
NtRp2499
(dp2500
g68
(dp2501
sg77
g2487
sg70
(lp2502
g63
(g64
g65
NtRp2503
(dp2504
g68
(dp2505
g76
I4
ssg77
g2499
sg70
(lp2506
g1370
asbasbasbag63
(g79
g65
NtRp2507
(dp2508
g68
(dp2509
sg77
g2336
sg70
(lp2510
g63
(g84
g65
NtRp2511
(dp2512
g68
(dp2513
g88
g89
ssg77
g2507
sg70
(lp2514
g1663
asbag63
(g84
g65
NtRp2515
(dp2516
g68
(dp2517
g95
g96
ssg77
g2507
sg70
(lp2518
S':'
asbag63
(g84
g65
NtRp2519
(dp2520
g68
(dp2521
sg77
g2507
sg70
(lp2522
g63
(g64
g65
NtRp2523
(dp2524
g68
(dp2525
g76
I4
ssg77
g2519
sg70
(lp2526
g1370
asbasbasbag63
(g79
g65
NtRp2527
(dp2528
g68
(dp2529
sg77
g2336
sg70
(lp2530
g63
(g84
g65
NtRp2531
(dp2532
g68
(dp2533
g88
g89
ssg77
g2527
sg70
(lp2534
g1901
asbag63
(g84
g65
NtRp2535
(dp2536
g68
(dp2537
g95
g96
ssg77
g2527
sg70
(lp2538
S':'
asbag63
(g84
g65
NtRp2539
(dp2540
g68
(dp2541
sg77
g2527
sg70
(lp2542
g63
(g64
g65
NtRp2543
(dp2544
g68
(dp2545
g76
I4
ssg77
g2539
sg70
(lp2546
g1914
asbasbasbag63
(g79
g65
NtRp2547
(dp2548
g68
(dp2549
sg77
g2336
sg70
(lp2550
g63
(g84
g65
NtRp2551
(dp2552
g68
(dp2553
g88
g89
ssg77
g2547
sg70
(lp2554
g1944
asbag63
(g84
g65
NtRp2555
(dp2556
g68
(dp2557
g95
g96
ssg77
g2547
sg70
(lp2558
S':'
asbag63
(g84
g65
NtRp2559
(dp2560
g68
(dp2561
sg77
g2547
sg70
(lp2562
g63
(g64
g65
NtRp2563
(dp2564
g68
(dp2565
g76
I4
ssg77
g2559
sg70
(lp2566
g63
(g72
g65
NtRp2567
(dp2568
g68
(dp2569
g76
I3
ssg77
Nsg70
(lp2570
g63
(g79
g65
NtRp2571
(dp2572
g68
(dp2573
sg77
g2567
sg70
(lp2574
g63
(g84
g65
NtRp2575
(dp2576
g68
(dp2577
sg77
g2571
sg70
(lp2578
g63
(g64
g65
NtRp2579
(dp2580
g68
(dp2581
g76
I3
ssg77
g2575
sg70
(lp2582
S'1'
asbasbasbag63
(g79
g65
NtRp2583
(dp2584
g68
(dp2585
sg77
g2567
sg70
(lp2586
g63
(g84
g65
NtRp2587
(dp2588
g68
(dp2589
sg77
g2583
sg70
(lp2590
g63
(g64
g65
NtRp2591
(dp2592
g68
(dp2593
g76
I3
ssg77
g2587
sg70
(lp2594
S'99'
p2595
asbasbasbag63
(g79
g65
NtRp2596
(dp2597
g68
(dp2598
sg77
g2567
sg70
(lp2599
g63
(g84
g65
NtRp2600
(dp2601
g68
(dp2602
sg77
g2596
sg70
(lp2603
g63
(g64
g65
NtRp2604
(dp2605
g68
(dp2606
g76
I3
ssg77
g2600
sg70
(lp2607
S'4'
asbasbasbag63
(g79
g65
NtRp2608
(dp2609
g68
(dp2610
sg77
g2567
sg70
(lp2611
g63
(g84
g65
NtRp2612
(dp2613
g68
(dp2614
sg77
g2608
sg70
(lp2615
g63
(g64
g65
NtRp2616
(dp2617
g68
(dp2618
g76
I3
ssg77
g2612
sg70
(lp2619
S'datetime.datetime(2011, 12, 14, 14, 46, 14)'
p2620
asbasbasbag63
(g79
g65
NtRp2621
(dp2622
g68
(dp2623
sg77
g2567
sg70
(lp2624
g63
(g84
g65
NtRp2625
(dp2626
g68
(dp2627
sg77
g2621
sg70
(lp2628
g63
(g64
g65
NtRp2629
(dp2630
g68
(dp2631
g76
I3
ssg77
g2625
sg70
(lp2632
g2023
asbasbasbasbasbasbasbasbasbasbasbag63
(g79
g65
NtRp2633
(dp2634
g68
(dp2635
sg77
g73
sg70
(lp2636
g63
(g84
g65
NtRp2637
(dp2638
g68
(dp2639
g88
g89
ssg77
g2633
sg70
(lp2640
S'is_https'
p2641
asbag63
(g84
g65
NtRp2642
(dp2643
g68
(dp2644
g95
g96
ssg77
g2633
sg70
(lp2645
S':'
asbag63
(g84
g65
NtRp2646
(dp2647
g68
(dp2648
sg77
g2633
sg70
(lp2649
g63
(g64
g65
NtRp2650
(dp2651
g68
(dp2652
g76
I5
ssg77
g2646
sg70
(lp2653
g1370
asbasbasbag63
(g79
g65
NtRp2654
(dp2655
g68
(dp2656
sg77
g73
sg70
(lp2657
g63
(g84
g65
NtRp2658
(dp2659
g68
(dp2660
g88
g89
ssg77
g2654
sg70
(lp2661
S'is_local'
p2662
asbag63
(g84
g65
NtRp2663
(dp2664
g68
(dp2665
g95
g96
ssg77
g2654
sg70
(lp2666
S':'
asbag63
(g84
g65
NtRp2667
(dp2668
g68
(dp2669
sg77
g2654
sg70
(lp2670
g63
(g64
g65
NtRp2671
(dp2672
g68
(dp2673
g76
I5
ssg77
g2667
sg70
(lp2674
g106
asbasbasbag63
(g79
g65
NtRp2675
(dp2676
g68
(dp2677
sg77
g73
sg70
(lp2678
g63
(g84
g65
NtRp2679
(dp2680
g68
(dp2681
g88
g89
ssg77
g2675
sg70
(lp2682
S'is_restful'
p2683
asbag63
(g84
g65
NtRp2684
(dp2685
g68
(dp2686
g95
g96
ssg77
g2675
sg70
(lp2687
S':'
asbag63
(g84
g65
NtRp2688
(dp2689
g68
(dp2690
sg77
g2675
sg70
(lp2691
g63
(g64
g65
NtRp2692
(dp2693
g68
(dp2694
g76
I5
ssg77
g2688
sg70
(lp2695
g1370
asbasbasbag63
(g79
g65
NtRp2696
(dp2697
g68
(dp2698
sg77
g73
sg70
(lp2699
g63
(g84
g65
NtRp2700
(dp2701
g68
(dp2702
g88
g89
ssg77
g2696
sg70
(lp2703
S'now'
p2704
asbag63
(g84
g65
NtRp2705
(dp2706
g68
(dp2707
g95
g96
ssg77
g2696
sg70
(lp2708
S':'
asbag63
(g84
g65
NtRp2709
(dp2710
g68
(dp2711
sg77
g2696
sg70
(lp2712
g63
(g64
g65
NtRp2713
(dp2714
g68
(dp2715
g76
I5
ssg77
g2709
sg70
(lp2716
S'datetime.datetime(2012, 3, 7, 13, 27, 59, 822137)'
p2717
asbasbasbag63
(g79
g65
NtRp2718
(dp2719
g68
(dp2720
sg77
g73
sg70
(lp2721
g63
(g84
g65
NtRp2722
(dp2723
g68
(dp2724
g88
g89
ssg77
g2718
sg70
(lp2725
S'post_vars'
p2726
asbag63
(g84
g65
NtRp2727
(dp2728
g68
(dp2729
g95
g96
ssg77
g2718
sg70
(lp2730
S':'
asbag63
(g84
g65
NtRp2731
(dp2732
g68
(dp2733
sg77
g2718
sg70
(lp2734
g63
(g64
g65
NtRp2735
(dp2736
g68
(dp2737
g76
I5
ssg77
g2731
sg70
(lp2738
g63
(g72
g65
NtRp2739
(dp2740
g68
(dp2741
g76
I4
ssg77
Nsg70
(lp2742
sbasbasbasbag63
(g79
g65
NtRp2743
(dp2744
g68
(dp2745
sg77
g73
sg70
(lp2746
g63
(g84
g65
NtRp2747
(dp2748
g68
(dp2749
g88
g89
ssg77
g2743
sg70
(lp2750
S'raw_args'
p2751
asbag63
(g84
g65
NtRp2752
(dp2753
g68
(dp2754
g95
g96
ssg77
g2743
sg70
(lp2755
S':'
asbag63
(g84
g65
NtRp2756
(dp2757
g68
(dp2758
sg77
g2743
sg70
(lp2759
g63
(g64
g65
NtRp2760
(dp2761
g68
(dp2762
g76
I5
ssg77
g2756
sg70
(lp2763
S'8'
asbasbasbag63
(g79
g65
NtRp2764
(dp2765
g68
(dp2766
sg77
g73
sg70
(lp2767
g63
(g84
g65
NtRp2768
(dp2769
g68
(dp2770
g88
g89
ssg77
g2764
sg70
(lp2771
S'raw_extension'
p2772
asbag63
(g84
g65
NtRp2773
(dp2774
g68
(dp2775
g95
g96
ssg77
g2764
sg70
(lp2776
S':'
asbag63
(g84
g65
NtRp2777
(dp2778
g68
(dp2779
sg77
g2764
sg70
(lp2780
g63
(g64
g65
NtRp2781
(dp2782
g68
(dp2783
g76
I5
ssg77
g2777
sg70
(lp2784
g2245
asbasbasbag63
(g79
g65
NtRp2785
(dp2786
g68
(dp2787
sg77
g73
sg70
(lp2788
g63
(g84
g65
NtRp2789
(dp2790
g68
(dp2791
g88
g89
ssg77
g2785
sg70
(lp2792
S'url'
p2793
asbag63
(g84
g65
NtRp2794
(dp2795
g68
(dp2796
g95
g96
ssg77
g2785
sg70
(lp2797
S':'
asbag63
(g84
g65
NtRp2798
(dp2799
g68
(dp2800
sg77
g2785
sg70
(lp2801
g63
(g64
g65
NtRp2802
(dp2803
g68
(dp2804
g76
I5
ssg77
g2798
sg70
(lp2805
S'/grammateus3/docs/section.load/8'
p2806
asbasbasbag63
(g79
g65
NtRp2807
(dp2808
g68
(dp2809
sg77
g73
sg70
(lp2810
g63
(g84
g65
NtRp2811
(dp2812
g68
(dp2813
g88
g89
ssg77
g2807
sg70
(lp2814
S'utcnow'
p2815
asbag63
(g84
g65
NtRp2816
(dp2817
g68
(dp2818
g95
g96
ssg77
g2807
sg70
(lp2819
S':'
asbag63
(g84
g65
NtRp2820
(dp2821
g68
(dp2822
sg77
g2807
sg70
(lp2823
g63
(g64
g65
NtRp2824
(dp2825
g68
(dp2826
g76
I5
ssg77
g2820
sg70
(lp2827
S'datetime.datetime(2012, 3, 7, 18, 27, 59, 822174)'
p2828
asbasbasbag63
(g79
g65
NtRp2829
(dp2830
g68
(dp2831
sg77
g73
sg70
(lp2832
g63
(g84
g65
NtRp2833
(dp2834
g68
(dp2835
g88
g89
ssg77
g2829
sg70
(lp2836
S'uuid'
p2837
asbag63
(g84
g65
NtRp2838
(dp2839
g68
(dp2840
g95
g96
ssg77
g2829
sg70
(lp2841
S':'
asbag63
(g84
g65
NtRp2842
(dp2843
g68
(dp2844
sg77
g2829
sg70
(lp2845
g63
(g64
g65
NtRp2846
(dp2847
g68
(dp2848
g76
I5
ssg77
g2842
sg70
(lp2849
S'grammateus3/127.0.0.1.2012-03-07.13-27-59.c15d0345-0e89-476b-a14a-4d7deb1823eb'
p2850
asbasbasbag63
(g79
g65
NtRp2851
(dp2852
g68
(dp2853
sg77
g73
sg70
(lp2854
g63
(g84
g65
NtRp2855
(dp2856
g68
(dp2857
g88
g89
ssg77
g2851
sg70
(lp2858
S'vars'
p2859
asbag63
(g84
g65
NtRp2860
(dp2861
g68
(dp2862
g95
g96
ssg77
g2851
sg70
(lp2863
S':'
asbag63
(g84
g65
NtRp2864
(dp2865
g68
(dp2866
sg77
g2851
sg70
(lp2867
g63
(g64
g65
NtRp2868
(dp2869
g68
(dp2870
g76
I5
ssg77
g2864
sg70
(lp2871
g63
(g72
g65
NtRp2872
(dp2873
g68
(dp2874
g76
I4
ssg77
Nsg70
(lp2875
sbasbasbasbag63
(g79
g65
NtRp2876
(dp2877
g68
(dp2878
sg77
g73
sg70
(lp2879
g63
(g84
g65
NtRp2880
(dp2881
g68
(dp2882
g88
g89
ssg77
g2876
sg70
(lp2883
S'wsgi'
p2884
asbag63
(g84
g65
NtRp2885
(dp2886
g68
(dp2887
g95
g96
ssg77
g2876
sg70
(lp2888
S':'
asbag63
(g84
g65
NtRp2889
(dp2890
g68
(dp2891
sg77
g2876
sg70
(lp2892
g63
(g64
g65
NtRp2893
(dp2894
g68
(dp2895
g76
I5
ssg77
g2889
sg70
(lp2896
g63
(g72
g65
NtRp2897
(dp2898
g68
(dp2899
g76
I4
ssg77
Nsg70
(lp2900
g63
(g79
g65
NtRp2901
(dp2902
g68
(dp2903
sg77
g2897
sg70
(lp2904
g63
(g84
g65
NtRp2905
(dp2906
g68
(dp2907
g88
g89
ssg77
g2901
sg70
(lp2908
S'environ'
p2909
asbag63
(g84
g65
NtRp2910
(dp2911
g68
(dp2912
g95
g96
ssg77
g2901
sg70
(lp2913
S':'
asbag63
(g84
g65
NtRp2914
(dp2915
g68
(dp2916
sg77
g2901
sg70
(lp2917
g63
(g64
g65
NtRp2918
(dp2919
g68
(dp2920
g76
I4
ssg77
g2914
sg70
(lp2921
g63
(g72
g65
NtRp2922
(dp2923
g68
(dp2924
g76
I3
ssg77
Nsg70
(lp2925
g63
(g79
g65
NtRp2926
(dp2927
g68
(dp2928
sg77
g2922
sg70
(lp2929
g63
(g84
g65
NtRp2930
(dp2931
g68
(dp2932
g88
g89
ssg77
g2926
sg70
(lp2933
S'HTTP_ACCEPT'
p2934
asbag63
(g84
g65
NtRp2935
(dp2936
g68
(dp2937
g95
g96
ssg77
g2926
sg70
(lp2938
S':'
asbag63
(g84
g65
NtRp2939
(dp2940
g68
(dp2941
sg77
g2926
sg70
(lp2942
g63
(g64
g65
NtRp2943
(dp2944
g68
(dp2945
g76
I3
ssg77
g2939
sg70
(lp2946
g1414
asbasbasbag63
(g79
g65
NtRp2947
(dp2948
g68
(dp2949
sg77
g2922
sg70
(lp2950
g63
(g84
g65
NtRp2951
(dp2952
g68
(dp2953
g88
g89
ssg77
g2947
sg70
(lp2954
S'HTTP_ACCEPT_ENCODING'
p2955
asbag63
(g84
g65
NtRp2956
(dp2957
g68
(dp2958
g95
g96
ssg77
g2947
sg70
(lp2959
S':'
asbag63
(g84
g65
NtRp2960
(dp2961
g68
(dp2962
sg77
g2947
sg70
(lp2963
g63
(g64
g65
NtRp2964
(dp2965
g68
(dp2966
g76
I3
ssg77
g2960
sg70
(lp2967
g1436
asbasbasbag63
(g79
g65
NtRp2968
(dp2969
g68
(dp2970
sg77
g2922
sg70
(lp2971
g63
(g84
g65
NtRp2972
(dp2973
g68
(dp2974
g88
g89
ssg77
g2968
sg70
(lp2975
S'HTTP_ACCEPT_LANGUAGE'
p2976
asbag63
(g84
g65
NtRp2977
(dp2978
g68
(dp2979
g95
g96
ssg77
g2968
sg70
(lp2980
S':'
asbag63
(g84
g65
NtRp2981
(dp2982
g68
(dp2983
sg77
g2968
sg70
(lp2984
g63
(g64
g65
NtRp2985
(dp2986
g68
(dp2987
g76
I3
ssg77
g2981
sg70
(lp2988
g1458
asbasbasbag63
(g79
g65
NtRp2989
(dp2990
g68
(dp2991
sg77
g2922
sg70
(lp2992
g63
(g84
g65
NtRp2993
(dp2994
g68
(dp2995
g88
g89
ssg77
g2989
sg70
(lp2996
S'HTTP_CONNECTION'
p2997
asbag63
(g84
g65
NtRp2998
(dp2999
g68
(dp3000
g95
g96
ssg77
g2989
sg70
(lp3001
S':'
asbag63
(g84
g65
NtRp3002
(dp3003
g68
(dp3004
sg77
g2989
sg70
(lp3005
g63
(g64
g65
NtRp3006
(dp3007
g68
(dp3008
g76
I3
ssg77
g3002
sg70
(lp3009
g1480
asbasbasbag63
(g79
g65
NtRp3010
(dp3011
g68
(dp3012
sg77
g2922
sg70
(lp3013
g63
(g84
g65
NtRp3014
(dp3015
g68
(dp3016
g88
g89
ssg77
g3010
sg70
(lp3017
S'HTTP_COOKIE'
p3018
asbag63
(g84
g65
NtRp3019
(dp3020
g68
(dp3021
g95
g96
ssg77
g3010
sg70
(lp3022
S':'
asbag63
(g84
g65
NtRp3023
(dp3024
g68
(dp3025
sg77
g3010
sg70
(lp3026
g63
(g64
g65
NtRp3027
(dp3028
g68
(dp3029
g76
I3
ssg77
g3023
sg70
(lp3030
g1502
asbasbasbag63
(g79
g65
NtRp3031
(dp3032
g68
(dp3033
sg77
g2922
sg70
(lp3034
g63
(g84
g65
NtRp3035
(dp3036
g68
(dp3037
g88
g89
ssg77
g3031
sg70
(lp3038
S'HTTP_HOST'
p3039
asbag63
(g84
g65
NtRp3040
(dp3041
g68
(dp3042
g95
g96
ssg77
g3031
sg70
(lp3043
S':'
asbag63
(g84
g65
NtRp3044
(dp3045
g68
(dp3046
sg77
g3031
sg70
(lp3047
g63
(g64
g65
NtRp3048
(dp3049
g68
(dp3050
g76
I3
ssg77
g3044
sg70
(lp3051
g1524
asbasbasbag63
(g79
g65
NtRp3052
(dp3053
g68
(dp3054
sg77
g2922
sg70
(lp3055
g63
(g84
g65
NtRp3056
(dp3057
g68
(dp3058
g88
g89
ssg77
g3052
sg70
(lp3059
S'HTTP_REFERER'
p3060
asbag63
(g84
g65
NtRp3061
(dp3062
g68
(dp3063
g95
g96
ssg77
g3052
sg70
(lp3064
S':'
asbag63
(g84
g65
NtRp3065
(dp3066
g68
(dp3067
sg77
g3052
sg70
(lp3068
g63
(g64
g65
NtRp3069
(dp3070
g68
(dp3071
g76
I3
ssg77
g3065
sg70
(lp3072
g1546
asbasbasbag63
(g79
g65
NtRp3073
(dp3074
g68
(dp3075
sg77
g2922
sg70
(lp3076
g63
(g84
g65
NtRp3077
(dp3078
g68
(dp3079
g88
g89
ssg77
g3073
sg70
(lp3080
S'HTTP_USER_AGENT'
p3081
asbag63
(g84
g65
NtRp3082
(dp3083
g68
(dp3084
g95
g96
ssg77
g3073
sg70
(lp3085
S':'
asbag63
(g84
g65
NtRp3086
(dp3087
g68
(dp3088
sg77
g3073
sg70
(lp3089
g63
(g64
g65
NtRp3090
(dp3091
g68
(dp3092
g76
I3
ssg77
g3086
sg70
(lp3093
g1568
asbasbasbag63
(g79
g65
NtRp3094
(dp3095
g68
(dp3096
sg77
g2922
sg70
(lp3097
g63
(g84
g65
NtRp3098
(dp3099
g68
(dp3100
g88
g89
ssg77
g3094
sg70
(lp3101
S'HTTP_WEB2PY_COMPONENT_ELEMENT'
p3102
asbag63
(g84
g65
NtRp3103
(dp3104
g68
(dp3105
g95
g96
ssg77
g3094
sg70
(lp3106
S':'
asbag63
(g84
g65
NtRp3107
(dp3108
g68
(dp3109
sg77
g3094
sg70
(lp3110
g63
(g64
g65
NtRp3111
(dp3112
g68
(dp3113
g76
I3
ssg77
g3107
sg70
(lp3114
g208
asbasbasbag63
(g79
g65
NtRp3115
(dp3116
g68
(dp3117
sg77
g2922
sg70
(lp3118
g63
(g84
g65
NtRp3119
(dp3120
g68
(dp3121
g88
g89
ssg77
g3115
sg70
(lp3122
S'HTTP_WEB2PY_COMPONENT_LOCATION'
p3123
asbag63
(g84
g65
NtRp3124
(dp3125
g68
(dp3126
g95
g96
ssg77
g3115
sg70
(lp3127
S':'
asbag63
(g84
g65
NtRp3128
(dp3129
g68
(dp3130
sg77
g3115
sg70
(lp3131
g63
(g64
g65
NtRp3132
(dp3133
g68
(dp3134
g76
I3
ssg77
g3128
sg70
(lp3135
g1611
asbasbasbag63
(g79
g65
NtRp3136
(dp3137
g68
(dp3138
sg77
g2922
sg70
(lp3139
g63
(g84
g65
NtRp3140
(dp3141
g68
(dp3142
g88
g89
ssg77
g3136
sg70
(lp3143
S'HTTP_X_REQUESTED_WITH'
p3144
asbag63
(g84
g65
NtRp3145
(dp3146
g68
(dp3147
g95
g96
ssg77
g3136
sg70
(lp3148
S':'
asbag63
(g84
g65
NtRp3149
(dp3150
g68
(dp3151
sg77
g3136
sg70
(lp3152
g63
(g64
g65
NtRp3153
(dp3154
g68
(dp3155
g76
I3
ssg77
g3149
sg70
(lp3156
g1633
asbasbasbag63
(g79
g65
NtRp3157
(dp3158
g68
(dp3159
sg77
g2922
sg70
(lp3160
g63
(g84
g65
NtRp3161
(dp3162
g68
(dp3163
g88
g89
ssg77
g3157
sg70
(lp3164
S'PATH_INFO'
p3165
asbag63
(g84
g65
NtRp3166
(dp3167
g68
(dp3168
g95
g96
ssg77
g3157
sg70
(lp3169
S':'
asbag63
(g84
g65
NtRp3170
(dp3171
g68
(dp3172
sg77
g3157
sg70
(lp3173
g63
(g64
g65
NtRp3174
(dp3175
g68
(dp3176
g76
I3
ssg77
g3170
sg70
(lp3177
g1697
asbasbasbag63
(g79
g65
NtRp3178
(dp3179
g68
(dp3180
sg77
g2922
sg70
(lp3181
g63
(g84
g65
NtRp3182
(dp3183
g68
(dp3184
g88
g89
ssg77
g3178
sg70
(lp3185
S'QUERY_STRING'
p3186
asbag63
(g84
g65
NtRp3187
(dp3188
g68
(dp3189
g95
g96
ssg77
g3178
sg70
(lp3190
S':'
asbag63
(g84
g65
NtRp3191
(dp3192
g68
(dp3193
sg77
g3178
sg70
(lp3194
g63
(g64
g65
NtRp3195
(dp3196
g68
(dp3197
g76
I3
ssg77
g3191
sg70
(lp3198
S''
asbasbasbag63
(g79
g65
NtRp3199
(dp3200
g68
(dp3201
sg77
g2922
sg70
(lp3202
g63
(g84
g65
NtRp3203
(dp3204
g68
(dp3205
g88
g89
ssg77
g3199
sg70
(lp3206
S'REMOTE_ADDR'
p3207
asbag63
(g84
g65
NtRp3208
(dp3209
g68
(dp3210
g95
g96
ssg77
g3199
sg70
(lp3211
S':'
asbag63
(g84
g65
NtRp3212
(dp3213
g68
(dp3214
sg77
g3199
sg70
(lp3215
g63
(g64
g65
NtRp3216
(dp3217
g68
(dp3218
g76
I3
ssg77
g3212
sg70
(lp3219
g230
asbasbasbag63
(g79
g65
NtRp3220
(dp3221
g68
(dp3222
sg77
g2922
sg70
(lp3223
g63
(g84
g65
NtRp3224
(dp3225
g68
(dp3226
g88
g89
ssg77
g3220
sg70
(lp3227
S'REMOTE_PORT'
p3228
asbag63
(g84
g65
NtRp3229
(dp3230
g68
(dp3231
g95
g96
ssg77
g3220
sg70
(lp3232
S':'
asbag63
(g84
g65
NtRp3233
(dp3234
g68
(dp3235
sg77
g3220
sg70
(lp3236
g63
(g64
g65
NtRp3237
(dp3238
g68
(dp3239
g76
I3
ssg77
g3233
sg70
(lp3240
g1761
asbasbasbag63
(g79
g65
NtRp3241
(dp3242
g68
(dp3243
sg77
g2922
sg70
(lp3244
g63
(g84
g65
NtRp3245
(dp3246
g68
(dp3247
g88
g89
ssg77
g3241
sg70
(lp3248
S'REQUEST_METHOD'
p3249
asbag63
(g84
g65
NtRp3250
(dp3251
g68
(dp3252
g95
g96
ssg77
g3241
sg70
(lp3253
S':'
asbag63
(g84
g65
NtRp3254
(dp3255
g68
(dp3256
sg77
g3241
sg70
(lp3257
g63
(g64
g65
NtRp3258
(dp3259
g68
(dp3260
g76
I3
ssg77
g3254
sg70
(lp3261
g1783
asbasbasbag63
(g79
g65
NtRp3262
(dp3263
g68
(dp3264
sg77
g2922
sg70
(lp3265
g63
(g84
g65
NtRp3266
(dp3267
g68
(dp3268
g88
g89
ssg77
g3262
sg70
(lp3269
S'SCRIPT_NAME'
p3270
asbag63
(g84
g65
NtRp3271
(dp3272
g68
(dp3273
g95
g96
ssg77
g3262
sg70
(lp3274
S':'
asbag63
(g84
g65
NtRp3275
(dp3276
g68
(dp3277
sg77
g3262
sg70
(lp3278
g63
(g64
g65
NtRp3279
(dp3280
g68
(dp3281
g76
I3
ssg77
g3275
sg70
(lp3282
S''
asbasbasbag63
(g79
g65
NtRp3283
(dp3284
g68
(dp3285
sg77
g2922
sg70
(lp3286
g63
(g84
g65
NtRp3287
(dp3288
g68
(dp3289
g88
g89
ssg77
g3283
sg70
(lp3290
S'SERVER_NAME'
p3291
asbag63
(g84
g65
NtRp3292
(dp3293
g68
(dp3294
g95
g96
ssg77
g3283
sg70
(lp3295
S':'
asbag63
(g84
g65
NtRp3296
(dp3297
g68
(dp3298
sg77
g3283
sg70
(lp3299
g63
(g64
g65
NtRp3300
(dp3301
g68
(dp3302
g76
I3
ssg77
g3296
sg70
(lp3303
g1826
asbasbasbag63
(g79
g65
NtRp3304
(dp3305
g68
(dp3306
sg77
g2922
sg70
(lp3307
g63
(g84
g65
NtRp3308
(dp3309
g68
(dp3310
g88
g89
ssg77
g3304
sg70
(lp3311
S'SERVER_PORT'
p3312
asbag63
(g84
g65
NtRp3313
(dp3314
g68
(dp3315
g95
g96
ssg77
g3304
sg70
(lp3316
S':'
asbag63
(g84
g65
NtRp3317
(dp3318
g68
(dp3319
sg77
g3304
sg70
(lp3320
g63
(g64
g65
NtRp3321
(dp3322
g68
(dp3323
g76
I3
ssg77
g3317
sg70
(lp3324
g1848
asbasbasbag63
(g79
g65
NtRp3325
(dp3326
g68
(dp3327
sg77
g2922
sg70
(lp3328
g63
(g84
g65
NtRp3329
(dp3330
g68
(dp3331
g88
g89
ssg77
g3325
sg70
(lp3332
S'SERVER_PROTOCOL'
p3333
asbag63
(g84
g65
NtRp3334
(dp3335
g68
(dp3336
g95
g96
ssg77
g3325
sg70
(lp3337
S':'
asbag63
(g84
g65
NtRp3338
(dp3339
g68
(dp3340
sg77
g3325
sg70
(lp3341
g63
(g64
g65
NtRp3342
(dp3343
g68
(dp3344
g76
I3
ssg77
g3338
sg70
(lp3345
g1870
asbasbasbag63
(g79
g65
NtRp3346
(dp3347
g68
(dp3348
sg77
g2922
sg70
(lp3349
g63
(g84
g65
NtRp3350
(dp3351
g68
(dp3352
g88
g89
ssg77
g3346
sg70
(lp3353
S'SERVER_SOFTWARE'
p3354
asbag63
(g84
g65
NtRp3355
(dp3356
g68
(dp3357
g95
g96
ssg77
g3346
sg70
(lp3358
S':'
asbag63
(g84
g65
NtRp3359
(dp3360
g68
(dp3361
sg77
g3346
sg70
(lp3362
g63
(g64
g65
NtRp3363
(dp3364
g68
(dp3365
g76
I3
ssg77
g3359
sg70
(lp3366
g1892
asbasbasbag63
(g79
g65
NtRp3367
(dp3368
g68
(dp3369
sg77
g2922
sg70
(lp3370
g63
(g84
g65
NtRp3371
(dp3372
g68
(dp3373
g88
g89
ssg77
g3367
sg70
(lp3374
S'wsgi.errors'
p3375
asbag63
(g84
g65
NtRp3376
(dp3377
g68
(dp3378
g95
g96
ssg77
g3367
sg70
(lp3379
S':'
asbag63
(g84
g65
NtRp3380
(dp3381
g68
(dp3382
sg77
g3367
sg70
(lp3383
g63
(g64
g65
NtRp3384
(dp3385
g68
(dp3386
g76
I3
ssg77
g3380
sg70
(lp3387
S"<open file '<stderr>', mode 'w' at 0xb76f00d0>"
p3388
asbasbasbag63
(g79
g65
NtRp3389
(dp3390
g68
(dp3391
sg77
g2922
sg70
(lp3392
g63
(g84
g65
NtRp3393
(dp3394
g68
(dp3395
g88
g89
ssg77
g3389
sg70
(lp3396
S'wsgi.file_wrapper'
p3397
asbag63
(g84
g65
NtRp3398
(dp3399
g68
(dp3400
g95
g96
ssg77
g3389
sg70
(lp3401
S':'
asbag63
(g84
g65
NtRp3402
(dp3403
g68
(dp3404
sg77
g3389
sg70
(lp3405
g63
(g64
g65
NtRp3406
(dp3407
g68
(dp3408
g76
I3
ssg77
g3402
sg70
(lp3409
S'<class wsgiref.util.FileWrapper at 0x906620c>'
p3410
asbasbasbag63
(g79
g65
NtRp3411
(dp3412
g68
(dp3413
sg77
g2922
sg70
(lp3414
g63
(g84
g65
NtRp3415
(dp3416
g68
(dp3417
g88
g89
ssg77
g3411
sg70
(lp3418
S'wsgi.input'
p3419
asbag63
(g84
g65
NtRp3420
(dp3421
g68
(dp3422
g95
g96
ssg77
g3411
sg70
(lp3423
S':'
asbag63
(g84
g65
NtRp3424
(dp3425
g68
(dp3426
sg77
g3411
sg70
(lp3427
g63
(g64
g65
NtRp3428
(dp3429
g68
(dp3430
g76
I3
ssg77
g3424
sg70
(lp3431
S'<cStringIO.StringO object at 0xce99560>'
p3432
asbasbasbag63
(g79
g65
NtRp3433
(dp3434
g68
(dp3435
sg77
g2922
sg70
(lp3436
g63
(g84
g65
NtRp3437
(dp3438
g68
(dp3439
g88
g89
ssg77
g3433
sg70
(lp3440
S'wsgi.multiprocess'
p3441
asbag63
(g84
g65
NtRp3442
(dp3443
g68
(dp3444
g95
g96
ssg77
g3433
sg70
(lp3445
S':'
asbag63
(g84
g65
NtRp3446
(dp3447
g68
(dp3448
sg77
g3433
sg70
(lp3449
g63
(g64
g65
NtRp3450
(dp3451
g68
(dp3452
g76
I3
ssg77
g3446
sg70
(lp3453
g1370
asbasbasbag63
(g79
g65
NtRp3454
(dp3455
g68
(dp3456
sg77
g2922
sg70
(lp3457
g63
(g84
g65
NtRp3458
(dp3459
g68
(dp3460
g88
g89
ssg77
g3454
sg70
(lp3461
S'wsgi.multithread'
p3462
asbag63
(g84
g65
NtRp3463
(dp3464
g68
(dp3465
g95
g96
ssg77
g3454
sg70
(lp3466
S':'
asbag63
(g84
g65
NtRp3467
(dp3468
g68
(dp3469
sg77
g3454
sg70
(lp3470
g63
(g64
g65
NtRp3471
(dp3472
g68
(dp3473
g76
I3
ssg77
g3467
sg70
(lp3474
g106
asbasbasbag63
(g79
g65
NtRp3475
(dp3476
g68
(dp3477
sg77
g2922
sg70
(lp3478
g63
(g84
g65
NtRp3479
(dp3480
g68
(dp3481
g88
g89
ssg77
g3475
sg70
(lp3482
S'wsgi.run_once'
p3483
asbag63
(g84
g65
NtRp3484
(dp3485
g68
(dp3486
g95
g96
ssg77
g3475
sg70
(lp3487
S':'
asbag63
(g84
g65
NtRp3488
(dp3489
g68
(dp3490
sg77
g3475
sg70
(lp3491
g63
(g64
g65
NtRp3492
(dp3493
g68
(dp3494
g76
I3
ssg77
g3488
sg70
(lp3495
g1370
asbasbasbag63
(g79
g65
NtRp3496
(dp3497
g68
(dp3498
sg77
g2922
sg70
(lp3499
g63
(g84
g65
NtRp3500
(dp3501
g68
(dp3502
g88
g89
ssg77
g3496
sg70
(lp3503
S'wsgi.url_scheme'
p3504
asbag63
(g84
g65
NtRp3505
(dp3506
g68
(dp3507
g95
g96
ssg77
g3496
sg70
(lp3508
S':'
asbag63
(g84
g65
NtRp3509
(dp3510
g68
(dp3511
sg77
g3496
sg70
(lp3512
g63
(g64
g65
NtRp3513
(dp3514
g68
(dp3515
g76
I3
ssg77
g3509
sg70
(lp3516
g2174
asbasbasbag63
(g79
g65
NtRp3517
(dp3518
g68
(dp3519
sg77
g2922
sg70
(lp3520
g63
(g84
g65
NtRp3521
(dp3522
g68
(dp3523
g88
g89
ssg77
g3517
sg70
(lp3524
S'wsgi.version'
p3525
asbag63
(g84
g65
NtRp3526
(dp3527
g68
(dp3528
g95
g96
ssg77
g3517
sg70
(lp3529
S':'
asbag63
(g84
g65
NtRp3530
(dp3531
g68
(dp3532
sg77
g3517
sg70
(lp3533
g63
(g64
g65
NtRp3534
(dp3535
g68
(dp3536
g76
I3
ssg77
g3530
sg70
(lp3537
S'1'
asbasbasbasbasbasbasbasbasbasbasbasbasbsS'frames'
p3538
(lp3539
(dp3540
S'file'
p3541
S'/home/iscott/web/web2py/gluon/restricted.py'
p3542
sS'dump'
p3543
(dp3544
S'environment'
p3545
S"{'A': <class 'gluon.html.A'>, 'Auth': <class 'gluon.tools.Auth'>, 'B': <class 'gluon.html.B'>, 'BEAUTIFY': <class 'gluon.html.BEAUTIFY'>, 'BODY': <class 'gluon.html.BODY'>, 'BR': <class 'gluon.html.BR'>, 'BUTTON': <class 'gluon.html.BUTTON'>, 'BookParser': <class 'applications.grammateus3.modules.parse.BookParser'>, 'CAT': <class 'gluon.html.CAT'>, 'CENTER': <class 'gluon.html.CENTER'>, ...}"
p3546
sS'ccode'
p3547
S'<code object <module> at 0xcea99b0, file "/home/...cations/grammateus3/controllers/docs.py", line 2>'
p3548
ssS'lnum'
p3549
I204
sS'lines'
p3550
(dp3551
I199
S'    try:'
p3552
sI200
S'        if type(code) == types.CodeType:'
p3553
sI201
S'            ccode = code'
p3554
sI202
S'        else:'
p3555
sI203
S'            ccode = compile2(code,layer)'
p3556
sI204
S'        exec ccode in environment'
p3557
sI205
S'    except HTTP:'
p3558
sI206
S'        raise'
p3559
sI207
S'    except RestrictedError:'
p3560
sI208
S'        # do not encapsulate (obfuscate) the original RestrictedError'
p3561
ssS'call'
p3562
S"(code='# coding: utf8\\nfrom lxml import etree\\n\\nfrom pars... info)\\n\\nresponse._vars=response._caller(section)\\n', environment={'A': <class 'gluon.html.A'>, 'Auth': <class 'gluon.tools.Auth'>, 'B': <class 'gluon.html.B'>, 'BEAUTIFY': <class 'gluon.html.BEAUTIFY'>, 'BODY': <class 'gluon.html.BODY'>, 'BR': <class 'gluon.html.BR'>, 'BUTTON': <class 'gluon.html.BUTTON'>, 'BookParser': <class 'applications.grammateus3.modules.parse.BookParser'>, 'CAT': <class 'gluon.html.CAT'>, 'CENTER': <class 'gluon.html.CENTER'>, ...}, layer='/home/iscott/web/web2py/applications/grammateus3/controllers/docs.py')"
p3563
sS'func'
p3564
S'restricted'
p3565
sa(dp3566
g3541
S'/home/iscott/web/web2py/applications/grammateus3/controllers/docs.py'
p3567
sg3543
(dp3568
sg3549
I130
sg3550
(dp3569
I128
S'    return dict(title = title, info = info)'
p3570
sI119
S"                print 'Version textstructure'"
p3571
sI120
S'                for ref, ref_val in value.items():'
p3572
sI121
S'                    for unit, unit_val in ref_val.items():'
p3573
sI122
S'                        for mss, mss_val in unit_val.items():'
p3574
sI123
S"                            print '\\t', ref, '-->', unit, '-->', mss, '-->', mss_val"
p3575
sI124
S"        print '************'"
p3576
sI125
S'    print'
p3577
sI126
S'    print'
p3578
sI127
S''
ssg3562
S'()'
p3579
sg3564
S'<module>'
p3580
sa(dp3581
g3541
S'/home/iscott/web/web2py/gluon/globals.py'
p3582
sg3543
(dp3583
S'self'
p3584
S'undefined'
p3585
sS'f'
S'<function section>'
p3586
ssg3549
I172
sg3550
(dp3587
I167
S'        self.meta = Storage()      # used by web2py_ajax.html'
p3588
sI168
S'        self.menu = []             # used by the default view layout'
p3589
sI169
S'        self.files = []            # used by web2py_ajax.html'
p3590
sI170
S'        self.generic_patterns = [] # patterns to allow generic views'
p3591
sI171
S'        self._vars = None'
p3592
sI172
S'        self._caller = lambda f: f()'
p3593
sI173
S'        self._view_environment = None'
p3594
sI174
S'        self._custom_commit = None'
p3595
sI175
S'        self._custom_rollback = None'
p3596
sI176
S''
ssg3562
S'(f=<function section>)'
p3597
sg3564
S'<lambda>'
p3598
sa(dp3599
g3541
S'/home/iscott/web/web2py/applications/grammateus3/controllers/docs.py'
p3600
sg3543
(dp3601
S'p'
g3585
sS'global BookParser'
p3602
S"<class 'applications.grammateus3.modules.parse.BookParser'>"
p3603
sS'book_file'
p3604
S"'applications/grammateus3/static/docs/8.xml'"
p3605
ssg3549
I39
sg3550
(dp3606
I34
S'    """'
p3607
sI35
S'    #get filename from end of url and parse the file with BookParser class'
p3608
sI36
S'    filename = request.args[0]'
p3609
sI37
S'    print filename'
p3610
sI38
S"    book_file = 'applications/grammateus3/static/docs/%s.xml' % filename"
p3611
sI39
S'    p = BookParser(book_file)'
p3612
sI40
S'    info = p.book_info()'
p3613
sI41
S'    #get title of document'
p3614
sI42
S"    title = info['title']"
p3615
sI43
S''
ssg3562
S'()'
p3616
sg3564
S'section'
p3617
sa(dp3618
g3541
S'/home/iscott/web/web2py/applications/grammateus3/modules/parse.py'
p3619
sg3543
(dp3620
S'xml_file'
p3621
S"'applications/grammateus3/static/docs/8.xml'"
p3622
sS'self'
p3623
S'<applications.grammateus3.modules.parse.BookParser object>'
p3624
sS'parser'
p3625
S'<lxml.etree.XMLParser object>'
p3626
sS'self.tree'
p3627
g3585
sS'global etree'
p3628
S"<module 'lxml.etree' from '/usr/lib/python2.7/dist-packages/lxml/etree.so'>"
p3629
sS'etree.parse'
p3630
S'<built-in function parse>'
p3631
ssg3549
I25
sg3550
(dp3632
I20
S'        self.xml_file = xml_file'
p3633
sI21
S''
sI22
S'        # Validate document against its schema'
p3634
sI23
S'        parser = etree.XMLParser(dtd_validation=True)'
p3635
sI24
S'        try:'
p3636
sI25
S'            self.tree = etree.parse(xml_file, parser)'
p3637
sI26
S'        except etree.XMLSyntaxError:'
p3638
sI27
S"            print 'Document does not validate against its schema: %s' % xml_file"
p3639
sI28
S'            raise   # Just reraise for now'
p3640
sI29
S''
ssg3562
S"(self=<applications.grammateus3.modules.parse.BookParser object>, xml_file='applications/grammateus3/static/docs/8.xml')"
p3641
sg3564
g22
sa(dp3642
g3541
S'/home/iscott/web/web2py/lxml.etree.pyx'
p3643
sg3543
(dp3644
sg3549
I2942
sg3550
(dp3645
sg3562
S'()'
p3646
sg3564
S'lxml.etree.parse (src/lxml/lxml.etree.c:54187)'
p3647
sa(dp3648
g3541
S'/home/iscott/web/web2py/parser.pxi'
p3649
sg3543
(dp3650
sg3549
I1528
sg3550
(dp3651
sg3562
S'()'
p3652
sg3564
S'lxml.etree._parseDocument (src/lxml/lxml.etree.c:79485)'
p3653
sa(dp3654
g3541
S'/home/iscott/web/web2py/parser.pxi'
p3655
sg3543
(dp3656
sg3549
I1557
sg3550
(dp3657
sg3562
S'()'
p3658
sg3564
S'lxml.etree._parseDocumentFromURL (src/lxml/lxml.etree.c:79768)'
p3659
sa(dp3660
g3541
S'/home/iscott/web/web2py/parser.pxi'
p3661
sg3543
(dp3662
sg3549
I1457
sg3550
(dp3663
sg3562
S'()'
p3664
sg3564
S'lxml.etree._parseDocFromFile (src/lxml/lxml.etree.c:78843)'
p3665
sa(dp3666
g3541
S'/home/iscott/web/web2py/parser.pxi'
p3667
sg3543
(dp3668
sg3549
I997
sg3550
(dp3669
sg3562
S'()'
p3670
sg3564
S'lxml.etree._BaseParser._parseDocFromFile (src/lxml/lxml.etree.c:75698)'
p3671
sa(dp3672
g3541
S'/home/iscott/web/web2py/parser.pxi'
p3673
sg3543
(dp3674
sg3549
I564
sg3550
(dp3675
sg3562
S'()'
p3676
sg3564
S'lxml.etree._ParserContext._handleParseResultDoc (src/lxml/lxml.etree.c:71739)'
p3677
sa(dp3678
g3541
S'/home/iscott/web/web2py/parser.pxi'
p3679
sg3543
(dp3680
sg3549
I645
sg3550
(dp3681
sg3562
S'()'
p3682
sg3564
S'lxml.etree._handleParseResult (src/lxml/lxml.etree.c:72614)'
p3683
sa(dp3684
g3541
S'/home/iscott/web/web2py/parser.pxi'
p3685
sg3543
(dp3686
sg3549
I583
sg3550
(dp3687
sg3562
S'()'
p3688
sg3564
S'lxml.etree._raiseParseError (src/lxml/lxml.etree.c:71927)'
p3689
sasS'pyver'
p3690
S'Python 2.7.2+: /usr/bin/python2.7'
p3691
sS'session'
p3692
g63
(g64
g65
NtRp3693
(dp3694
g68
(dp3695
sg70
(lp3696
g63
(g72
g65
NtRp3697
(dp3698
g68
(dp3699
g76
I5
ssg77
Nsg70
(lp3700
sbasbsS'etype'
p3701
S"<type 'exceptions.IOError'>"
p3702
sS'date'
p3703
S'Wed Mar  7 13:28:00 2012'
p3704
sS'response'
p3705
g63
(g64
g65
NtRp3706
(dp3707
g68
(dp3708
sg70
(lp3709
g63
(g72
g65
NtRp3710
(dp3711
g68
(dp3712
g76
I5
ssg77
Nsg70
(lp3713
g63
(g79
g65
NtRp3714
(dp3715
g68
(dp3716
sg77
g3710
sg70
(lp3717
g63
(g84
g65
NtRp3718
(dp3719
g68
(dp3720
g88
g89
ssg77
g3714
sg70
(lp3721
g173
asbag63
(g84
g65
NtRp3722
(dp3723
g68
(dp3724
g95
g96
ssg77
g3714
sg70
(lp3725
S':'
asbag63
(g84
g65
NtRp3726
(dp3727
g68
(dp3728
sg77
g3714
sg70
(lp3729
g63
(g64
g65
NtRp3730
(dp3731
g68
(dp3732
g76
I5
ssg77
g3726
sg70
(lp3733
S'<cStringIO.StringO object at 0xc8ad660>'
p3734
asbasbasbag63
(g79
g65
NtRp3735
(dp3736
g68
(dp3737
sg77
g3710
sg70
(lp3738
g63
(g84
g65
NtRp3739
(dp3740
g68
(dp3741
g88
g89
ssg77
g3735
sg70
(lp3742
g261
asbag63
(g84
g65
NtRp3743
(dp3744
g68
(dp3745
g95
g96
ssg77
g3735
sg70
(lp3746
S':'
asbag63
(g84
g65
NtRp3747
(dp3748
g68
(dp3749
sg77
g3735
sg70
(lp3750
g63
(g64
g65
NtRp3751
(dp3752
g68
(dp3753
g76
I5
ssg77
g3747
sg70
(lp3754
g63
(g72
g65
NtRp3755
(dp3756
g68
(dp3757
g76
I4
ssg77
Nsg70
(lp3758
g63
(g79
g65
NtRp3759
(dp3760
g68
(dp3761
sg77
g3755
sg70
(lp3762
g63
(g84
g65
NtRp3763
(dp3764
g68
(dp3765
g88
g89
ssg77
g3759
sg70
(lp3766
S'session_id_grammateus3'
p3767
asbag63
(g84
g65
NtRp3768
(dp3769
g68
(dp3770
g95
g96
ssg77
g3759
sg70
(lp3771
S':'
asbag63
(g84
g65
NtRp3772
(dp3773
g68
(dp3774
sg77
g3759
sg70
(lp3775
g63
(g64
g65
NtRp3776
(dp3777
g68
(dp3778
g76
I4
ssg77
g3772
sg70
(lp3779
g63
(g72
g65
NtRp3780
(dp3781
g68
(dp3782
g76
I3
ssg77
Nsg70
(lp3783
g63
(g79
g65
NtRp3784
(dp3785
g68
(dp3786
sg77
g3780
sg70
(lp3787
g63
(g84
g65
NtRp3788
(dp3789
g68
(dp3790
g88
g89
ssg77
g3784
sg70
(lp3791
g311
asbag63
(g84
g65
NtRp3792
(dp3793
g68
(dp3794
g95
g96
ssg77
g3784
sg70
(lp3795
S':'
asbag63
(g84
g65
NtRp3796
(dp3797
g68
(dp3798
sg77
g3784
sg70
(lp3799
g63
(g64
g65
NtRp3800
(dp3801
g68
(dp3802
g76
I3
ssg77
g3796
sg70
(lp3803
S''
asbasbasbag63
(g79
g65
NtRp3804
(dp3805
g68
(dp3806
sg77
g3780
sg70
(lp3807
g63
(g84
g65
NtRp3808
(dp3809
g68
(dp3810
g88
g89
ssg77
g3804
sg70
(lp3811
g332
asbag63
(g84
g65
NtRp3812
(dp3813
g68
(dp3814
g95
g96
ssg77
g3804
sg70
(lp3815
S':'
asbag63
(g84
g65
NtRp3816
(dp3817
g68
(dp3818
sg77
g3804
sg70
(lp3819
g63
(g64
g65
NtRp3820
(dp3821
g68
(dp3822
g76
I3
ssg77
g3816
sg70
(lp3823
S''
asbasbasbag63
(g79
g65
NtRp3824
(dp3825
g68
(dp3826
sg77
g3780
sg70
(lp3827
g63
(g84
g65
NtRp3828
(dp3829
g68
(dp3830
g88
g89
ssg77
g3824
sg70
(lp3831
g353
asbag63
(g84
g65
NtRp3832
(dp3833
g68
(dp3834
g95
g96
ssg77
g3824
sg70
(lp3835
S':'
asbag63
(g84
g65
NtRp3836
(dp3837
g68
(dp3838
sg77
g3824
sg70
(lp3839
g63
(g64
g65
NtRp3840
(dp3841
g68
(dp3842
g76
I3
ssg77
g3836
sg70
(lp3843
S''
asbasbasbag63
(g79
g65
NtRp3844
(dp3845
g68
(dp3846
sg77
g3780
sg70
(lp3847
g63
(g84
g65
NtRp3848
(dp3849
g68
(dp3850
g88
g89
ssg77
g3844
sg70
(lp3851
g374
asbag63
(g84
g65
NtRp3852
(dp3853
g68
(dp3854
g95
g96
ssg77
g3844
sg70
(lp3855
S':'
asbag63
(g84
g65
NtRp3856
(dp3857
g68
(dp3858
sg77
g3844
sg70
(lp3859
g63
(g64
g65
NtRp3860
(dp3861
g68
(dp3862
g76
I3
ssg77
g3856
sg70
(lp3863
S''
asbasbasbag63
(g79
g65
NtRp3864
(dp3865
g68
(dp3866
sg77
g3780
sg70
(lp3867
g63
(g84
g65
NtRp3868
(dp3869
g68
(dp3870
g88
g89
ssg77
g3864
sg70
(lp3871
g395
asbag63
(g84
g65
NtRp3872
(dp3873
g68
(dp3874
g95
g96
ssg77
g3864
sg70
(lp3875
S':'
asbag63
(g84
g65
NtRp3876
(dp3877
g68
(dp3878
sg77
g3864
sg70
(lp3879
g63
(g64
g65
NtRp3880
(dp3881
g68
(dp3882
g76
I3
ssg77
g3876
sg70
(lp3883
S''
asbasbasbag63
(g79
g65
NtRp3884
(dp3885
g68
(dp3886
sg77
g3780
sg70
(lp3887
g63
(g84
g65
NtRp3888
(dp3889
g68
(dp3890
g88
g89
ssg77
g3884
sg70
(lp3891
g416
asbag63
(g84
g65
NtRp3892
(dp3893
g68
(dp3894
g95
g96
ssg77
g3884
sg70
(lp3895
S':'
asbag63
(g84
g65
NtRp3896
(dp3897
g68
(dp3898
sg77
g3884
sg70
(lp3899
g63
(g64
g65
NtRp3900
(dp3901
g68
(dp3902
g76
I3
ssg77
g3896
sg70
(lp3903
S'/'
asbasbasbag63
(g79
g65
NtRp3904
(dp3905
g68
(dp3906
sg77
g3780
sg70
(lp3907
g63
(g84
g65
NtRp3908
(dp3909
g68
(dp3910
g88
g89
ssg77
g3904
sg70
(lp3911
g437
asbag63
(g84
g65
NtRp3912
(dp3913
g68
(dp3914
g95
g96
ssg77
g3904
sg70
(lp3915
S':'
asbag63
(g84
g65
NtRp3916
(dp3917
g68
(dp3918
sg77
g3904
sg70
(lp3919
g63
(g64
g65
NtRp3920
(dp3921
g68
(dp3922
g76
I3
ssg77
g3916
sg70
(lp3923
S''
asbasbasbag63
(g79
g65
NtRp3924
(dp3925
g68
(dp3926
sg77
g3780
sg70
(lp3927
g63
(g84
g65
NtRp3928
(dp3929
g68
(dp3930
g88
g89
ssg77
g3924
sg70
(lp3931
g458
asbag63
(g84
g65
NtRp3932
(dp3933
g68
(dp3934
g95
g96
ssg77
g3924
sg70
(lp3935
S':'
asbag63
(g84
g65
NtRp3936
(dp3937
g68
(dp3938
sg77
g3924
sg70
(lp3939
g63
(g64
g65
NtRp3940
(dp3941
g68
(dp3942
g76
I3
ssg77
g3936
sg70
(lp3943
S''
asbasbasbasbasbasbasbasbasbasbasbag63
(g79
g65
NtRp3944
(dp3945
g68
(dp3946
sg77
g3710
sg70
(lp3947
g63
(g84
g65
NtRp3948
(dp3949
g68
(dp3950
g88
g89
ssg77
g3944
sg70
(lp3951
S'files'
p3952
asbag63
(g84
g65
NtRp3953
(dp3954
g68
(dp3955
g95
g96
ssg77
g3944
sg70
(lp3956
S':'
asbag63
(g84
g65
NtRp3957
(dp3958
g68
(dp3959
sg77
g3944
sg70
(lp3960
g63
(g64
g65
NtRp3961
(dp3962
g68
(dp3963
g76
I5
ssg77
g3957
sg70
(lp3964
g63
(g72
g65
NtRp3965
(dp3966
g68
(dp3967
g76
I4
ssg77
Nsg70
(lp3968
sbasbasbasbag63
(g79
g65
NtRp3969
(dp3970
g68
(dp3971
sg77
g3710
sg70
(lp3972
g63
(g84
g65
NtRp3973
(dp3974
g68
(dp3975
g88
g89
ssg77
g3969
sg70
(lp3976
S'flash'
p3977
asbag63
(g84
g65
NtRp3978
(dp3979
g68
(dp3980
g95
g96
ssg77
g3969
sg70
(lp3981
S':'
asbag63
(g84
g65
NtRp3982
(dp3983
g68
(dp3984
sg77
g3969
sg70
(lp3985
g63
(g64
g65
NtRp3986
(dp3987
g68
(dp3988
g76
I5
ssg77
g3982
sg70
(lp3989
S''
asbasbasbag63
(g79
g65
NtRp3990
(dp3991
g68
(dp3992
sg77
g3710
sg70
(lp3993
g63
(g84
g65
NtRp3994
(dp3995
g68
(dp3996
g88
g89
ssg77
g3990
sg70
(lp3997
S'generic_patterns'
p3998
asbag63
(g84
g65
NtRp3999
(dp4000
g68
(dp4001
g95
g96
ssg77
g3990
sg70
(lp4002
S':'
asbag63
(g84
g65
NtRp4003
(dp4004
g68
(dp4005
sg77
g3990
sg70
(lp4006
g63
(g64
g65
NtRp4007
(dp4008
g68
(dp4009
g76
I5
ssg77
g4003
sg70
(lp4010
g63
(g72
g65
NtRp4011
(dp4012
g68
(dp4013
g76
I4
ssg77
Nsg70
(lp4014
g63
(g79
g65
NtRp4015
(dp4016
g68
(dp4017
sg77
g4011
sg70
(lp4018
g63
(g84
g65
NtRp4019
(dp4020
g68
(dp4021
sg77
g4015
sg70
(lp4022
g63
(g64
g65
NtRp4023
(dp4024
g68
(dp4025
g76
I4
ssg77
g4019
sg70
(lp4026
S'*'
asbasbasbasbasbasbasbag63
(g79
g65
NtRp4027
(dp4028
g68
(dp4029
sg77
g3710
sg70
(lp4030
g63
(g84
g65
NtRp4031
(dp4032
g68
(dp4033
g88
g89
ssg77
g4027
sg70
(lp4034
S'headers'
p4035
asbag63
(g84
g65
NtRp4036
(dp4037
g68
(dp4038
g95
g96
ssg77
g4027
sg70
(lp4039
S':'
asbag63
(g84
g65
NtRp4040
(dp4041
g68
(dp4042
sg77
g4027
sg70
(lp4043
g63
(g64
g65
NtRp4044
(dp4045
g68
(dp4046
g76
I5
ssg77
g4040
sg70
(lp4047
g63
(g72
g65
NtRp4048
(dp4049
g68
(dp4050
g76
I4
ssg77
Nsg70
(lp4051
g63
(g79
g65
NtRp4052
(dp4053
g68
(dp4054
sg77
g4048
sg70
(lp4055
g63
(g84
g65
NtRp4056
(dp4057
g68
(dp4058
g88
g89
ssg77
g4052
sg70
(lp4059
S'Cache-Control'
p4060
asbag63
(g84
g65
NtRp4061
(dp4062
g68
(dp4063
g95
g96
ssg77
g4052
sg70
(lp4064
S':'
asbag63
(g84
g65
NtRp4065
(dp4066
g68
(dp4067
sg77
g4052
sg70
(lp4068
g63
(g64
g65
NtRp4069
(dp4070
g68
(dp4071
g76
I4
ssg77
g4065
sg70
(lp4072
S'no-store, no-cache, must-revalidate, post-check=0, pre-check=0'
p4073
asbasbasbag63
(g79
g65
NtRp4074
(dp4075
g68
(dp4076
sg77
g4048
sg70
(lp4077
g63
(g84
g65
NtRp4078
(dp4079
g68
(dp4080
g88
g89
ssg77
g4074
sg70
(lp4081
S'Content-Type'
p4082
asbag63
(g84
g65
NtRp4083
(dp4084
g68
(dp4085
g95
g96
ssg77
g4074
sg70
(lp4086
S':'
asbag63
(g84
g65
NtRp4087
(dp4088
g68
(dp4089
sg77
g4074
sg70
(lp4090
g63
(g64
g65
NtRp4091
(dp4092
g68
(dp4093
g76
I4
ssg77
g4087
sg70
(lp4094
S'text/html; charset=utf-8'
p4095
asbasbasbag63
(g79
g65
NtRp4096
(dp4097
g68
(dp4098
sg77
g4048
sg70
(lp4099
g63
(g84
g65
NtRp4100
(dp4101
g68
(dp4102
g88
g89
ssg77
g4096
sg70
(lp4103
S'Expires'
p4104
asbag63
(g84
g65
NtRp4105
(dp4106
g68
(dp4107
g95
g96
ssg77
g4096
sg70
(lp4108
S':'
asbag63
(g84
g65
NtRp4109
(dp4110
g68
(dp4111
sg77
g4096
sg70
(lp4112
g63
(g64
g65
NtRp4113
(dp4114
g68
(dp4115
g76
I4
ssg77
g4109
sg70
(lp4116
S'Wed, 07 Mar 2012 18:27:59 GMT'
p4117
asbasbasbag63
(g79
g65
NtRp4118
(dp4119
g68
(dp4120
sg77
g4048
sg70
(lp4121
g63
(g84
g65
NtRp4122
(dp4123
g68
(dp4124
g88
g89
ssg77
g4118
sg70
(lp4125
S'Pragma'
p4126
asbag63
(g84
g65
NtRp4127
(dp4128
g68
(dp4129
g95
g96
ssg77
g4118
sg70
(lp4130
S':'
asbag63
(g84
g65
NtRp4131
(dp4132
g68
(dp4133
sg77
g4118
sg70
(lp4134
g63
(g64
g65
NtRp4135
(dp4136
g68
(dp4137
g76
I4
ssg77
g4131
sg70
(lp4138
S'no-cache'
p4139
asbasbasbag63
(g79
g65
NtRp4140
(dp4141
g68
(dp4142
sg77
g4048
sg70
(lp4143
g63
(g84
g65
NtRp4144
(dp4145
g68
(dp4146
g88
g89
ssg77
g4140
sg70
(lp4147
S'X-Powered-By'
p4148
asbag63
(g84
g65
NtRp4149
(dp4150
g68
(dp4151
g95
g96
ssg77
g4140
sg70
(lp4152
S':'
asbag63
(g84
g65
NtRp4153
(dp4154
g68
(dp4155
sg77
g4140
sg70
(lp4156
g63
(g64
g65
NtRp4157
(dp4158
g68
(dp4159
g76
I4
ssg77
g4153
sg70
(lp4160
S'web2py'
p4161
asbasbasbasbasbasbasbag63
(g79
g65
NtRp4162
(dp4163
g68
(dp4164
sg77
g3710
sg70
(lp4165
g63
(g84
g65
NtRp4166
(dp4167
g68
(dp4168
g88
g89
ssg77
g4162
sg70
(lp4169
S'menu'
p4170
asbag63
(g84
g65
NtRp4171
(dp4172
g68
(dp4173
g95
g96
ssg77
g4162
sg70
(lp4174
S':'
asbag63
(g84
g65
NtRp4175
(dp4176
g68
(dp4177
sg77
g4162
sg70
(lp4178
g63
(g64
g65
NtRp4179
(dp4180
g68
(dp4181
g76
I5
ssg77
g4175
sg70
(lp4182
g63
(g72
g65
NtRp4183
(dp4184
g68
(dp4185
g76
I4
ssg77
Nsg70
(lp4186
g63
(g79
g65
NtRp4187
(dp4188
g68
(dp4189
sg77
g4183
sg70
(lp4190
g63
(g84
g65
NtRp4191
(dp4192
g68
(dp4193
sg77
g4187
sg70
(lp4194
g63
(g64
g65
NtRp4195
(dp4196
g68
(dp4197
g76
I4
ssg77
g4191
sg70
(lp4198
g63
(g72
g65
NtRp4199
(dp4200
g68
(dp4201
g76
I3
ssg77
Nsg70
(lp4202
g63
(g79
g65
NtRp4203
(dp4204
g68
(dp4205
sg77
g4199
sg70
(lp4206
g63
(g84
g65
NtRp4207
(dp4208
g68
(dp4209
sg77
g4203
sg70
(lp4210
g63
(g64
g65
NtRp4211
(dp4212
g68
(dp4213
g76
I3
ssg77
g4207
sg70
(lp4214
cgluon.languages
lazyT_unpickle
p4215
(S't\x04\x00\x00\x00Home'
tRp4216
asbasbasbag63
(g79
g65
NtRp4217
(dp4218
g68
(dp4219
sg77
g4199
sg70
(lp4220
g63
(g84
g65
NtRp4221
(dp4222
g68
(dp4223
sg77
g4217
sg70
(lp4224
g63
(g64
g65
NtRp4225
(dp4226
g68
(dp4227
g76
I3
ssg77
g4221
sg70
(lp4228
g1370
asbasbasbag63
(g79
g65
NtRp4229
(dp4230
g68
(dp4231
sg77
g4199
sg70
(lp4232
g63
(g84
g65
NtRp4233
(dp4234
g68
(dp4235
sg77
g4229
sg70
(lp4236
g63
(g64
g65
NtRp4237
(dp4238
g68
(dp4239
g76
I3
ssg77
g4233
sg70
(lp4240
S'/grammateus3/default/index.load'
p4241
asbasbasbag63
(g79
g65
NtRp4242
(dp4243
g68
(dp4244
sg77
g4199
sg70
(lp4245
g63
(g84
g65
NtRp4246
(dp4247
g68
(dp4248
sg77
g4242
sg70
(lp4249
g63
(g64
g65
NtRp4250
(dp4251
g68
(dp4252
g76
I3
ssg77
g4246
sg70
(lp4253
g63
(g72
g65
NtRp4254
(dp4255
g68
(dp4256
g76
I2
ssg77
Nsg70
(lp4257
sbasbasbasbasbasbasbasbag63
(g79
g65
NtRp4258
(dp4259
g68
(dp4260
sg77
g4183
sg70
(lp4261
g63
(g84
g65
NtRp4262
(dp4263
g68
(dp4264
sg77
g4258
sg70
(lp4265
g63
(g64
g65
NtRp4266
(dp4267
g68
(dp4268
g76
I4
ssg77
g4262
sg70
(lp4269
g63
(g72
g65
NtRp4270
(dp4271
g68
(dp4272
g76
I3
ssg77
Nsg70
(lp4273
g63
(g79
g65
NtRp4274
(dp4275
g68
(dp4276
sg77
g4270
sg70
(lp4277
g63
(g84
g65
NtRp4278
(dp4279
g68
(dp4280
sg77
g4274
sg70
(lp4281
g63
(g64
g65
NtRp4282
(dp4283
g68
(dp4284
g76
I3
ssg77
g4278
sg70
(lp4285
g63
(cgluon.html
SPAN
p4286
g65
NtRp4287
(dp4288
g68
(dp4289
g88
S'color:yellow'
p4290
ssg77
Nsg70
(lp4291
g4161
asbasbasbasbag63
(g79
g65
NtRp4292
(dp4293
g68
(dp4294
sg77
g4270
sg70
(lp4295
g63
(g84
g65
NtRp4296
(dp4297
g68
(dp4298
sg77
g4292
sg70
(lp4299
g63
(g64
g65
NtRp4300
(dp4301
g68
(dp4302
g76
I3
ssg77
g4296
sg70
(lp4303
g1370
asbasbasbag63
(g79
g65
NtRp4304
(dp4305
g68
(dp4306
sg77
g4270
sg70
(lp4307
g63
(g84
g65
NtRp4308
(dp4309
g68
(dp4310
sg77
g4304
sg70
(lp4311
g63
(g64
g65
NtRp4312
(dp4313
g68
(dp4314
g76
I3
ssg77
g4308
sg70
(lp4315
S'None'
p4316
asbasbasbag63
(g79
g65
NtRp4317
(dp4318
g68
(dp4319
sg77
g4270
sg70
(lp4320
g63
(g84
g65
NtRp4321
(dp4322
g68
(dp4323
sg77
g4317
sg70
(lp4324
g63
(g64
g65
NtRp4325
(dp4326
g68
(dp4327
g76
I3
ssg77
g4321
sg70
(lp4328
g63
(g72
g65
NtRp4329
(dp4330
g68
(dp4331
g76
I2
ssg77
Nsg70
(lp4332
g63
(g79
g65
NtRp4333
(dp4334
g68
(dp4335
sg77
g4329
sg70
(lp4336
g63
(g84
g65
NtRp4337
(dp4338
g68
(dp4339
sg77
g4333
sg70
(lp4340
g63
(g64
g65
NtRp4341
(dp4342
g68
(dp4343
g76
I2
ssg77
g4337
sg70
(lp4344
g63
(g72
g65
NtRp4345
(dp4346
g68
(dp4347
g76
I1
ssg77
Nsg70
(lp4348
g63
(g79
g65
NtRp4349
(dp4350
g68
(dp4351
sg77
g4345
sg70
(lp4352
g63
(g84
g65
NtRp4353
(dp4354
g68
(dp4355
sg77
g4349
sg70
(lp4356
g63
(g64
g65
NtRp4357
(dp4358
g68
(dp4359
g76
I1
ssg77
g4353
sg70
(lp4360
g4215
(S's\x08\x00\x00\x00My Sites'
tRp4361
asbasbasbag63
(g79
g65
NtRp4362
(dp4363
g68
(dp4364
sg77
g4345
sg70
(lp4365
g63
(g84
g65
NtRp4366
(dp4367
g68
(dp4368
sg77
g4362
sg70
(lp4369
g63
(g64
g65
NtRp4370
(dp4371
g68
(dp4372
g76
I1
ssg77
g4366
sg70
(lp4373
I00
asbasbasbag63
(g79
g65
NtRp4374
(dp4375
g68
(dp4376
sg77
g4345
sg70
(lp4377
g63
(g84
g65
NtRp4378
(dp4379
g68
(dp4380
sg77
g4374
sg70
(lp4381
g63
(g64
g65
NtRp4382
(dp4383
g68
(dp4384
g76
I1
ssg77
g4378
sg70
(lp4385
S'/admin/default/site.load'
p4386
asbasbasbasbasbasbasbag63
(g79
g65
NtRp4387
(dp4388
g68
(dp4389
sg77
g4329
sg70
(lp4390
g63
(g84
g65
NtRp4391
(dp4392
g68
(dp4393
sg77
g4387
sg70
(lp4394
g63
(g64
g65
NtRp4395
(dp4396
g68
(dp4397
g76
I2
ssg77
g4391
sg70
(lp4398
g63
(g72
g65
NtRp4399
(dp4400
g68
(dp4401
g76
I1
ssg77
Nsg70
(lp4402
g63
(g79
g65
NtRp4403
(dp4404
g68
(dp4405
sg77
g4399
sg70
(lp4406
g63
(g84
g65
NtRp4407
(dp4408
g68
(dp4409
sg77
g4403
sg70
(lp4410
g63
(g64
g65
NtRp4411
(dp4412
g68
(dp4413
g76
I1
ssg77
g4407
sg70
(lp4414
g4215
(S's\x08\x00\x00\x00This App'
tRp4415
asbasbasbag63
(g79
g65
NtRp4416
(dp4417
g68
(dp4418
sg77
g4399
sg70
(lp4419
g63
(g84
g65
NtRp4420
(dp4421
g68
(dp4422
sg77
g4416
sg70
(lp4423
g63
(g64
g65
NtRp4424
(dp4425
g68
(dp4426
g76
I1
ssg77
g4420
sg70
(lp4427
I00
asbasbasbag63
(g79
g65
NtRp4428
(dp4429
g68
(dp4430
sg77
g4399
sg70
(lp4431
g63
(g84
g65
NtRp4432
(dp4433
g68
(dp4434
sg77
g4428
sg70
(lp4435
g63
(g64
g65
NtRp4436
(dp4437
g68
(dp4438
g76
I1
ssg77
g4432
sg70
(lp4439
S'/admin/default/design/grammateus3.load'
p4440
asbasbasbag63
(g79
g65
NtRp4441
(dp4442
g68
(dp4443
sg77
g4399
sg70
(lp4444
g63
(g84
g65
NtRp4445
(dp4446
g68
(dp4447
sg77
g4441
sg70
(lp4448
g63
(g64
g65
NtRp4449
(dp4450
g68
(dp4451
g76
I1
ssg77
g4445
sg70
(lp4452
(lp4453
(g4215
(S't\n\x00\x00\x00Controller'
tRp4454
I00
S'/admin/default/edit/grammateus3/controllers/docs.py'
tp4455
a(g4215
(S't\x04\x00\x00\x00View'
tRp4456
I00
S'/admin/default/edit/grammateus3/views/docs/section.load'
tp4457
a(g4215
(S't\x06\x00\x00\x00Layout'
tRp4458
I00
S'/admin/default/edit/grammateus3/views/layout.html'
tp4459
a(g4215
(S't\n\x00\x00\x00Stylesheet'
tRp4460
I00
S'/admin/default/edit/grammateus3/static/css/web2py.css'
tp4461
a(g4215
(S's\x08\x00\x00\x00DB Model'
tRp4462
I00
S'/admin/default/edit/grammateus3/models/db.py'
tp4463
a(g4215
(S's\n\x00\x00\x00Menu Model'
tRp4464
I00
S'/admin/default/edit/grammateus3/models/menu.py'
tp4465
a(g4215
(S't\x08\x00\x00\x00Database'
tRp4466
I00
S'/grammateus3/appadmin/index.load'
tp4467
a(g4215
(S't\x06\x00\x00\x00Errors'
tRp4468
I00
S'/admin/default/errors/grammateus3.load'
tp4469
a(g4215
(S't\x05\x00\x00\x00About'
tRp4470
I00
S'/admin/default/about/grammateus3.load'
tp4471
aasbasbasbasbasbasbasbag63
(g79
g65
NtRp4472
(dp4473
g68
(dp4474
sg77
g4329
sg70
(lp4475
g63
(g84
g65
NtRp4476
(dp4477
g68
(dp4478
sg77
g4472
sg70
(lp4479
g63
(g64
g65
NtRp4480
(dp4481
g68
(dp4482
g76
I2
ssg77
g4476
sg70
(lp4483
g63
(g72
g65
NtRp4484
(dp4485
g68
(dp4486
g76
I1
ssg77
Nsg70
(lp4487
g63
(g79
g65
NtRp4488
(dp4489
g68
(dp4490
sg77
g4484
sg70
(lp4491
g63
(g84
g65
NtRp4492
(dp4493
g68
(dp4494
sg77
g4488
sg70
(lp4495
g63
(g64
g65
NtRp4496
(dp4497
g68
(dp4498
g76
I1
ssg77
g4492
sg70
(lp4499
S'web2py.com'
p4500
asbasbasbag63
(g79
g65
NtRp4501
(dp4502
g68
(dp4503
sg77
g4484
sg70
(lp4504
g63
(g84
g65
NtRp4505
(dp4506
g68
(dp4507
sg77
g4501
sg70
(lp4508
g63
(g64
g65
NtRp4509
(dp4510
g68
(dp4511
g76
I1
ssg77
g4505
sg70
(lp4512
I00
asbasbasbag63
(g79
g65
NtRp4513
(dp4514
g68
(dp4515
sg77
g4484
sg70
(lp4516
g63
(g84
g65
NtRp4517
(dp4518
g68
(dp4519
sg77
g4513
sg70
(lp4520
g63
(g64
g65
NtRp4521
(dp4522
g68
(dp4523
g76
I1
ssg77
g4517
sg70
(lp4524
S'http://www.web2py.com'
p4525
asbasbasbag63
(g79
g65
NtRp4526
(dp4527
g68
(dp4528
sg77
g4484
sg70
(lp4529
g63
(g84
g65
NtRp4530
(dp4531
g68
(dp4532
sg77
g4526
sg70
(lp4533
g63
(g64
g65
NtRp4534
(dp4535
g68
(dp4536
g76
I1
ssg77
g4530
sg70
(lp4537
(lp4538
(g4215
(S't\x08\x00\x00\x00Download'
tRp4539
I00
S'http://www.web2py.com/examples/default/download'
p4540
tp4541
a(g4215
(S't\x07\x00\x00\x00Support'
tRp4542
I00
S'http://www.web2py.com/examples/default/support'
p4543
tp4544
a(g4215
(S't\x04\x00\x00\x00Demo'
tRp4545
I00
S'http://web2py.com/demo_admin'
p4546
tp4547
a(g4215
(S's\x0e\x00\x00\x00Quick Examples'
tRp4548
I00
S'http://web2py.com/examples/default/examples'
p4549
tp4550
a(g4215
(S't\x03\x00\x00\x00FAQ'
tRp4551
I00
S'http://web2py.com/AlterEgo'
p4552
tp4553
a(g4215
(S't\x06\x00\x00\x00Videos'
tRp4554
I00
S'http://www.web2py.com/examples/default/videos/'
p4555
tp4556
a(g4215
(S's\x11\x00\x00\x00Free Applications'
tRp4557
I00
S'http://web2py.com/appliances'
p4558
tp4559
a(g4215
(S't\x07\x00\x00\x00Plugins'
tRp4560
I00
S'http://web2py.com/plugins'
p4561
tp4562
a(g4215
(S't\x07\x00\x00\x00Layouts'
tRp4563
I00
S'http://web2py.com/layouts'
p4564
tp4565
a(g4215
(S't\x07\x00\x00\x00Recipes'
tRp4566
I00
S'http://web2pyslices.com/'
p4567
tp4568
a(g4215
(S't\x08\x00\x00\x00Semantic'
tRp4569
I00
S'http://web2py.com/semantic'
p4570
tp4571
aasbasbasbasbasbasbasbag63
(g79
g65
NtRp4572
(dp4573
g68
(dp4574
sg77
g4329
sg70
(lp4575
g63
(g84
g65
NtRp4576
(dp4577
g68
(dp4578
sg77
g4572
sg70
(lp4579
g63
(g64
g65
NtRp4580
(dp4581
g68
(dp4582
g76
I2
ssg77
g4576
sg70
(lp4583
g63
(g72
g65
NtRp4584
(dp4585
g68
(dp4586
g76
I1
ssg77
Nsg70
(lp4587
g63
(g79
g65
NtRp4588
(dp4589
g68
(dp4590
sg77
g4584
sg70
(lp4591
g63
(g84
g65
NtRp4592
(dp4593
g68
(dp4594
sg77
g4588
sg70
(lp4595
g63
(g64
g65
NtRp4596
(dp4597
g68
(dp4598
g76
I1
ssg77
g4592
sg70
(lp4599
g4215
(S't\r\x00\x00\x00Documentation'
tRp4600
asbasbasbag63
(g79
g65
NtRp4601
(dp4602
g68
(dp4603
sg77
g4584
sg70
(lp4604
g63
(g84
g65
NtRp4605
(dp4606
g68
(dp4607
sg77
g4601
sg70
(lp4608
g63
(g64
g65
NtRp4609
(dp4610
g68
(dp4611
g76
I1
ssg77
g4605
sg70
(lp4612
I00
asbasbasbag63
(g79
g65
NtRp4613
(dp4614
g68
(dp4615
sg77
g4584
sg70
(lp4616
g63
(g84
g65
NtRp4617
(dp4618
g68
(dp4619
sg77
g4613
sg70
(lp4620
g63
(g64
g65
NtRp4621
(dp4622
g68
(dp4623
g76
I1
ssg77
g4617
sg70
(lp4624
S'http://www.web2py.com/book'
p4625
asbasbasbag63
(g79
g65
NtRp4626
(dp4627
g68
(dp4628
sg77
g4584
sg70
(lp4629
g63
(g84
g65
NtRp4630
(dp4631
g68
(dp4632
sg77
g4626
sg70
(lp4633
g63
(g64
g65
NtRp4634
(dp4635
g68
(dp4636
g76
I1
ssg77
g4630
sg70
(lp4637
(lp4638
(g4215
(S't\x07\x00\x00\x00Preface'
tRp4639
I00
S'http://www.web2py.com/book/default/chapter/00'
p4640
tp4641
a(g4215
(S't\x0c\x00\x00\x00Introduction'
tRp4642
I00
S'http://www.web2py.com/book/default/chapter/01'
p4643
tp4644
a(g4215
(S't\x06\x00\x00\x00Python'
tRp4645
I00
S'http://www.web2py.com/book/default/chapter/02'
p4646
tp4647
a(g4215
(S't\x08\x00\x00\x00Overview'
tRp4648
I00
S'http://www.web2py.com/book/default/chapter/03'
p4649
tp4650
a(g4215
(S's\x08\x00\x00\x00The Core'
tRp4651
I00
S'http://www.web2py.com/book/default/chapter/04'
p4652
tp4653
a(g4215
(S's\t\x00\x00\x00The Views'
tRp4654
I00
S'http://www.web2py.com/book/default/chapter/05'
p4655
tp4656
a(g4215
(S't\x08\x00\x00\x00Database'
tRp4657
I00
S'http://www.web2py.com/book/default/chapter/06'
p4658
tp4659
a(g4215
(S's\x14\x00\x00\x00Forms and Validators'
tRp4660
I00
S'http://www.web2py.com/book/default/chapter/07'
p4661
tp4662
a(g4215
(S's\r\x00\x00\x00Email and SMS'
tRp4663
I00
S'http://www.web2py.com/book/default/chapter/08'
p4664
tp4665
a(g4215
(S's\x0e\x00\x00\x00Access Control'
tRp4666
I00
S'http://www.web2py.com/book/default/chapter/09'
p4667
tp4668
a(g4215
(S't\x08\x00\x00\x00Services'
tRp4669
I00
S'http://www.web2py.com/book/default/chapter/10'
p4670
tp4671
a(g4215
(S's\x0c\x00\x00\x00Ajax Recipes'
tRp4672
I00
S'http://www.web2py.com/book/default/chapter/11'
p4673
tp4674
a(g4215
(S's\x16\x00\x00\x00Components and Plugins'
tRp4675
I00
S'http://www.web2py.com/book/default/chapter/12'
p4676
tp4677
a(g4215
(S's\x12\x00\x00\x00Deployment Recipes'
tRp4678
I00
S'http://www.web2py.com/book/default/chapter/13'
p4679
tp4680
a(g4215
(S's\r\x00\x00\x00Other Recipes'
tRp4681
I00
S'http://www.web2py.com/book/default/chapter/14'
p4682
tp4683
a(g4215
(S's\r\x00\x00\x00Buy this book'
tRp4684
I00
S'http://stores.lulu.com/web2py'
p4685
tp4686
aasbasbasbasbasbasbasbag63
(g79
g65
NtRp4687
(dp4688
g68
(dp4689
sg77
g4329
sg70
(lp4690
g63
(g84
g65
NtRp4691
(dp4692
g68
(dp4693
sg77
g4687
sg70
(lp4694
g63
(g64
g65
NtRp4695
(dp4696
g68
(dp4697
g76
I2
ssg77
g4691
sg70
(lp4698
g63
(g72
g65
NtRp4699
(dp4700
g68
(dp4701
g76
I1
ssg77
Nsg70
(lp4702
g63
(g79
g65
NtRp4703
(dp4704
g68
(dp4705
sg77
g4699
sg70
(lp4706
g63
(g84
g65
NtRp4707
(dp4708
g68
(dp4709
sg77
g4703
sg70
(lp4710
g63
(g64
g65
NtRp4711
(dp4712
g68
(dp4713
g76
I1
ssg77
g4707
sg70
(lp4714
g4215
(S't\t\x00\x00\x00Community'
tRp4715
asbasbasbag63
(g79
g65
NtRp4716
(dp4717
g68
(dp4718
sg77
g4699
sg70
(lp4719
g63
(g84
g65
NtRp4720
(dp4721
g68
(dp4722
sg77
g4716
sg70
(lp4723
g63
(g64
g65
NtRp4724
(dp4725
g68
(dp4726
g76
I1
ssg77
g4720
sg70
(lp4727
I00
asbasbasbag63
(g79
g65
NtRp4728
(dp4729
g68
(dp4730
sg77
g4699
sg70
(lp4731
g63
(g84
g65
NtRp4732
(dp4733
g68
(dp4734
sg77
g4728
sg70
(lp4735
g63
(g64
g65
NtRp4736
(dp4737
g68
(dp4738
g76
I1
ssg77
g4732
sg70
(lp4739
Nasbasbasbag63
(g79
g65
NtRp4740
(dp4741
g68
(dp4742
sg77
g4699
sg70
(lp4743
g63
(g84
g65
NtRp4744
(dp4745
g68
(dp4746
sg77
g4740
sg70
(lp4747
g63
(g64
g65
NtRp4748
(dp4749
g68
(dp4750
g76
I1
ssg77
g4744
sg70
(lp4751
(lp4752
(g4215
(S't\x06\x00\x00\x00Groups'
tRp4753
I00
S'http://www.web2py.com/examples/default/usergroups'
p4754
tp4755
a(g4215
(S't\x07\x00\x00\x00Twitter'
tRp4756
I00
S'http://twitter.com/web2py'
p4757
tp4758
a(g4215
(S's\t\x00\x00\x00Live Chat'
tRp4759
I00
S'http://webchat.freenode.net/?channels=web2py'
p4760
tp4761
aasbasbasbasbasbasbasbag63
(g79
g65
NtRp4762
(dp4763
g68
(dp4764
sg77
g4329
sg70
(lp4765
g63
(g84
g65
NtRp4766
(dp4767
g68
(dp4768
sg77
g4762
sg70
(lp4769
g63
(g64
g65
NtRp4770
(dp4771
g68
(dp4772
g76
I2
ssg77
g4766
sg70
(lp4773
g63
(g72
g65
NtRp4774
(dp4775
g68
(dp4776
g76
I1
ssg77
Nsg70
(lp4777
g63
(g79
g65
NtRp4778
(dp4779
g68
(dp4780
sg77
g4774
sg70
(lp4781
g63
(g84
g65
NtRp4782
(dp4783
g68
(dp4784
sg77
g4778
sg70
(lp4785
g63
(g64
g65
NtRp4786
(dp4787
g68
(dp4788
g76
I1
ssg77
g4782
sg70
(lp4789
g4215
(S't\x07\x00\x00\x00Plugins'
tRp4790
asbasbasbag63
(g79
g65
NtRp4791
(dp4792
g68
(dp4793
sg77
g4774
sg70
(lp4794
g63
(g84
g65
NtRp4795
(dp4796
g68
(dp4797
sg77
g4791
sg70
(lp4798
g63
(g64
g65
NtRp4799
(dp4800
g68
(dp4801
g76
I1
ssg77
g4795
sg70
(lp4802
I00
asbasbasbag63
(g79
g65
NtRp4803
(dp4804
g68
(dp4805
sg77
g4774
sg70
(lp4806
g63
(g84
g65
NtRp4807
(dp4808
g68
(dp4809
sg77
g4803
sg70
(lp4810
g63
(g64
g65
NtRp4811
(dp4812
g68
(dp4813
g76
I1
ssg77
g4807
sg70
(lp4814
Nasbasbasbag63
(g79
g65
NtRp4815
(dp4816
g68
(dp4817
sg77
g4774
sg70
(lp4818
g63
(g84
g65
NtRp4819
(dp4820
g68
(dp4821
sg77
g4815
sg70
(lp4822
g63
(g64
g65
NtRp4823
(dp4824
g68
(dp4825
g76
I1
ssg77
g4819
sg70
(lp4826
(lp4827
(S'plugin_wiki'
p4828
I00
S'http://web2py.com/examples/default/download'
p4829
tp4830
a(g4215
(S's\r\x00\x00\x00Other Plugins'
tRp4831
I00
g4561
tp4832
a(g4215
(S's\x0e\x00\x00\x00Layout Plugins'
tRp4833
I00
g4564
tp4834
aasbasbasbasbasbasbasbasbasbasbasbasbasbasbasbasbasbasbasbag63
(g79
g65
NtRp4835
(dp4836
g68
(dp4837
sg77
g3710
sg70
(lp4838
g63
(g84
g65
NtRp4839
(dp4840
g68
(dp4841
g88
g89
ssg77
g4835
sg70
(lp4842
S'meta'
p4843
asbag63
(g84
g65
NtRp4844
(dp4845
g68
(dp4846
g95
g96
ssg77
g4835
sg70
(lp4847
S':'
asbag63
(g84
g65
NtRp4848
(dp4849
g68
(dp4850
sg77
g4835
sg70
(lp4851
g63
(g64
g65
NtRp4852
(dp4853
g68
(dp4854
g76
I5
ssg77
g4848
sg70
(lp4855
g63
(g72
g65
NtRp4856
(dp4857
g68
(dp4858
g76
I4
ssg77
Nsg70
(lp4859
g63
(g79
g65
NtRp4860
(dp4861
g68
(dp4862
sg77
g4856
sg70
(lp4863
g63
(g84
g65
NtRp4864
(dp4865
g68
(dp4866
g88
g89
ssg77
g4860
sg70
(lp4867
S'author'
p4868
asbag63
(g84
g65
NtRp4869
(dp4870
g68
(dp4871
g95
g96
ssg77
g4860
sg70
(lp4872
S':'
asbag63
(g84
g65
NtRp4873
(dp4874
g68
(dp4875
sg77
g4860
sg70
(lp4876
g63
(g64
g65
NtRp4877
(dp4878
g68
(dp4879
g76
I4
ssg77
g4873
sg70
(lp4880
S'Your Name <you@example.com>'
p4881
asbasbasbag63
(g79
g65
NtRp4882
(dp4883
g68
(dp4884
sg77
g4856
sg70
(lp4885
g63
(g84
g65
NtRp4886
(dp4887
g68
(dp4888
g88
g89
ssg77
g4882
sg70
(lp4889
S'copyright'
p4890
asbag63
(g84
g65
NtRp4891
(dp4892
g68
(dp4893
g95
g96
ssg77
g4882
sg70
(lp4894
S':'
asbag63
(g84
g65
NtRp4895
(dp4896
g68
(dp4897
sg77
g4882
sg70
(lp4898
g63
(g64
g65
NtRp4899
(dp4900
g68
(dp4901
g76
I4
ssg77
g4895
sg70
(lp4902
S'Copyright 2011'
p4903
asbasbasbag63
(g79
g65
NtRp4904
(dp4905
g68
(dp4906
sg77
g4856
sg70
(lp4907
g63
(g84
g65
NtRp4908
(dp4909
g68
(dp4910
g88
g89
ssg77
g4904
sg70
(lp4911
S'description'
p4912
asbag63
(g84
g65
NtRp4913
(dp4914
g68
(dp4915
g95
g96
ssg77
g4904
sg70
(lp4916
S':'
asbag63
(g84
g65
NtRp4917
(dp4918
g68
(dp4919
sg77
g4904
sg70
(lp4920
g63
(g64
g65
NtRp4921
(dp4922
g68
(dp4923
g76
I4
ssg77
g4917
sg70
(lp4924
S'a cool new app'
p4925
asbasbasbag63
(g79
g65
NtRp4926
(dp4927
g68
(dp4928
sg77
g4856
sg70
(lp4929
g63
(g84
g65
NtRp4930
(dp4931
g68
(dp4932
g88
g89
ssg77
g4926
sg70
(lp4933
S'generator'
p4934
asbag63
(g84
g65
NtRp4935
(dp4936
g68
(dp4937
g95
g96
ssg77
g4926
sg70
(lp4938
S':'
asbag63
(g84
g65
NtRp4939
(dp4940
g68
(dp4941
sg77
g4926
sg70
(lp4942
g63
(g64
g65
NtRp4943
(dp4944
g68
(dp4945
g76
I4
ssg77
g4939
sg70
(lp4946
S'Web2py Web Framework'
p4947
asbasbasbag63
(g79
g65
NtRp4948
(dp4949
g68
(dp4950
sg77
g4856
sg70
(lp4951
g63
(g84
g65
NtRp4952
(dp4953
g68
(dp4954
g88
g89
ssg77
g4948
sg70
(lp4955
S'keywords'
p4956
asbag63
(g84
g65
NtRp4957
(dp4958
g68
(dp4959
g95
g96
ssg77
g4948
sg70
(lp4960
S':'
asbag63
(g84
g65
NtRp4961
(dp4962
g68
(dp4963
sg77
g4948
sg70
(lp4964
g63
(g64
g65
NtRp4965
(dp4966
g68
(dp4967
g76
I4
ssg77
g4961
sg70
(lp4968
S'web2py, python, framework'
p4969
asbasbasbasbasbasbasbag63
(g79
g65
NtRp4970
(dp4971
g68
(dp4972
sg77
g3710
sg70
(lp4973
g63
(g84
g65
NtRp4974
(dp4975
g68
(dp4976
g88
g89
ssg77
g4970
sg70
(lp4977
S'postprocessing'
p4978
asbag63
(g84
g65
NtRp4979
(dp4980
g68
(dp4981
g95
g96
ssg77
g4970
sg70
(lp4982
S':'
asbag63
(g84
g65
NtRp4983
(dp4984
g68
(dp4985
sg77
g4970
sg70
(lp4986
g63
(g64
g65
NtRp4987
(dp4988
g68
(dp4989
g76
I5
ssg77
g4983
sg70
(lp4990
g63
(g72
g65
NtRp4991
(dp4992
g68
(dp4993
g76
I4
ssg77
Nsg70
(lp4994
sbasbasbasbag63
(g79
g65
NtRp4995
(dp4996
g68
(dp4997
sg77
g3710
sg70
(lp4998
g63
(g84
g65
NtRp4999
(dp5000
g68
(dp5001
g88
g89
ssg77
g4995
sg70
(lp5002
S'session_file'
p5003
asbag63
(g84
g65
NtRp5004
(dp5005
g68
(dp5006
g95
g96
ssg77
g4995
sg70
(lp5007
S':'
asbag63
(g84
g65
NtRp5008
(dp5009
g68
(dp5010
sg77
g4995
sg70
(lp5011
g63
(g64
g65
NtRp5012
(dp5013
g68
(dp5014
g76
I5
ssg77
g5008
sg70
(lp5015
S"<open file '/home/iscott/web/web2py/applications/grammateus3/sessions/127.0.0.1-03d15d8e-e891-4307-a6bf-5717208181cd', mode 'rb+' at 0x9ea4f98>"
p5016
asbasbasbag63
(g79
g65
NtRp5017
(dp5018
g68
(dp5019
sg77
g3710
sg70
(lp5020
g63
(g84
g65
NtRp5021
(dp5022
g68
(dp5023
g88
g89
ssg77
g5017
sg70
(lp5024
S'session_filename'
p5025
asbag63
(g84
g65
NtRp5026
(dp5027
g68
(dp5028
g95
g96
ssg77
g5017
sg70
(lp5029
S':'
asbag63
(g84
g65
NtRp5030
(dp5031
g68
(dp5032
sg77
g5017
sg70
(lp5033
g63
(g64
g65
NtRp5034
(dp5035
g68
(dp5036
g76
I5
ssg77
g5030
sg70
(lp5037
S'/home/iscott/web/web2py/applications/grammateus3/sessions/127.0.0.1-03d15d8e-e891-4307-a6bf-5717208181cd'
p5038
asbasbasbag63
(g79
g65
NtRp5039
(dp5040
g68
(dp5041
sg77
g3710
sg70
(lp5042
g63
(g84
g65
NtRp5043
(dp5044
g68
(dp5045
g88
g89
ssg77
g5039
sg70
(lp5046
S'session_id'
p5047
asbag63
(g84
g65
NtRp5048
(dp5049
g68
(dp5050
g95
g96
ssg77
g5039
sg70
(lp5051
S':'
asbag63
(g84
g65
NtRp5052
(dp5053
g68
(dp5054
sg77
g5039
sg70
(lp5055
g63
(g64
g65
NtRp5056
(dp5057
g68
(dp5058
g76
I5
ssg77
g5052
sg70
(lp5059
S'127.0.0.1-03d15d8e-e891-4307-a6bf-5717208181cd'
p5060
asbasbasbag63
(g79
g65
NtRp5061
(dp5062
g68
(dp5063
sg77
g3710
sg70
(lp5064
g63
(g84
g65
NtRp5065
(dp5066
g68
(dp5067
g88
g89
ssg77
g5061
sg70
(lp5068
S'session_id_name'
p5069
asbag63
(g84
g65
NtRp5070
(dp5071
g68
(dp5072
g95
g96
ssg77
g5061
sg70
(lp5073
S':'
asbag63
(g84
g65
NtRp5074
(dp5075
g68
(dp5076
sg77
g5061
sg70
(lp5077
g63
(g64
g65
NtRp5078
(dp5079
g68
(dp5080
g76
I5
ssg77
g5074
sg70
(lp5081
g3767
asbasbasbag63
(g79
g65
NtRp5082
(dp5083
g68
(dp5084
sg77
g3710
sg70
(lp5085
g63
(g84
g65
NtRp5086
(dp5087
g68
(dp5088
g88
g89
ssg77
g5082
sg70
(lp5089
S'session_locked'
p5090
asbag63
(g84
g65
NtRp5091
(dp5092
g68
(dp5093
g95
g96
ssg77
g5082
sg70
(lp5094
S':'
asbag63
(g84
g65
NtRp5095
(dp5096
g68
(dp5097
sg77
g5082
sg70
(lp5098
g63
(g64
g65
NtRp5099
(dp5100
g68
(dp5101
g76
I5
ssg77
g5095
sg70
(lp5102
g106
asbasbasbag63
(g79
g65
NtRp5103
(dp5104
g68
(dp5105
sg77
g3710
sg70
(lp5106
g63
(g84
g65
NtRp5107
(dp5108
g68
(dp5109
g88
g89
ssg77
g5103
sg70
(lp5110
S'session_new'
p5111
asbag63
(g84
g65
NtRp5112
(dp5113
g68
(dp5114
g95
g96
ssg77
g5103
sg70
(lp5115
S':'
asbag63
(g84
g65
NtRp5116
(dp5117
g68
(dp5118
sg77
g5103
sg70
(lp5119
g63
(g64
g65
NtRp5120
(dp5121
g68
(dp5122
g76
I5
ssg77
g5116
sg70
(lp5123
g1370
asbasbasbag63
(g79
g65
NtRp5124
(dp5125
g68
(dp5126
sg77
g3710
sg70
(lp5127
g63
(g84
g65
NtRp5128
(dp5129
g68
(dp5130
g88
g89
ssg77
g5124
sg70
(lp5131
S'status'
p5132
asbag63
(g84
g65
NtRp5133
(dp5134
g68
(dp5135
g95
g96
ssg77
g5124
sg70
(lp5136
S':'
asbag63
(g84
g65
NtRp5137
(dp5138
g68
(dp5139
sg77
g5124
sg70
(lp5140
g63
(g64
g65
NtRp5141
(dp5142
g68
(dp5143
g76
I5
ssg77
g5137
sg70
(lp5144
S'200'
p5145
asbasbasbag63
(g79
g65
NtRp5146
(dp5147
g68
(dp5148
sg77
g3710
sg70
(lp5149
g63
(g84
g65
NtRp5150
(dp5151
g68
(dp5152
g88
g89
ssg77
g5146
sg70
(lp5153
S'subtitle'
p5154
asbag63
(g84
g65
NtRp5155
(dp5156
g68
(dp5157
g95
g96
ssg77
g5146
sg70
(lp5158
S':'
asbag63
(g84
g65
NtRp5159
(dp5160
g68
(dp5161
sg77
g5146
sg70
(lp5162
g63
(g64
g65
NtRp5163
(dp5164
g68
(dp5165
g76
I5
ssg77
g5159
sg70
(lp5166
g4215
(S's\r\x00\x00\x00customize me!'
tRp5167
asbasbasbag63
(g79
g65
NtRp5168
(dp5169
g68
(dp5170
sg77
g3710
sg70
(lp5171
g63
(g84
g65
NtRp5172
(dp5173
g68
(dp5174
g88
g89
ssg77
g5168
sg70
(lp5175
S'title'
p5176
asbag63
(g84
g65
NtRp5177
(dp5178
g68
(dp5179
g95
g96
ssg77
g5168
sg70
(lp5180
S':'
asbag63
(g84
g65
NtRp5181
(dp5182
g68
(dp5183
sg77
g5168
sg70
(lp5184
g63
(g64
g65
NtRp5185
(dp5186
g68
(dp5187
g76
I5
ssg77
g5181
sg70
(lp5188
S'Grammateus3'
p5189
asbasbasbag63
(g79
g65
NtRp5190
(dp5191
g68
(dp5192
sg77
g3710
sg70
(lp5193
g63
(g84
g65
NtRp5194
(dp5195
g68
(dp5196
g88
g89
ssg77
g5190
sg70
(lp5197
g2837
asbag63
(g84
g65
NtRp5198
(dp5199
g68
(dp5200
g95
g96
ssg77
g5190
sg70
(lp5201
S':'
asbag63
(g84
g65
NtRp5202
(dp5203
g68
(dp5204
sg77
g5190
sg70
(lp5205
g63
(g64
g65
NtRp5206
(dp5207
g68
(dp5208
g76
I5
ssg77
g5202
sg70
(lp5209
g2850
asbasbasbag63
(g79
g65
NtRp5210
(dp5211
g68
(dp5212
sg77
g3710
sg70
(lp5213
g63
(g84
g65
NtRp5214
(dp5215
g68
(dp5216
g88
g89
ssg77
g5210
sg70
(lp5217
S'view'
p5218
asbag63
(g84
g65
NtRp5219
(dp5220
g68
(dp5221
g95
g96
ssg77
g5210
sg70
(lp5222
S':'
asbag63
(g84
g65
NtRp5223
(dp5224
g68
(dp5225
sg77
g5210
sg70
(lp5226
g63
(g64
g65
NtRp5227
(dp5228
g68
(dp5229
g76
I5
ssg77
g5223
sg70
(lp5230
S'docs/section.load'
p5231
asbasbasbasbasbsS'locals'
p5232
(dp5233
S'_ModifyContentOnlyProxy'
p5234
S"<type 'lxml.etree._ModifyContentOnlyProxy'>"
p5235
sS'XPathEvaluator'
p5236
S'<built-in function XPathEvaluator>'
p5237
sS'ParserBasedElementClassLookup'
p5238
S"<type 'lxml.etree.ParserBasedElementClassLookup'>"
p5239
sS'_Attrib'
p5240
S"<type 'lxml.etree._Attrib'>"
p5241
sS'_FilelikeWriter'
p5242
S"<type 'lxml.etree._FilelikeWriter'>"
p5243
sS'strip_attributes'
p5244
S'<built-in function strip_attributes>'
p5245
sS'SiblingsIterator'
p5246
S"<type 'lxml.etree.SiblingsIterator'>"
p5247
sS'LIBXSLT_VERSION'
p5248
S'(1, 1, 26)'
p5249
sS'XMLDTDID'
p5250
S'<built-in function XMLDTDID>'
p5251
sS'ElementTree'
p5252
S'<built-in function ElementTree>'
p5253
sS'cleanup_namespaces'
p5254
S'<built-in function cleanup_namespaces>'
p5255
sS'set_default_parser'
p5256
S'<built-in function set_default_parser>'
p5257
sS'ElementClassLookup'
p5258
S"<type 'lxml.etree.ElementClassLookup'>"
p5259
sS'parseid'
p5260
S'<built-in function parseid>'
p5261
sS'LxmlSyntaxError'
p5262
S"<class 'lxml.etree.LxmlSyntaxError'>"
p5263
sS'_XSLTProcessingInstruction'
p5264
S"<type 'lxml.etree._XSLTProcessingInstruction'>"
p5265
sS'_ParserContext'
p5266
S"<type 'lxml.etree._ParserContext'>"
p5267
sS'__pyx_capi__'
p5268
S'{\'appendChild\': <capsule object "void (struct LxmlElement *, struct LxmlElement *)">, \'attributeValue\': <capsule object "PyObject *(xmlNode *, xmlAttr *)">, \'attributeValueFromNsName\': <capsule object "PyObject *(xmlNode *, char *, char *)">, \'callLookupFallback\': <capsule object "PyObject *(struct LxmlFallbackE...lassLookup *, struct LxmlDocument *, xmlNode *)">, \'collectAttributes\': <capsule object "PyObject *(xmlNode *, int)">, \'deepcopyNodeToDocument\': <capsule object "struct LxmlElement *(struct LxmlDocument *, xmlNode *)">, \'delAttribute\': <capsule object "int (struct LxmlElement *, PyObject *)">, \'delAttributeFromNsName\': <capsule object "int (xmlNode *, char *, char *)">, \'documentOrRaise\': <capsule object "struct LxmlDocument *(PyObject *)">, \'elementFactory\': <capsule object "struct LxmlElement *(struct LxmlDocument *, xmlNode *)">, ...}'
p5269
sS'_ModifyContentOnlyEntityProxy'
p5270
S"<type 'lxml.etree._ModifyContentOnlyEntityProxy'>"
p5271
sS'_IDDict'
p5272
S"<type 'lxml.etree._IDDict'>"
p5273
sS'XSLTParseError'
p5274
S"<class 'lxml.etree.XSLTParseError'>"
p5275
sS'__ContentOnlyElement'
p5276
S"<type 'lxml.etree.__ContentOnlyElement'>"
p5277
sS'CustomElementClassLookup'
p5278
S"<type 'lxml.etree.CustomElementClassLookup'>"
p5279
sS'_OpaqueNodeWrapper'
p5280
S"<type 'lxml.etree._OpaqueNodeWrapper'>"
p5281
sS'_XPathFunctionNamespaceRegistry'
p5282
S"<type 'lxml.etree._XPathFunctionNamespaceRegistry'>"
p5283
sS'_ReadOnlyElementProxy'
p5284
S"<type 'lxml.etree._ReadOnlyElementProxy'>"
p5285
sS'LxmlRegistryError'
p5286
S"<class 'lxml.etree.LxmlRegistryError'>"
p5287
sS'__file__'
p5288
S"'/usr/lib/python2.7/dist-packages/lxml/etree.so'"
p5289
sS'TreeBuilder'
p5290
S"<type 'lxml.etree.TreeBuilder'>"
p5291
sS'_FileReaderContext'
p5292
S"<type 'lxml.etree._FileReaderContext'>"
p5293
sS'C14NError'
p5294
S"<class 'lxml.etree.C14NError'>"
p5295
sS'CommentBase'
p5296
S"<type 'lxml.etree.CommentBase'>"
p5297
sS'tostring'
p5298
S'<built-in function tostring>'
p5299
sS'iselement'
p5300
S'<built-in function iselement>'
p5301
sS'_FeedParser'
p5302
S"<type 'lxml.etree._FeedParser'>"
p5303
sS'XPathError'
p5304
S"<class 'lxml.etree.XPathError'>"
p5305
sS'LxmlError'
p5306
S"<class 'lxml.etree.LxmlError'>"
p5307
sS'__version__'
p5308
S"u'2.3.0'"
p5309
sS'_ExsltRegExp'
p5310
S"<type 'lxml.etree._ExsltRegExp'>"
p5311
sS'XMLID'
p5312
S'<built-in function XMLID>'
p5313
sS'DocumentInvalid'
p5314
S"<class 'lxml.etree.DocumentInvalid'>"
p5315
sS'FunctionNamespace'
p5316
S'<built-in function FunctionNamespace>'
p5317
sS'XSLTExtensionError'
p5318
S"<class 'lxml.etree.XSLTExtensionError'>"
p5319
sS'_IterparseContext'
p5320
S"<type 'lxml.etree._IterparseContext'>"
p5321
sS'Entity'
p5322
S'<built-in function Entity>'
p5323
sS'_Entity'
p5324
S"<type 'lxml.etree._Entity'>"
p5325
sS'iterparse'
p5326
S"<type 'lxml.etree.iterparse'>"
p5327
sS'_XPathContext'
p5328
S"<type 'lxml.etree._XPathContext'>"
p5329
sS'__package__'
p5330
S"'lxml'"
p5331
sS'ElementChildIterator'
p5332
S"<type 'lxml.etree.ElementChildIterator'>"
p5333
sS'XPath'
p5334
S"<type 'lxml.etree.XPath'>"
p5335
sS'_LogEntry'
p5336
S"<type 'lxml.etree._LogEntry'>"
p5337
sS'_ResolverContext'
p5338
S"<type 'lxml.etree._ResolverContext'>"
p5339
sS'_AttribIterator'
p5340
S"<type 'lxml.etree._AttribIterator'>"
p5341
sS'_ReadOnlyEntityProxy'
p5342
S"<type 'lxml.etree._ReadOnlyEntityProxy'>"
p5343
sS'PyErrorLog'
p5344
S"<type 'lxml.etree.PyErrorLog'>"
p5345
sS'_SaxParserContext'
p5346
S"<type 'lxml.etree._SaxParserContext'>"
p5347
sS'_ElementTree'
p5348
S"<type 'lxml.etree._ElementTree'>"
p5349
sS'_ListErrorLog'
p5350
S"<type 'lxml.etree._ListErrorLog'>"
p5351
sS'DTD'
p5352
S"<type 'lxml.etree.DTD'>"
p5353
sS'AttributeBasedElementClassLookup'
p5354
S"<type 'lxml.etree.AttributeBasedElementClassLookup'>"
p5355
sS'HTMLParser'
p5356
S"<type 'lxml.etree.HTMLParser'>"
p5357
sS'ElementNamespaceClassLookup'
p5358
S"<type 'lxml.etree.ElementNamespaceClassLookup'>"
p5359
sS'XPathFunctionError'
p5360
S"<class 'lxml.etree.XPathFunctionError'>"
p5361
sS'ElementDepthFirstIterator'
p5362
S"<type 'lxml.etree.ElementDepthFirstIterator'>"
p5363
sS'XMLParser'
p5364
S"<type 'lxml.etree.XMLParser'>"
p5365
sS'XInclude'
p5366
S"<type 'lxml.etree.XInclude'>"
p5367
sS'Schematron'
p5368
S"<type 'lxml.etree.Schematron'>"
p5369
sS'__all__'
p5370
S"['AttributeBasedElementClassLookup', 'C14NError', 'CDATA', 'Comment', 'CommentBase', 'CustomElementClassLookup', 'DEBUG', 'DTD', 'DTDError', 'DTDParseError', 'DTDValidateError', 'DocumentInvalid', 'ETCompatXMLParser', 'ETXPath', 'Element', 'ElementBase', 'ElementClassLookup', 'ElementDefaultClassLookup', 'ElementNamespaceClassLookup', 'ElementTree', ...]"
p5371
sS'NamespaceRegistryError'
p5372
S"<class 'lxml.etree.NamespaceRegistryError'>"
p5373
sS'_Document'
p5374
S"<type 'lxml.etree._Document'>"
p5375
sS'strip_elements'
p5376
S'<built-in function strip_elements>'
p5377
sS'_XSLTContext'
p5378
S"<type 'lxml.etree._XSLTContext'>"
p5379
sS'HTML'
p5380
S'<built-in function HTML>'
p5381
sS'RelaxNG'
p5382
S"<type 'lxml.etree.RelaxNG'>"
p5383
sS'_BaseErrorLog'
p5384
S"<type 'lxml.etree._BaseErrorLog'>"
p5385
sS'PI'
p5386
S'<built-in function ProcessingInstruction>'
p5387
sS'_ParserSchemaValidationContext'
p5388
S"<type 'lxml.etree._ParserSchemaValidationContext'>"
p5389
sS'Extension'
p5390
S'<built-in function Extension>'
p5391
sS'__builtins__'
p5392
S"<module '__builtin__' (built-in)>"
p5393
sS'SchematronParseError'
p5394
S"<class 'lxml.etree.SchematronParseError'>"
p5395
sS'_Element'
p5396
S"<type 'lxml.etree._Element'>"
p5397
sS'XSLTExtension'
p5398
S"<type 'lxml.etree.XSLTExtension'>"
p5399
sS'XMLSchemaValidateError'
p5400
S"<class 'lxml.etree.XMLSchemaValidateError'>"
p5401
sS'XMLSchema'
p5402
S"<type 'lxml.etree.XMLSchema'>"
p5403
sS'DEBUG'
p5404
S'1'
sS'__name__'
p5405
S"'lxml.etree'"
p5406
sS'_ElementUnicodeResult'
p5407
S"<type 'lxml.etree._ElementUnicodeResult'>"
p5408
sS'ErrorTypes'
p5409
S"<class 'lxml.etree.ErrorTypes'>"
p5410
sS'Comment'
p5411
S'<built-in function Comment>'
p5412
sS'XMLTreeBuilder'
p5413
S"<type 'lxml.etree.ETCompatXMLParser'>"
p5414
sS'RelaxNGErrorTypes'
p5415
S"<class 'lxml.etree.RelaxNGErrorTypes'>"
p5416
sS'iterwalk'
p5417
S"<type 'lxml.etree.iterwalk'>"
p5418
sS'ProcessingInstruction'
p5419
S'<built-in function ProcessingInstruction>'
p5420
sS'LXML_VERSION'
p5421
S'(2, 3, 0, 0)'
p5422
sS'_InputDocument'
p5423
S"<type 'lxml.etree._InputDocument'>"
p5424
sS'RelaxNGValidateError'
p5425
S"<class 'lxml.etree.RelaxNGValidateError'>"
p5426
sS'strip_tags'
p5427
S'<built-in function strip_tags>'
p5428
sS'XIncludeError'
p5429
S"<class 'lxml.etree.XIncludeError'>"
p5430
sS'tounicode'
p5431
S'<built-in function tounicode>'
p5432
sS'PIBase'
p5433
S"<type 'lxml.etree.PIBase'>"
p5434
sS'_XSLTResolverContext'
p5435
S"<type 'lxml.etree._XSLTResolverContext'>"
p5436
sS'_ParserDictionaryContext'
p5437
S"<type 'lxml.etree._ParserDictionaryContext'>"
p5438
sS'ParserError'
p5439
S"<class 'lxml.etree.ParserError'>"
p5440
sS'_ElementIterator'
p5441
S"<type 'lxml.etree._ElementIterator'>"
p5442
sS'__docformat__'
p5443
S"u'restructuredtext en'"
p5444
sS'SerialisationError'
p5445
S"<class 'lxml.etree.SerialisationError'>"
p5446
sS'_ReadOnlyProxy'
p5447
S"<type 'lxml.etree._ReadOnlyProxy'>"
p5448
sS'_ReadOnlyPIProxy'
p5449
S"<type 'lxml.etree._ReadOnlyPIProxy'>"
p5450
sS'DocInfo'
p5451
S"<type 'lxml.etree.DocInfo'>"
p5452
sg3543
S'<built-in function dump>'
p5453
sS'XSLTSaveError'
p5454
S"<class 'lxml.etree.XSLTSaveError'>"
p5455
sS'LIBXSLT_COMPILED_VERSION'
p5456
S'(1, 1, 26)'
p5457
sS'ElementTextIterator'
p5458
S"<type 'lxml.etree.ElementTextIterator'>"
p5459
sg38
S"'The ``lxml.etree`` module implements the extended ElementTree API\\nfor XML.\\n'"
p5460
sS'_AppendOnlyElementProxy'
p5461
S"<type 'lxml.etree._AppendOnlyElementProxy'>"
p5462
sS'XPathElementEvaluator'
p5463
S"<type 'lxml.etree.XPathElementEvaluator'>"
p5464
sS'XML'
p5465
S'<built-in function XML>'
p5466
sS'XSLTError'
p5467
S"<class 'lxml.etree.XSLTError'>"
p5468
sS'XSLT'
p5469
S"<type 'lxml.etree.XSLT'>"
p5470
sS'_DomainErrorLog'
p5471
S"<type 'lxml.etree._DomainErrorLog'>"
p5472
sS'AncestorsIterator'
p5473
S"<type 'lxml.etree.AncestorsIterator'>"
p5474
sS'_BaseContext'
p5475
S"<type 'lxml.etree._BaseContext'>"
p5476
sS'_ModifyContentOnlyPIProxy'
p5477
S"<type 'lxml.etree._ModifyContentOnlyPIProxy'>"
p5478
sS'_BaseParser'
p5479
S"<type 'lxml.etree._BaseParser'>"
p5480
sS'Error'
p5481
S"<class 'lxml.etree.Error'>"
p5482
sS'ErrorLevels'
p5483
S"<class 'lxml.etree.ErrorLevels'>"
p5484
sS'_TargetParserContext'
p5485
S"<type 'lxml.etree._TargetParserContext'>"
p5486
sS'LIBXML_VERSION'
p5487
S'(2, 7, 8)'
p5488
sS'XPathResultError'
p5489
S"<class 'lxml.etree.XPathResultError'>"
p5490
sS'_OpaqueDocumentWrapper'
p5491
S"<type 'lxml.etree._OpaqueDocumentWrapper'>"
p5492
sS'XSLTAccessControl'
p5493
S"<type 'lxml.etree.XSLTAccessControl'>"
p5494
sS'XMLSyntaxError'
p5495
S"<class 'lxml.etree.XMLSyntaxError'>"
p5496
sS'XMLSchemaParseError'
p5497
S"<class 'lxml.etree.XMLSchemaParseError'>"
p5498
sS'EntityBase'
p5499
S"<type 'lxml.etree.EntityBase'>"
p5500
sS'_ExceptionContext'
p5501
S"<type 'lxml.etree._ExceptionContext'>"
p5502
sS'SubElement'
p5503
S'<built-in function SubElement>'
p5504
sS'CDATA'
p5505
S"<type 'lxml.etree.CDATA'>"
p5506
sS'_ElementTagMatcher'
p5507
S"<type 'lxml.etree._ElementTagMatcher'>"
p5508
sS'DTDError'
p5509
S"<class 'lxml.etree.DTDError'>"
p5510
sS'_ProcessingInstruction'
p5511
S"<type 'lxml.etree._ProcessingInstruction'>"
p5512
sS'get_default_parser'
p5513
S'<built-in function get_default_parser>'
p5514
sS'register_namespace'
p5515
S'<built-in function register_namespace>'
p5516
sS'ErrorDomains'
p5517
S"<class 'lxml.etree.ErrorDomains'>"
p5518
sS'LIBXML_COMPILED_VERSION'
p5519
S'(2, 7, 8)'
p5520
sS'DTDValidateError'
p5521
S"<class 'lxml.etree.DTDValidateError'>"
p5522
sS'_SaxParserTarget'
p5523
S"<type 'lxml.etree._SaxParserTarget'>"
p5524
sS'parse'
p5525
S'<built-in function parse>'
p5526
sS'set_element_class_lookup'
p5527
S'<built-in function set_element_class_lookup>'
p5528
sS'_TargetParserResult'
p5529
S"<class 'lxml.etree._TargetParserResult'>"
p5530
sS'FallbackElementClassLookup'
p5531
S"<type 'lxml.etree.FallbackElementClassLookup'>"
p5532
sS'RelaxNGError'
p5533
S"<class 'lxml.etree.RelaxNGError'>"
p5534
sS'XPathEvalError'
p5535
S"<class 'lxml.etree.XPathEvalError'>"
p5536
sS'PythonElementClassLookup'
p5537
S"<type 'lxml.etree.PythonElementClassLookup'>"
p5538
sS'_FunctionNamespaceRegistry'
p5539
S"<type 'lxml.etree._FunctionNamespaceRegistry'>"
p5540
sS'clear_error_log'
p5541
S'<built-in function clear_error_log>'
p5542
sS'_RotatingErrorLog'
p5543
S"<type 'lxml.etree._RotatingErrorLog'>"
p5544
sS'XPathDocumentEvaluator'
p5545
S"<type 'lxml.etree.XPathDocumentEvaluator'>"
p5546
sS'_XSLTQuotedStringParam'
p5547
S"<type 'lxml.etree._XSLTQuotedStringParam'>"
p5548
sS'ETXPath'
p5549
S"<type 'lxml.etree.ETXPath'>"
p5550
sS'SchematronError'
p5551
S"<class 'lxml.etree.SchematronError'>"
p5552
sS'Resolver'
p5553
S"<type 'lxml.etree.Resolver'>"
p5554
sS'_NamespaceRegistry'
p5555
S"<type 'lxml.etree._NamespaceRegistry'>"
p5556
sS'fromstringlist'
p5557
S'<built-in function fromstringlist>'
p5558
sS'XSLTApplyError'
p5559
S"<class 'lxml.etree.XSLTApplyError'>"
p5560
sS'_Comment'
p5561
S"<type 'lxml.etree._Comment'>"
p5562
sS'_Validator'
p5563
S"<type 'lxml.etree._Validator'>"
p5564
sS'DTDParseError'
p5565
S"<class 'lxml.etree.DTDParseError'>"
p5566
sS'_ResolverRegistry'
p5567
S"<type 'lxml.etree._ResolverRegistry'>"
p5568
sS'_XPathEvaluatorBase'
p5569
S"<type 'lxml.etree._XPathEvaluatorBase'>"
p5570
sS'_ErrorLog'
p5571
S"<type 'lxml.etree._ErrorLog'>"
p5572
sS'Element'
p5573
S'<built-in function Element>'
p5574
sS'ElementBase'
p5575
S"<type 'lxml.etree.ElementBase'>"
p5576
sS'_ElementStringResult'
p5577
S"<class 'lxml.etree._ElementStringResult'>"
p5578
sS'XPathSyntaxError'
p5579
S"<class 'lxml.etree.XPathSyntaxError'>"
p5580
sS'ParseError'
p5581
S"<class 'lxml.etree.ParseError'>"
p5582
sS'_ClassNamespaceRegistry'
p5583
S"<type 'lxml.etree._ClassNamespaceRegistry'>"
p5584
sS'_PythonSaxParserTarget'
p5585
S"<type 'lxml.etree._PythonSaxParserTarget'>"
p5586
sS'_XSLTResultTree'
p5587
S"<type 'lxml.etree._XSLTResultTree'>"
p5588
sS'_TempStore'
p5589
S"<type 'lxml.etree._TempStore'>"
p5590
sS'XMLSchemaError'
p5591
S"<class 'lxml.etree.XMLSchemaError'>"
p5592
sS'use_global_python_log'
p5593
S'<built-in function use_global_python_log>'
p5594
sS'tostringlist'
p5595
S'<built-in function tostringlist>'
p5596
sS'fromstring'
p5597
S'<built-in function fromstring>'
p5598
sS'QName'
p5599
S"<type 'lxml.etree.QName'>"
p5600
sS'SchematronValidateError'
p5601
S"<class 'lxml.etree.SchematronValidateError'>"
p5602
sS'ETCompatXMLParser'
p5603
S"<type 'lxml.etree.ETCompatXMLParser'>"
p5604
sS'RelaxNGParseError'
p5605
S"<class 'lxml.etree.RelaxNGParseError'>"
p5606
sS'__test__'
p5607
S"{u'XML (line 2700)': u'XML(text, parser=None, base_url=None)\\n\\n    P...ternal entities\\n    (DTD, XInclude, ...).\\n    '}"
p5608
sS'ElementDefaultClassLookup'
p5609
S"<type 'lxml.etree.ElementDefaultClassLookup'>"
p5610
sssS'traceback'
p5611
S'Traceback (most recent call last):\n  File "/home/iscott/web/web2py/gluon/restricted.py", line 204, in restricted\n    exec ccode in environment\n  File "/home/iscott/web/web2py/applications/grammateus3/controllers/docs.py", line 130, in <module>\n  File "/home/iscott/web/web2py/gluon/globals.py", line 172, in <lambda>\n    self._caller = lambda f: f()\n  File "/home/iscott/web/web2py/applications/grammateus3/controllers/docs.py", line 39, in section\n    p = BookParser(book_file)\n  File "applications/grammateus3/modules/parse.py", line 25, in __init__\n    self.tree = etree.parse(xml_file, parser)\n  File "lxml.etree.pyx", line 2942, in lxml.etree.parse (src/lxml/lxml.etree.c:54187)\n  File "parser.pxi", line 1528, in lxml.etree._parseDocument (src/lxml/lxml.etree.c:79485)\n  File "parser.pxi", line 1557, in lxml.etree._parseDocumentFromURL (src/lxml/lxml.etree.c:79768)\n  File "parser.pxi", line 1457, in lxml.etree._parseDocFromFile (src/lxml/lxml.etree.c:78843)\n  File "parser.pxi", line 997, in lxml.etree._BaseParser._parseDocFromFile (src/lxml/lxml.etree.c:75698)\n  File "parser.pxi", line 564, in lxml.etree._ParserContext._handleParseResultDoc (src/lxml/lxml.etree.c:71739)\n  File "parser.pxi", line 645, in lxml.etree._handleParseResult (src/lxml/lxml.etree.c:72614)\n  File "parser.pxi", line 583, in lxml.etree._raiseParseError (src/lxml/lxml.etree.c:71927)\nIOError: Error reading file \'applications/grammateus3/static/docs/8.xml\': failed to load external entity "applications/grammateus3/static/docs/8.xml"\n'
p5612
s.