(dp1
S'output'
p2
S"<class 'lxml.etree.XMLSyntaxError'> Document is empty, line 1, column 1"
p3
sS'layer'
p4
S'/home/iscott/web/web2py/applications/grammateus3/controllers/docs.py'
p5
sS'code'
p6
S"# coding: utf8\nfrom lxml import etree\n\nfrom parse import BookParser\n\ndef index():\n    filename = request.args[0]\n    return dict(filename = filename)\n\ndef text():\n    filename = request.args[0]\n    return dict(filename = filename)\n\ndef test():\n    filename = request.args[0]\n    book_file = 'applications/grammateus3/static/docs/%s.xml' % filename\n    p = BookParser(book_file)\n    info = p.book_info()\n\n    title = info['title']\n    for version in info['versions']:\n        for key, value in version.items():\n            if key != 'text_structure':\n                print 'Version', key, '-->', value\n\n            else:\n                print 'Version textstructure'\n                for ref, ref_val in value.items():\n                    for unit, unit_val in ref_val.items():\n                        for mss, mss_val in unit_val.items():\n                            print '\\t', ref, '-->', unit, '-->', mss, '-->', mss_val\n        print '************'\n    print\n    print\n\n    return dict(title = title, info = info)\n\nresponse._vars=response._caller(test)\n"
p7
sS'snapshot'
p8
(dp9
S'exception'
p10
(dp11
S'__module__'
p12
S"'lxml.etree'"
p13
sg6
S'4'
sS'__getslice__'
p14
S"<method-wrapper '__getslice__' of XMLSyntaxError object>"
p15
sS'text'
p16
S'None'
p17
sS'__str__'
p18
S"<method-wrapper '__str__' of XMLSyntaxError object>"
p19
sS'__reduce__'
p20
S'<built-in method __reduce__ of XMLSyntaxError object>'
p21
sS'__dict__'
p22
S"{'code': 4, 'error_log': applications/grammateus3/static/docs/TJob.xml:19...DOCUMENT_EMPTY: Start tag expected, '<' not found, 'position': (1, 1)}"
p23
sS'__sizeof__'
p24
S'<built-in method __sizeof__ of XMLSyntaxError object>'
p25
sS'__weakref__'
p26
S'None'
p27
sS'__init__'
p28
S"<bound method XMLSyntaxError.__init__ of XMLSyntaxError(u'Document is empty, line 1, column 1',)>"
p29
sS'__setattr__'
p30
S"<method-wrapper '__setattr__' of XMLSyntaxError object>"
p31
sS'__reduce_ex__'
p32
S'<built-in method __reduce_ex__ of XMLSyntaxError object>'
p33
sS'__new__'
p34
S'<built-in method __new__ of type object>'
p35
sS'__format__'
p36
S'<built-in method __format__ of XMLSyntaxError object>'
p37
sS'__class__'
p38
S"<class 'lxml.etree.XMLSyntaxError'>"
p39
sS'filename'
p40
S'None'
p41
sS'lineno'
p42
S'None'
p43
sS'msg'
p44
S"u'Document is empty, line 1, column 1'"
p45
sS'__doc__'
p46
S"'Syntax error while parsing an XML document.\\n    '"
p47
sS'__getitem__'
p48
S"<method-wrapper '__getitem__' of XMLSyntaxError object>"
p49
sS'__setstate__'
p50
S'<built-in method __setstate__ of XMLSyntaxError object>'
p51
sS'__getattribute__'
p52
S"<method-wrapper '__getattribute__' of XMLSyntaxError object>"
p53
sS'print_file_and_line'
p54
S'None'
p55
sS'args'
p56
S"(u'Document is empty, line 1, column 1',)"
p57
sS'__subclasshook__'
p58
S'<built-in method __subclasshook__ of type object>'
p59
sS'offset'
p60
S'None'
p61
sS'__unicode__'
p62
S'<built-in method __unicode__ of XMLSyntaxError object>'
p63
sS'error_log'
p64
S"applications/grammateus3/static/docs/TJob.xml:19...DOCUMENT_EMPTY: Start tag expected, '<' not found"
p65
sS'__delattr__'
p66
S"<method-wrapper '__delattr__' of XMLSyntaxError object>"
p67
sS'__repr__'
p68
S"<method-wrapper '__repr__' of XMLSyntaxError object>"
p69
sS'__hash__'
p70
S"<method-wrapper '__hash__' of XMLSyntaxError object>"
p71
sS'position'
p72
S'(1, 1)'
p73
ssS'evalue'
p74
S'Document is empty, line 1, column 1'
p75
sS'request'
p76
ccopy_reg
_reconstructor
p77
(cgluon.html
BEAUTIFY
p78
c__builtin__
object
p79
NtRp80
(dp81
S'attributes'
p82
(dp83
sS'components'
p84
(lp85
g77
(cgluon.html
TABLE
p86
g79
NtRp87
(dp88
g82
(dp89
S'level'
p90
I5
ssS'parent'
p91
Nsg84
(lp92
g77
(cgluon.html
TR
p93
g79
NtRp94
(dp95
g82
(dp96
sg91
g87
sg84
(lp97
g77
(cgluon.html
TD
p98
g79
NtRp99
(dp100
g82
(dp101
S'_style'
p102
S'font-weight:bold;vertical-align:top'
p103
ssg91
g94
sg84
(lp104
S'ajax'
p105
asbag77
(g98
g79
NtRp106
(dp107
g82
(dp108
S'_valign'
p109
S'top'
p110
ssg91
g94
sg84
(lp111
S':'
asbag77
(g98
g79
NtRp112
(dp113
g82
(dp114
sg91
g94
sg84
(lp115
g77
(g78
g79
NtRp116
(dp117
g82
(dp118
g90
I5
ssg91
g112
sg84
(lp119
S'False'
p120
asbasbasbag77
(g93
g79
NtRp121
(dp122
g82
(dp123
sg91
g87
sg84
(lp124
g77
(g98
g79
NtRp125
(dp126
g82
(dp127
g102
g103
ssg91
g121
sg84
(lp128
S'application'
p129
asbag77
(g98
g79
NtRp130
(dp131
g82
(dp132
g109
g110
ssg91
g121
sg84
(lp133
S':'
asbag77
(g98
g79
NtRp134
(dp135
g82
(dp136
sg91
g121
sg84
(lp137
g77
(g78
g79
NtRp138
(dp139
g82
(dp140
g90
I5
ssg91
g134
sg84
(lp141
S'grammateus3'
p142
asbasbasbag77
(g93
g79
NtRp143
(dp144
g82
(dp145
sg91
g87
sg84
(lp146
g77
(g98
g79
NtRp147
(dp148
g82
(dp149
g102
g103
ssg91
g143
sg84
(lp150
g56
asbag77
(g98
g79
NtRp151
(dp152
g82
(dp153
g109
g110
ssg91
g143
sg84
(lp154
S':'
asbag77
(g98
g79
NtRp155
(dp156
g82
(dp157
sg91
g143
sg84
(lp158
g77
(g78
g79
NtRp159
(dp160
g82
(dp161
g90
I5
ssg91
g155
sg84
(lp162
g77
(g86
g79
NtRp163
(dp164
g82
(dp165
g90
I4
ssg91
Nsg84
(lp166
g77
(g93
g79
NtRp167
(dp168
g82
(dp169
sg91
g163
sg84
(lp170
g77
(g98
g79
NtRp171
(dp172
g82
(dp173
sg91
g167
sg84
(lp174
g77
(g78
g79
NtRp175
(dp176
g82
(dp177
g90
I4
ssg91
g171
sg84
(lp178
S'3Macc'
p179
asbasbasbasbasbasbasbag77
(g93
g79
NtRp180
(dp181
g82
(dp182
sg91
g87
sg84
(lp183
g77
(g98
g79
NtRp184
(dp185
g82
(dp186
g102
g103
ssg91
g180
sg84
(lp187
S'body'
p188
asbag77
(g98
g79
NtRp189
(dp190
g82
(dp191
g109
g110
ssg91
g180
sg84
(lp192
S':'
asbag77
(g98
g79
NtRp193
(dp194
g82
(dp195
sg91
g180
sg84
(lp196
g77
(g78
g79
NtRp197
(dp198
g82
(dp199
g90
I5
ssg91
g193
sg84
(lp200
S'<cStringIO.StringO object at 0xaddd980>'
p201
asbasbasbag77
(g93
g79
NtRp202
(dp203
g82
(dp204
sg91
g87
sg84
(lp205
g77
(g98
g79
NtRp206
(dp207
g82
(dp208
g102
g103
ssg91
g202
sg84
(lp209
S'client'
p210
asbag77
(g98
g79
NtRp211
(dp212
g82
(dp213
g109
g110
ssg91
g202
sg84
(lp214
S':'
asbag77
(g98
g79
NtRp215
(dp216
g82
(dp217
sg91
g202
sg84
(lp218
g77
(g78
g79
NtRp219
(dp220
g82
(dp221
g90
I5
ssg91
g215
sg84
(lp222
S'127.0.0.1'
p223
asbasbasbag77
(g93
g79
NtRp224
(dp225
g82
(dp226
sg91
g87
sg84
(lp227
g77
(g98
g79
NtRp228
(dp229
g82
(dp230
g102
g103
ssg91
g224
sg84
(lp231
S'controller'
p232
asbag77
(g98
g79
NtRp233
(dp234
g82
(dp235
g109
g110
ssg91
g224
sg84
(lp236
S':'
asbag77
(g98
g79
NtRp237
(dp238
g82
(dp239
sg91
g224
sg84
(lp240
g77
(g78
g79
NtRp241
(dp242
g82
(dp243
g90
I5
ssg91
g237
sg84
(lp244
S'docs'
p245
asbasbasbag77
(g93
g79
NtRp246
(dp247
g82
(dp248
sg91
g87
sg84
(lp249
g77
(g98
g79
NtRp250
(dp251
g82
(dp252
g102
g103
ssg91
g246
sg84
(lp253
S'cookies'
p254
asbag77
(g98
g79
NtRp255
(dp256
g82
(dp257
g109
g110
ssg91
g246
sg84
(lp258
S':'
asbag77
(g98
g79
NtRp259
(dp260
g82
(dp261
sg91
g246
sg84
(lp262
g77
(g78
g79
NtRp263
(dp264
g82
(dp265
g90
I5
ssg91
g259
sg84
(lp266
g77
(g86
g79
NtRp267
(dp268
g82
(dp269
g90
I4
ssg91
Nsg84
(lp270
g77
(g93
g79
NtRp271
(dp272
g82
(dp273
sg91
g267
sg84
(lp274
g77
(g98
g79
NtRp275
(dp276
g82
(dp277
g102
g103
ssg91
g271
sg84
(lp278
S'session_id_admin'
p279
asbag77
(g98
g79
NtRp280
(dp281
g82
(dp282
g109
g110
ssg91
g271
sg84
(lp283
S':'
asbag77
(g98
g79
NtRp284
(dp285
g82
(dp286
sg91
g271
sg84
(lp287
g77
(g78
g79
NtRp288
(dp289
g82
(dp290
g90
I4
ssg91
g284
sg84
(lp291
g77
(g86
g79
NtRp292
(dp293
g82
(dp294
g90
I3
ssg91
Nsg84
(lp295
g77
(g93
g79
NtRp296
(dp297
g82
(dp298
sg91
g292
sg84
(lp299
g77
(g98
g79
NtRp300
(dp301
g82
(dp302
g102
g103
ssg91
g296
sg84
(lp303
S'comment'
p304
asbag77
(g98
g79
NtRp305
(dp306
g82
(dp307
g109
g110
ssg91
g296
sg84
(lp308
S':'
asbag77
(g98
g79
NtRp309
(dp310
g82
(dp311
sg91
g296
sg84
(lp312
g77
(g78
g79
NtRp313
(dp314
g82
(dp315
g90
I3
ssg91
g309
sg84
(lp316
S''
asbasbasbag77
(g93
g79
NtRp317
(dp318
g82
(dp319
sg91
g292
sg84
(lp320
g77
(g98
g79
NtRp321
(dp322
g82
(dp323
g102
g103
ssg91
g317
sg84
(lp324
S'domain'
p325
asbag77
(g98
g79
NtRp326
(dp327
g82
(dp328
g109
g110
ssg91
g317
sg84
(lp329
S':'
asbag77
(g98
g79
NtRp330
(dp331
g82
(dp332
sg91
g317
sg84
(lp333
g77
(g78
g79
NtRp334
(dp335
g82
(dp336
g90
I3
ssg91
g330
sg84
(lp337
S''
asbasbasbag77
(g93
g79
NtRp338
(dp339
g82
(dp340
sg91
g292
sg84
(lp341
g77
(g98
g79
NtRp342
(dp343
g82
(dp344
g102
g103
ssg91
g338
sg84
(lp345
S'expires'
p346
asbag77
(g98
g79
NtRp347
(dp348
g82
(dp349
g109
g110
ssg91
g338
sg84
(lp350
S':'
asbag77
(g98
g79
NtRp351
(dp352
g82
(dp353
sg91
g338
sg84
(lp354
g77
(g78
g79
NtRp355
(dp356
g82
(dp357
g90
I3
ssg91
g351
sg84
(lp358
S''
asbasbasbag77
(g93
g79
NtRp359
(dp360
g82
(dp361
sg91
g292
sg84
(lp362
g77
(g98
g79
NtRp363
(dp364
g82
(dp365
g102
g103
ssg91
g359
sg84
(lp366
S'httponly'
p367
asbag77
(g98
g79
NtRp368
(dp369
g82
(dp370
g109
g110
ssg91
g359
sg84
(lp371
S':'
asbag77
(g98
g79
NtRp372
(dp373
g82
(dp374
sg91
g359
sg84
(lp375
g77
(g78
g79
NtRp376
(dp377
g82
(dp378
g90
I3
ssg91
g372
sg84
(lp379
S''
asbasbasbag77
(g93
g79
NtRp380
(dp381
g82
(dp382
sg91
g292
sg84
(lp383
g77
(g98
g79
NtRp384
(dp385
g82
(dp386
g102
g103
ssg91
g380
sg84
(lp387
S'max-age'
p388
asbag77
(g98
g79
NtRp389
(dp390
g82
(dp391
g109
g110
ssg91
g380
sg84
(lp392
S':'
asbag77
(g98
g79
NtRp393
(dp394
g82
(dp395
sg91
g380
sg84
(lp396
g77
(g78
g79
NtRp397
(dp398
g82
(dp399
g90
I3
ssg91
g393
sg84
(lp400
S''
asbasbasbag77
(g93
g79
NtRp401
(dp402
g82
(dp403
sg91
g292
sg84
(lp404
g77
(g98
g79
NtRp405
(dp406
g82
(dp407
g102
g103
ssg91
g401
sg84
(lp408
S'path'
p409
asbag77
(g98
g79
NtRp410
(dp411
g82
(dp412
g109
g110
ssg91
g401
sg84
(lp413
S':'
asbag77
(g98
g79
NtRp414
(dp415
g82
(dp416
sg91
g401
sg84
(lp417
g77
(g78
g79
NtRp418
(dp419
g82
(dp420
g90
I3
ssg91
g414
sg84
(lp421
S''
asbasbasbag77
(g93
g79
NtRp422
(dp423
g82
(dp424
sg91
g292
sg84
(lp425
g77
(g98
g79
NtRp426
(dp427
g82
(dp428
g102
g103
ssg91
g422
sg84
(lp429
S'secure'
p430
asbag77
(g98
g79
NtRp431
(dp432
g82
(dp433
g109
g110
ssg91
g422
sg84
(lp434
S':'
asbag77
(g98
g79
NtRp435
(dp436
g82
(dp437
sg91
g422
sg84
(lp438
g77
(g78
g79
NtRp439
(dp440
g82
(dp441
g90
I3
ssg91
g435
sg84
(lp442
S''
asbasbasbag77
(g93
g79
NtRp443
(dp444
g82
(dp445
sg91
g292
sg84
(lp446
g77
(g98
g79
NtRp447
(dp448
g82
(dp449
g102
g103
ssg91
g443
sg84
(lp450
S'version'
p451
asbag77
(g98
g79
NtRp452
(dp453
g82
(dp454
g109
g110
ssg91
g443
sg84
(lp455
S':'
asbag77
(g98
g79
NtRp456
(dp457
g82
(dp458
sg91
g443
sg84
(lp459
g77
(g78
g79
NtRp460
(dp461
g82
(dp462
g90
I3
ssg91
g456
sg84
(lp463
S''
asbasbasbasbasbasbasbag77
(g93
g79
NtRp464
(dp465
g82
(dp466
sg91
g267
sg84
(lp467
g77
(g98
g79
NtRp468
(dp469
g82
(dp470
g102
g103
ssg91
g464
sg84
(lp471
S'session_id_bloglet'
p472
asbag77
(g98
g79
NtRp473
(dp474
g82
(dp475
g109
g110
ssg91
g464
sg84
(lp476
S':'
asbag77
(g98
g79
NtRp477
(dp478
g82
(dp479
sg91
g464
sg84
(lp480
g77
(g78
g79
NtRp481
(dp482
g82
(dp483
g90
I4
ssg91
g477
sg84
(lp484
g77
(g86
g79
NtRp485
(dp486
g82
(dp487
g90
I3
ssg91
Nsg84
(lp488
g77
(g93
g79
NtRp489
(dp490
g82
(dp491
sg91
g485
sg84
(lp492
g77
(g98
g79
NtRp493
(dp494
g82
(dp495
g102
g103
ssg91
g489
sg84
(lp496
g304
asbag77
(g98
g79
NtRp497
(dp498
g82
(dp499
g109
g110
ssg91
g489
sg84
(lp500
S':'
asbag77
(g98
g79
NtRp501
(dp502
g82
(dp503
sg91
g489
sg84
(lp504
g77
(g78
g79
NtRp505
(dp506
g82
(dp507
g90
I3
ssg91
g501
sg84
(lp508
S''
asbasbasbag77
(g93
g79
NtRp509
(dp510
g82
(dp511
sg91
g485
sg84
(lp512
g77
(g98
g79
NtRp513
(dp514
g82
(dp515
g102
g103
ssg91
g509
sg84
(lp516
g325
asbag77
(g98
g79
NtRp517
(dp518
g82
(dp519
g109
g110
ssg91
g509
sg84
(lp520
S':'
asbag77
(g98
g79
NtRp521
(dp522
g82
(dp523
sg91
g509
sg84
(lp524
g77
(g78
g79
NtRp525
(dp526
g82
(dp527
g90
I3
ssg91
g521
sg84
(lp528
S''
asbasbasbag77
(g93
g79
NtRp529
(dp530
g82
(dp531
sg91
g485
sg84
(lp532
g77
(g98
g79
NtRp533
(dp534
g82
(dp535
g102
g103
ssg91
g529
sg84
(lp536
g346
asbag77
(g98
g79
NtRp537
(dp538
g82
(dp539
g109
g110
ssg91
g529
sg84
(lp540
S':'
asbag77
(g98
g79
NtRp541
(dp542
g82
(dp543
sg91
g529
sg84
(lp544
g77
(g78
g79
NtRp545
(dp546
g82
(dp547
g90
I3
ssg91
g541
sg84
(lp548
S''
asbasbasbag77
(g93
g79
NtRp549
(dp550
g82
(dp551
sg91
g485
sg84
(lp552
g77
(g98
g79
NtRp553
(dp554
g82
(dp555
g102
g103
ssg91
g549
sg84
(lp556
g367
asbag77
(g98
g79
NtRp557
(dp558
g82
(dp559
g109
g110
ssg91
g549
sg84
(lp560
S':'
asbag77
(g98
g79
NtRp561
(dp562
g82
(dp563
sg91
g549
sg84
(lp564
g77
(g78
g79
NtRp565
(dp566
g82
(dp567
g90
I3
ssg91
g561
sg84
(lp568
S''
asbasbasbag77
(g93
g79
NtRp569
(dp570
g82
(dp571
sg91
g485
sg84
(lp572
g77
(g98
g79
NtRp573
(dp574
g82
(dp575
g102
g103
ssg91
g569
sg84
(lp576
g388
asbag77
(g98
g79
NtRp577
(dp578
g82
(dp579
g109
g110
ssg91
g569
sg84
(lp580
S':'
asbag77
(g98
g79
NtRp581
(dp582
g82
(dp583
sg91
g569
sg84
(lp584
g77
(g78
g79
NtRp585
(dp586
g82
(dp587
g90
I3
ssg91
g581
sg84
(lp588
S''
asbasbasbag77
(g93
g79
NtRp589
(dp590
g82
(dp591
sg91
g485
sg84
(lp592
g77
(g98
g79
NtRp593
(dp594
g82
(dp595
g102
g103
ssg91
g589
sg84
(lp596
g409
asbag77
(g98
g79
NtRp597
(dp598
g82
(dp599
g109
g110
ssg91
g589
sg84
(lp600
S':'
asbag77
(g98
g79
NtRp601
(dp602
g82
(dp603
sg91
g589
sg84
(lp604
g77
(g78
g79
NtRp605
(dp606
g82
(dp607
g90
I3
ssg91
g601
sg84
(lp608
S''
asbasbasbag77
(g93
g79
NtRp609
(dp610
g82
(dp611
sg91
g485
sg84
(lp612
g77
(g98
g79
NtRp613
(dp614
g82
(dp615
g102
g103
ssg91
g609
sg84
(lp616
g430
asbag77
(g98
g79
NtRp617
(dp618
g82
(dp619
g109
g110
ssg91
g609
sg84
(lp620
S':'
asbag77
(g98
g79
NtRp621
(dp622
g82
(dp623
sg91
g609
sg84
(lp624
g77
(g78
g79
NtRp625
(dp626
g82
(dp627
g90
I3
ssg91
g621
sg84
(lp628
S''
asbasbasbag77
(g93
g79
NtRp629
(dp630
g82
(dp631
sg91
g485
sg84
(lp632
g77
(g98
g79
NtRp633
(dp634
g82
(dp635
g102
g103
ssg91
g629
sg84
(lp636
g451
asbag77
(g98
g79
NtRp637
(dp638
g82
(dp639
g109
g110
ssg91
g629
sg84
(lp640
S':'
asbag77
(g98
g79
NtRp641
(dp642
g82
(dp643
sg91
g629
sg84
(lp644
g77
(g78
g79
NtRp645
(dp646
g82
(dp647
g90
I3
ssg91
g641
sg84
(lp648
S''
asbasbasbasbasbasbasbag77
(g93
g79
NtRp649
(dp650
g82
(dp651
sg91
g267
sg84
(lp652
g77
(g98
g79
NtRp653
(dp654
g82
(dp655
g102
g103
ssg91
g649
sg84
(lp656
S'session_id_grammateus3'
p657
asbag77
(g98
g79
NtRp658
(dp659
g82
(dp660
g109
g110
ssg91
g649
sg84
(lp661
S':'
asbag77
(g98
g79
NtRp662
(dp663
g82
(dp664
sg91
g649
sg84
(lp665
g77
(g78
g79
NtRp666
(dp667
g82
(dp668
g90
I4
ssg91
g662
sg84
(lp669
g77
(g86
g79
NtRp670
(dp671
g82
(dp672
g90
I3
ssg91
Nsg84
(lp673
g77
(g93
g79
NtRp674
(dp675
g82
(dp676
sg91
g670
sg84
(lp677
g77
(g98
g79
NtRp678
(dp679
g82
(dp680
g102
g103
ssg91
g674
sg84
(lp681
g304
asbag77
(g98
g79
NtRp682
(dp683
g82
(dp684
g109
g110
ssg91
g674
sg84
(lp685
S':'
asbag77
(g98
g79
NtRp686
(dp687
g82
(dp688
sg91
g674
sg84
(lp689
g77
(g78
g79
NtRp690
(dp691
g82
(dp692
g90
I3
ssg91
g686
sg84
(lp693
S''
asbasbasbag77
(g93
g79
NtRp694
(dp695
g82
(dp696
sg91
g670
sg84
(lp697
g77
(g98
g79
NtRp698
(dp699
g82
(dp700
g102
g103
ssg91
g694
sg84
(lp701
g325
asbag77
(g98
g79
NtRp702
(dp703
g82
(dp704
g109
g110
ssg91
g694
sg84
(lp705
S':'
asbag77
(g98
g79
NtRp706
(dp707
g82
(dp708
sg91
g694
sg84
(lp709
g77
(g78
g79
NtRp710
(dp711
g82
(dp712
g90
I3
ssg91
g706
sg84
(lp713
S''
asbasbasbag77
(g93
g79
NtRp714
(dp715
g82
(dp716
sg91
g670
sg84
(lp717
g77
(g98
g79
NtRp718
(dp719
g82
(dp720
g102
g103
ssg91
g714
sg84
(lp721
g346
asbag77
(g98
g79
NtRp722
(dp723
g82
(dp724
g109
g110
ssg91
g714
sg84
(lp725
S':'
asbag77
(g98
g79
NtRp726
(dp727
g82
(dp728
sg91
g714
sg84
(lp729
g77
(g78
g79
NtRp730
(dp731
g82
(dp732
g90
I3
ssg91
g726
sg84
(lp733
S''
asbasbasbag77
(g93
g79
NtRp734
(dp735
g82
(dp736
sg91
g670
sg84
(lp737
g77
(g98
g79
NtRp738
(dp739
g82
(dp740
g102
g103
ssg91
g734
sg84
(lp741
g367
asbag77
(g98
g79
NtRp742
(dp743
g82
(dp744
g109
g110
ssg91
g734
sg84
(lp745
S':'
asbag77
(g98
g79
NtRp746
(dp747
g82
(dp748
sg91
g734
sg84
(lp749
g77
(g78
g79
NtRp750
(dp751
g82
(dp752
g90
I3
ssg91
g746
sg84
(lp753
S''
asbasbasbag77
(g93
g79
NtRp754
(dp755
g82
(dp756
sg91
g670
sg84
(lp757
g77
(g98
g79
NtRp758
(dp759
g82
(dp760
g102
g103
ssg91
g754
sg84
(lp761
g388
asbag77
(g98
g79
NtRp762
(dp763
g82
(dp764
g109
g110
ssg91
g754
sg84
(lp765
S':'
asbag77
(g98
g79
NtRp766
(dp767
g82
(dp768
sg91
g754
sg84
(lp769
g77
(g78
g79
NtRp770
(dp771
g82
(dp772
g90
I3
ssg91
g766
sg84
(lp773
S''
asbasbasbag77
(g93
g79
NtRp774
(dp775
g82
(dp776
sg91
g670
sg84
(lp777
g77
(g98
g79
NtRp778
(dp779
g82
(dp780
g102
g103
ssg91
g774
sg84
(lp781
g409
asbag77
(g98
g79
NtRp782
(dp783
g82
(dp784
g109
g110
ssg91
g774
sg84
(lp785
S':'
asbag77
(g98
g79
NtRp786
(dp787
g82
(dp788
sg91
g774
sg84
(lp789
g77
(g78
g79
NtRp790
(dp791
g82
(dp792
g90
I3
ssg91
g786
sg84
(lp793
S''
asbasbasbag77
(g93
g79
NtRp794
(dp795
g82
(dp796
sg91
g670
sg84
(lp797
g77
(g98
g79
NtRp798
(dp799
g82
(dp800
g102
g103
ssg91
g794
sg84
(lp801
g430
asbag77
(g98
g79
NtRp802
(dp803
g82
(dp804
g109
g110
ssg91
g794
sg84
(lp805
S':'
asbag77
(g98
g79
NtRp806
(dp807
g82
(dp808
sg91
g794
sg84
(lp809
g77
(g78
g79
NtRp810
(dp811
g82
(dp812
g90
I3
ssg91
g806
sg84
(lp813
S''
asbasbasbag77
(g93
g79
NtRp814
(dp815
g82
(dp816
sg91
g670
sg84
(lp817
g77
(g98
g79
NtRp818
(dp819
g82
(dp820
g102
g103
ssg91
g814
sg84
(lp821
g451
asbag77
(g98
g79
NtRp822
(dp823
g82
(dp824
g109
g110
ssg91
g814
sg84
(lp825
S':'
asbag77
(g98
g79
NtRp826
(dp827
g82
(dp828
sg91
g814
sg84
(lp829
g77
(g78
g79
NtRp830
(dp831
g82
(dp832
g90
I3
ssg91
g826
sg84
(lp833
S''
asbasbasbasbasbasbasbag77
(g93
g79
NtRp834
(dp835
g82
(dp836
sg91
g267
sg84
(lp837
g77
(g98
g79
NtRp838
(dp839
g82
(dp840
g102
g103
ssg91
g834
sg84
(lp841
S'session_id_paideia'
p842
asbag77
(g98
g79
NtRp843
(dp844
g82
(dp845
g109
g110
ssg91
g834
sg84
(lp846
S':'
asbag77
(g98
g79
NtRp847
(dp848
g82
(dp849
sg91
g834
sg84
(lp850
g77
(g78
g79
NtRp851
(dp852
g82
(dp853
g90
I4
ssg91
g847
sg84
(lp854
g77
(g86
g79
NtRp855
(dp856
g82
(dp857
g90
I3
ssg91
Nsg84
(lp858
g77
(g93
g79
NtRp859
(dp860
g82
(dp861
sg91
g855
sg84
(lp862
g77
(g98
g79
NtRp863
(dp864
g82
(dp865
g102
g103
ssg91
g859
sg84
(lp866
g304
asbag77
(g98
g79
NtRp867
(dp868
g82
(dp869
g109
g110
ssg91
g859
sg84
(lp870
S':'
asbag77
(g98
g79
NtRp871
(dp872
g82
(dp873
sg91
g859
sg84
(lp874
g77
(g78
g79
NtRp875
(dp876
g82
(dp877
g90
I3
ssg91
g871
sg84
(lp878
S''
asbasbasbag77
(g93
g79
NtRp879
(dp880
g82
(dp881
sg91
g855
sg84
(lp882
g77
(g98
g79
NtRp883
(dp884
g82
(dp885
g102
g103
ssg91
g879
sg84
(lp886
g325
asbag77
(g98
g79
NtRp887
(dp888
g82
(dp889
g109
g110
ssg91
g879
sg84
(lp890
S':'
asbag77
(g98
g79
NtRp891
(dp892
g82
(dp893
sg91
g879
sg84
(lp894
g77
(g78
g79
NtRp895
(dp896
g82
(dp897
g90
I3
ssg91
g891
sg84
(lp898
S''
asbasbasbag77
(g93
g79
NtRp899
(dp900
g82
(dp901
sg91
g855
sg84
(lp902
g77
(g98
g79
NtRp903
(dp904
g82
(dp905
g102
g103
ssg91
g899
sg84
(lp906
g346
asbag77
(g98
g79
NtRp907
(dp908
g82
(dp909
g109
g110
ssg91
g899
sg84
(lp910
S':'
asbag77
(g98
g79
NtRp911
(dp912
g82
(dp913
sg91
g899
sg84
(lp914
g77
(g78
g79
NtRp915
(dp916
g82
(dp917
g90
I3
ssg91
g911
sg84
(lp918
S''
asbasbasbag77
(g93
g79
NtRp919
(dp920
g82
(dp921
sg91
g855
sg84
(lp922
g77
(g98
g79
NtRp923
(dp924
g82
(dp925
g102
g103
ssg91
g919
sg84
(lp926
g367
asbag77
(g98
g79
NtRp927
(dp928
g82
(dp929
g109
g110
ssg91
g919
sg84
(lp930
S':'
asbag77
(g98
g79
NtRp931
(dp932
g82
(dp933
sg91
g919
sg84
(lp934
g77
(g78
g79
NtRp935
(dp936
g82
(dp937
g90
I3
ssg91
g931
sg84
(lp938
S''
asbasbasbag77
(g93
g79
NtRp939
(dp940
g82
(dp941
sg91
g855
sg84
(lp942
g77
(g98
g79
NtRp943
(dp944
g82
(dp945
g102
g103
ssg91
g939
sg84
(lp946
g388
asbag77
(g98
g79
NtRp947
(dp948
g82
(dp949
g109
g110
ssg91
g939
sg84
(lp950
S':'
asbag77
(g98
g79
NtRp951
(dp952
g82
(dp953
sg91
g939
sg84
(lp954
g77
(g78
g79
NtRp955
(dp956
g82
(dp957
g90
I3
ssg91
g951
sg84
(lp958
S''
asbasbasbag77
(g93
g79
NtRp959
(dp960
g82
(dp961
sg91
g855
sg84
(lp962
g77
(g98
g79
NtRp963
(dp964
g82
(dp965
g102
g103
ssg91
g959
sg84
(lp966
g409
asbag77
(g98
g79
NtRp967
(dp968
g82
(dp969
g109
g110
ssg91
g959
sg84
(lp970
S':'
asbag77
(g98
g79
NtRp971
(dp972
g82
(dp973
sg91
g959
sg84
(lp974
g77
(g78
g79
NtRp975
(dp976
g82
(dp977
g90
I3
ssg91
g971
sg84
(lp978
S''
asbasbasbag77
(g93
g79
NtRp979
(dp980
g82
(dp981
sg91
g855
sg84
(lp982
g77
(g98
g79
NtRp983
(dp984
g82
(dp985
g102
g103
ssg91
g979
sg84
(lp986
g430
asbag77
(g98
g79
NtRp987
(dp988
g82
(dp989
g109
g110
ssg91
g979
sg84
(lp990
S':'
asbag77
(g98
g79
NtRp991
(dp992
g82
(dp993
sg91
g979
sg84
(lp994
g77
(g78
g79
NtRp995
(dp996
g82
(dp997
g90
I3
ssg91
g991
sg84
(lp998
S''
asbasbasbag77
(g93
g79
NtRp999
(dp1000
g82
(dp1001
sg91
g855
sg84
(lp1002
g77
(g98
g79
NtRp1003
(dp1004
g82
(dp1005
g102
g103
ssg91
g999
sg84
(lp1006
g451
asbag77
(g98
g79
NtRp1007
(dp1008
g82
(dp1009
g109
g110
ssg91
g999
sg84
(lp1010
S':'
asbag77
(g98
g79
NtRp1011
(dp1012
g82
(dp1013
sg91
g999
sg84
(lp1014
g77
(g78
g79
NtRp1015
(dp1016
g82
(dp1017
g90
I3
ssg91
g1011
sg84
(lp1018
S''
asbasbasbasbasbasbasbag77
(g93
g79
NtRp1019
(dp1020
g82
(dp1021
sg91
g267
sg84
(lp1022
g77
(g98
g79
NtRp1023
(dp1024
g82
(dp1025
g102
g103
ssg91
g1019
sg84
(lp1026
S'session_id_welcome'
p1027
asbag77
(g98
g79
NtRp1028
(dp1029
g82
(dp1030
g109
g110
ssg91
g1019
sg84
(lp1031
S':'
asbag77
(g98
g79
NtRp1032
(dp1033
g82
(dp1034
sg91
g1019
sg84
(lp1035
g77
(g78
g79
NtRp1036
(dp1037
g82
(dp1038
g90
I4
ssg91
g1032
sg84
(lp1039
g77
(g86
g79
NtRp1040
(dp1041
g82
(dp1042
g90
I3
ssg91
Nsg84
(lp1043
g77
(g93
g79
NtRp1044
(dp1045
g82
(dp1046
sg91
g1040
sg84
(lp1047
g77
(g98
g79
NtRp1048
(dp1049
g82
(dp1050
g102
g103
ssg91
g1044
sg84
(lp1051
g304
asbag77
(g98
g79
NtRp1052
(dp1053
g82
(dp1054
g109
g110
ssg91
g1044
sg84
(lp1055
S':'
asbag77
(g98
g79
NtRp1056
(dp1057
g82
(dp1058
sg91
g1044
sg84
(lp1059
g77
(g78
g79
NtRp1060
(dp1061
g82
(dp1062
g90
I3
ssg91
g1056
sg84
(lp1063
S''
asbasbasbag77
(g93
g79
NtRp1064
(dp1065
g82
(dp1066
sg91
g1040
sg84
(lp1067
g77
(g98
g79
NtRp1068
(dp1069
g82
(dp1070
g102
g103
ssg91
g1064
sg84
(lp1071
g325
asbag77
(g98
g79
NtRp1072
(dp1073
g82
(dp1074
g109
g110
ssg91
g1064
sg84
(lp1075
S':'
asbag77
(g98
g79
NtRp1076
(dp1077
g82
(dp1078
sg91
g1064
sg84
(lp1079
g77
(g78
g79
NtRp1080
(dp1081
g82
(dp1082
g90
I3
ssg91
g1076
sg84
(lp1083
S''
asbasbasbag77
(g93
g79
NtRp1084
(dp1085
g82
(dp1086
sg91
g1040
sg84
(lp1087
g77
(g98
g79
NtRp1088
(dp1089
g82
(dp1090
g102
g103
ssg91
g1084
sg84
(lp1091
g346
asbag77
(g98
g79
NtRp1092
(dp1093
g82
(dp1094
g109
g110
ssg91
g1084
sg84
(lp1095
S':'
asbag77
(g98
g79
NtRp1096
(dp1097
g82
(dp1098
sg91
g1084
sg84
(lp1099
g77
(g78
g79
NtRp1100
(dp1101
g82
(dp1102
g90
I3
ssg91
g1096
sg84
(lp1103
S''
asbasbasbag77
(g93
g79
NtRp1104
(dp1105
g82
(dp1106
sg91
g1040
sg84
(lp1107
g77
(g98
g79
NtRp1108
(dp1109
g82
(dp1110
g102
g103
ssg91
g1104
sg84
(lp1111
g367
asbag77
(g98
g79
NtRp1112
(dp1113
g82
(dp1114
g109
g110
ssg91
g1104
sg84
(lp1115
S':'
asbag77
(g98
g79
NtRp1116
(dp1117
g82
(dp1118
sg91
g1104
sg84
(lp1119
g77
(g78
g79
NtRp1120
(dp1121
g82
(dp1122
g90
I3
ssg91
g1116
sg84
(lp1123
S''
asbasbasbag77
(g93
g79
NtRp1124
(dp1125
g82
(dp1126
sg91
g1040
sg84
(lp1127
g77
(g98
g79
NtRp1128
(dp1129
g82
(dp1130
g102
g103
ssg91
g1124
sg84
(lp1131
g388
asbag77
(g98
g79
NtRp1132
(dp1133
g82
(dp1134
g109
g110
ssg91
g1124
sg84
(lp1135
S':'
asbag77
(g98
g79
NtRp1136
(dp1137
g82
(dp1138
sg91
g1124
sg84
(lp1139
g77
(g78
g79
NtRp1140
(dp1141
g82
(dp1142
g90
I3
ssg91
g1136
sg84
(lp1143
S''
asbasbasbag77
(g93
g79
NtRp1144
(dp1145
g82
(dp1146
sg91
g1040
sg84
(lp1147
g77
(g98
g79
NtRp1148
(dp1149
g82
(dp1150
g102
g103
ssg91
g1144
sg84
(lp1151
g409
asbag77
(g98
g79
NtRp1152
(dp1153
g82
(dp1154
g109
g110
ssg91
g1144
sg84
(lp1155
S':'
asbag77
(g98
g79
NtRp1156
(dp1157
g82
(dp1158
sg91
g1144
sg84
(lp1159
g77
(g78
g79
NtRp1160
(dp1161
g82
(dp1162
g90
I3
ssg91
g1156
sg84
(lp1163
S''
asbasbasbag77
(g93
g79
NtRp1164
(dp1165
g82
(dp1166
sg91
g1040
sg84
(lp1167
g77
(g98
g79
NtRp1168
(dp1169
g82
(dp1170
g102
g103
ssg91
g1164
sg84
(lp1171
g430
asbag77
(g98
g79
NtRp1172
(dp1173
g82
(dp1174
g109
g110
ssg91
g1164
sg84
(lp1175
S':'
asbag77
(g98
g79
NtRp1176
(dp1177
g82
(dp1178
sg91
g1164
sg84
(lp1179
g77
(g78
g79
NtRp1180
(dp1181
g82
(dp1182
g90
I3
ssg91
g1176
sg84
(lp1183
S''
asbasbasbag77
(g93
g79
NtRp1184
(dp1185
g82
(dp1186
sg91
g1040
sg84
(lp1187
g77
(g98
g79
NtRp1188
(dp1189
g82
(dp1190
g102
g103
ssg91
g1184
sg84
(lp1191
g451
asbag77
(g98
g79
NtRp1192
(dp1193
g82
(dp1194
g109
g110
ssg91
g1184
sg84
(lp1195
S':'
asbag77
(g98
g79
NtRp1196
(dp1197
g82
(dp1198
sg91
g1184
sg84
(lp1199
g77
(g78
g79
NtRp1200
(dp1201
g82
(dp1202
g90
I3
ssg91
g1196
sg84
(lp1203
S''
asbasbasbasbasbasbasbasbasbasbasbag77
(g93
g79
NtRp1204
(dp1205
g82
(dp1206
sg91
g87
sg84
(lp1207
g77
(g98
g79
NtRp1208
(dp1209
g82
(dp1210
g102
g103
ssg91
g1204
sg84
(lp1211
S'env'
p1212
asbag77
(g98
g79
NtRp1213
(dp1214
g82
(dp1215
g109
g110
ssg91
g1204
sg84
(lp1216
S':'
asbag77
(g98
g79
NtRp1217
(dp1218
g82
(dp1219
sg91
g1204
sg84
(lp1220
g77
(g78
g79
NtRp1221
(dp1222
g82
(dp1223
g90
I5
ssg91
g1217
sg84
(lp1224
g77
(g86
g79
NtRp1225
(dp1226
g82
(dp1227
g90
I4
ssg91
Nsg84
(lp1228
g77
(g93
g79
NtRp1229
(dp1230
g82
(dp1231
sg91
g1225
sg84
(lp1232
g77
(g98
g79
NtRp1233
(dp1234
g82
(dp1235
g102
g103
ssg91
g1229
sg84
(lp1236
S'app_folders'
p1237
asbag77
(g98
g79
NtRp1238
(dp1239
g82
(dp1240
g109
g110
ssg91
g1229
sg84
(lp1241
S':'
asbag77
(g98
g79
NtRp1242
(dp1243
g82
(dp1244
sg91
g1229
sg84
(lp1245
g77
(g78
g79
NtRp1246
(dp1247
g82
(dp1248
g90
I4
ssg91
g1242
sg84
(lp1249
S"set(['/home/iscott/web/web2py/applications/grammateus3/', '/home/iscott/web/web2py/applications/admin/', '/home/iscott/web/web2py/applications/welcome/'])"
p1250
asbasbasbag77
(g93
g79
NtRp1251
(dp1252
g82
(dp1253
sg91
g1225
sg84
(lp1254
g77
(g98
g79
NtRp1255
(dp1256
g82
(dp1257
g102
g103
ssg91
g1251
sg84
(lp1258
S'applications_parent'
p1259
asbag77
(g98
g79
NtRp1260
(dp1261
g82
(dp1262
g109
g110
ssg91
g1251
sg84
(lp1263
S':'
asbag77
(g98
g79
NtRp1264
(dp1265
g82
(dp1266
sg91
g1251
sg84
(lp1267
g77
(g78
g79
NtRp1268
(dp1269
g82
(dp1270
g90
I4
ssg91
g1264
sg84
(lp1271
S'/home/iscott/web/web2py'
p1272
asbasbasbag77
(g93
g79
NtRp1273
(dp1274
g82
(dp1275
sg91
g1225
sg84
(lp1276
g77
(g98
g79
NtRp1277
(dp1278
g82
(dp1279
g102
g103
ssg91
g1273
sg84
(lp1280
S'cmd_args'
p1281
asbag77
(g98
g79
NtRp1282
(dp1283
g82
(dp1284
g109
g110
ssg91
g1273
sg84
(lp1285
S':'
asbag77
(g98
g79
NtRp1286
(dp1287
g82
(dp1288
sg91
g1273
sg84
(lp1289
g77
(g78
g79
NtRp1290
(dp1291
g82
(dp1292
g90
I4
ssg91
g1286
sg84
(lp1293
g77
(g86
g79
NtRp1294
(dp1295
g82
(dp1296
g90
I3
ssg91
Nsg84
(lp1297
sbasbasbasbag77
(g93
g79
NtRp1298
(dp1299
g82
(dp1300
sg91
g1225
sg84
(lp1301
g77
(g98
g79
NtRp1302
(dp1303
g82
(dp1304
g102
g103
ssg91
g1298
sg84
(lp1305
S'cmd_options'
p1306
asbag77
(g98
g79
NtRp1307
(dp1308
g82
(dp1309
g109
g110
ssg91
g1298
sg84
(lp1310
S':'
asbag77
(g98
g79
NtRp1311
(dp1312
g82
(dp1313
sg91
g1298
sg84
(lp1314
g77
(g78
g79
NtRp1315
(dp1316
g82
(dp1317
g90
I4
ssg91
g1311
sg84
(lp1318
S"<Values at 0xa5e5b8c: {'verbose': False, 'ip': '127.0.0.1', 'shutdown_timeout': 5, 'taskbar': False, 'nocron': False, 'pid_filename': 'httpserver.pid', 'maxthreads': None, 'softcron': False, 'server_name': 'ubuntu', 'bpython': False, 'nogui': False, 'port': 8000, 'extcron': False, 'debuglevel': 30, 'test': None, 'folder': '/home/iscott/web/web2py', 'config': '', 'import_models': False, 'winservice': '', 'shell': None, 'run': '', 'log_filename': 'httpserver.log', 'args': [''], 'socket_timeout': 1, 'ssl_ca_certificate': None, 'scheduler': None, 'profiler_filename': None, 'ssl_private_key': '', 'password': '<ask>', 'request_queue_size': 5, 'ssl_certificate': '', 'cronjob': False, 'numthreads': None, 'quiet': False, 'interfaces': None, 'minthreads': None, 'timeout': 10, 'plain': False, 'nobanner': False}>"
p1319
asbasbasbag77
(g93
g79
NtRp1320
(dp1321
g82
(dp1322
sg91
g1225
sg84
(lp1323
g77
(g98
g79
NtRp1324
(dp1325
g82
(dp1326
g102
g103
ssg91
g1320
sg84
(lp1327
S'db_sessions'
p1328
asbag77
(g98
g79
NtRp1329
(dp1330
g82
(dp1331
g109
g110
ssg91
g1320
sg84
(lp1332
S':'
asbag77
(g98
g79
NtRp1333
(dp1334
g82
(dp1335
sg91
g1320
sg84
(lp1336
g77
(g78
g79
NtRp1337
(dp1338
g82
(dp1339
g90
I4
ssg91
g1333
sg84
(lp1340
S'set([])'
p1341
asbasbasbag77
(g93
g79
NtRp1342
(dp1343
g82
(dp1344
sg91
g1225
sg84
(lp1345
g77
(g98
g79
NtRp1346
(dp1347
g82
(dp1348
g102
g103
ssg91
g1342
sg84
(lp1349
S'debugging'
p1350
asbag77
(g98
g79
NtRp1351
(dp1352
g82
(dp1353
g109
g110
ssg91
g1342
sg84
(lp1354
S':'
asbag77
(g98
g79
NtRp1355
(dp1356
g82
(dp1357
sg91
g1342
sg84
(lp1358
g77
(g78
g79
NtRp1359
(dp1360
g82
(dp1361
g90
I4
ssg91
g1355
sg84
(lp1362
g120
asbasbasbag77
(g93
g79
NtRp1363
(dp1364
g82
(dp1365
sg91
g1225
sg84
(lp1366
g77
(g98
g79
NtRp1367
(dp1368
g82
(dp1369
g102
g103
ssg91
g1363
sg84
(lp1370
S'gluon_parent'
p1371
asbag77
(g98
g79
NtRp1372
(dp1373
g82
(dp1374
g109
g110
ssg91
g1363
sg84
(lp1375
S':'
asbag77
(g98
g79
NtRp1376
(dp1377
g82
(dp1378
sg91
g1363
sg84
(lp1379
g77
(g78
g79
NtRp1380
(dp1381
g82
(dp1382
g90
I4
ssg91
g1376
sg84
(lp1383
S'/home/iscott/web/web2py'
p1384
asbasbasbag77
(g93
g79
NtRp1385
(dp1386
g82
(dp1387
sg91
g1225
sg84
(lp1388
g77
(g98
g79
NtRp1389
(dp1390
g82
(dp1391
g102
g103
ssg91
g1385
sg84
(lp1392
S'http_accept'
p1393
asbag77
(g98
g79
NtRp1394
(dp1395
g82
(dp1396
g109
g110
ssg91
g1385
sg84
(lp1397
S':'
asbag77
(g98
g79
NtRp1398
(dp1399
g82
(dp1400
sg91
g1385
sg84
(lp1401
g77
(g78
g79
NtRp1402
(dp1403
g82
(dp1404
g90
I4
ssg91
g1398
sg84
(lp1405
S'text/html,application/xhtml+xml,application/xml;q=0.9,*/*;q=0.8'
p1406
asbasbasbag77
(g93
g79
NtRp1407
(dp1408
g82
(dp1409
sg91
g1225
sg84
(lp1410
g77
(g98
g79
NtRp1411
(dp1412
g82
(dp1413
g102
g103
ssg91
g1407
sg84
(lp1414
S'http_accept_encoding'
p1415
asbag77
(g98
g79
NtRp1416
(dp1417
g82
(dp1418
g109
g110
ssg91
g1407
sg84
(lp1419
S':'
asbag77
(g98
g79
NtRp1420
(dp1421
g82
(dp1422
sg91
g1407
sg84
(lp1423
g77
(g78
g79
NtRp1424
(dp1425
g82
(dp1426
g90
I4
ssg91
g1420
sg84
(lp1427
S'gzip, deflate'
p1428
asbasbasbag77
(g93
g79
NtRp1429
(dp1430
g82
(dp1431
sg91
g1225
sg84
(lp1432
g77
(g98
g79
NtRp1433
(dp1434
g82
(dp1435
g102
g103
ssg91
g1429
sg84
(lp1436
S'http_accept_language'
p1437
asbag77
(g98
g79
NtRp1438
(dp1439
g82
(dp1440
g109
g110
ssg91
g1429
sg84
(lp1441
S':'
asbag77
(g98
g79
NtRp1442
(dp1443
g82
(dp1444
sg91
g1429
sg84
(lp1445
g77
(g78
g79
NtRp1446
(dp1447
g82
(dp1448
g90
I4
ssg91
g1442
sg84
(lp1449
S'en-us,en;q=0.5'
p1450
asbasbasbag77
(g93
g79
NtRp1451
(dp1452
g82
(dp1453
sg91
g1225
sg84
(lp1454
g77
(g98
g79
NtRp1455
(dp1456
g82
(dp1457
g102
g103
ssg91
g1451
sg84
(lp1458
S'http_connection'
p1459
asbag77
(g98
g79
NtRp1460
(dp1461
g82
(dp1462
g109
g110
ssg91
g1451
sg84
(lp1463
S':'
asbag77
(g98
g79
NtRp1464
(dp1465
g82
(dp1466
sg91
g1451
sg84
(lp1467
g77
(g78
g79
NtRp1468
(dp1469
g82
(dp1470
g90
I4
ssg91
g1464
sg84
(lp1471
S'keep-alive'
p1472
asbasbasbag77
(g93
g79
NtRp1473
(dp1474
g82
(dp1475
sg91
g1225
sg84
(lp1476
g77
(g98
g79
NtRp1477
(dp1478
g82
(dp1479
g102
g103
ssg91
g1473
sg84
(lp1480
S'http_cookie'
p1481
asbag77
(g98
g79
NtRp1482
(dp1483
g82
(dp1484
g109
g110
ssg91
g1473
sg84
(lp1485
S':'
asbag77
(g98
g79
NtRp1486
(dp1487
g82
(dp1488
sg91
g1473
sg84
(lp1489
g77
(g78
g79
NtRp1490
(dp1491
g82
(dp1492
g90
I4
ssg91
g1486
sg84
(lp1493
S'session_id_paideia=127.0.0.1-2edda130-d654-4b0f-a819-06652e443aa6; session_id_bloglet=127.0.0.1-e84b0934-9abc-4375-99c8-24980b610007; session_id_welcome=127.0.0.1-875183c3-33d3-41d0-8035-815b0ac6dec9; session_id_admin=127.0.0.1-e6804d9f-b6d5-42a4-85e7-86ca1654e322; session_id_grammateus3=127.0.0.1-4f98ec66-c173-46dc-a836-3a6d8de0d450'
p1494
asbasbasbag77
(g93
g79
NtRp1495
(dp1496
g82
(dp1497
sg91
g1225
sg84
(lp1498
g77
(g98
g79
NtRp1499
(dp1500
g82
(dp1501
g102
g103
ssg91
g1495
sg84
(lp1502
S'http_host'
p1503
asbag77
(g98
g79
NtRp1504
(dp1505
g82
(dp1506
g109
g110
ssg91
g1495
sg84
(lp1507
S':'
asbag77
(g98
g79
NtRp1508
(dp1509
g82
(dp1510
sg91
g1495
sg84
(lp1511
g77
(g78
g79
NtRp1512
(dp1513
g82
(dp1514
g90
I4
ssg91
g1508
sg84
(lp1515
S'127.0.0.1:8000'
p1516
asbasbasbag77
(g93
g79
NtRp1517
(dp1518
g82
(dp1519
sg91
g1225
sg84
(lp1520
g77
(g98
g79
NtRp1521
(dp1522
g82
(dp1523
g102
g103
ssg91
g1517
sg84
(lp1524
S'http_user_agent'
p1525
asbag77
(g98
g79
NtRp1526
(dp1527
g82
(dp1528
g109
g110
ssg91
g1517
sg84
(lp1529
S':'
asbag77
(g98
g79
NtRp1530
(dp1531
g82
(dp1532
sg91
g1517
sg84
(lp1533
g77
(g78
g79
NtRp1534
(dp1535
g82
(dp1536
g90
I4
ssg91
g1530
sg84
(lp1537
S'Mozilla/5.0 (X11; Ubuntu; Linux i686; rv:10.0.2) Gecko/20100101 Firefox/10.0.2'
p1538
asbasbasbag77
(g93
g79
NtRp1539
(dp1540
g82
(dp1541
sg91
g1225
sg84
(lp1542
g77
(g98
g79
NtRp1543
(dp1544
g82
(dp1545
g102
g103
ssg91
g1539
sg84
(lp1546
S'is_jython'
p1547
asbag77
(g98
g79
NtRp1548
(dp1549
g82
(dp1550
g109
g110
ssg91
g1539
sg84
(lp1551
S':'
asbag77
(g98
g79
NtRp1552
(dp1553
g82
(dp1554
sg91
g1539
sg84
(lp1555
g77
(g78
g79
NtRp1556
(dp1557
g82
(dp1558
g90
I4
ssg91
g1552
sg84
(lp1559
g120
asbasbasbag77
(g93
g79
NtRp1560
(dp1561
g82
(dp1562
sg91
g1225
sg84
(lp1563
g77
(g98
g79
NtRp1564
(dp1565
g82
(dp1566
g102
g103
ssg91
g1560
sg84
(lp1567
S'is_pypy'
p1568
asbag77
(g98
g79
NtRp1569
(dp1570
g82
(dp1571
g109
g110
ssg91
g1560
sg84
(lp1572
S':'
asbag77
(g98
g79
NtRp1573
(dp1574
g82
(dp1575
sg91
g1560
sg84
(lp1576
g77
(g78
g79
NtRp1577
(dp1578
g82
(dp1579
g90
I4
ssg91
g1573
sg84
(lp1580
g120
asbasbasbag77
(g93
g79
NtRp1581
(dp1582
g82
(dp1583
sg91
g1225
sg84
(lp1584
g77
(g98
g79
NtRp1585
(dp1586
g82
(dp1587
g102
g103
ssg91
g1581
sg84
(lp1588
S'path_info'
p1589
asbag77
(g98
g79
NtRp1590
(dp1591
g82
(dp1592
g109
g110
ssg91
g1581
sg84
(lp1593
S':'
asbag77
(g98
g79
NtRp1594
(dp1595
g82
(dp1596
sg91
g1581
sg84
(lp1597
g77
(g78
g79
NtRp1598
(dp1599
g82
(dp1600
g90
I4
ssg91
g1594
sg84
(lp1601
S'/grammateus3/docs/test/3Macc'
p1602
asbasbasbag77
(g93
g79
NtRp1603
(dp1604
g82
(dp1605
sg91
g1225
sg84
(lp1606
g77
(g98
g79
NtRp1607
(dp1608
g82
(dp1609
g102
g103
ssg91
g1603
sg84
(lp1610
S'query_string'
p1611
asbag77
(g98
g79
NtRp1612
(dp1613
g82
(dp1614
g109
g110
ssg91
g1603
sg84
(lp1615
S':'
asbag77
(g98
g79
NtRp1616
(dp1617
g82
(dp1618
sg91
g1603
sg84
(lp1619
g77
(g78
g79
NtRp1620
(dp1621
g82
(dp1622
g90
I4
ssg91
g1616
sg84
(lp1623
S''
asbasbasbag77
(g93
g79
NtRp1624
(dp1625
g82
(dp1626
sg91
g1225
sg84
(lp1627
g77
(g98
g79
NtRp1628
(dp1629
g82
(dp1630
g102
g103
ssg91
g1624
sg84
(lp1631
S'remote_addr'
p1632
asbag77
(g98
g79
NtRp1633
(dp1634
g82
(dp1635
g109
g110
ssg91
g1624
sg84
(lp1636
S':'
asbag77
(g98
g79
NtRp1637
(dp1638
g82
(dp1639
sg91
g1624
sg84
(lp1640
g77
(g78
g79
NtRp1641
(dp1642
g82
(dp1643
g90
I4
ssg91
g1637
sg84
(lp1644
g223
asbasbasbag77
(g93
g79
NtRp1645
(dp1646
g82
(dp1647
sg91
g1225
sg84
(lp1648
g77
(g98
g79
NtRp1649
(dp1650
g82
(dp1651
g102
g103
ssg91
g1645
sg84
(lp1652
S'remote_port'
p1653
asbag77
(g98
g79
NtRp1654
(dp1655
g82
(dp1656
g109
g110
ssg91
g1645
sg84
(lp1657
S':'
asbag77
(g98
g79
NtRp1658
(dp1659
g82
(dp1660
sg91
g1645
sg84
(lp1661
g77
(g78
g79
NtRp1662
(dp1663
g82
(dp1664
g90
I4
ssg91
g1658
sg84
(lp1665
S'39915'
p1666
asbasbasbag77
(g93
g79
NtRp1667
(dp1668
g82
(dp1669
sg91
g1225
sg84
(lp1670
g77
(g98
g79
NtRp1671
(dp1672
g82
(dp1673
g102
g103
ssg91
g1667
sg84
(lp1674
S'request_method'
p1675
asbag77
(g98
g79
NtRp1676
(dp1677
g82
(dp1678
g109
g110
ssg91
g1667
sg84
(lp1679
S':'
asbag77
(g98
g79
NtRp1680
(dp1681
g82
(dp1682
sg91
g1667
sg84
(lp1683
g77
(g78
g79
NtRp1684
(dp1685
g82
(dp1686
g90
I4
ssg91
g1680
sg84
(lp1687
S'GET'
p1688
asbasbasbag77
(g93
g79
NtRp1689
(dp1690
g82
(dp1691
sg91
g1225
sg84
(lp1692
g77
(g98
g79
NtRp1693
(dp1694
g82
(dp1695
g102
g103
ssg91
g1689
sg84
(lp1696
S'script_name'
p1697
asbag77
(g98
g79
NtRp1698
(dp1699
g82
(dp1700
g109
g110
ssg91
g1689
sg84
(lp1701
S':'
asbag77
(g98
g79
NtRp1702
(dp1703
g82
(dp1704
sg91
g1689
sg84
(lp1705
g77
(g78
g79
NtRp1706
(dp1707
g82
(dp1708
g90
I4
ssg91
g1702
sg84
(lp1709
S''
asbasbasbag77
(g93
g79
NtRp1710
(dp1711
g82
(dp1712
sg91
g1225
sg84
(lp1713
g77
(g98
g79
NtRp1714
(dp1715
g82
(dp1716
g102
g103
ssg91
g1710
sg84
(lp1717
S'server_name'
p1718
asbag77
(g98
g79
NtRp1719
(dp1720
g82
(dp1721
g109
g110
ssg91
g1710
sg84
(lp1722
S':'
asbag77
(g98
g79
NtRp1723
(dp1724
g82
(dp1725
sg91
g1710
sg84
(lp1726
g77
(g78
g79
NtRp1727
(dp1728
g82
(dp1729
g90
I4
ssg91
g1723
sg84
(lp1730
S'ubuntu'
p1731
asbasbasbag77
(g93
g79
NtRp1732
(dp1733
g82
(dp1734
sg91
g1225
sg84
(lp1735
g77
(g98
g79
NtRp1736
(dp1737
g82
(dp1738
g102
g103
ssg91
g1732
sg84
(lp1739
S'server_port'
p1740
asbag77
(g98
g79
NtRp1741
(dp1742
g82
(dp1743
g109
g110
ssg91
g1732
sg84
(lp1744
S':'
asbag77
(g98
g79
NtRp1745
(dp1746
g82
(dp1747
sg91
g1732
sg84
(lp1748
g77
(g78
g79
NtRp1749
(dp1750
g82
(dp1751
g90
I4
ssg91
g1745
sg84
(lp1752
S'8000'
p1753
asbasbasbag77
(g93
g79
NtRp1754
(dp1755
g82
(dp1756
sg91
g1225
sg84
(lp1757
g77
(g98
g79
NtRp1758
(dp1759
g82
(dp1760
g102
g103
ssg91
g1754
sg84
(lp1761
S'server_protocol'
p1762
asbag77
(g98
g79
NtRp1763
(dp1764
g82
(dp1765
g109
g110
ssg91
g1754
sg84
(lp1766
S':'
asbag77
(g98
g79
NtRp1767
(dp1768
g82
(dp1769
sg91
g1754
sg84
(lp1770
g77
(g78
g79
NtRp1771
(dp1772
g82
(dp1773
g90
I4
ssg91
g1767
sg84
(lp1774
S'HTTP/1.1'
p1775
asbasbasbag77
(g93
g79
NtRp1776
(dp1777
g82
(dp1778
sg91
g1225
sg84
(lp1779
g77
(g98
g79
NtRp1780
(dp1781
g82
(dp1782
g102
g103
ssg91
g1776
sg84
(lp1783
S'server_software'
p1784
asbag77
(g98
g79
NtRp1785
(dp1786
g82
(dp1787
g109
g110
ssg91
g1776
sg84
(lp1788
S':'
asbag77
(g98
g79
NtRp1789
(dp1790
g82
(dp1791
sg91
g1776
sg84
(lp1792
g77
(g78
g79
NtRp1793
(dp1794
g82
(dp1795
g90
I4
ssg91
g1789
sg84
(lp1796
S'Rocket 1.2.4'
p1797
asbasbasbag77
(g93
g79
NtRp1798
(dp1799
g82
(dp1800
sg91
g1225
sg84
(lp1801
g77
(g98
g79
NtRp1802
(dp1803
g82
(dp1804
g102
g103
ssg91
g1798
sg84
(lp1805
S'web2py_crontype'
p1806
asbag77
(g98
g79
NtRp1807
(dp1808
g82
(dp1809
g109
g110
ssg91
g1798
sg84
(lp1810
S':'
asbag77
(g98
g79
NtRp1811
(dp1812
g82
(dp1813
sg91
g1798
sg84
(lp1814
g77
(g78
g79
NtRp1815
(dp1816
g82
(dp1817
g90
I4
ssg91
g1811
sg84
(lp1818
S'hard'
p1819
asbasbasbag77
(g93
g79
NtRp1820
(dp1821
g82
(dp1822
sg91
g1225
sg84
(lp1823
g77
(g98
g79
NtRp1824
(dp1825
g82
(dp1826
g102
g103
ssg91
g1820
sg84
(lp1827
S'web2py_path'
p1828
asbag77
(g98
g79
NtRp1829
(dp1830
g82
(dp1831
g109
g110
ssg91
g1820
sg84
(lp1832
S':'
asbag77
(g98
g79
NtRp1833
(dp1834
g82
(dp1835
sg91
g1820
sg84
(lp1836
g77
(g78
g79
NtRp1837
(dp1838
g82
(dp1839
g90
I4
ssg91
g1833
sg84
(lp1840
g1272
asbasbasbag77
(g93
g79
NtRp1841
(dp1842
g82
(dp1843
sg91
g1225
sg84
(lp1844
g77
(g98
g79
NtRp1845
(dp1846
g82
(dp1847
g102
g103
ssg91
g1841
sg84
(lp1848
S'web2py_version'
p1849
asbag77
(g98
g79
NtRp1850
(dp1851
g82
(dp1852
g109
g110
ssg91
g1841
sg84
(lp1853
S':'
asbag77
(g98
g79
NtRp1854
(dp1855
g82
(dp1856
sg91
g1841
sg84
(lp1857
g77
(g78
g79
NtRp1858
(dp1859
g82
(dp1860
g90
I4
ssg91
g1854
sg84
(lp1861
g77
(g86
g79
NtRp1862
(dp1863
g82
(dp1864
g90
I3
ssg91
Nsg84
(lp1865
g77
(g93
g79
NtRp1866
(dp1867
g82
(dp1868
sg91
g1862
sg84
(lp1869
g77
(g98
g79
NtRp1870
(dp1871
g82
(dp1872
sg91
g1866
sg84
(lp1873
g77
(g78
g79
NtRp1874
(dp1875
g82
(dp1876
g90
I3
ssg91
g1870
sg84
(lp1877
S'1'
asbasbasbag77
(g93
g79
NtRp1878
(dp1879
g82
(dp1880
sg91
g1862
sg84
(lp1881
g77
(g98
g79
NtRp1882
(dp1883
g82
(dp1884
sg91
g1878
sg84
(lp1885
g77
(g78
g79
NtRp1886
(dp1887
g82
(dp1888
g90
I3
ssg91
g1882
sg84
(lp1889
S'99'
p1890
asbasbasbag77
(g93
g79
NtRp1891
(dp1892
g82
(dp1893
sg91
g1862
sg84
(lp1894
g77
(g98
g79
NtRp1895
(dp1896
g82
(dp1897
sg91
g1891
sg84
(lp1898
g77
(g78
g79
NtRp1899
(dp1900
g82
(dp1901
g90
I3
ssg91
g1895
sg84
(lp1902
S'4'
asbasbasbag77
(g93
g79
NtRp1903
(dp1904
g82
(dp1905
sg91
g1862
sg84
(lp1906
g77
(g98
g79
NtRp1907
(dp1908
g82
(dp1909
sg91
g1903
sg84
(lp1910
g77
(g78
g79
NtRp1911
(dp1912
g82
(dp1913
g90
I3
ssg91
g1907
sg84
(lp1914
S'datetime.datetime(2011, 12, 14, 14, 46, 14)'
p1915
asbasbasbag77
(g93
g79
NtRp1916
(dp1917
g82
(dp1918
sg91
g1862
sg84
(lp1919
g77
(g98
g79
NtRp1920
(dp1921
g82
(dp1922
sg91
g1916
sg84
(lp1923
g77
(g78
g79
NtRp1924
(dp1925
g82
(dp1926
g90
I3
ssg91
g1920
sg84
(lp1927
S'stable'
p1928
asbasbasbasbasbasbasbag77
(g93
g79
NtRp1929
(dp1930
g82
(dp1931
sg91
g1225
sg84
(lp1932
g77
(g98
g79
NtRp1933
(dp1934
g82
(dp1935
g102
g103
ssg91
g1929
sg84
(lp1936
S'wsgi_errors'
p1937
asbag77
(g98
g79
NtRp1938
(dp1939
g82
(dp1940
g109
g110
ssg91
g1929
sg84
(lp1941
S':'
asbag77
(g98
g79
NtRp1942
(dp1943
g82
(dp1944
sg91
g1929
sg84
(lp1945
g77
(g78
g79
NtRp1946
(dp1947
g82
(dp1948
g90
I4
ssg91
g1942
sg84
(lp1949
S"<open file '<stderr>', mode 'w' at 0xb777d0d0>"
p1950
asbasbasbag77
(g93
g79
NtRp1951
(dp1952
g82
(dp1953
sg91
g1225
sg84
(lp1954
g77
(g98
g79
NtRp1955
(dp1956
g82
(dp1957
g102
g103
ssg91
g1951
sg84
(lp1958
S'wsgi_file_wrapper'
p1959
asbag77
(g98
g79
NtRp1960
(dp1961
g82
(dp1962
g109
g110
ssg91
g1951
sg84
(lp1963
S':'
asbag77
(g98
g79
NtRp1964
(dp1965
g82
(dp1966
sg91
g1951
sg84
(lp1967
g77
(g78
g79
NtRp1968
(dp1969
g82
(dp1970
g90
I4
ssg91
g1964
sg84
(lp1971
S'<class wsgiref.util.FileWrapper at 0xa52e20c>'
p1972
asbasbasbag77
(g93
g79
NtRp1973
(dp1974
g82
(dp1975
sg91
g1225
sg84
(lp1976
g77
(g98
g79
NtRp1977
(dp1978
g82
(dp1979
g102
g103
ssg91
g1973
sg84
(lp1980
S'wsgi_input'
p1981
asbag77
(g98
g79
NtRp1982
(dp1983
g82
(dp1984
g109
g110
ssg91
g1973
sg84
(lp1985
S':'
asbag77
(g98
g79
NtRp1986
(dp1987
g82
(dp1988
sg91
g1973
sg84
(lp1989
g77
(g78
g79
NtRp1990
(dp1991
g82
(dp1992
g90
I4
ssg91
g1986
sg84
(lp1993
S'<socket._fileobject object at 0xb10b06c>'
p1994
asbasbasbag77
(g93
g79
NtRp1995
(dp1996
g82
(dp1997
sg91
g1225
sg84
(lp1998
g77
(g98
g79
NtRp1999
(dp2000
g82
(dp2001
g102
g103
ssg91
g1995
sg84
(lp2002
S'wsgi_multiprocess'
p2003
asbag77
(g98
g79
NtRp2004
(dp2005
g82
(dp2006
g109
g110
ssg91
g1995
sg84
(lp2007
S':'
asbag77
(g98
g79
NtRp2008
(dp2009
g82
(dp2010
sg91
g1995
sg84
(lp2011
g77
(g78
g79
NtRp2012
(dp2013
g82
(dp2014
g90
I4
ssg91
g2008
sg84
(lp2015
g120
asbasbasbag77
(g93
g79
NtRp2016
(dp2017
g82
(dp2018
sg91
g1225
sg84
(lp2019
g77
(g98
g79
NtRp2020
(dp2021
g82
(dp2022
g102
g103
ssg91
g2016
sg84
(lp2023
S'wsgi_multithread'
p2024
asbag77
(g98
g79
NtRp2025
(dp2026
g82
(dp2027
g109
g110
ssg91
g2016
sg84
(lp2028
S':'
asbag77
(g98
g79
NtRp2029
(dp2030
g82
(dp2031
sg91
g2016
sg84
(lp2032
g77
(g78
g79
NtRp2033
(dp2034
g82
(dp2035
g90
I4
ssg91
g2029
sg84
(lp2036
S'True'
p2037
asbasbasbag77
(g93
g79
NtRp2038
(dp2039
g82
(dp2040
sg91
g1225
sg84
(lp2041
g77
(g98
g79
NtRp2042
(dp2043
g82
(dp2044
g102
g103
ssg91
g2038
sg84
(lp2045
S'wsgi_run_once'
p2046
asbag77
(g98
g79
NtRp2047
(dp2048
g82
(dp2049
g109
g110
ssg91
g2038
sg84
(lp2050
S':'
asbag77
(g98
g79
NtRp2051
(dp2052
g82
(dp2053
sg91
g2038
sg84
(lp2054
g77
(g78
g79
NtRp2055
(dp2056
g82
(dp2057
g90
I4
ssg91
g2051
sg84
(lp2058
g120
asbasbasbag77
(g93
g79
NtRp2059
(dp2060
g82
(dp2061
sg91
g1225
sg84
(lp2062
g77
(g98
g79
NtRp2063
(dp2064
g82
(dp2065
g102
g103
ssg91
g2059
sg84
(lp2066
S'wsgi_url_scheme'
p2067
asbag77
(g98
g79
NtRp2068
(dp2069
g82
(dp2070
g109
g110
ssg91
g2059
sg84
(lp2071
S':'
asbag77
(g98
g79
NtRp2072
(dp2073
g82
(dp2074
sg91
g2059
sg84
(lp2075
g77
(g78
g79
NtRp2076
(dp2077
g82
(dp2078
g90
I4
ssg91
g2072
sg84
(lp2079
S'http'
p2080
asbasbasbag77
(g93
g79
NtRp2081
(dp2082
g82
(dp2083
sg91
g1225
sg84
(lp2084
g77
(g98
g79
NtRp2085
(dp2086
g82
(dp2087
g102
g103
ssg91
g2081
sg84
(lp2088
S'wsgi_version'
p2089
asbag77
(g98
g79
NtRp2090
(dp2091
g82
(dp2092
g109
g110
ssg91
g2081
sg84
(lp2093
S':'
asbag77
(g98
g79
NtRp2094
(dp2095
g82
(dp2096
sg91
g2081
sg84
(lp2097
g77
(g78
g79
NtRp2098
(dp2099
g82
(dp2100
g90
I4
ssg91
g2094
sg84
(lp2101
g77
(g86
g79
NtRp2102
(dp2103
g82
(dp2104
g90
I3
ssg91
Nsg84
(lp2105
g77
(g93
g79
NtRp2106
(dp2107
g82
(dp2108
sg91
g2102
sg84
(lp2109
g77
(g98
g79
NtRp2110
(dp2111
g82
(dp2112
sg91
g2106
sg84
(lp2113
g77
(g78
g79
NtRp2114
(dp2115
g82
(dp2116
g90
I3
ssg91
g2110
sg84
(lp2117
S'1'
asbasbasbag77
(g93
g79
NtRp2118
(dp2119
g82
(dp2120
sg91
g2102
sg84
(lp2121
g77
(g98
g79
NtRp2122
(dp2123
g82
(dp2124
sg91
g2118
sg84
(lp2125
g77
(g78
g79
NtRp2126
(dp2127
g82
(dp2128
g90
I3
ssg91
g2122
sg84
(lp2129
S'0'
asbasbasbasbasbasbasbasbasbasbasbag77
(g93
g79
NtRp2130
(dp2131
g82
(dp2132
sg91
g87
sg84
(lp2133
g77
(g98
g79
NtRp2134
(dp2135
g82
(dp2136
g102
g103
ssg91
g2130
sg84
(lp2137
S'extension'
p2138
asbag77
(g98
g79
NtRp2139
(dp2140
g82
(dp2141
g109
g110
ssg91
g2130
sg84
(lp2142
S':'
asbag77
(g98
g79
NtRp2143
(dp2144
g82
(dp2145
sg91
g2130
sg84
(lp2146
g77
(g78
g79
NtRp2147
(dp2148
g82
(dp2149
g90
I5
ssg91
g2143
sg84
(lp2150
S'html'
p2151
asbasbasbag77
(g93
g79
NtRp2152
(dp2153
g82
(dp2154
sg91
g87
sg84
(lp2155
g77
(g98
g79
NtRp2156
(dp2157
g82
(dp2158
g102
g103
ssg91
g2152
sg84
(lp2159
S'folder'
p2160
asbag77
(g98
g79
NtRp2161
(dp2162
g82
(dp2163
g109
g110
ssg91
g2152
sg84
(lp2164
S':'
asbag77
(g98
g79
NtRp2165
(dp2166
g82
(dp2167
sg91
g2152
sg84
(lp2168
g77
(g78
g79
NtRp2169
(dp2170
g82
(dp2171
g90
I5
ssg91
g2165
sg84
(lp2172
S'/home/iscott/web/web2py/applications/grammateus3/'
p2173
asbasbasbag77
(g93
g79
NtRp2174
(dp2175
g82
(dp2176
sg91
g87
sg84
(lp2177
g77
(g98
g79
NtRp2178
(dp2179
g82
(dp2180
g102
g103
ssg91
g2174
sg84
(lp2181
S'function'
p2182
asbag77
(g98
g79
NtRp2183
(dp2184
g82
(dp2185
g109
g110
ssg91
g2174
sg84
(lp2186
S':'
asbag77
(g98
g79
NtRp2187
(dp2188
g82
(dp2189
sg91
g2174
sg84
(lp2190
g77
(g78
g79
NtRp2191
(dp2192
g82
(dp2193
g90
I5
ssg91
g2187
sg84
(lp2194
S'test'
p2195
asbasbasbag77
(g93
g79
NtRp2196
(dp2197
g82
(dp2198
sg91
g87
sg84
(lp2199
g77
(g98
g79
NtRp2200
(dp2201
g82
(dp2202
g102
g103
ssg91
g2196
sg84
(lp2203
S'get_vars'
p2204
asbag77
(g98
g79
NtRp2205
(dp2206
g82
(dp2207
g109
g110
ssg91
g2196
sg84
(lp2208
S':'
asbag77
(g98
g79
NtRp2209
(dp2210
g82
(dp2211
sg91
g2196
sg84
(lp2212
g77
(g78
g79
NtRp2213
(dp2214
g82
(dp2215
g90
I5
ssg91
g2209
sg84
(lp2216
g77
(g86
g79
NtRp2217
(dp2218
g82
(dp2219
g90
I4
ssg91
Nsg84
(lp2220
sbasbasbasbag77
(g93
g79
NtRp2221
(dp2222
g82
(dp2223
sg91
g87
sg84
(lp2224
g77
(g98
g79
NtRp2225
(dp2226
g82
(dp2227
g102
g103
ssg91
g2221
sg84
(lp2228
S'global_settings'
p2229
asbag77
(g98
g79
NtRp2230
(dp2231
g82
(dp2232
g109
g110
ssg91
g2221
sg84
(lp2233
S':'
asbag77
(g98
g79
NtRp2234
(dp2235
g82
(dp2236
sg91
g2221
sg84
(lp2237
g77
(g78
g79
NtRp2238
(dp2239
g82
(dp2240
g90
I5
ssg91
g2234
sg84
(lp2241
g77
(g86
g79
NtRp2242
(dp2243
g82
(dp2244
g90
I4
ssg91
Nsg84
(lp2245
g77
(g93
g79
NtRp2246
(dp2247
g82
(dp2248
sg91
g2242
sg84
(lp2249
g77
(g98
g79
NtRp2250
(dp2251
g82
(dp2252
g102
g103
ssg91
g2246
sg84
(lp2253
g1237
asbag77
(g98
g79
NtRp2254
(dp2255
g82
(dp2256
g109
g110
ssg91
g2246
sg84
(lp2257
S':'
asbag77
(g98
g79
NtRp2258
(dp2259
g82
(dp2260
sg91
g2246
sg84
(lp2261
g77
(g78
g79
NtRp2262
(dp2263
g82
(dp2264
g90
I4
ssg91
g2258
sg84
(lp2265
S"set(['/home/iscott/web/web2py/applications/grammateus3/', '/home/iscott/web/web2py/applications/admin/', '/home/iscott/web/web2py/applications/welcome/'])"
p2266
asbasbasbag77
(g93
g79
NtRp2267
(dp2268
g82
(dp2269
sg91
g2242
sg84
(lp2270
g77
(g98
g79
NtRp2271
(dp2272
g82
(dp2273
g102
g103
ssg91
g2267
sg84
(lp2274
g1259
asbag77
(g98
g79
NtRp2275
(dp2276
g82
(dp2277
g109
g110
ssg91
g2267
sg84
(lp2278
S':'
asbag77
(g98
g79
NtRp2279
(dp2280
g82
(dp2281
sg91
g2267
sg84
(lp2282
g77
(g78
g79
NtRp2283
(dp2284
g82
(dp2285
g90
I4
ssg91
g2279
sg84
(lp2286
g1272
asbasbasbag77
(g93
g79
NtRp2287
(dp2288
g82
(dp2289
sg91
g2242
sg84
(lp2290
g77
(g98
g79
NtRp2291
(dp2292
g82
(dp2293
g102
g103
ssg91
g2287
sg84
(lp2294
g1281
asbag77
(g98
g79
NtRp2295
(dp2296
g82
(dp2297
g109
g110
ssg91
g2287
sg84
(lp2298
S':'
asbag77
(g98
g79
NtRp2299
(dp2300
g82
(dp2301
sg91
g2287
sg84
(lp2302
g77
(g78
g79
NtRp2303
(dp2304
g82
(dp2305
g90
I4
ssg91
g2299
sg84
(lp2306
g77
(g86
g79
NtRp2307
(dp2308
g82
(dp2309
g90
I3
ssg91
Nsg84
(lp2310
sbasbasbasbag77
(g93
g79
NtRp2311
(dp2312
g82
(dp2313
sg91
g2242
sg84
(lp2314
g77
(g98
g79
NtRp2315
(dp2316
g82
(dp2317
g102
g103
ssg91
g2311
sg84
(lp2318
g1306
asbag77
(g98
g79
NtRp2319
(dp2320
g82
(dp2321
g109
g110
ssg91
g2311
sg84
(lp2322
S':'
asbag77
(g98
g79
NtRp2323
(dp2324
g82
(dp2325
sg91
g2311
sg84
(lp2326
g77
(g78
g79
NtRp2327
(dp2328
g82
(dp2329
g90
I4
ssg91
g2323
sg84
(lp2330
S"<Values at 0xa5e5b8c: {'verbose': False, 'ip': '127.0.0.1', 'shutdown_timeout': 5, 'taskbar': False, 'nocron': False, 'pid_filename': 'httpserver.pid', 'maxthreads': None, 'softcron': False, 'server_name': 'ubuntu', 'bpython': False, 'nogui': False, 'port': 8000, 'extcron': False, 'debuglevel': 30, 'test': None, 'folder': '/home/iscott/web/web2py', 'config': '', 'import_models': False, 'winservice': '', 'shell': None, 'run': '', 'log_filename': 'httpserver.log', 'args': [''], 'socket_timeout': 1, 'ssl_ca_certificate': None, 'scheduler': None, 'profiler_filename': None, 'ssl_private_key': '', 'password': '<ask>', 'request_queue_size': 5, 'ssl_certificate': '', 'cronjob': False, 'numthreads': None, 'quiet': False, 'interfaces': None, 'minthreads': None, 'timeout': 10, 'plain': False, 'nobanner': False}>"
p2331
asbasbasbag77
(g93
g79
NtRp2332
(dp2333
g82
(dp2334
sg91
g2242
sg84
(lp2335
g77
(g98
g79
NtRp2336
(dp2337
g82
(dp2338
g102
g103
ssg91
g2332
sg84
(lp2339
g1328
asbag77
(g98
g79
NtRp2340
(dp2341
g82
(dp2342
g109
g110
ssg91
g2332
sg84
(lp2343
S':'
asbag77
(g98
g79
NtRp2344
(dp2345
g82
(dp2346
sg91
g2332
sg84
(lp2347
g77
(g78
g79
NtRp2348
(dp2349
g82
(dp2350
g90
I4
ssg91
g2344
sg84
(lp2351
S'set([])'
p2352
asbasbasbag77
(g93
g79
NtRp2353
(dp2354
g82
(dp2355
sg91
g2242
sg84
(lp2356
g77
(g98
g79
NtRp2357
(dp2358
g82
(dp2359
g102
g103
ssg91
g2353
sg84
(lp2360
g1350
asbag77
(g98
g79
NtRp2361
(dp2362
g82
(dp2363
g109
g110
ssg91
g2353
sg84
(lp2364
S':'
asbag77
(g98
g79
NtRp2365
(dp2366
g82
(dp2367
sg91
g2353
sg84
(lp2368
g77
(g78
g79
NtRp2369
(dp2370
g82
(dp2371
g90
I4
ssg91
g2365
sg84
(lp2372
g120
asbasbasbag77
(g93
g79
NtRp2373
(dp2374
g82
(dp2375
sg91
g2242
sg84
(lp2376
g77
(g98
g79
NtRp2377
(dp2378
g82
(dp2379
g102
g103
ssg91
g2373
sg84
(lp2380
g1371
asbag77
(g98
g79
NtRp2381
(dp2382
g82
(dp2383
g109
g110
ssg91
g2373
sg84
(lp2384
S':'
asbag77
(g98
g79
NtRp2385
(dp2386
g82
(dp2387
sg91
g2373
sg84
(lp2388
g77
(g78
g79
NtRp2389
(dp2390
g82
(dp2391
g90
I4
ssg91
g2385
sg84
(lp2392
g1384
asbasbasbag77
(g93
g79
NtRp2393
(dp2394
g82
(dp2395
sg91
g2242
sg84
(lp2396
g77
(g98
g79
NtRp2397
(dp2398
g82
(dp2399
g102
g103
ssg91
g2393
sg84
(lp2400
g1547
asbag77
(g98
g79
NtRp2401
(dp2402
g82
(dp2403
g109
g110
ssg91
g2393
sg84
(lp2404
S':'
asbag77
(g98
g79
NtRp2405
(dp2406
g82
(dp2407
sg91
g2393
sg84
(lp2408
g77
(g78
g79
NtRp2409
(dp2410
g82
(dp2411
g90
I4
ssg91
g2405
sg84
(lp2412
g120
asbasbasbag77
(g93
g79
NtRp2413
(dp2414
g82
(dp2415
sg91
g2242
sg84
(lp2416
g77
(g98
g79
NtRp2417
(dp2418
g82
(dp2419
g102
g103
ssg91
g2413
sg84
(lp2420
g1568
asbag77
(g98
g79
NtRp2421
(dp2422
g82
(dp2423
g109
g110
ssg91
g2413
sg84
(lp2424
S':'
asbag77
(g98
g79
NtRp2425
(dp2426
g82
(dp2427
sg91
g2413
sg84
(lp2428
g77
(g78
g79
NtRp2429
(dp2430
g82
(dp2431
g90
I4
ssg91
g2425
sg84
(lp2432
g120
asbasbasbag77
(g93
g79
NtRp2433
(dp2434
g82
(dp2435
sg91
g2242
sg84
(lp2436
g77
(g98
g79
NtRp2437
(dp2438
g82
(dp2439
g102
g103
ssg91
g2433
sg84
(lp2440
g1806
asbag77
(g98
g79
NtRp2441
(dp2442
g82
(dp2443
g109
g110
ssg91
g2433
sg84
(lp2444
S':'
asbag77
(g98
g79
NtRp2445
(dp2446
g82
(dp2447
sg91
g2433
sg84
(lp2448
g77
(g78
g79
NtRp2449
(dp2450
g82
(dp2451
g90
I4
ssg91
g2445
sg84
(lp2452
g1819
asbasbasbag77
(g93
g79
NtRp2453
(dp2454
g82
(dp2455
sg91
g2242
sg84
(lp2456
g77
(g98
g79
NtRp2457
(dp2458
g82
(dp2459
g102
g103
ssg91
g2453
sg84
(lp2460
g1849
asbag77
(g98
g79
NtRp2461
(dp2462
g82
(dp2463
g109
g110
ssg91
g2453
sg84
(lp2464
S':'
asbag77
(g98
g79
NtRp2465
(dp2466
g82
(dp2467
sg91
g2453
sg84
(lp2468
g77
(g78
g79
NtRp2469
(dp2470
g82
(dp2471
g90
I4
ssg91
g2465
sg84
(lp2472
g77
(g86
g79
NtRp2473
(dp2474
g82
(dp2475
g90
I3
ssg91
Nsg84
(lp2476
g77
(g93
g79
NtRp2477
(dp2478
g82
(dp2479
sg91
g2473
sg84
(lp2480
g77
(g98
g79
NtRp2481
(dp2482
g82
(dp2483
sg91
g2477
sg84
(lp2484
g77
(g78
g79
NtRp2485
(dp2486
g82
(dp2487
g90
I3
ssg91
g2481
sg84
(lp2488
S'1'
asbasbasbag77
(g93
g79
NtRp2489
(dp2490
g82
(dp2491
sg91
g2473
sg84
(lp2492
g77
(g98
g79
NtRp2493
(dp2494
g82
(dp2495
sg91
g2489
sg84
(lp2496
g77
(g78
g79
NtRp2497
(dp2498
g82
(dp2499
g90
I3
ssg91
g2493
sg84
(lp2500
S'99'
p2501
asbasbasbag77
(g93
g79
NtRp2502
(dp2503
g82
(dp2504
sg91
g2473
sg84
(lp2505
g77
(g98
g79
NtRp2506
(dp2507
g82
(dp2508
sg91
g2502
sg84
(lp2509
g77
(g78
g79
NtRp2510
(dp2511
g82
(dp2512
g90
I3
ssg91
g2506
sg84
(lp2513
S'4'
asbasbasbag77
(g93
g79
NtRp2514
(dp2515
g82
(dp2516
sg91
g2473
sg84
(lp2517
g77
(g98
g79
NtRp2518
(dp2519
g82
(dp2520
sg91
g2514
sg84
(lp2521
g77
(g78
g79
NtRp2522
(dp2523
g82
(dp2524
g90
I3
ssg91
g2518
sg84
(lp2525
S'datetime.datetime(2011, 12, 14, 14, 46, 14)'
p2526
asbasbasbag77
(g93
g79
NtRp2527
(dp2528
g82
(dp2529
sg91
g2473
sg84
(lp2530
g77
(g98
g79
NtRp2531
(dp2532
g82
(dp2533
sg91
g2527
sg84
(lp2534
g77
(g78
g79
NtRp2535
(dp2536
g82
(dp2537
g90
I3
ssg91
g2531
sg84
(lp2538
g1928
asbasbasbasbasbasbasbasbasbasbasbag77
(g93
g79
NtRp2539
(dp2540
g82
(dp2541
sg91
g87
sg84
(lp2542
g77
(g98
g79
NtRp2543
(dp2544
g82
(dp2545
g102
g103
ssg91
g2539
sg84
(lp2546
S'is_https'
p2547
asbag77
(g98
g79
NtRp2548
(dp2549
g82
(dp2550
g109
g110
ssg91
g2539
sg84
(lp2551
S':'
asbag77
(g98
g79
NtRp2552
(dp2553
g82
(dp2554
sg91
g2539
sg84
(lp2555
g77
(g78
g79
NtRp2556
(dp2557
g82
(dp2558
g90
I5
ssg91
g2552
sg84
(lp2559
g120
asbasbasbag77
(g93
g79
NtRp2560
(dp2561
g82
(dp2562
sg91
g87
sg84
(lp2563
g77
(g98
g79
NtRp2564
(dp2565
g82
(dp2566
g102
g103
ssg91
g2560
sg84
(lp2567
S'is_local'
p2568
asbag77
(g98
g79
NtRp2569
(dp2570
g82
(dp2571
g109
g110
ssg91
g2560
sg84
(lp2572
S':'
asbag77
(g98
g79
NtRp2573
(dp2574
g82
(dp2575
sg91
g2560
sg84
(lp2576
g77
(g78
g79
NtRp2577
(dp2578
g82
(dp2579
g90
I5
ssg91
g2573
sg84
(lp2580
g2037
asbasbasbag77
(g93
g79
NtRp2581
(dp2582
g82
(dp2583
sg91
g87
sg84
(lp2584
g77
(g98
g79
NtRp2585
(dp2586
g82
(dp2587
g102
g103
ssg91
g2581
sg84
(lp2588
S'is_restful'
p2589
asbag77
(g98
g79
NtRp2590
(dp2591
g82
(dp2592
g109
g110
ssg91
g2581
sg84
(lp2593
S':'
asbag77
(g98
g79
NtRp2594
(dp2595
g82
(dp2596
sg91
g2581
sg84
(lp2597
g77
(g78
g79
NtRp2598
(dp2599
g82
(dp2600
g90
I5
ssg91
g2594
sg84
(lp2601
g120
asbasbasbag77
(g93
g79
NtRp2602
(dp2603
g82
(dp2604
sg91
g87
sg84
(lp2605
g77
(g98
g79
NtRp2606
(dp2607
g82
(dp2608
g102
g103
ssg91
g2602
sg84
(lp2609
S'now'
p2610
asbag77
(g98
g79
NtRp2611
(dp2612
g82
(dp2613
g109
g110
ssg91
g2602
sg84
(lp2614
S':'
asbag77
(g98
g79
NtRp2615
(dp2616
g82
(dp2617
sg91
g2602
sg84
(lp2618
g77
(g78
g79
NtRp2619
(dp2620
g82
(dp2621
g90
I5
ssg91
g2615
sg84
(lp2622
S'datetime.datetime(2012, 3, 6, 8, 3, 42, 411622)'
p2623
asbasbasbag77
(g93
g79
NtRp2624
(dp2625
g82
(dp2626
sg91
g87
sg84
(lp2627
g77
(g98
g79
NtRp2628
(dp2629
g82
(dp2630
g102
g103
ssg91
g2624
sg84
(lp2631
S'post_vars'
p2632
asbag77
(g98
g79
NtRp2633
(dp2634
g82
(dp2635
g109
g110
ssg91
g2624
sg84
(lp2636
S':'
asbag77
(g98
g79
NtRp2637
(dp2638
g82
(dp2639
sg91
g2624
sg84
(lp2640
g77
(g78
g79
NtRp2641
(dp2642
g82
(dp2643
g90
I5
ssg91
g2637
sg84
(lp2644
g77
(g86
g79
NtRp2645
(dp2646
g82
(dp2647
g90
I4
ssg91
Nsg84
(lp2648
sbasbasbasbag77
(g93
g79
NtRp2649
(dp2650
g82
(dp2651
sg91
g87
sg84
(lp2652
g77
(g98
g79
NtRp2653
(dp2654
g82
(dp2655
g102
g103
ssg91
g2649
sg84
(lp2656
S'raw_args'
p2657
asbag77
(g98
g79
NtRp2658
(dp2659
g82
(dp2660
g109
g110
ssg91
g2649
sg84
(lp2661
S':'
asbag77
(g98
g79
NtRp2662
(dp2663
g82
(dp2664
sg91
g2649
sg84
(lp2665
g77
(g78
g79
NtRp2666
(dp2667
g82
(dp2668
g90
I5
ssg91
g2662
sg84
(lp2669
g179
asbasbasbag77
(g93
g79
NtRp2670
(dp2671
g82
(dp2672
sg91
g87
sg84
(lp2673
g77
(g98
g79
NtRp2674
(dp2675
g82
(dp2676
g102
g103
ssg91
g2670
sg84
(lp2677
S'url'
p2678
asbag77
(g98
g79
NtRp2679
(dp2680
g82
(dp2681
g109
g110
ssg91
g2670
sg84
(lp2682
S':'
asbag77
(g98
g79
NtRp2683
(dp2684
g82
(dp2685
sg91
g2670
sg84
(lp2686
g77
(g78
g79
NtRp2687
(dp2688
g82
(dp2689
g90
I5
ssg91
g2683
sg84
(lp2690
S'/grammateus3/docs/test/3Macc'
p2691
asbasbasbag77
(g93
g79
NtRp2692
(dp2693
g82
(dp2694
sg91
g87
sg84
(lp2695
g77
(g98
g79
NtRp2696
(dp2697
g82
(dp2698
g102
g103
ssg91
g2692
sg84
(lp2699
S'utcnow'
p2700
asbag77
(g98
g79
NtRp2701
(dp2702
g82
(dp2703
g109
g110
ssg91
g2692
sg84
(lp2704
S':'
asbag77
(g98
g79
NtRp2705
(dp2706
g82
(dp2707
sg91
g2692
sg84
(lp2708
g77
(g78
g79
NtRp2709
(dp2710
g82
(dp2711
g90
I5
ssg91
g2705
sg84
(lp2712
S'datetime.datetime(2012, 3, 6, 13, 3, 42, 411660)'
p2713
asbasbasbag77
(g93
g79
NtRp2714
(dp2715
g82
(dp2716
sg91
g87
sg84
(lp2717
g77
(g98
g79
NtRp2718
(dp2719
g82
(dp2720
g102
g103
ssg91
g2714
sg84
(lp2721
S'uuid'
p2722
asbag77
(g98
g79
NtRp2723
(dp2724
g82
(dp2725
g109
g110
ssg91
g2714
sg84
(lp2726
S':'
asbag77
(g98
g79
NtRp2727
(dp2728
g82
(dp2729
sg91
g2714
sg84
(lp2730
g77
(g78
g79
NtRp2731
(dp2732
g82
(dp2733
g90
I5
ssg91
g2727
sg84
(lp2734
S'grammateus3/127.0.0.1.2012-03-06.08-03-42.c36f2907-0e06-4daa-895c-78c66d9feefa'
p2735
asbasbasbag77
(g93
g79
NtRp2736
(dp2737
g82
(dp2738
sg91
g87
sg84
(lp2739
g77
(g98
g79
NtRp2740
(dp2741
g82
(dp2742
g102
g103
ssg91
g2736
sg84
(lp2743
S'vars'
p2744
asbag77
(g98
g79
NtRp2745
(dp2746
g82
(dp2747
g109
g110
ssg91
g2736
sg84
(lp2748
S':'
asbag77
(g98
g79
NtRp2749
(dp2750
g82
(dp2751
sg91
g2736
sg84
(lp2752
g77
(g78
g79
NtRp2753
(dp2754
g82
(dp2755
g90
I5
ssg91
g2749
sg84
(lp2756
g77
(g86
g79
NtRp2757
(dp2758
g82
(dp2759
g90
I4
ssg91
Nsg84
(lp2760
sbasbasbasbag77
(g93
g79
NtRp2761
(dp2762
g82
(dp2763
sg91
g87
sg84
(lp2764
g77
(g98
g79
NtRp2765
(dp2766
g82
(dp2767
g102
g103
ssg91
g2761
sg84
(lp2768
S'wsgi'
p2769
asbag77
(g98
g79
NtRp2770
(dp2771
g82
(dp2772
g109
g110
ssg91
g2761
sg84
(lp2773
S':'
asbag77
(g98
g79
NtRp2774
(dp2775
g82
(dp2776
sg91
g2761
sg84
(lp2777
g77
(g78
g79
NtRp2778
(dp2779
g82
(dp2780
g90
I5
ssg91
g2774
sg84
(lp2781
g77
(g86
g79
NtRp2782
(dp2783
g82
(dp2784
g90
I4
ssg91
Nsg84
(lp2785
g77
(g93
g79
NtRp2786
(dp2787
g82
(dp2788
sg91
g2782
sg84
(lp2789
g77
(g98
g79
NtRp2790
(dp2791
g82
(dp2792
g102
g103
ssg91
g2786
sg84
(lp2793
S'environ'
p2794
asbag77
(g98
g79
NtRp2795
(dp2796
g82
(dp2797
g109
g110
ssg91
g2786
sg84
(lp2798
S':'
asbag77
(g98
g79
NtRp2799
(dp2800
g82
(dp2801
sg91
g2786
sg84
(lp2802
g77
(g78
g79
NtRp2803
(dp2804
g82
(dp2805
g90
I4
ssg91
g2799
sg84
(lp2806
g77
(g86
g79
NtRp2807
(dp2808
g82
(dp2809
g90
I3
ssg91
Nsg84
(lp2810
g77
(g93
g79
NtRp2811
(dp2812
g82
(dp2813
sg91
g2807
sg84
(lp2814
g77
(g98
g79
NtRp2815
(dp2816
g82
(dp2817
g102
g103
ssg91
g2811
sg84
(lp2818
S'HTTP_ACCEPT'
p2819
asbag77
(g98
g79
NtRp2820
(dp2821
g82
(dp2822
g109
g110
ssg91
g2811
sg84
(lp2823
S':'
asbag77
(g98
g79
NtRp2824
(dp2825
g82
(dp2826
sg91
g2811
sg84
(lp2827
g77
(g78
g79
NtRp2828
(dp2829
g82
(dp2830
g90
I3
ssg91
g2824
sg84
(lp2831
g1406
asbasbasbag77
(g93
g79
NtRp2832
(dp2833
g82
(dp2834
sg91
g2807
sg84
(lp2835
g77
(g98
g79
NtRp2836
(dp2837
g82
(dp2838
g102
g103
ssg91
g2832
sg84
(lp2839
S'HTTP_ACCEPT_ENCODING'
p2840
asbag77
(g98
g79
NtRp2841
(dp2842
g82
(dp2843
g109
g110
ssg91
g2832
sg84
(lp2844
S':'
asbag77
(g98
g79
NtRp2845
(dp2846
g82
(dp2847
sg91
g2832
sg84
(lp2848
g77
(g78
g79
NtRp2849
(dp2850
g82
(dp2851
g90
I3
ssg91
g2845
sg84
(lp2852
g1428
asbasbasbag77
(g93
g79
NtRp2853
(dp2854
g82
(dp2855
sg91
g2807
sg84
(lp2856
g77
(g98
g79
NtRp2857
(dp2858
g82
(dp2859
g102
g103
ssg91
g2853
sg84
(lp2860
S'HTTP_ACCEPT_LANGUAGE'
p2861
asbag77
(g98
g79
NtRp2862
(dp2863
g82
(dp2864
g109
g110
ssg91
g2853
sg84
(lp2865
S':'
asbag77
(g98
g79
NtRp2866
(dp2867
g82
(dp2868
sg91
g2853
sg84
(lp2869
g77
(g78
g79
NtRp2870
(dp2871
g82
(dp2872
g90
I3
ssg91
g2866
sg84
(lp2873
g1450
asbasbasbag77
(g93
g79
NtRp2874
(dp2875
g82
(dp2876
sg91
g2807
sg84
(lp2877
g77
(g98
g79
NtRp2878
(dp2879
g82
(dp2880
g102
g103
ssg91
g2874
sg84
(lp2881
S'HTTP_CONNECTION'
p2882
asbag77
(g98
g79
NtRp2883
(dp2884
g82
(dp2885
g109
g110
ssg91
g2874
sg84
(lp2886
S':'
asbag77
(g98
g79
NtRp2887
(dp2888
g82
(dp2889
sg91
g2874
sg84
(lp2890
g77
(g78
g79
NtRp2891
(dp2892
g82
(dp2893
g90
I3
ssg91
g2887
sg84
(lp2894
g1472
asbasbasbag77
(g93
g79
NtRp2895
(dp2896
g82
(dp2897
sg91
g2807
sg84
(lp2898
g77
(g98
g79
NtRp2899
(dp2900
g82
(dp2901
g102
g103
ssg91
g2895
sg84
(lp2902
S'HTTP_COOKIE'
p2903
asbag77
(g98
g79
NtRp2904
(dp2905
g82
(dp2906
g109
g110
ssg91
g2895
sg84
(lp2907
S':'
asbag77
(g98
g79
NtRp2908
(dp2909
g82
(dp2910
sg91
g2895
sg84
(lp2911
g77
(g78
g79
NtRp2912
(dp2913
g82
(dp2914
g90
I3
ssg91
g2908
sg84
(lp2915
g1494
asbasbasbag77
(g93
g79
NtRp2916
(dp2917
g82
(dp2918
sg91
g2807
sg84
(lp2919
g77
(g98
g79
NtRp2920
(dp2921
g82
(dp2922
g102
g103
ssg91
g2916
sg84
(lp2923
S'HTTP_HOST'
p2924
asbag77
(g98
g79
NtRp2925
(dp2926
g82
(dp2927
g109
g110
ssg91
g2916
sg84
(lp2928
S':'
asbag77
(g98
g79
NtRp2929
(dp2930
g82
(dp2931
sg91
g2916
sg84
(lp2932
g77
(g78
g79
NtRp2933
(dp2934
g82
(dp2935
g90
I3
ssg91
g2929
sg84
(lp2936
g1516
asbasbasbag77
(g93
g79
NtRp2937
(dp2938
g82
(dp2939
sg91
g2807
sg84
(lp2940
g77
(g98
g79
NtRp2941
(dp2942
g82
(dp2943
g102
g103
ssg91
g2937
sg84
(lp2944
S'HTTP_USER_AGENT'
p2945
asbag77
(g98
g79
NtRp2946
(dp2947
g82
(dp2948
g109
g110
ssg91
g2937
sg84
(lp2949
S':'
asbag77
(g98
g79
NtRp2950
(dp2951
g82
(dp2952
sg91
g2937
sg84
(lp2953
g77
(g78
g79
NtRp2954
(dp2955
g82
(dp2956
g90
I3
ssg91
g2950
sg84
(lp2957
g1538
asbasbasbag77
(g93
g79
NtRp2958
(dp2959
g82
(dp2960
sg91
g2807
sg84
(lp2961
g77
(g98
g79
NtRp2962
(dp2963
g82
(dp2964
g102
g103
ssg91
g2958
sg84
(lp2965
S'PATH_INFO'
p2966
asbag77
(g98
g79
NtRp2967
(dp2968
g82
(dp2969
g109
g110
ssg91
g2958
sg84
(lp2970
S':'
asbag77
(g98
g79
NtRp2971
(dp2972
g82
(dp2973
sg91
g2958
sg84
(lp2974
g77
(g78
g79
NtRp2975
(dp2976
g82
(dp2977
g90
I3
ssg91
g2971
sg84
(lp2978
g1602
asbasbasbag77
(g93
g79
NtRp2979
(dp2980
g82
(dp2981
sg91
g2807
sg84
(lp2982
g77
(g98
g79
NtRp2983
(dp2984
g82
(dp2985
g102
g103
ssg91
g2979
sg84
(lp2986
S'QUERY_STRING'
p2987
asbag77
(g98
g79
NtRp2988
(dp2989
g82
(dp2990
g109
g110
ssg91
g2979
sg84
(lp2991
S':'
asbag77
(g98
g79
NtRp2992
(dp2993
g82
(dp2994
sg91
g2979
sg84
(lp2995
g77
(g78
g79
NtRp2996
(dp2997
g82
(dp2998
g90
I3
ssg91
g2992
sg84
(lp2999
S''
asbasbasbag77
(g93
g79
NtRp3000
(dp3001
g82
(dp3002
sg91
g2807
sg84
(lp3003
g77
(g98
g79
NtRp3004
(dp3005
g82
(dp3006
g102
g103
ssg91
g3000
sg84
(lp3007
S'REMOTE_ADDR'
p3008
asbag77
(g98
g79
NtRp3009
(dp3010
g82
(dp3011
g109
g110
ssg91
g3000
sg84
(lp3012
S':'
asbag77
(g98
g79
NtRp3013
(dp3014
g82
(dp3015
sg91
g3000
sg84
(lp3016
g77
(g78
g79
NtRp3017
(dp3018
g82
(dp3019
g90
I3
ssg91
g3013
sg84
(lp3020
g223
asbasbasbag77
(g93
g79
NtRp3021
(dp3022
g82
(dp3023
sg91
g2807
sg84
(lp3024
g77
(g98
g79
NtRp3025
(dp3026
g82
(dp3027
g102
g103
ssg91
g3021
sg84
(lp3028
S'REMOTE_PORT'
p3029
asbag77
(g98
g79
NtRp3030
(dp3031
g82
(dp3032
g109
g110
ssg91
g3021
sg84
(lp3033
S':'
asbag77
(g98
g79
NtRp3034
(dp3035
g82
(dp3036
sg91
g3021
sg84
(lp3037
g77
(g78
g79
NtRp3038
(dp3039
g82
(dp3040
g90
I3
ssg91
g3034
sg84
(lp3041
g1666
asbasbasbag77
(g93
g79
NtRp3042
(dp3043
g82
(dp3044
sg91
g2807
sg84
(lp3045
g77
(g98
g79
NtRp3046
(dp3047
g82
(dp3048
g102
g103
ssg91
g3042
sg84
(lp3049
S'REQUEST_METHOD'
p3050
asbag77
(g98
g79
NtRp3051
(dp3052
g82
(dp3053
g109
g110
ssg91
g3042
sg84
(lp3054
S':'
asbag77
(g98
g79
NtRp3055
(dp3056
g82
(dp3057
sg91
g3042
sg84
(lp3058
g77
(g78
g79
NtRp3059
(dp3060
g82
(dp3061
g90
I3
ssg91
g3055
sg84
(lp3062
g1688
asbasbasbag77
(g93
g79
NtRp3063
(dp3064
g82
(dp3065
sg91
g2807
sg84
(lp3066
g77
(g98
g79
NtRp3067
(dp3068
g82
(dp3069
g102
g103
ssg91
g3063
sg84
(lp3070
S'SCRIPT_NAME'
p3071
asbag77
(g98
g79
NtRp3072
(dp3073
g82
(dp3074
g109
g110
ssg91
g3063
sg84
(lp3075
S':'
asbag77
(g98
g79
NtRp3076
(dp3077
g82
(dp3078
sg91
g3063
sg84
(lp3079
g77
(g78
g79
NtRp3080
(dp3081
g82
(dp3082
g90
I3
ssg91
g3076
sg84
(lp3083
S''
asbasbasbag77
(g93
g79
NtRp3084
(dp3085
g82
(dp3086
sg91
g2807
sg84
(lp3087
g77
(g98
g79
NtRp3088
(dp3089
g82
(dp3090
g102
g103
ssg91
g3084
sg84
(lp3091
S'SERVER_NAME'
p3092
asbag77
(g98
g79
NtRp3093
(dp3094
g82
(dp3095
g109
g110
ssg91
g3084
sg84
(lp3096
S':'
asbag77
(g98
g79
NtRp3097
(dp3098
g82
(dp3099
sg91
g3084
sg84
(lp3100
g77
(g78
g79
NtRp3101
(dp3102
g82
(dp3103
g90
I3
ssg91
g3097
sg84
(lp3104
g1731
asbasbasbag77
(g93
g79
NtRp3105
(dp3106
g82
(dp3107
sg91
g2807
sg84
(lp3108
g77
(g98
g79
NtRp3109
(dp3110
g82
(dp3111
g102
g103
ssg91
g3105
sg84
(lp3112
S'SERVER_PORT'
p3113
asbag77
(g98
g79
NtRp3114
(dp3115
g82
(dp3116
g109
g110
ssg91
g3105
sg84
(lp3117
S':'
asbag77
(g98
g79
NtRp3118
(dp3119
g82
(dp3120
sg91
g3105
sg84
(lp3121
g77
(g78
g79
NtRp3122
(dp3123
g82
(dp3124
g90
I3
ssg91
g3118
sg84
(lp3125
g1753
asbasbasbag77
(g93
g79
NtRp3126
(dp3127
g82
(dp3128
sg91
g2807
sg84
(lp3129
g77
(g98
g79
NtRp3130
(dp3131
g82
(dp3132
g102
g103
ssg91
g3126
sg84
(lp3133
S'SERVER_PROTOCOL'
p3134
asbag77
(g98
g79
NtRp3135
(dp3136
g82
(dp3137
g109
g110
ssg91
g3126
sg84
(lp3138
S':'
asbag77
(g98
g79
NtRp3139
(dp3140
g82
(dp3141
sg91
g3126
sg84
(lp3142
g77
(g78
g79
NtRp3143
(dp3144
g82
(dp3145
g90
I3
ssg91
g3139
sg84
(lp3146
g1775
asbasbasbag77
(g93
g79
NtRp3147
(dp3148
g82
(dp3149
sg91
g2807
sg84
(lp3150
g77
(g98
g79
NtRp3151
(dp3152
g82
(dp3153
g102
g103
ssg91
g3147
sg84
(lp3154
S'SERVER_SOFTWARE'
p3155
asbag77
(g98
g79
NtRp3156
(dp3157
g82
(dp3158
g109
g110
ssg91
g3147
sg84
(lp3159
S':'
asbag77
(g98
g79
NtRp3160
(dp3161
g82
(dp3162
sg91
g3147
sg84
(lp3163
g77
(g78
g79
NtRp3164
(dp3165
g82
(dp3166
g90
I3
ssg91
g3160
sg84
(lp3167
g1797
asbasbasbag77
(g93
g79
NtRp3168
(dp3169
g82
(dp3170
sg91
g2807
sg84
(lp3171
g77
(g98
g79
NtRp3172
(dp3173
g82
(dp3174
g102
g103
ssg91
g3168
sg84
(lp3175
S'wsgi.errors'
p3176
asbag77
(g98
g79
NtRp3177
(dp3178
g82
(dp3179
g109
g110
ssg91
g3168
sg84
(lp3180
S':'
asbag77
(g98
g79
NtRp3181
(dp3182
g82
(dp3183
sg91
g3168
sg84
(lp3184
g77
(g78
g79
NtRp3185
(dp3186
g82
(dp3187
g90
I3
ssg91
g3181
sg84
(lp3188
S"<open file '<stderr>', mode 'w' at 0xb777d0d0>"
p3189
asbasbasbag77
(g93
g79
NtRp3190
(dp3191
g82
(dp3192
sg91
g2807
sg84
(lp3193
g77
(g98
g79
NtRp3194
(dp3195
g82
(dp3196
g102
g103
ssg91
g3190
sg84
(lp3197
S'wsgi.file_wrapper'
p3198
asbag77
(g98
g79
NtRp3199
(dp3200
g82
(dp3201
g109
g110
ssg91
g3190
sg84
(lp3202
S':'
asbag77
(g98
g79
NtRp3203
(dp3204
g82
(dp3205
sg91
g3190
sg84
(lp3206
g77
(g78
g79
NtRp3207
(dp3208
g82
(dp3209
g90
I3
ssg91
g3203
sg84
(lp3210
S'<class wsgiref.util.FileWrapper at 0xa52e20c>'
p3211
asbasbasbag77
(g93
g79
NtRp3212
(dp3213
g82
(dp3214
sg91
g2807
sg84
(lp3215
g77
(g98
g79
NtRp3216
(dp3217
g82
(dp3218
g102
g103
ssg91
g3212
sg84
(lp3219
S'wsgi.input'
p3220
asbag77
(g98
g79
NtRp3221
(dp3222
g82
(dp3223
g109
g110
ssg91
g3212
sg84
(lp3224
S':'
asbag77
(g98
g79
NtRp3225
(dp3226
g82
(dp3227
sg91
g3212
sg84
(lp3228
g77
(g78
g79
NtRp3229
(dp3230
g82
(dp3231
g90
I3
ssg91
g3225
sg84
(lp3232
S'<cStringIO.StringO object at 0xaddd980>'
p3233
asbasbasbag77
(g93
g79
NtRp3234
(dp3235
g82
(dp3236
sg91
g2807
sg84
(lp3237
g77
(g98
g79
NtRp3238
(dp3239
g82
(dp3240
g102
g103
ssg91
g3234
sg84
(lp3241
S'wsgi.multiprocess'
p3242
asbag77
(g98
g79
NtRp3243
(dp3244
g82
(dp3245
g109
g110
ssg91
g3234
sg84
(lp3246
S':'
asbag77
(g98
g79
NtRp3247
(dp3248
g82
(dp3249
sg91
g3234
sg84
(lp3250
g77
(g78
g79
NtRp3251
(dp3252
g82
(dp3253
g90
I3
ssg91
g3247
sg84
(lp3254
g120
asbasbasbag77
(g93
g79
NtRp3255
(dp3256
g82
(dp3257
sg91
g2807
sg84
(lp3258
g77
(g98
g79
NtRp3259
(dp3260
g82
(dp3261
g102
g103
ssg91
g3255
sg84
(lp3262
S'wsgi.multithread'
p3263
asbag77
(g98
g79
NtRp3264
(dp3265
g82
(dp3266
g109
g110
ssg91
g3255
sg84
(lp3267
S':'
asbag77
(g98
g79
NtRp3268
(dp3269
g82
(dp3270
sg91
g3255
sg84
(lp3271
g77
(g78
g79
NtRp3272
(dp3273
g82
(dp3274
g90
I3
ssg91
g3268
sg84
(lp3275
g2037
asbasbasbag77
(g93
g79
NtRp3276
(dp3277
g82
(dp3278
sg91
g2807
sg84
(lp3279
g77
(g98
g79
NtRp3280
(dp3281
g82
(dp3282
g102
g103
ssg91
g3276
sg84
(lp3283
S'wsgi.run_once'
p3284
asbag77
(g98
g79
NtRp3285
(dp3286
g82
(dp3287
g109
g110
ssg91
g3276
sg84
(lp3288
S':'
asbag77
(g98
g79
NtRp3289
(dp3290
g82
(dp3291
sg91
g3276
sg84
(lp3292
g77
(g78
g79
NtRp3293
(dp3294
g82
(dp3295
g90
I3
ssg91
g3289
sg84
(lp3296
g120
asbasbasbag77
(g93
g79
NtRp3297
(dp3298
g82
(dp3299
sg91
g2807
sg84
(lp3300
g77
(g98
g79
NtRp3301
(dp3302
g82
(dp3303
g102
g103
ssg91
g3297
sg84
(lp3304
S'wsgi.url_scheme'
p3305
asbag77
(g98
g79
NtRp3306
(dp3307
g82
(dp3308
g109
g110
ssg91
g3297
sg84
(lp3309
S':'
asbag77
(g98
g79
NtRp3310
(dp3311
g82
(dp3312
sg91
g3297
sg84
(lp3313
g77
(g78
g79
NtRp3314
(dp3315
g82
(dp3316
g90
I3
ssg91
g3310
sg84
(lp3317
g2080
asbasbasbag77
(g93
g79
NtRp3318
(dp3319
g82
(dp3320
sg91
g2807
sg84
(lp3321
g77
(g98
g79
NtRp3322
(dp3323
g82
(dp3324
g102
g103
ssg91
g3318
sg84
(lp3325
S'wsgi.version'
p3326
asbag77
(g98
g79
NtRp3327
(dp3328
g82
(dp3329
g109
g110
ssg91
g3318
sg84
(lp3330
S':'
asbag77
(g98
g79
NtRp3331
(dp3332
g82
(dp3333
sg91
g3318
sg84
(lp3334
g77
(g78
g79
NtRp3335
(dp3336
g82
(dp3337
g90
I3
ssg91
g3331
sg84
(lp3338
S'1'
asbasbasbasbasbasbasbasbasbasbasbasbasbsS'frames'
p3339
(lp3340
(dp3341
S'file'
p3342
S'/home/iscott/web/web2py/gluon/restricted.py'
p3343
sS'dump'
p3344
(dp3345
S'environment'
p3346
S"{'A': <class 'gluon.html.A'>, 'Auth': <class 'gluon.tools.Auth'>, 'B': <class 'gluon.html.B'>, 'BEAUTIFY': <class 'gluon.html.BEAUTIFY'>, 'BODY': <class 'gluon.html.BODY'>, 'BR': <class 'gluon.html.BR'>, 'BUTTON': <class 'gluon.html.BUTTON'>, 'BookParser': <class 'applications.grammateus3.modules.parse.BookParser'>, 'CAT': <class 'gluon.html.CAT'>, 'CENTER': <class 'gluon.html.CENTER'>, ...}"
p3347
sS'ccode'
p3348
S'<code object <module> at 0xad6f9f8, file "/home/...cations/grammateus3/controllers/docs.py", line 2>'
p3349
ssS'lnum'
p3350
I204
sS'lines'
p3351
(dp3352
I199
S'    try:'
p3353
sI200
S'        if type(code) == types.CodeType:'
p3354
sI201
S'            ccode = code'
p3355
sI202
S'        else:'
p3356
sI203
S'            ccode = compile2(code,layer)'
p3357
sI204
S'        exec ccode in environment'
p3358
sI205
S'    except HTTP:'
p3359
sI206
S'        raise'
p3360
sI207
S'    except RestrictedError:'
p3361
sI208
S'        # do not encapsulate (obfuscate) the original RestrictedError'
p3362
ssS'call'
p3363
S"(code='# coding: utf8\\nfrom lxml import etree\\n\\nfrom pars...o = info)\\n\\nresponse._vars=response._caller(test)\\n', environment={'A': <class 'gluon.html.A'>, 'Auth': <class 'gluon.tools.Auth'>, 'B': <class 'gluon.html.B'>, 'BEAUTIFY': <class 'gluon.html.BEAUTIFY'>, 'BODY': <class 'gluon.html.BODY'>, 'BR': <class 'gluon.html.BR'>, 'BUTTON': <class 'gluon.html.BUTTON'>, 'BookParser': <class 'applications.grammateus3.modules.parse.BookParser'>, 'CAT': <class 'gluon.html.CAT'>, 'CENTER': <class 'gluon.html.CENTER'>, ...}, layer='/home/iscott/web/web2py/applications/grammateus3/controllers/docs.py')"
p3364
sS'func'
p3365
S'restricted'
p3366
sa(dp3367
g3342
S'/home/iscott/web/web2py/applications/grammateus3/controllers/docs.py'
p3368
sg3344
(dp3369
sg3350
I38
sg3351
(dp3370
I32
S"        print '************'"
p3371
sI33
S'    print'
p3372
sI34
S'    print'
p3373
sI35
S''
sI36
S'    return dict(title = title, info = info)'
p3374
sI27
S"                print 'Version textstructure'"
p3375
sI28
S'                for ref, ref_val in value.items():'
p3376
sI29
S'                    for unit, unit_val in ref_val.items():'
p3377
sI30
S'                        for mss, mss_val in unit_val.items():'
p3378
sI31
S"                            print '\\t', ref, '-->', unit, '-->', mss, '-->', mss_val"
p3379
ssg3363
S'()'
p3380
sg3365
S'<module>'
p3381
sa(dp3382
g3342
S'/home/iscott/web/web2py/gluon/globals.py'
p3383
sg3344
(dp3384
S'self'
p3385
S'undefined'
p3386
sS'f'
S'<function test>'
p3387
ssg3350
I172
sg3351
(dp3388
I167
S'        self.meta = Storage()      # used by web2py_ajax.html'
p3389
sI168
S'        self.menu = []             # used by the default view layout'
p3390
sI169
S'        self.files = []            # used by web2py_ajax.html'
p3391
sI170
S'        self.generic_patterns = [] # patterns to allow generic views'
p3392
sI171
S'        self._vars = None'
p3393
sI172
S'        self._caller = lambda f: f()'
p3394
sI173
S'        self._view_environment = None'
p3395
sI174
S'        self._custom_commit = None'
p3396
sI175
S'        self._custom_rollback = None'
p3397
sI176
S''
ssg3363
S'(f=<function test>)'
p3398
sg3365
S'<lambda>'
p3399
sa(dp3400
g3342
S'/home/iscott/web/web2py/applications/grammateus3/controllers/docs.py'
p3401
sg3344
(dp3402
S'p'
g3386
sS'global BookParser'
p3403
S"<class 'applications.grammateus3.modules.parse.BookParser'>"
p3404
sS'book_file'
p3405
S"'applications/grammateus3/static/docs/3Macc.xml'"
p3406
ssg3350
I17
sg3351
(dp3407
I12
S'    return dict(filename = filename)'
p3408
sI13
S''
sI14
S'def test():'
p3409
sI15
S'    filename = request.args[0]'
p3410
sI16
S"    book_file = 'applications/grammateus3/static/docs/%s.xml' % filename"
p3411
sI17
S'    p = BookParser(book_file)'
p3412
sI18
S'    info = p.book_info()'
p3413
sI19
S''
sI20
S"    title = info['title']"
p3414
sI21
S"    for version in info['versions']:"
p3415
ssg3363
S'()'
p3416
sg3365
S'test'
p3417
sa(dp3418
g3342
S'/home/iscott/web/web2py/applications/grammateus3/modules/parse.py'
p3419
sg3344
(dp3420
S'xml_file'
p3421
S"'applications/grammateus3/static/docs/3Macc.xml'"
p3422
sS'self'
p3423
S'<applications.grammateus3.modules.parse.BookParser object>'
p3424
sS'parser'
p3425
S'<lxml.etree.XMLParser object>'
p3426
sS'self.tree'
p3427
g3386
sS'global etree'
p3428
S"<module 'lxml.etree' from '/usr/lib/python2.7/dist-packages/lxml/etree.so'>"
p3429
sS'etree.parse'
p3430
S'<built-in function parse>'
p3431
ssg3350
I25
sg3351
(dp3432
I20
S'        self.xml_file = xml_file'
p3433
sI21
S''
sI22
S'        # Validate document against its schema'
p3434
sI23
S'        parser = etree.XMLParser(dtd_validation=True)'
p3435
sI24
S'        try:'
p3436
sI25
S'            self.tree = etree.parse(xml_file, parser)'
p3437
sI26
S'        except etree.XMLSyntaxError:'
p3438
sI27
S"            print 'Document does not validate against its schema: %s' % xml_file"
p3439
sI28
S'            raise   # Just reraise for now'
p3440
sI29
S''
ssg3363
S"(self=<applications.grammateus3.modules.parse.BookParser object>, xml_file='applications/grammateus3/static/docs/3Macc.xml')"
p3441
sg3365
g28
sa(dp3442
g3342
S'/home/iscott/web/web2py/lxml.etree.pyx'
p3443
sg3344
(dp3444
sg3350
I2942
sg3351
(dp3445
sg3363
S'()'
p3446
sg3365
S'lxml.etree.parse (src/lxml/lxml.etree.c:54187)'
p3447
sa(dp3448
g3342
S'/home/iscott/web/web2py/parser.pxi'
p3449
sg3344
(dp3450
sg3350
I1528
sg3351
(dp3451
sg3363
S'()'
p3452
sg3365
S'lxml.etree._parseDocument (src/lxml/lxml.etree.c:79485)'
p3453
sa(dp3454
g3342
S'/home/iscott/web/web2py/parser.pxi'
p3455
sg3344
(dp3456
sg3350
I1557
sg3351
(dp3457
sg3363
S'()'
p3458
sg3365
S'lxml.etree._parseDocumentFromURL (src/lxml/lxml.etree.c:79768)'
p3459
sa(dp3460
g3342
S'/home/iscott/web/web2py/parser.pxi'
p3461
sg3344
(dp3462
sg3350
I1457
sg3351
(dp3463
sg3363
S'()'
p3464
sg3365
S'lxml.etree._parseDocFromFile (src/lxml/lxml.etree.c:78843)'
p3465
sa(dp3466
g3342
S'/home/iscott/web/web2py/parser.pxi'
p3467
sg3344
(dp3468
sg3350
I997
sg3351
(dp3469
sg3363
S'()'
p3470
sg3365
S'lxml.etree._BaseParser._parseDocFromFile (src/lxml/lxml.etree.c:75698)'
p3471
sa(dp3472
g3342
S'/home/iscott/web/web2py/parser.pxi'
p3473
sg3344
(dp3474
sg3350
I564
sg3351
(dp3475
sg3363
S'()'
p3476
sg3365
S'lxml.etree._ParserContext._handleParseResultDoc (src/lxml/lxml.etree.c:71739)'
p3477
sa(dp3478
g3342
S'/home/iscott/web/web2py/parser.pxi'
p3479
sg3344
(dp3480
sg3350
I645
sg3351
(dp3481
sg3363
S'()'
p3482
sg3365
S'lxml.etree._handleParseResult (src/lxml/lxml.etree.c:72614)'
p3483
sa(dp3484
g3342
S'/home/iscott/web/web2py/parser.pxi'
p3485
sg3344
(dp3486
sg3350
I585
sg3351
(dp3487
sg3363
S'()'
p3488
sg3365
S'lxml.etree._raiseParseError (src/lxml/lxml.etree.c:71955)'
p3489
sasS'pyver'
p3490
S'Python 2.7.2+: /usr/bin/python2.7'
p3491
sS'session'
p3492
g77
(g78
g79
NtRp3493
(dp3494
g82
(dp3495
sg84
(lp3496
g77
(g86
g79
NtRp3497
(dp3498
g82
(dp3499
g90
I5
ssg91
Nsg84
(lp3500
sbasbsS'etype'
p3501
S"<class 'lxml.etree.XMLSyntaxError'>"
p3502
sS'date'
p3503
S'Tue Mar  6 08:03:42 2012'
p3504
sS'response'
p3505
g77
(g78
g79
NtRp3506
(dp3507
g82
(dp3508
sg84
(lp3509
g77
(g86
g79
NtRp3510
(dp3511
g82
(dp3512
g90
I5
ssg91
Nsg84
(lp3513
g77
(g93
g79
NtRp3514
(dp3515
g82
(dp3516
sg91
g3510
sg84
(lp3517
g77
(g98
g79
NtRp3518
(dp3519
g82
(dp3520
g102
g103
ssg91
g3514
sg84
(lp3521
g188
asbag77
(g98
g79
NtRp3522
(dp3523
g82
(dp3524
g109
g110
ssg91
g3514
sg84
(lp3525
S':'
asbag77
(g98
g79
NtRp3526
(dp3527
g82
(dp3528
sg91
g3514
sg84
(lp3529
g77
(g78
g79
NtRp3530
(dp3531
g82
(dp3532
g90
I5
ssg91
g3526
sg84
(lp3533
S'<cStringIO.StringO object at 0xae70a40>'
p3534
asbasbasbag77
(g93
g79
NtRp3535
(dp3536
g82
(dp3537
sg91
g3510
sg84
(lp3538
g77
(g98
g79
NtRp3539
(dp3540
g82
(dp3541
g102
g103
ssg91
g3535
sg84
(lp3542
g254
asbag77
(g98
g79
NtRp3543
(dp3544
g82
(dp3545
g109
g110
ssg91
g3535
sg84
(lp3546
S':'
asbag77
(g98
g79
NtRp3547
(dp3548
g82
(dp3549
sg91
g3535
sg84
(lp3550
g77
(g78
g79
NtRp3551
(dp3552
g82
(dp3553
g90
I5
ssg91
g3547
sg84
(lp3554
g77
(g86
g79
NtRp3555
(dp3556
g82
(dp3557
g90
I4
ssg91
Nsg84
(lp3558
g77
(g93
g79
NtRp3559
(dp3560
g82
(dp3561
sg91
g3555
sg84
(lp3562
g77
(g98
g79
NtRp3563
(dp3564
g82
(dp3565
g102
g103
ssg91
g3559
sg84
(lp3566
S'session_id_grammateus3'
p3567
asbag77
(g98
g79
NtRp3568
(dp3569
g82
(dp3570
g109
g110
ssg91
g3559
sg84
(lp3571
S':'
asbag77
(g98
g79
NtRp3572
(dp3573
g82
(dp3574
sg91
g3559
sg84
(lp3575
g77
(g78
g79
NtRp3576
(dp3577
g82
(dp3578
g90
I4
ssg91
g3572
sg84
(lp3579
g77
(g86
g79
NtRp3580
(dp3581
g82
(dp3582
g90
I3
ssg91
Nsg84
(lp3583
g77
(g93
g79
NtRp3584
(dp3585
g82
(dp3586
sg91
g3580
sg84
(lp3587
g77
(g98
g79
NtRp3588
(dp3589
g82
(dp3590
g102
g103
ssg91
g3584
sg84
(lp3591
g304
asbag77
(g98
g79
NtRp3592
(dp3593
g82
(dp3594
g109
g110
ssg91
g3584
sg84
(lp3595
S':'
asbag77
(g98
g79
NtRp3596
(dp3597
g82
(dp3598
sg91
g3584
sg84
(lp3599
g77
(g78
g79
NtRp3600
(dp3601
g82
(dp3602
g90
I3
ssg91
g3596
sg84
(lp3603
S''
asbasbasbag77
(g93
g79
NtRp3604
(dp3605
g82
(dp3606
sg91
g3580
sg84
(lp3607
g77
(g98
g79
NtRp3608
(dp3609
g82
(dp3610
g102
g103
ssg91
g3604
sg84
(lp3611
g325
asbag77
(g98
g79
NtRp3612
(dp3613
g82
(dp3614
g109
g110
ssg91
g3604
sg84
(lp3615
S':'
asbag77
(g98
g79
NtRp3616
(dp3617
g82
(dp3618
sg91
g3604
sg84
(lp3619
g77
(g78
g79
NtRp3620
(dp3621
g82
(dp3622
g90
I3
ssg91
g3616
sg84
(lp3623
S''
asbasbasbag77
(g93
g79
NtRp3624
(dp3625
g82
(dp3626
sg91
g3580
sg84
(lp3627
g77
(g98
g79
NtRp3628
(dp3629
g82
(dp3630
g102
g103
ssg91
g3624
sg84
(lp3631
g346
asbag77
(g98
g79
NtRp3632
(dp3633
g82
(dp3634
g109
g110
ssg91
g3624
sg84
(lp3635
S':'
asbag77
(g98
g79
NtRp3636
(dp3637
g82
(dp3638
sg91
g3624
sg84
(lp3639
g77
(g78
g79
NtRp3640
(dp3641
g82
(dp3642
g90
I3
ssg91
g3636
sg84
(lp3643
S''
asbasbasbag77
(g93
g79
NtRp3644
(dp3645
g82
(dp3646
sg91
g3580
sg84
(lp3647
g77
(g98
g79
NtRp3648
(dp3649
g82
(dp3650
g102
g103
ssg91
g3644
sg84
(lp3651
g367
asbag77
(g98
g79
NtRp3652
(dp3653
g82
(dp3654
g109
g110
ssg91
g3644
sg84
(lp3655
S':'
asbag77
(g98
g79
NtRp3656
(dp3657
g82
(dp3658
sg91
g3644
sg84
(lp3659
g77
(g78
g79
NtRp3660
(dp3661
g82
(dp3662
g90
I3
ssg91
g3656
sg84
(lp3663
S''
asbasbasbag77
(g93
g79
NtRp3664
(dp3665
g82
(dp3666
sg91
g3580
sg84
(lp3667
g77
(g98
g79
NtRp3668
(dp3669
g82
(dp3670
g102
g103
ssg91
g3664
sg84
(lp3671
g388
asbag77
(g98
g79
NtRp3672
(dp3673
g82
(dp3674
g109
g110
ssg91
g3664
sg84
(lp3675
S':'
asbag77
(g98
g79
NtRp3676
(dp3677
g82
(dp3678
sg91
g3664
sg84
(lp3679
g77
(g78
g79
NtRp3680
(dp3681
g82
(dp3682
g90
I3
ssg91
g3676
sg84
(lp3683
S''
asbasbasbag77
(g93
g79
NtRp3684
(dp3685
g82
(dp3686
sg91
g3580
sg84
(lp3687
g77
(g98
g79
NtRp3688
(dp3689
g82
(dp3690
g102
g103
ssg91
g3684
sg84
(lp3691
g409
asbag77
(g98
g79
NtRp3692
(dp3693
g82
(dp3694
g109
g110
ssg91
g3684
sg84
(lp3695
S':'
asbag77
(g98
g79
NtRp3696
(dp3697
g82
(dp3698
sg91
g3684
sg84
(lp3699
g77
(g78
g79
NtRp3700
(dp3701
g82
(dp3702
g90
I3
ssg91
g3696
sg84
(lp3703
S'/'
asbasbasbag77
(g93
g79
NtRp3704
(dp3705
g82
(dp3706
sg91
g3580
sg84
(lp3707
g77
(g98
g79
NtRp3708
(dp3709
g82
(dp3710
g102
g103
ssg91
g3704
sg84
(lp3711
g430
asbag77
(g98
g79
NtRp3712
(dp3713
g82
(dp3714
g109
g110
ssg91
g3704
sg84
(lp3715
S':'
asbag77
(g98
g79
NtRp3716
(dp3717
g82
(dp3718
sg91
g3704
sg84
(lp3719
g77
(g78
g79
NtRp3720
(dp3721
g82
(dp3722
g90
I3
ssg91
g3716
sg84
(lp3723
S''
asbasbasbag77
(g93
g79
NtRp3724
(dp3725
g82
(dp3726
sg91
g3580
sg84
(lp3727
g77
(g98
g79
NtRp3728
(dp3729
g82
(dp3730
g102
g103
ssg91
g3724
sg84
(lp3731
g451
asbag77
(g98
g79
NtRp3732
(dp3733
g82
(dp3734
g109
g110
ssg91
g3724
sg84
(lp3735
S':'
asbag77
(g98
g79
NtRp3736
(dp3737
g82
(dp3738
sg91
g3724
sg84
(lp3739
g77
(g78
g79
NtRp3740
(dp3741
g82
(dp3742
g90
I3
ssg91
g3736
sg84
(lp3743
S''
asbasbasbasbasbasbasbasbasbasbasbag77
(g93
g79
NtRp3744
(dp3745
g82
(dp3746
sg91
g3510
sg84
(lp3747
g77
(g98
g79
NtRp3748
(dp3749
g82
(dp3750
g102
g103
ssg91
g3744
sg84
(lp3751
S'files'
p3752
asbag77
(g98
g79
NtRp3753
(dp3754
g82
(dp3755
g109
g110
ssg91
g3744
sg84
(lp3756
S':'
asbag77
(g98
g79
NtRp3757
(dp3758
g82
(dp3759
sg91
g3744
sg84
(lp3760
g77
(g78
g79
NtRp3761
(dp3762
g82
(dp3763
g90
I5
ssg91
g3757
sg84
(lp3764
g77
(g86
g79
NtRp3765
(dp3766
g82
(dp3767
g90
I4
ssg91
Nsg84
(lp3768
sbasbasbasbag77
(g93
g79
NtRp3769
(dp3770
g82
(dp3771
sg91
g3510
sg84
(lp3772
g77
(g98
g79
NtRp3773
(dp3774
g82
(dp3775
g102
g103
ssg91
g3769
sg84
(lp3776
S'flash'
p3777
asbag77
(g98
g79
NtRp3778
(dp3779
g82
(dp3780
g109
g110
ssg91
g3769
sg84
(lp3781
S':'
asbag77
(g98
g79
NtRp3782
(dp3783
g82
(dp3784
sg91
g3769
sg84
(lp3785
g77
(g78
g79
NtRp3786
(dp3787
g82
(dp3788
g90
I5
ssg91
g3782
sg84
(lp3789
S''
asbasbasbag77
(g93
g79
NtRp3790
(dp3791
g82
(dp3792
sg91
g3510
sg84
(lp3793
g77
(g98
g79
NtRp3794
(dp3795
g82
(dp3796
g102
g103
ssg91
g3790
sg84
(lp3797
S'generic_patterns'
p3798
asbag77
(g98
g79
NtRp3799
(dp3800
g82
(dp3801
g109
g110
ssg91
g3790
sg84
(lp3802
S':'
asbag77
(g98
g79
NtRp3803
(dp3804
g82
(dp3805
sg91
g3790
sg84
(lp3806
g77
(g78
g79
NtRp3807
(dp3808
g82
(dp3809
g90
I5
ssg91
g3803
sg84
(lp3810
g77
(g86
g79
NtRp3811
(dp3812
g82
(dp3813
g90
I4
ssg91
Nsg84
(lp3814
g77
(g93
g79
NtRp3815
(dp3816
g82
(dp3817
sg91
g3811
sg84
(lp3818
g77
(g98
g79
NtRp3819
(dp3820
g82
(dp3821
sg91
g3815
sg84
(lp3822
g77
(g78
g79
NtRp3823
(dp3824
g82
(dp3825
g90
I4
ssg91
g3819
sg84
(lp3826
S'*'
asbasbasbasbasbasbasbag77
(g93
g79
NtRp3827
(dp3828
g82
(dp3829
sg91
g3510
sg84
(lp3830
g77
(g98
g79
NtRp3831
(dp3832
g82
(dp3833
g102
g103
ssg91
g3827
sg84
(lp3834
S'headers'
p3835
asbag77
(g98
g79
NtRp3836
(dp3837
g82
(dp3838
g109
g110
ssg91
g3827
sg84
(lp3839
S':'
asbag77
(g98
g79
NtRp3840
(dp3841
g82
(dp3842
sg91
g3827
sg84
(lp3843
g77
(g78
g79
NtRp3844
(dp3845
g82
(dp3846
g90
I5
ssg91
g3840
sg84
(lp3847
g77
(g86
g79
NtRp3848
(dp3849
g82
(dp3850
g90
I4
ssg91
Nsg84
(lp3851
g77
(g93
g79
NtRp3852
(dp3853
g82
(dp3854
sg91
g3848
sg84
(lp3855
g77
(g98
g79
NtRp3856
(dp3857
g82
(dp3858
g102
g103
ssg91
g3852
sg84
(lp3859
S'Cache-Control'
p3860
asbag77
(g98
g79
NtRp3861
(dp3862
g82
(dp3863
g109
g110
ssg91
g3852
sg84
(lp3864
S':'
asbag77
(g98
g79
NtRp3865
(dp3866
g82
(dp3867
sg91
g3852
sg84
(lp3868
g77
(g78
g79
NtRp3869
(dp3870
g82
(dp3871
g90
I4
ssg91
g3865
sg84
(lp3872
S'no-store, no-cache, must-revalidate, post-check=0, pre-check=0'
p3873
asbasbasbag77
(g93
g79
NtRp3874
(dp3875
g82
(dp3876
sg91
g3848
sg84
(lp3877
g77
(g98
g79
NtRp3878
(dp3879
g82
(dp3880
g102
g103
ssg91
g3874
sg84
(lp3881
S'Content-Type'
p3882
asbag77
(g98
g79
NtRp3883
(dp3884
g82
(dp3885
g109
g110
ssg91
g3874
sg84
(lp3886
S':'
asbag77
(g98
g79
NtRp3887
(dp3888
g82
(dp3889
sg91
g3874
sg84
(lp3890
g77
(g78
g79
NtRp3891
(dp3892
g82
(dp3893
g90
I4
ssg91
g3887
sg84
(lp3894
S'text/html; charset=utf-8'
p3895
asbasbasbag77
(g93
g79
NtRp3896
(dp3897
g82
(dp3898
sg91
g3848
sg84
(lp3899
g77
(g98
g79
NtRp3900
(dp3901
g82
(dp3902
g102
g103
ssg91
g3896
sg84
(lp3903
S'Expires'
p3904
asbag77
(g98
g79
NtRp3905
(dp3906
g82
(dp3907
g109
g110
ssg91
g3896
sg84
(lp3908
S':'
asbag77
(g98
g79
NtRp3909
(dp3910
g82
(dp3911
sg91
g3896
sg84
(lp3912
g77
(g78
g79
NtRp3913
(dp3914
g82
(dp3915
g90
I4
ssg91
g3909
sg84
(lp3916
S'Tue, 06 Mar 2012 13:03:42 GMT'
p3917
asbasbasbag77
(g93
g79
NtRp3918
(dp3919
g82
(dp3920
sg91
g3848
sg84
(lp3921
g77
(g98
g79
NtRp3922
(dp3923
g82
(dp3924
g102
g103
ssg91
g3918
sg84
(lp3925
S'Pragma'
p3926
asbag77
(g98
g79
NtRp3927
(dp3928
g82
(dp3929
g109
g110
ssg91
g3918
sg84
(lp3930
S':'
asbag77
(g98
g79
NtRp3931
(dp3932
g82
(dp3933
sg91
g3918
sg84
(lp3934
g77
(g78
g79
NtRp3935
(dp3936
g82
(dp3937
g90
I4
ssg91
g3931
sg84
(lp3938
S'no-cache'
p3939
asbasbasbag77
(g93
g79
NtRp3940
(dp3941
g82
(dp3942
sg91
g3848
sg84
(lp3943
g77
(g98
g79
NtRp3944
(dp3945
g82
(dp3946
g102
g103
ssg91
g3940
sg84
(lp3947
S'X-Powered-By'
p3948
asbag77
(g98
g79
NtRp3949
(dp3950
g82
(dp3951
g109
g110
ssg91
g3940
sg84
(lp3952
S':'
asbag77
(g98
g79
NtRp3953
(dp3954
g82
(dp3955
sg91
g3940
sg84
(lp3956
g77
(g78
g79
NtRp3957
(dp3958
g82
(dp3959
g90
I4
ssg91
g3953
sg84
(lp3960
S'web2py'
p3961
asbasbasbasbasbasbasbag77
(g93
g79
NtRp3962
(dp3963
g82
(dp3964
sg91
g3510
sg84
(lp3965
g77
(g98
g79
NtRp3966
(dp3967
g82
(dp3968
g102
g103
ssg91
g3962
sg84
(lp3969
S'menu'
p3970
asbag77
(g98
g79
NtRp3971
(dp3972
g82
(dp3973
g109
g110
ssg91
g3962
sg84
(lp3974
S':'
asbag77
(g98
g79
NtRp3975
(dp3976
g82
(dp3977
sg91
g3962
sg84
(lp3978
g77
(g78
g79
NtRp3979
(dp3980
g82
(dp3981
g90
I5
ssg91
g3975
sg84
(lp3982
g77
(g86
g79
NtRp3983
(dp3984
g82
(dp3985
g90
I4
ssg91
Nsg84
(lp3986
g77
(g93
g79
NtRp3987
(dp3988
g82
(dp3989
sg91
g3983
sg84
(lp3990
g77
(g98
g79
NtRp3991
(dp3992
g82
(dp3993
sg91
g3987
sg84
(lp3994
g77
(g78
g79
NtRp3995
(dp3996
g82
(dp3997
g90
I4
ssg91
g3991
sg84
(lp3998
g77
(g86
g79
NtRp3999
(dp4000
g82
(dp4001
g90
I3
ssg91
Nsg84
(lp4002
g77
(g93
g79
NtRp4003
(dp4004
g82
(dp4005
sg91
g3999
sg84
(lp4006
g77
(g98
g79
NtRp4007
(dp4008
g82
(dp4009
sg91
g4003
sg84
(lp4010
g77
(g78
g79
NtRp4011
(dp4012
g82
(dp4013
g90
I3
ssg91
g4007
sg84
(lp4014
cgluon.languages
lazyT_unpickle
p4015
(S't\x04\x00\x00\x00Home'
tRp4016
asbasbasbag77
(g93
g79
NtRp4017
(dp4018
g82
(dp4019
sg91
g3999
sg84
(lp4020
g77
(g98
g79
NtRp4021
(dp4022
g82
(dp4023
sg91
g4017
sg84
(lp4024
g77
(g78
g79
NtRp4025
(dp4026
g82
(dp4027
g90
I3
ssg91
g4021
sg84
(lp4028
g120
asbasbasbag77
(g93
g79
NtRp4029
(dp4030
g82
(dp4031
sg91
g3999
sg84
(lp4032
g77
(g98
g79
NtRp4033
(dp4034
g82
(dp4035
sg91
g4029
sg84
(lp4036
g77
(g78
g79
NtRp4037
(dp4038
g82
(dp4039
g90
I3
ssg91
g4033
sg84
(lp4040
S'/grammateus3/default/index'
p4041
asbasbasbag77
(g93
g79
NtRp4042
(dp4043
g82
(dp4044
sg91
g3999
sg84
(lp4045
g77
(g98
g79
NtRp4046
(dp4047
g82
(dp4048
sg91
g4042
sg84
(lp4049
g77
(g78
g79
NtRp4050
(dp4051
g82
(dp4052
g90
I3
ssg91
g4046
sg84
(lp4053
g77
(g86
g79
NtRp4054
(dp4055
g82
(dp4056
g90
I2
ssg91
Nsg84
(lp4057
sbasbasbasbasbasbasbasbag77
(g93
g79
NtRp4058
(dp4059
g82
(dp4060
sg91
g3983
sg84
(lp4061
g77
(g98
g79
NtRp4062
(dp4063
g82
(dp4064
sg91
g4058
sg84
(lp4065
g77
(g78
g79
NtRp4066
(dp4067
g82
(dp4068
g90
I4
ssg91
g4062
sg84
(lp4069
g77
(g86
g79
NtRp4070
(dp4071
g82
(dp4072
g90
I3
ssg91
Nsg84
(lp4073
g77
(g93
g79
NtRp4074
(dp4075
g82
(dp4076
sg91
g4070
sg84
(lp4077
g77
(g98
g79
NtRp4078
(dp4079
g82
(dp4080
sg91
g4074
sg84
(lp4081
g77
(g78
g79
NtRp4082
(dp4083
g82
(dp4084
g90
I3
ssg91
g4078
sg84
(lp4085
g77
(cgluon.html
SPAN
p4086
g79
NtRp4087
(dp4088
g82
(dp4089
g102
S'color:yellow'
p4090
ssg91
Nsg84
(lp4091
g3961
asbasbasbasbag77
(g93
g79
NtRp4092
(dp4093
g82
(dp4094
sg91
g4070
sg84
(lp4095
g77
(g98
g79
NtRp4096
(dp4097
g82
(dp4098
sg91
g4092
sg84
(lp4099
g77
(g78
g79
NtRp4100
(dp4101
g82
(dp4102
g90
I3
ssg91
g4096
sg84
(lp4103
g120
asbasbasbag77
(g93
g79
NtRp4104
(dp4105
g82
(dp4106
sg91
g4070
sg84
(lp4107
g77
(g98
g79
NtRp4108
(dp4109
g82
(dp4110
sg91
g4104
sg84
(lp4111
g77
(g78
g79
NtRp4112
(dp4113
g82
(dp4114
g90
I3
ssg91
g4108
sg84
(lp4115
S'None'
p4116
asbasbasbag77
(g93
g79
NtRp4117
(dp4118
g82
(dp4119
sg91
g4070
sg84
(lp4120
g77
(g98
g79
NtRp4121
(dp4122
g82
(dp4123
sg91
g4117
sg84
(lp4124
g77
(g78
g79
NtRp4125
(dp4126
g82
(dp4127
g90
I3
ssg91
g4121
sg84
(lp4128
g77
(g86
g79
NtRp4129
(dp4130
g82
(dp4131
g90
I2
ssg91
Nsg84
(lp4132
g77
(g93
g79
NtRp4133
(dp4134
g82
(dp4135
sg91
g4129
sg84
(lp4136
g77
(g98
g79
NtRp4137
(dp4138
g82
(dp4139
sg91
g4133
sg84
(lp4140
g77
(g78
g79
NtRp4141
(dp4142
g82
(dp4143
g90
I2
ssg91
g4137
sg84
(lp4144
g77
(g86
g79
NtRp4145
(dp4146
g82
(dp4147
g90
I1
ssg91
Nsg84
(lp4148
g77
(g93
g79
NtRp4149
(dp4150
g82
(dp4151
sg91
g4145
sg84
(lp4152
g77
(g98
g79
NtRp4153
(dp4154
g82
(dp4155
sg91
g4149
sg84
(lp4156
g77
(g78
g79
NtRp4157
(dp4158
g82
(dp4159
g90
I1
ssg91
g4153
sg84
(lp4160
g4015
(S's\x08\x00\x00\x00My Sites'
tRp4161
asbasbasbag77
(g93
g79
NtRp4162
(dp4163
g82
(dp4164
sg91
g4145
sg84
(lp4165
g77
(g98
g79
NtRp4166
(dp4167
g82
(dp4168
sg91
g4162
sg84
(lp4169
g77
(g78
g79
NtRp4170
(dp4171
g82
(dp4172
g90
I1
ssg91
g4166
sg84
(lp4173
I00
asbasbasbag77
(g93
g79
NtRp4174
(dp4175
g82
(dp4176
sg91
g4145
sg84
(lp4177
g77
(g98
g79
NtRp4178
(dp4179
g82
(dp4180
sg91
g4174
sg84
(lp4181
g77
(g78
g79
NtRp4182
(dp4183
g82
(dp4184
g90
I1
ssg91
g4178
sg84
(lp4185
S'/admin/default/site'
p4186
asbasbasbasbasbasbasbag77
(g93
g79
NtRp4187
(dp4188
g82
(dp4189
sg91
g4129
sg84
(lp4190
g77
(g98
g79
NtRp4191
(dp4192
g82
(dp4193
sg91
g4187
sg84
(lp4194
g77
(g78
g79
NtRp4195
(dp4196
g82
(dp4197
g90
I2
ssg91
g4191
sg84
(lp4198
g77
(g86
g79
NtRp4199
(dp4200
g82
(dp4201
g90
I1
ssg91
Nsg84
(lp4202
g77
(g93
g79
NtRp4203
(dp4204
g82
(dp4205
sg91
g4199
sg84
(lp4206
g77
(g98
g79
NtRp4207
(dp4208
g82
(dp4209
sg91
g4203
sg84
(lp4210
g77
(g78
g79
NtRp4211
(dp4212
g82
(dp4213
g90
I1
ssg91
g4207
sg84
(lp4214
g4015
(S's\x08\x00\x00\x00This App'
tRp4215
asbasbasbag77
(g93
g79
NtRp4216
(dp4217
g82
(dp4218
sg91
g4199
sg84
(lp4219
g77
(g98
g79
NtRp4220
(dp4221
g82
(dp4222
sg91
g4216
sg84
(lp4223
g77
(g78
g79
NtRp4224
(dp4225
g82
(dp4226
g90
I1
ssg91
g4220
sg84
(lp4227
I00
asbasbasbag77
(g93
g79
NtRp4228
(dp4229
g82
(dp4230
sg91
g4199
sg84
(lp4231
g77
(g98
g79
NtRp4232
(dp4233
g82
(dp4234
sg91
g4228
sg84
(lp4235
g77
(g78
g79
NtRp4236
(dp4237
g82
(dp4238
g90
I1
ssg91
g4232
sg84
(lp4239
S'/admin/default/design/grammateus3'
p4240
asbasbasbag77
(g93
g79
NtRp4241
(dp4242
g82
(dp4243
sg91
g4199
sg84
(lp4244
g77
(g98
g79
NtRp4245
(dp4246
g82
(dp4247
sg91
g4241
sg84
(lp4248
g77
(g78
g79
NtRp4249
(dp4250
g82
(dp4251
g90
I1
ssg91
g4245
sg84
(lp4252
(lp4253
(g4015
(S't\n\x00\x00\x00Controller'
tRp4254
I00
S'/admin/default/edit/grammateus3/controllers/docs.py'
tp4255
a(g4015
(S't\x04\x00\x00\x00View'
tRp4256
I00
S'/admin/default/edit/grammateus3/views/docs/test.html'
tp4257
a(g4015
(S't\x06\x00\x00\x00Layout'
tRp4258
I00
S'/admin/default/edit/grammateus3/views/layout.html'
tp4259
a(g4015
(S't\n\x00\x00\x00Stylesheet'
tRp4260
I00
S'/admin/default/edit/grammateus3/static/css/web2py.css'
tp4261
a(g4015
(S's\x08\x00\x00\x00DB Model'
tRp4262
I00
S'/admin/default/edit/grammateus3/models/db.py'
tp4263
a(g4015
(S's\n\x00\x00\x00Menu Model'
tRp4264
I00
S'/admin/default/edit/grammateus3/models/menu.py'
tp4265
a(g4015
(S't\x08\x00\x00\x00Database'
tRp4266
I00
S'/grammateus3/appadmin/index'
tp4267
a(g4015
(S't\x06\x00\x00\x00Errors'
tRp4268
I00
S'/admin/default/errors/grammateus3'
tp4269
a(g4015
(S't\x05\x00\x00\x00About'
tRp4270
I00
S'/admin/default/about/grammateus3'
tp4271
aasbasbasbasbasbasbasbag77
(g93
g79
NtRp4272
(dp4273
g82
(dp4274
sg91
g4129
sg84
(lp4275
g77
(g98
g79
NtRp4276
(dp4277
g82
(dp4278
sg91
g4272
sg84
(lp4279
g77
(g78
g79
NtRp4280
(dp4281
g82
(dp4282
g90
I2
ssg91
g4276
sg84
(lp4283
g77
(g86
g79
NtRp4284
(dp4285
g82
(dp4286
g90
I1
ssg91
Nsg84
(lp4287
g77
(g93
g79
NtRp4288
(dp4289
g82
(dp4290
sg91
g4284
sg84
(lp4291
g77
(g98
g79
NtRp4292
(dp4293
g82
(dp4294
sg91
g4288
sg84
(lp4295
g77
(g78
g79
NtRp4296
(dp4297
g82
(dp4298
g90
I1
ssg91
g4292
sg84
(lp4299
S'web2py.com'
p4300
asbasbasbag77
(g93
g79
NtRp4301
(dp4302
g82
(dp4303
sg91
g4284
sg84
(lp4304
g77
(g98
g79
NtRp4305
(dp4306
g82
(dp4307
sg91
g4301
sg84
(lp4308
g77
(g78
g79
NtRp4309
(dp4310
g82
(dp4311
g90
I1
ssg91
g4305
sg84
(lp4312
I00
asbasbasbag77
(g93
g79
NtRp4313
(dp4314
g82
(dp4315
sg91
g4284
sg84
(lp4316
g77
(g98
g79
NtRp4317
(dp4318
g82
(dp4319
sg91
g4313
sg84
(lp4320
g77
(g78
g79
NtRp4321
(dp4322
g82
(dp4323
g90
I1
ssg91
g4317
sg84
(lp4324
S'http://www.web2py.com'
p4325
asbasbasbag77
(g93
g79
NtRp4326
(dp4327
g82
(dp4328
sg91
g4284
sg84
(lp4329
g77
(g98
g79
NtRp4330
(dp4331
g82
(dp4332
sg91
g4326
sg84
(lp4333
g77
(g78
g79
NtRp4334
(dp4335
g82
(dp4336
g90
I1
ssg91
g4330
sg84
(lp4337
(lp4338
(g4015
(S't\x08\x00\x00\x00Download'
tRp4339
I00
S'http://www.web2py.com/examples/default/download'
p4340
tp4341
a(g4015
(S't\x07\x00\x00\x00Support'
tRp4342
I00
S'http://www.web2py.com/examples/default/support'
p4343
tp4344
a(g4015
(S't\x04\x00\x00\x00Demo'
tRp4345
I00
S'http://web2py.com/demo_admin'
p4346
tp4347
a(g4015
(S's\x0e\x00\x00\x00Quick Examples'
tRp4348
I00
S'http://web2py.com/examples/default/examples'
p4349
tp4350
a(g4015
(S't\x03\x00\x00\x00FAQ'
tRp4351
I00
S'http://web2py.com/AlterEgo'
p4352
tp4353
a(g4015
(S't\x06\x00\x00\x00Videos'
tRp4354
I00
S'http://www.web2py.com/examples/default/videos/'
p4355
tp4356
a(g4015
(S's\x11\x00\x00\x00Free Applications'
tRp4357
I00
S'http://web2py.com/appliances'
p4358
tp4359
a(g4015
(S't\x07\x00\x00\x00Plugins'
tRp4360
I00
S'http://web2py.com/plugins'
p4361
tp4362
a(g4015
(S't\x07\x00\x00\x00Layouts'
tRp4363
I00
S'http://web2py.com/layouts'
p4364
tp4365
a(g4015
(S't\x07\x00\x00\x00Recipes'
tRp4366
I00
S'http://web2pyslices.com/'
p4367
tp4368
a(g4015
(S't\x08\x00\x00\x00Semantic'
tRp4369
I00
S'http://web2py.com/semantic'
p4370
tp4371
aasbasbasbasbasbasbasbag77
(g93
g79
NtRp4372
(dp4373
g82
(dp4374
sg91
g4129
sg84
(lp4375
g77
(g98
g79
NtRp4376
(dp4377
g82
(dp4378
sg91
g4372
sg84
(lp4379
g77
(g78
g79
NtRp4380
(dp4381
g82
(dp4382
g90
I2
ssg91
g4376
sg84
(lp4383
g77
(g86
g79
NtRp4384
(dp4385
g82
(dp4386
g90
I1
ssg91
Nsg84
(lp4387
g77
(g93
g79
NtRp4388
(dp4389
g82
(dp4390
sg91
g4384
sg84
(lp4391
g77
(g98
g79
NtRp4392
(dp4393
g82
(dp4394
sg91
g4388
sg84
(lp4395
g77
(g78
g79
NtRp4396
(dp4397
g82
(dp4398
g90
I1
ssg91
g4392
sg84
(lp4399
g4015
(S't\r\x00\x00\x00Documentation'
tRp4400
asbasbasbag77
(g93
g79
NtRp4401
(dp4402
g82
(dp4403
sg91
g4384
sg84
(lp4404
g77
(g98
g79
NtRp4405
(dp4406
g82
(dp4407
sg91
g4401
sg84
(lp4408
g77
(g78
g79
NtRp4409
(dp4410
g82
(dp4411
g90
I1
ssg91
g4405
sg84
(lp4412
I00
asbasbasbag77
(g93
g79
NtRp4413
(dp4414
g82
(dp4415
sg91
g4384
sg84
(lp4416
g77
(g98
g79
NtRp4417
(dp4418
g82
(dp4419
sg91
g4413
sg84
(lp4420
g77
(g78
g79
NtRp4421
(dp4422
g82
(dp4423
g90
I1
ssg91
g4417
sg84
(lp4424
S'http://www.web2py.com/book'
p4425
asbasbasbag77
(g93
g79
NtRp4426
(dp4427
g82
(dp4428
sg91
g4384
sg84
(lp4429
g77
(g98
g79
NtRp4430
(dp4431
g82
(dp4432
sg91
g4426
sg84
(lp4433
g77
(g78
g79
NtRp4434
(dp4435
g82
(dp4436
g90
I1
ssg91
g4430
sg84
(lp4437
(lp4438
(g4015
(S't\x07\x00\x00\x00Preface'
tRp4439
I00
S'http://www.web2py.com/book/default/chapter/00'
p4440
tp4441
a(g4015
(S't\x0c\x00\x00\x00Introduction'
tRp4442
I00
S'http://www.web2py.com/book/default/chapter/01'
p4443
tp4444
a(g4015
(S't\x06\x00\x00\x00Python'
tRp4445
I00
S'http://www.web2py.com/book/default/chapter/02'
p4446
tp4447
a(g4015
(S't\x08\x00\x00\x00Overview'
tRp4448
I00
S'http://www.web2py.com/book/default/chapter/03'
p4449
tp4450
a(g4015
(S's\x08\x00\x00\x00The Core'
tRp4451
I00
S'http://www.web2py.com/book/default/chapter/04'
p4452
tp4453
a(g4015
(S's\t\x00\x00\x00The Views'
tRp4454
I00
S'http://www.web2py.com/book/default/chapter/05'
p4455
tp4456
a(g4015
(S't\x08\x00\x00\x00Database'
tRp4457
I00
S'http://www.web2py.com/book/default/chapter/06'
p4458
tp4459
a(g4015
(S's\x14\x00\x00\x00Forms and Validators'
tRp4460
I00
S'http://www.web2py.com/book/default/chapter/07'
p4461
tp4462
a(g4015
(S's\r\x00\x00\x00Email and SMS'
tRp4463
I00
S'http://www.web2py.com/book/default/chapter/08'
p4464
tp4465
a(g4015
(S's\x0e\x00\x00\x00Access Control'
tRp4466
I00
S'http://www.web2py.com/book/default/chapter/09'
p4467
tp4468
a(g4015
(S't\x08\x00\x00\x00Services'
tRp4469
I00
S'http://www.web2py.com/book/default/chapter/10'
p4470
tp4471
a(g4015
(S's\x0c\x00\x00\x00Ajax Recipes'
tRp4472
I00
S'http://www.web2py.com/book/default/chapter/11'
p4473
tp4474
a(g4015
(S's\x16\x00\x00\x00Components and Plugins'
tRp4475
I00
S'http://www.web2py.com/book/default/chapter/12'
p4476
tp4477
a(g4015
(S's\x12\x00\x00\x00Deployment Recipes'
tRp4478
I00
S'http://www.web2py.com/book/default/chapter/13'
p4479
tp4480
a(g4015
(S's\r\x00\x00\x00Other Recipes'
tRp4481
I00
S'http://www.web2py.com/book/default/chapter/14'
p4482
tp4483
a(g4015
(S's\r\x00\x00\x00Buy this book'
tRp4484
I00
S'http://stores.lulu.com/web2py'
p4485
tp4486
aasbasbasbasbasbasbasbag77
(g93
g79
NtRp4487
(dp4488
g82
(dp4489
sg91
g4129
sg84
(lp4490
g77
(g98
g79
NtRp4491
(dp4492
g82
(dp4493
sg91
g4487
sg84
(lp4494
g77
(g78
g79
NtRp4495
(dp4496
g82
(dp4497
g90
I2
ssg91
g4491
sg84
(lp4498
g77
(g86
g79
NtRp4499
(dp4500
g82
(dp4501
g90
I1
ssg91
Nsg84
(lp4502
g77
(g93
g79
NtRp4503
(dp4504
g82
(dp4505
sg91
g4499
sg84
(lp4506
g77
(g98
g79
NtRp4507
(dp4508
g82
(dp4509
sg91
g4503
sg84
(lp4510
g77
(g78
g79
NtRp4511
(dp4512
g82
(dp4513
g90
I1
ssg91
g4507
sg84
(lp4514
g4015
(S't\t\x00\x00\x00Community'
tRp4515
asbasbasbag77
(g93
g79
NtRp4516
(dp4517
g82
(dp4518
sg91
g4499
sg84
(lp4519
g77
(g98
g79
NtRp4520
(dp4521
g82
(dp4522
sg91
g4516
sg84
(lp4523
g77
(g78
g79
NtRp4524
(dp4525
g82
(dp4526
g90
I1
ssg91
g4520
sg84
(lp4527
I00
asbasbasbag77
(g93
g79
NtRp4528
(dp4529
g82
(dp4530
sg91
g4499
sg84
(lp4531
g77
(g98
g79
NtRp4532
(dp4533
g82
(dp4534
sg91
g4528
sg84
(lp4535
g77
(g78
g79
NtRp4536
(dp4537
g82
(dp4538
g90
I1
ssg91
g4532
sg84
(lp4539
Nasbasbasbag77
(g93
g79
NtRp4540
(dp4541
g82
(dp4542
sg91
g4499
sg84
(lp4543
g77
(g98
g79
NtRp4544
(dp4545
g82
(dp4546
sg91
g4540
sg84
(lp4547
g77
(g78
g79
NtRp4548
(dp4549
g82
(dp4550
g90
I1
ssg91
g4544
sg84
(lp4551
(lp4552
(g4015
(S't\x06\x00\x00\x00Groups'
tRp4553
I00
S'http://www.web2py.com/examples/default/usergroups'
p4554
tp4555
a(g4015
(S't\x07\x00\x00\x00Twitter'
tRp4556
I00
S'http://twitter.com/web2py'
p4557
tp4558
a(g4015
(S's\t\x00\x00\x00Live Chat'
tRp4559
I00
S'http://webchat.freenode.net/?channels=web2py'
p4560
tp4561
aasbasbasbasbasbasbasbag77
(g93
g79
NtRp4562
(dp4563
g82
(dp4564
sg91
g4129
sg84
(lp4565
g77
(g98
g79
NtRp4566
(dp4567
g82
(dp4568
sg91
g4562
sg84
(lp4569
g77
(g78
g79
NtRp4570
(dp4571
g82
(dp4572
g90
I2
ssg91
g4566
sg84
(lp4573
g77
(g86
g79
NtRp4574
(dp4575
g82
(dp4576
g90
I1
ssg91
Nsg84
(lp4577
g77
(g93
g79
NtRp4578
(dp4579
g82
(dp4580
sg91
g4574
sg84
(lp4581
g77
(g98
g79
NtRp4582
(dp4583
g82
(dp4584
sg91
g4578
sg84
(lp4585
g77
(g78
g79
NtRp4586
(dp4587
g82
(dp4588
g90
I1
ssg91
g4582
sg84
(lp4589
g4015
(S't\x07\x00\x00\x00Plugins'
tRp4590
asbasbasbag77
(g93
g79
NtRp4591
(dp4592
g82
(dp4593
sg91
g4574
sg84
(lp4594
g77
(g98
g79
NtRp4595
(dp4596
g82
(dp4597
sg91
g4591
sg84
(lp4598
g77
(g78
g79
NtRp4599
(dp4600
g82
(dp4601
g90
I1
ssg91
g4595
sg84
(lp4602
I00
asbasbasbag77
(g93
g79
NtRp4603
(dp4604
g82
(dp4605
sg91
g4574
sg84
(lp4606
g77
(g98
g79
NtRp4607
(dp4608
g82
(dp4609
sg91
g4603
sg84
(lp4610
g77
(g78
g79
NtRp4611
(dp4612
g82
(dp4613
g90
I1
ssg91
g4607
sg84
(lp4614
Nasbasbasbag77
(g93
g79
NtRp4615
(dp4616
g82
(dp4617
sg91
g4574
sg84
(lp4618
g77
(g98
g79
NtRp4619
(dp4620
g82
(dp4621
sg91
g4615
sg84
(lp4622
g77
(g78
g79
NtRp4623
(dp4624
g82
(dp4625
g90
I1
ssg91
g4619
sg84
(lp4626
(lp4627
(S'plugin_wiki'
p4628
I00
S'http://web2py.com/examples/default/download'
p4629
tp4630
a(g4015
(S's\r\x00\x00\x00Other Plugins'
tRp4631
I00
g4361
tp4632
a(g4015
(S's\x0e\x00\x00\x00Layout Plugins'
tRp4633
I00
g4364
tp4634
aasbasbasbasbasbasbasbasbasbasbasbasbasbasbasbasbasbasbasbag77
(g93
g79
NtRp4635
(dp4636
g82
(dp4637
sg91
g3510
sg84
(lp4638
g77
(g98
g79
NtRp4639
(dp4640
g82
(dp4641
g102
g103
ssg91
g4635
sg84
(lp4642
S'meta'
p4643
asbag77
(g98
g79
NtRp4644
(dp4645
g82
(dp4646
g109
g110
ssg91
g4635
sg84
(lp4647
S':'
asbag77
(g98
g79
NtRp4648
(dp4649
g82
(dp4650
sg91
g4635
sg84
(lp4651
g77
(g78
g79
NtRp4652
(dp4653
g82
(dp4654
g90
I5
ssg91
g4648
sg84
(lp4655
g77
(g86
g79
NtRp4656
(dp4657
g82
(dp4658
g90
I4
ssg91
Nsg84
(lp4659
g77
(g93
g79
NtRp4660
(dp4661
g82
(dp4662
sg91
g4656
sg84
(lp4663
g77
(g98
g79
NtRp4664
(dp4665
g82
(dp4666
g102
g103
ssg91
g4660
sg84
(lp4667
S'author'
p4668
asbag77
(g98
g79
NtRp4669
(dp4670
g82
(dp4671
g109
g110
ssg91
g4660
sg84
(lp4672
S':'
asbag77
(g98
g79
NtRp4673
(dp4674
g82
(dp4675
sg91
g4660
sg84
(lp4676
g77
(g78
g79
NtRp4677
(dp4678
g82
(dp4679
g90
I4
ssg91
g4673
sg84
(lp4680
S'Your Name <you@example.com>'
p4681
asbasbasbag77
(g93
g79
NtRp4682
(dp4683
g82
(dp4684
sg91
g4656
sg84
(lp4685
g77
(g98
g79
NtRp4686
(dp4687
g82
(dp4688
g102
g103
ssg91
g4682
sg84
(lp4689
S'copyright'
p4690
asbag77
(g98
g79
NtRp4691
(dp4692
g82
(dp4693
g109
g110
ssg91
g4682
sg84
(lp4694
S':'
asbag77
(g98
g79
NtRp4695
(dp4696
g82
(dp4697
sg91
g4682
sg84
(lp4698
g77
(g78
g79
NtRp4699
(dp4700
g82
(dp4701
g90
I4
ssg91
g4695
sg84
(lp4702
S'Copyright 2011'
p4703
asbasbasbag77
(g93
g79
NtRp4704
(dp4705
g82
(dp4706
sg91
g4656
sg84
(lp4707
g77
(g98
g79
NtRp4708
(dp4709
g82
(dp4710
g102
g103
ssg91
g4704
sg84
(lp4711
S'description'
p4712
asbag77
(g98
g79
NtRp4713
(dp4714
g82
(dp4715
g109
g110
ssg91
g4704
sg84
(lp4716
S':'
asbag77
(g98
g79
NtRp4717
(dp4718
g82
(dp4719
sg91
g4704
sg84
(lp4720
g77
(g78
g79
NtRp4721
(dp4722
g82
(dp4723
g90
I4
ssg91
g4717
sg84
(lp4724
S'a cool new app'
p4725
asbasbasbag77
(g93
g79
NtRp4726
(dp4727
g82
(dp4728
sg91
g4656
sg84
(lp4729
g77
(g98
g79
NtRp4730
(dp4731
g82
(dp4732
g102
g103
ssg91
g4726
sg84
(lp4733
S'generator'
p4734
asbag77
(g98
g79
NtRp4735
(dp4736
g82
(dp4737
g109
g110
ssg91
g4726
sg84
(lp4738
S':'
asbag77
(g98
g79
NtRp4739
(dp4740
g82
(dp4741
sg91
g4726
sg84
(lp4742
g77
(g78
g79
NtRp4743
(dp4744
g82
(dp4745
g90
I4
ssg91
g4739
sg84
(lp4746
S'Web2py Web Framework'
p4747
asbasbasbag77
(g93
g79
NtRp4748
(dp4749
g82
(dp4750
sg91
g4656
sg84
(lp4751
g77
(g98
g79
NtRp4752
(dp4753
g82
(dp4754
g102
g103
ssg91
g4748
sg84
(lp4755
S'keywords'
p4756
asbag77
(g98
g79
NtRp4757
(dp4758
g82
(dp4759
g109
g110
ssg91
g4748
sg84
(lp4760
S':'
asbag77
(g98
g79
NtRp4761
(dp4762
g82
(dp4763
sg91
g4748
sg84
(lp4764
g77
(g78
g79
NtRp4765
(dp4766
g82
(dp4767
g90
I4
ssg91
g4761
sg84
(lp4768
S'web2py, python, framework'
p4769
asbasbasbasbasbasbasbag77
(g93
g79
NtRp4770
(dp4771
g82
(dp4772
sg91
g3510
sg84
(lp4773
g77
(g98
g79
NtRp4774
(dp4775
g82
(dp4776
g102
g103
ssg91
g4770
sg84
(lp4777
S'postprocessing'
p4778
asbag77
(g98
g79
NtRp4779
(dp4780
g82
(dp4781
g109
g110
ssg91
g4770
sg84
(lp4782
S':'
asbag77
(g98
g79
NtRp4783
(dp4784
g82
(dp4785
sg91
g4770
sg84
(lp4786
g77
(g78
g79
NtRp4787
(dp4788
g82
(dp4789
g90
I5
ssg91
g4783
sg84
(lp4790
g77
(g86
g79
NtRp4791
(dp4792
g82
(dp4793
g90
I4
ssg91
Nsg84
(lp4794
sbasbasbasbag77
(g93
g79
NtRp4795
(dp4796
g82
(dp4797
sg91
g3510
sg84
(lp4798
g77
(g98
g79
NtRp4799
(dp4800
g82
(dp4801
g102
g103
ssg91
g4795
sg84
(lp4802
S'session_file'
p4803
asbag77
(g98
g79
NtRp4804
(dp4805
g82
(dp4806
g109
g110
ssg91
g4795
sg84
(lp4807
S':'
asbag77
(g98
g79
NtRp4808
(dp4809
g82
(dp4810
sg91
g4795
sg84
(lp4811
g77
(g78
g79
NtRp4812
(dp4813
g82
(dp4814
g90
I5
ssg91
g4808
sg84
(lp4815
S"<open file '/home/iscott/web/web2py/applications/grammateus3/sessions/127.0.0.1-4f98ec66-c173-46dc-a836-3a6d8de0d450', mode 'rb+' at 0xae80968>"
p4816
asbasbasbag77
(g93
g79
NtRp4817
(dp4818
g82
(dp4819
sg91
g3510
sg84
(lp4820
g77
(g98
g79
NtRp4821
(dp4822
g82
(dp4823
g102
g103
ssg91
g4817
sg84
(lp4824
S'session_filename'
p4825
asbag77
(g98
g79
NtRp4826
(dp4827
g82
(dp4828
g109
g110
ssg91
g4817
sg84
(lp4829
S':'
asbag77
(g98
g79
NtRp4830
(dp4831
g82
(dp4832
sg91
g4817
sg84
(lp4833
g77
(g78
g79
NtRp4834
(dp4835
g82
(dp4836
g90
I5
ssg91
g4830
sg84
(lp4837
S'/home/iscott/web/web2py/applications/grammateus3/sessions/127.0.0.1-4f98ec66-c173-46dc-a836-3a6d8de0d450'
p4838
asbasbasbag77
(g93
g79
NtRp4839
(dp4840
g82
(dp4841
sg91
g3510
sg84
(lp4842
g77
(g98
g79
NtRp4843
(dp4844
g82
(dp4845
g102
g103
ssg91
g4839
sg84
(lp4846
S'session_id'
p4847
asbag77
(g98
g79
NtRp4848
(dp4849
g82
(dp4850
g109
g110
ssg91
g4839
sg84
(lp4851
S':'
asbag77
(g98
g79
NtRp4852
(dp4853
g82
(dp4854
sg91
g4839
sg84
(lp4855
g77
(g78
g79
NtRp4856
(dp4857
g82
(dp4858
g90
I5
ssg91
g4852
sg84
(lp4859
S'127.0.0.1-4f98ec66-c173-46dc-a836-3a6d8de0d450'
p4860
asbasbasbag77
(g93
g79
NtRp4861
(dp4862
g82
(dp4863
sg91
g3510
sg84
(lp4864
g77
(g98
g79
NtRp4865
(dp4866
g82
(dp4867
g102
g103
ssg91
g4861
sg84
(lp4868
S'session_id_name'
p4869
asbag77
(g98
g79
NtRp4870
(dp4871
g82
(dp4872
g109
g110
ssg91
g4861
sg84
(lp4873
S':'
asbag77
(g98
g79
NtRp4874
(dp4875
g82
(dp4876
sg91
g4861
sg84
(lp4877
g77
(g78
g79
NtRp4878
(dp4879
g82
(dp4880
g90
I5
ssg91
g4874
sg84
(lp4881
g3567
asbasbasbag77
(g93
g79
NtRp4882
(dp4883
g82
(dp4884
sg91
g3510
sg84
(lp4885
g77
(g98
g79
NtRp4886
(dp4887
g82
(dp4888
g102
g103
ssg91
g4882
sg84
(lp4889
S'session_locked'
p4890
asbag77
(g98
g79
NtRp4891
(dp4892
g82
(dp4893
g109
g110
ssg91
g4882
sg84
(lp4894
S':'
asbag77
(g98
g79
NtRp4895
(dp4896
g82
(dp4897
sg91
g4882
sg84
(lp4898
g77
(g78
g79
NtRp4899
(dp4900
g82
(dp4901
g90
I5
ssg91
g4895
sg84
(lp4902
g2037
asbasbasbag77
(g93
g79
NtRp4903
(dp4904
g82
(dp4905
sg91
g3510
sg84
(lp4906
g77
(g98
g79
NtRp4907
(dp4908
g82
(dp4909
g102
g103
ssg91
g4903
sg84
(lp4910
S'session_new'
p4911
asbag77
(g98
g79
NtRp4912
(dp4913
g82
(dp4914
g109
g110
ssg91
g4903
sg84
(lp4915
S':'
asbag77
(g98
g79
NtRp4916
(dp4917
g82
(dp4918
sg91
g4903
sg84
(lp4919
g77
(g78
g79
NtRp4920
(dp4921
g82
(dp4922
g90
I5
ssg91
g4916
sg84
(lp4923
g120
asbasbasbag77
(g93
g79
NtRp4924
(dp4925
g82
(dp4926
sg91
g3510
sg84
(lp4927
g77
(g98
g79
NtRp4928
(dp4929
g82
(dp4930
g102
g103
ssg91
g4924
sg84
(lp4931
S'status'
p4932
asbag77
(g98
g79
NtRp4933
(dp4934
g82
(dp4935
g109
g110
ssg91
g4924
sg84
(lp4936
S':'
asbag77
(g98
g79
NtRp4937
(dp4938
g82
(dp4939
sg91
g4924
sg84
(lp4940
g77
(g78
g79
NtRp4941
(dp4942
g82
(dp4943
g90
I5
ssg91
g4937
sg84
(lp4944
S'200'
p4945
asbasbasbag77
(g93
g79
NtRp4946
(dp4947
g82
(dp4948
sg91
g3510
sg84
(lp4949
g77
(g98
g79
NtRp4950
(dp4951
g82
(dp4952
g102
g103
ssg91
g4946
sg84
(lp4953
S'subtitle'
p4954
asbag77
(g98
g79
NtRp4955
(dp4956
g82
(dp4957
g109
g110
ssg91
g4946
sg84
(lp4958
S':'
asbag77
(g98
g79
NtRp4959
(dp4960
g82
(dp4961
sg91
g4946
sg84
(lp4962
g77
(g78
g79
NtRp4963
(dp4964
g82
(dp4965
g90
I5
ssg91
g4959
sg84
(lp4966
g4015
(S's\r\x00\x00\x00customize me!'
tRp4967
asbasbasbag77
(g93
g79
NtRp4968
(dp4969
g82
(dp4970
sg91
g3510
sg84
(lp4971
g77
(g98
g79
NtRp4972
(dp4973
g82
(dp4974
g102
g103
ssg91
g4968
sg84
(lp4975
S'title'
p4976
asbag77
(g98
g79
NtRp4977
(dp4978
g82
(dp4979
g109
g110
ssg91
g4968
sg84
(lp4980
S':'
asbag77
(g98
g79
NtRp4981
(dp4982
g82
(dp4983
sg91
g4968
sg84
(lp4984
g77
(g78
g79
NtRp4985
(dp4986
g82
(dp4987
g90
I5
ssg91
g4981
sg84
(lp4988
S'Grammateus3'
p4989
asbasbasbag77
(g93
g79
NtRp4990
(dp4991
g82
(dp4992
sg91
g3510
sg84
(lp4993
g77
(g98
g79
NtRp4994
(dp4995
g82
(dp4996
g102
g103
ssg91
g4990
sg84
(lp4997
g2722
asbag77
(g98
g79
NtRp4998
(dp4999
g82
(dp5000
g109
g110
ssg91
g4990
sg84
(lp5001
S':'
asbag77
(g98
g79
NtRp5002
(dp5003
g82
(dp5004
sg91
g4990
sg84
(lp5005
g77
(g78
g79
NtRp5006
(dp5007
g82
(dp5008
g90
I5
ssg91
g5002
sg84
(lp5009
g2735
asbasbasbag77
(g93
g79
NtRp5010
(dp5011
g82
(dp5012
sg91
g3510
sg84
(lp5013
g77
(g98
g79
NtRp5014
(dp5015
g82
(dp5016
g102
g103
ssg91
g5010
sg84
(lp5017
S'view'
p5018
asbag77
(g98
g79
NtRp5019
(dp5020
g82
(dp5021
g109
g110
ssg91
g5010
sg84
(lp5022
S':'
asbag77
(g98
g79
NtRp5023
(dp5024
g82
(dp5025
sg91
g5010
sg84
(lp5026
g77
(g78
g79
NtRp5027
(dp5028
g82
(dp5029
g90
I5
ssg91
g5023
sg84
(lp5030
S'docs/test.html'
p5031
asbasbasbasbasbsS'locals'
p5032
(dp5033
S'_ModifyContentOnlyProxy'
p5034
S"<type 'lxml.etree._ModifyContentOnlyProxy'>"
p5035
sS'XPathEvaluator'
p5036
S'<built-in function XPathEvaluator>'
p5037
sS'ParserBasedElementClassLookup'
p5038
S"<type 'lxml.etree.ParserBasedElementClassLookup'>"
p5039
sS'_Attrib'
p5040
S"<type 'lxml.etree._Attrib'>"
p5041
sS'_FilelikeWriter'
p5042
S"<type 'lxml.etree._FilelikeWriter'>"
p5043
sS'strip_attributes'
p5044
S'<built-in function strip_attributes>'
p5045
sS'SiblingsIterator'
p5046
S"<type 'lxml.etree.SiblingsIterator'>"
p5047
sS'LIBXSLT_VERSION'
p5048
S'(1, 1, 26)'
p5049
sS'XMLDTDID'
p5050
S'<built-in function XMLDTDID>'
p5051
sS'ElementTree'
p5052
S'<built-in function ElementTree>'
p5053
sS'cleanup_namespaces'
p5054
S'<built-in function cleanup_namespaces>'
p5055
sS'set_default_parser'
p5056
S'<built-in function set_default_parser>'
p5057
sS'ElementClassLookup'
p5058
S"<type 'lxml.etree.ElementClassLookup'>"
p5059
sS'parseid'
p5060
S'<built-in function parseid>'
p5061
sS'LxmlSyntaxError'
p5062
S"<class 'lxml.etree.LxmlSyntaxError'>"
p5063
sS'_XSLTProcessingInstruction'
p5064
S"<type 'lxml.etree._XSLTProcessingInstruction'>"
p5065
sS'_ParserContext'
p5066
S"<type 'lxml.etree._ParserContext'>"
p5067
sS'__pyx_capi__'
p5068
S'{\'appendChild\': <capsule object "void (struct LxmlElement *, struct LxmlElement *)">, \'attributeValue\': <capsule object "PyObject *(xmlNode *, xmlAttr *)">, \'attributeValueFromNsName\': <capsule object "PyObject *(xmlNode *, char *, char *)">, \'callLookupFallback\': <capsule object "PyObject *(struct LxmlFallbackE...lassLookup *, struct LxmlDocument *, xmlNode *)">, \'collectAttributes\': <capsule object "PyObject *(xmlNode *, int)">, \'deepcopyNodeToDocument\': <capsule object "struct LxmlElement *(struct LxmlDocument *, xmlNode *)">, \'delAttribute\': <capsule object "int (struct LxmlElement *, PyObject *)">, \'delAttributeFromNsName\': <capsule object "int (xmlNode *, char *, char *)">, \'documentOrRaise\': <capsule object "struct LxmlDocument *(PyObject *)">, \'elementFactory\': <capsule object "struct LxmlElement *(struct LxmlDocument *, xmlNode *)">, ...}'
p5069
sS'_ModifyContentOnlyEntityProxy'
p5070
S"<type 'lxml.etree._ModifyContentOnlyEntityProxy'>"
p5071
sS'_IDDict'
p5072
S"<type 'lxml.etree._IDDict'>"
p5073
sS'XSLTParseError'
p5074
S"<class 'lxml.etree.XSLTParseError'>"
p5075
sS'__ContentOnlyElement'
p5076
S"<type 'lxml.etree.__ContentOnlyElement'>"
p5077
sS'CustomElementClassLookup'
p5078
S"<type 'lxml.etree.CustomElementClassLookup'>"
p5079
sS'_OpaqueNodeWrapper'
p5080
S"<type 'lxml.etree._OpaqueNodeWrapper'>"
p5081
sS'_XPathFunctionNamespaceRegistry'
p5082
S"<type 'lxml.etree._XPathFunctionNamespaceRegistry'>"
p5083
sS'_ReadOnlyElementProxy'
p5084
S"<type 'lxml.etree._ReadOnlyElementProxy'>"
p5085
sS'LxmlRegistryError'
p5086
S"<class 'lxml.etree.LxmlRegistryError'>"
p5087
sS'__file__'
p5088
S"'/usr/lib/python2.7/dist-packages/lxml/etree.so'"
p5089
sS'TreeBuilder'
p5090
S"<type 'lxml.etree.TreeBuilder'>"
p5091
sS'_FileReaderContext'
p5092
S"<type 'lxml.etree._FileReaderContext'>"
p5093
sS'C14NError'
p5094
S"<class 'lxml.etree.C14NError'>"
p5095
sS'CommentBase'
p5096
S"<type 'lxml.etree.CommentBase'>"
p5097
sS'tostring'
p5098
S'<built-in function tostring>'
p5099
sS'iselement'
p5100
S'<built-in function iselement>'
p5101
sS'_FeedParser'
p5102
S"<type 'lxml.etree._FeedParser'>"
p5103
sS'XPathError'
p5104
S"<class 'lxml.etree.XPathError'>"
p5105
sS'LxmlError'
p5106
S"<class 'lxml.etree.LxmlError'>"
p5107
sS'__version__'
p5108
S"u'2.3.0'"
p5109
sS'_ExsltRegExp'
p5110
S"<type 'lxml.etree._ExsltRegExp'>"
p5111
sS'XMLID'
p5112
S'<built-in function XMLID>'
p5113
sS'DocumentInvalid'
p5114
S"<class 'lxml.etree.DocumentInvalid'>"
p5115
sS'FunctionNamespace'
p5116
S'<built-in function FunctionNamespace>'
p5117
sS'XSLTExtensionError'
p5118
S"<class 'lxml.etree.XSLTExtensionError'>"
p5119
sS'_IterparseContext'
p5120
S"<type 'lxml.etree._IterparseContext'>"
p5121
sS'Entity'
p5122
S'<built-in function Entity>'
p5123
sS'_Entity'
p5124
S"<type 'lxml.etree._Entity'>"
p5125
sS'iterparse'
p5126
S"<type 'lxml.etree.iterparse'>"
p5127
sS'_XPathContext'
p5128
S"<type 'lxml.etree._XPathContext'>"
p5129
sS'__package__'
p5130
S"'lxml'"
p5131
sS'ElementChildIterator'
p5132
S"<type 'lxml.etree.ElementChildIterator'>"
p5133
sS'XPath'
p5134
S"<type 'lxml.etree.XPath'>"
p5135
sS'_LogEntry'
p5136
S"<type 'lxml.etree._LogEntry'>"
p5137
sS'_ResolverContext'
p5138
S"<type 'lxml.etree._ResolverContext'>"
p5139
sS'_AttribIterator'
p5140
S"<type 'lxml.etree._AttribIterator'>"
p5141
sS'_ReadOnlyEntityProxy'
p5142
S"<type 'lxml.etree._ReadOnlyEntityProxy'>"
p5143
sS'PyErrorLog'
p5144
S"<type 'lxml.etree.PyErrorLog'>"
p5145
sS'_SaxParserContext'
p5146
S"<type 'lxml.etree._SaxParserContext'>"
p5147
sS'_ElementTree'
p5148
S"<type 'lxml.etree._ElementTree'>"
p5149
sS'_ListErrorLog'
p5150
S"<type 'lxml.etree._ListErrorLog'>"
p5151
sS'DTD'
p5152
S"<type 'lxml.etree.DTD'>"
p5153
sS'AttributeBasedElementClassLookup'
p5154
S"<type 'lxml.etree.AttributeBasedElementClassLookup'>"
p5155
sS'HTMLParser'
p5156
S"<type 'lxml.etree.HTMLParser'>"
p5157
sS'ElementNamespaceClassLookup'
p5158
S"<type 'lxml.etree.ElementNamespaceClassLookup'>"
p5159
sS'XPathFunctionError'
p5160
S"<class 'lxml.etree.XPathFunctionError'>"
p5161
sS'ElementDepthFirstIterator'
p5162
S"<type 'lxml.etree.ElementDepthFirstIterator'>"
p5163
sS'XMLParser'
p5164
S"<type 'lxml.etree.XMLParser'>"
p5165
sS'XInclude'
p5166
S"<type 'lxml.etree.XInclude'>"
p5167
sS'Schematron'
p5168
S"<type 'lxml.etree.Schematron'>"
p5169
sS'__all__'
p5170
S"['AttributeBasedElementClassLookup', 'C14NError', 'CDATA', 'Comment', 'CommentBase', 'CustomElementClassLookup', 'DEBUG', 'DTD', 'DTDError', 'DTDParseError', 'DTDValidateError', 'DocumentInvalid', 'ETCompatXMLParser', 'ETXPath', 'Element', 'ElementBase', 'ElementClassLookup', 'ElementDefaultClassLookup', 'ElementNamespaceClassLookup', 'ElementTree', ...]"
p5171
sS'NamespaceRegistryError'
p5172
S"<class 'lxml.etree.NamespaceRegistryError'>"
p5173
sS'_Document'
p5174
S"<type 'lxml.etree._Document'>"
p5175
sS'strip_elements'
p5176
S'<built-in function strip_elements>'
p5177
sS'_XSLTContext'
p5178
S"<type 'lxml.etree._XSLTContext'>"
p5179
sS'HTML'
p5180
S'<built-in function HTML>'
p5181
sS'RelaxNG'
p5182
S"<type 'lxml.etree.RelaxNG'>"
p5183
sS'_BaseErrorLog'
p5184
S"<type 'lxml.etree._BaseErrorLog'>"
p5185
sS'PI'
p5186
S'<built-in function ProcessingInstruction>'
p5187
sS'_ParserSchemaValidationContext'
p5188
S"<type 'lxml.etree._ParserSchemaValidationContext'>"
p5189
sS'Extension'
p5190
S'<built-in function Extension>'
p5191
sS'__builtins__'
p5192
S"<module '__builtin__' (built-in)>"
p5193
sS'SchematronParseError'
p5194
S"<class 'lxml.etree.SchematronParseError'>"
p5195
sS'_Element'
p5196
S"<type 'lxml.etree._Element'>"
p5197
sS'XSLTExtension'
p5198
S"<type 'lxml.etree.XSLTExtension'>"
p5199
sS'XMLSchemaValidateError'
p5200
S"<class 'lxml.etree.XMLSchemaValidateError'>"
p5201
sS'XMLSchema'
p5202
S"<type 'lxml.etree.XMLSchema'>"
p5203
sS'DEBUG'
p5204
S'1'
sS'__name__'
p5205
S"'lxml.etree'"
p5206
sS'_ElementUnicodeResult'
p5207
S"<type 'lxml.etree._ElementUnicodeResult'>"
p5208
sS'ErrorTypes'
p5209
S"<class 'lxml.etree.ErrorTypes'>"
p5210
sS'Comment'
p5211
S'<built-in function Comment>'
p5212
sS'XMLTreeBuilder'
p5213
S"<type 'lxml.etree.ETCompatXMLParser'>"
p5214
sS'RelaxNGErrorTypes'
p5215
S"<class 'lxml.etree.RelaxNGErrorTypes'>"
p5216
sS'iterwalk'
p5217
S"<type 'lxml.etree.iterwalk'>"
p5218
sS'ProcessingInstruction'
p5219
S'<built-in function ProcessingInstruction>'
p5220
sS'LXML_VERSION'
p5221
S'(2, 3, 0, 0)'
p5222
sS'_InputDocument'
p5223
S"<type 'lxml.etree._InputDocument'>"
p5224
sS'RelaxNGValidateError'
p5225
S"<class 'lxml.etree.RelaxNGValidateError'>"
p5226
sS'strip_tags'
p5227
S'<built-in function strip_tags>'
p5228
sS'XIncludeError'
p5229
S"<class 'lxml.etree.XIncludeError'>"
p5230
sS'tounicode'
p5231
S'<built-in function tounicode>'
p5232
sS'PIBase'
p5233
S"<type 'lxml.etree.PIBase'>"
p5234
sS'_XSLTResolverContext'
p5235
S"<type 'lxml.etree._XSLTResolverContext'>"
p5236
sS'_ParserDictionaryContext'
p5237
S"<type 'lxml.etree._ParserDictionaryContext'>"
p5238
sS'ParserError'
p5239
S"<class 'lxml.etree.ParserError'>"
p5240
sS'_ElementIterator'
p5241
S"<type 'lxml.etree._ElementIterator'>"
p5242
sS'__docformat__'
p5243
S"u'restructuredtext en'"
p5244
sS'SerialisationError'
p5245
S"<class 'lxml.etree.SerialisationError'>"
p5246
sS'_ReadOnlyProxy'
p5247
S"<type 'lxml.etree._ReadOnlyProxy'>"
p5248
sS'_ReadOnlyPIProxy'
p5249
S"<type 'lxml.etree._ReadOnlyPIProxy'>"
p5250
sS'DocInfo'
p5251
S"<type 'lxml.etree.DocInfo'>"
p5252
sg3344
S'<built-in function dump>'
p5253
sS'XSLTSaveError'
p5254
S"<class 'lxml.etree.XSLTSaveError'>"
p5255
sS'LIBXSLT_COMPILED_VERSION'
p5256
S'(1, 1, 26)'
p5257
sS'ElementTextIterator'
p5258
S"<type 'lxml.etree.ElementTextIterator'>"
p5259
sg46
S"'The ``lxml.etree`` module implements the extended ElementTree API\\nfor XML.\\n'"
p5260
sS'_AppendOnlyElementProxy'
p5261
S"<type 'lxml.etree._AppendOnlyElementProxy'>"
p5262
sS'XPathElementEvaluator'
p5263
S"<type 'lxml.etree.XPathElementEvaluator'>"
p5264
sS'XML'
p5265
S'<built-in function XML>'
p5266
sS'XSLTError'
p5267
S"<class 'lxml.etree.XSLTError'>"
p5268
sS'XSLT'
p5269
S"<type 'lxml.etree.XSLT'>"
p5270
sS'_DomainErrorLog'
p5271
S"<type 'lxml.etree._DomainErrorLog'>"
p5272
sS'AncestorsIterator'
p5273
S"<type 'lxml.etree.AncestorsIterator'>"
p5274
sS'_BaseContext'
p5275
S"<type 'lxml.etree._BaseContext'>"
p5276
sS'_ModifyContentOnlyPIProxy'
p5277
S"<type 'lxml.etree._ModifyContentOnlyPIProxy'>"
p5278
sS'_BaseParser'
p5279
S"<type 'lxml.etree._BaseParser'>"
p5280
sS'Error'
p5281
S"<class 'lxml.etree.Error'>"
p5282
sS'ErrorLevels'
p5283
S"<class 'lxml.etree.ErrorLevels'>"
p5284
sS'_TargetParserContext'
p5285
S"<type 'lxml.etree._TargetParserContext'>"
p5286
sS'LIBXML_VERSION'
p5287
S'(2, 7, 8)'
p5288
sS'XPathResultError'
p5289
S"<class 'lxml.etree.XPathResultError'>"
p5290
sS'_OpaqueDocumentWrapper'
p5291
S"<type 'lxml.etree._OpaqueDocumentWrapper'>"
p5292
sS'XSLTAccessControl'
p5293
S"<type 'lxml.etree.XSLTAccessControl'>"
p5294
sS'XMLSyntaxError'
p5295
S"<class 'lxml.etree.XMLSyntaxError'>"
p5296
sS'XMLSchemaParseError'
p5297
S"<class 'lxml.etree.XMLSchemaParseError'>"
p5298
sS'EntityBase'
p5299
S"<type 'lxml.etree.EntityBase'>"
p5300
sS'_ExceptionContext'
p5301
S"<type 'lxml.etree._ExceptionContext'>"
p5302
sS'SubElement'
p5303
S'<built-in function SubElement>'
p5304
sS'CDATA'
p5305
S"<type 'lxml.etree.CDATA'>"
p5306
sS'_ElementTagMatcher'
p5307
S"<type 'lxml.etree._ElementTagMatcher'>"
p5308
sS'DTDError'
p5309
S"<class 'lxml.etree.DTDError'>"
p5310
sS'_ProcessingInstruction'
p5311
S"<type 'lxml.etree._ProcessingInstruction'>"
p5312
sS'get_default_parser'
p5313
S'<built-in function get_default_parser>'
p5314
sS'register_namespace'
p5315
S'<built-in function register_namespace>'
p5316
sS'ErrorDomains'
p5317
S"<class 'lxml.etree.ErrorDomains'>"
p5318
sS'LIBXML_COMPILED_VERSION'
p5319
S'(2, 7, 8)'
p5320
sS'DTDValidateError'
p5321
S"<class 'lxml.etree.DTDValidateError'>"
p5322
sS'_SaxParserTarget'
p5323
S"<type 'lxml.etree._SaxParserTarget'>"
p5324
sS'parse'
p5325
S'<built-in function parse>'
p5326
sS'set_element_class_lookup'
p5327
S'<built-in function set_element_class_lookup>'
p5328
sS'_TargetParserResult'
p5329
S"<class 'lxml.etree._TargetParserResult'>"
p5330
sS'FallbackElementClassLookup'
p5331
S"<type 'lxml.etree.FallbackElementClassLookup'>"
p5332
sS'RelaxNGError'
p5333
S"<class 'lxml.etree.RelaxNGError'>"
p5334
sS'XPathEvalError'
p5335
S"<class 'lxml.etree.XPathEvalError'>"
p5336
sS'PythonElementClassLookup'
p5337
S"<type 'lxml.etree.PythonElementClassLookup'>"
p5338
sS'_FunctionNamespaceRegistry'
p5339
S"<type 'lxml.etree._FunctionNamespaceRegistry'>"
p5340
sS'clear_error_log'
p5341
S'<built-in function clear_error_log>'
p5342
sS'_RotatingErrorLog'
p5343
S"<type 'lxml.etree._RotatingErrorLog'>"
p5344
sS'XPathDocumentEvaluator'
p5345
S"<type 'lxml.etree.XPathDocumentEvaluator'>"
p5346
sS'_XSLTQuotedStringParam'
p5347
S"<type 'lxml.etree._XSLTQuotedStringParam'>"
p5348
sS'ETXPath'
p5349
S"<type 'lxml.etree.ETXPath'>"
p5350
sS'SchematronError'
p5351
S"<class 'lxml.etree.SchematronError'>"
p5352
sS'Resolver'
p5353
S"<type 'lxml.etree.Resolver'>"
p5354
sS'_NamespaceRegistry'
p5355
S"<type 'lxml.etree._NamespaceRegistry'>"
p5356
sS'fromstringlist'
p5357
S'<built-in function fromstringlist>'
p5358
sS'XSLTApplyError'
p5359
S"<class 'lxml.etree.XSLTApplyError'>"
p5360
sS'_Comment'
p5361
S"<type 'lxml.etree._Comment'>"
p5362
sS'_Validator'
p5363
S"<type 'lxml.etree._Validator'>"
p5364
sS'DTDParseError'
p5365
S"<class 'lxml.etree.DTDParseError'>"
p5366
sS'_ResolverRegistry'
p5367
S"<type 'lxml.etree._ResolverRegistry'>"
p5368
sS'_XPathEvaluatorBase'
p5369
S"<type 'lxml.etree._XPathEvaluatorBase'>"
p5370
sS'_ErrorLog'
p5371
S"<type 'lxml.etree._ErrorLog'>"
p5372
sS'Element'
p5373
S'<built-in function Element>'
p5374
sS'ElementBase'
p5375
S"<type 'lxml.etree.ElementBase'>"
p5376
sS'_ElementStringResult'
p5377
S"<class 'lxml.etree._ElementStringResult'>"
p5378
sS'XPathSyntaxError'
p5379
S"<class 'lxml.etree.XPathSyntaxError'>"
p5380
sS'ParseError'
p5381
S"<class 'lxml.etree.ParseError'>"
p5382
sS'_ClassNamespaceRegistry'
p5383
S"<type 'lxml.etree._ClassNamespaceRegistry'>"
p5384
sS'_PythonSaxParserTarget'
p5385
S"<type 'lxml.etree._PythonSaxParserTarget'>"
p5386
sS'_XSLTResultTree'
p5387
S"<type 'lxml.etree._XSLTResultTree'>"
p5388
sS'_TempStore'
p5389
S"<type 'lxml.etree._TempStore'>"
p5390
sS'XMLSchemaError'
p5391
S"<class 'lxml.etree.XMLSchemaError'>"
p5392
sS'use_global_python_log'
p5393
S'<built-in function use_global_python_log>'
p5394
sS'tostringlist'
p5395
S'<built-in function tostringlist>'
p5396
sS'fromstring'
p5397
S'<built-in function fromstring>'
p5398
sS'QName'
p5399
S"<type 'lxml.etree.QName'>"
p5400
sS'SchematronValidateError'
p5401
S"<class 'lxml.etree.SchematronValidateError'>"
p5402
sS'ETCompatXMLParser'
p5403
S"<type 'lxml.etree.ETCompatXMLParser'>"
p5404
sS'RelaxNGParseError'
p5405
S"<class 'lxml.etree.RelaxNGParseError'>"
p5406
sS'__test__'
p5407
S"{u'XML (line 2700)': u'XML(text, parser=None, base_url=None)\\n\\n    P...ternal entities\\n    (DTD, XInclude, ...).\\n    '}"
p5408
sS'ElementDefaultClassLookup'
p5409
S"<type 'lxml.etree.ElementDefaultClassLookup'>"
p5410
sssS'traceback'
p5411
S'Traceback (most recent call last):\n  File "/home/iscott/web/web2py/gluon/restricted.py", line 204, in restricted\n    exec ccode in environment\n  File "/home/iscott/web/web2py/applications/grammateus3/controllers/docs.py", line 38, in <module>\n  File "/home/iscott/web/web2py/gluon/globals.py", line 172, in <lambda>\n    self._caller = lambda f: f()\n  File "/home/iscott/web/web2py/applications/grammateus3/controllers/docs.py", line 17, in test\n    p = BookParser(book_file)\n  File "applications/grammateus3/modules/parse.py", line 25, in __init__\n    self.tree = etree.parse(xml_file, parser)\n  File "lxml.etree.pyx", line 2942, in lxml.etree.parse (src/lxml/lxml.etree.c:54187)\n  File "parser.pxi", line 1528, in lxml.etree._parseDocument (src/lxml/lxml.etree.c:79485)\n  File "parser.pxi", line 1557, in lxml.etree._parseDocumentFromURL (src/lxml/lxml.etree.c:79768)\n  File "parser.pxi", line 1457, in lxml.etree._parseDocFromFile (src/lxml/lxml.etree.c:78843)\n  File "parser.pxi", line 997, in lxml.etree._BaseParser._parseDocFromFile (src/lxml/lxml.etree.c:75698)\n  File "parser.pxi", line 564, in lxml.etree._ParserContext._handleParseResultDoc (src/lxml/lxml.etree.c:71739)\n  File "parser.pxi", line 645, in lxml.etree._handleParseResult (src/lxml/lxml.etree.c:72614)\n  File "parser.pxi", line 585, in lxml.etree._raiseParseError (src/lxml/lxml.etree.c:71955)\nXMLSyntaxError: Document is empty, line 1, column 1\n'
p5412
s.