(dp1
S'output'
p2
S''
sS'layer'
p3
S'Framework'
p4
sS'code'
p5
S''
sS'snapshot'
p6
(dp7
S'exception'
p8
(dp9
S'__hash__'
p10
S"<method-wrapper '__hash__' of exceptions.TypeError object>"
p11
sS'__setattr__'
p12
S"<method-wrapper '__setattr__' of exceptions.TypeError object>"
p13
sS'__reduce_ex__'
p14
S'<built-in method __reduce_ex__ of exceptions.TypeError object>'
p15
sS'__getslice__'
p16
S"<method-wrapper '__getslice__' of exceptions.TypeError object>"
p17
sS'__getitem__'
p18
S"<method-wrapper '__getitem__' of exceptions.TypeError object>"
p19
sS'__setstate__'
p20
S'<built-in method __setstate__ of exceptions.TypeError object>'
p21
sS'__reduce__'
p22
S'<built-in method __reduce__ of exceptions.TypeError object>'
p23
sS'__str__'
p24
S"<method-wrapper '__str__' of exceptions.TypeError object>"
p25
sS'__format__'
p26
S'<built-in method __format__ of exceptions.TypeError object>'
p27
sS'__getattribute__'
p28
S"<method-wrapper '__getattribute__' of exceptions.TypeError object>"
p29
sS'__class__'
p30
S"<type 'exceptions.TypeError'>"
p31
sS'__unicode__'
p32
S'<built-in method __unicode__ of exceptions.TypeError object>'
p33
sS'__delattr__'
p34
S"<method-wrapper '__delattr__' of exceptions.TypeError object>"
p35
sS'__subclasshook__'
p36
S'<built-in method __subclasshook__ of type object>'
p37
sS'__repr__'
p38
S"<method-wrapper '__repr__' of exceptions.TypeError object>"
p39
sS'args'
p40
S'("can\'t pickle _Element objects",)'
p41
sS'__dict__'
p42
S'{}'
p43
sS'__sizeof__'
p44
S'<built-in method __sizeof__ of exceptions.TypeError object>'
p45
sS'__doc__'
p46
S"'Inappropriate argument type.'"
p47
sS'__init__'
p48
S"<method-wrapper '__init__' of exceptions.TypeError object>"
p49
sS'__new__'
p50
S'<built-in method __new__ of type object>'
p51
ssS'evalue'
p52
S"can't pickle _Element objects"
p53
sS'request'
p54
ccopy_reg
_reconstructor
p55
(cgluon.html
BEAUTIFY
p56
c__builtin__
object
p57
NtRp58
(dp59
S'attributes'
p60
(dp61
sS'components'
p62
(lp63
g55
(cgluon.html
TABLE
p64
g57
NtRp65
(dp66
g60
(dp67
S'level'
p68
I5
ssS'parent'
p69
Nsg62
(lp70
g55
(cgluon.html
TR
p71
g57
NtRp72
(dp73
g60
(dp74
sg69
g65
sg62
(lp75
g55
(cgluon.html
TD
p76
g57
NtRp77
(dp78
g60
(dp79
S'_style'
p80
S'font-weight:bold;vertical-align:top'
p81
ssg69
g72
sg62
(lp82
S'ajax'
p83
asbag55
(g76
g57
NtRp84
(dp85
g60
(dp86
S'_valign'
p87
S'top'
p88
ssg69
g72
sg62
(lp89
S':'
asbag55
(g76
g57
NtRp90
(dp91
g60
(dp92
sg69
g72
sg62
(lp93
g55
(g56
g57
NtRp94
(dp95
g60
(dp96
g68
I5
ssg69
g90
sg62
(lp97
S'False'
p98
asbasbasbag55
(g71
g57
NtRp99
(dp100
g60
(dp101
sg69
g65
sg62
(lp102
g55
(g76
g57
NtRp103
(dp104
g60
(dp105
g80
g81
ssg69
g99
sg62
(lp106
S'application'
p107
asbag55
(g76
g57
NtRp108
(dp109
g60
(dp110
g87
g88
ssg69
g99
sg62
(lp111
S':'
asbag55
(g76
g57
NtRp112
(dp113
g60
(dp114
sg69
g99
sg62
(lp115
g55
(g56
g57
NtRp116
(dp117
g60
(dp118
g68
I5
ssg69
g112
sg62
(lp119
S'grammateus3'
p120
asbasbasbag55
(g71
g57
NtRp121
(dp122
g60
(dp123
sg69
g65
sg62
(lp124
g55
(g76
g57
NtRp125
(dp126
g60
(dp127
g80
g81
ssg69
g121
sg62
(lp128
g40
asbag55
(g76
g57
NtRp129
(dp130
g60
(dp131
g87
g88
ssg69
g121
sg62
(lp132
S':'
asbag55
(g76
g57
NtRp133
(dp134
g60
(dp135
sg69
g121
sg62
(lp136
g55
(g56
g57
NtRp137
(dp138
g60
(dp139
g68
I5
ssg69
g133
sg62
(lp140
g55
(g64
g57
NtRp141
(dp142
g60
(dp143
g68
I4
ssg69
Nsg62
(lp144
g55
(g71
g57
NtRp145
(dp146
g60
(dp147
sg69
g141
sg62
(lp148
g55
(g76
g57
NtRp149
(dp150
g60
(dp151
sg69
g145
sg62
(lp152
g55
(g56
g57
NtRp153
(dp154
g60
(dp155
g68
I4
ssg69
g149
sg62
(lp156
S'1En'
p157
asbasbasbasbasbasbasbag55
(g71
g57
NtRp158
(dp159
g60
(dp160
sg69
g65
sg62
(lp161
g55
(g76
g57
NtRp162
(dp163
g60
(dp164
g80
g81
ssg69
g158
sg62
(lp165
S'body'
p166
asbag55
(g76
g57
NtRp167
(dp168
g60
(dp169
g87
g88
ssg69
g158
sg62
(lp170
S':'
asbag55
(g76
g57
NtRp171
(dp172
g60
(dp173
sg69
g158
sg62
(lp174
g55
(g56
g57
NtRp175
(dp176
g60
(dp177
g68
I5
ssg69
g171
sg62
(lp178
S'<cStringIO.StringO object at 0xb6e4840>'
p179
asbasbasbag55
(g71
g57
NtRp180
(dp181
g60
(dp182
sg69
g65
sg62
(lp183
g55
(g76
g57
NtRp184
(dp185
g60
(dp186
g80
g81
ssg69
g180
sg62
(lp187
S'client'
p188
asbag55
(g76
g57
NtRp189
(dp190
g60
(dp191
g87
g88
ssg69
g180
sg62
(lp192
S':'
asbag55
(g76
g57
NtRp193
(dp194
g60
(dp195
sg69
g180
sg62
(lp196
g55
(g56
g57
NtRp197
(dp198
g60
(dp199
g68
I5
ssg69
g193
sg62
(lp200
S'127.0.0.1'
p201
asbasbasbag55
(g71
g57
NtRp202
(dp203
g60
(dp204
sg69
g65
sg62
(lp205
g55
(g76
g57
NtRp206
(dp207
g60
(dp208
g80
g81
ssg69
g202
sg62
(lp209
S'controller'
p210
asbag55
(g76
g57
NtRp211
(dp212
g60
(dp213
g87
g88
ssg69
g202
sg62
(lp214
S':'
asbag55
(g76
g57
NtRp215
(dp216
g60
(dp217
sg69
g202
sg62
(lp218
g55
(g56
g57
NtRp219
(dp220
g60
(dp221
g68
I5
ssg69
g215
sg62
(lp222
S'docs'
p223
asbasbasbag55
(g71
g57
NtRp224
(dp225
g60
(dp226
sg69
g65
sg62
(lp227
g55
(g76
g57
NtRp228
(dp229
g60
(dp230
g80
g81
ssg69
g224
sg62
(lp231
S'cookies'
p232
asbag55
(g76
g57
NtRp233
(dp234
g60
(dp235
g87
g88
ssg69
g224
sg62
(lp236
S':'
asbag55
(g76
g57
NtRp237
(dp238
g60
(dp239
sg69
g224
sg62
(lp240
g55
(g56
g57
NtRp241
(dp242
g60
(dp243
g68
I5
ssg69
g237
sg62
(lp244
g55
(g64
g57
NtRp245
(dp246
g60
(dp247
g68
I4
ssg69
Nsg62
(lp248
g55
(g71
g57
NtRp249
(dp250
g60
(dp251
sg69
g245
sg62
(lp252
g55
(g76
g57
NtRp253
(dp254
g60
(dp255
g80
g81
ssg69
g249
sg62
(lp256
S'session_id_admin'
p257
asbag55
(g76
g57
NtRp258
(dp259
g60
(dp260
g87
g88
ssg69
g249
sg62
(lp261
S':'
asbag55
(g76
g57
NtRp262
(dp263
g60
(dp264
sg69
g249
sg62
(lp265
g55
(g56
g57
NtRp266
(dp267
g60
(dp268
g68
I4
ssg69
g262
sg62
(lp269
g55
(g64
g57
NtRp270
(dp271
g60
(dp272
g68
I3
ssg69
Nsg62
(lp273
g55
(g71
g57
NtRp274
(dp275
g60
(dp276
sg69
g270
sg62
(lp277
g55
(g76
g57
NtRp278
(dp279
g60
(dp280
g80
g81
ssg69
g274
sg62
(lp281
S'comment'
p282
asbag55
(g76
g57
NtRp283
(dp284
g60
(dp285
g87
g88
ssg69
g274
sg62
(lp286
S':'
asbag55
(g76
g57
NtRp287
(dp288
g60
(dp289
sg69
g274
sg62
(lp290
g55
(g56
g57
NtRp291
(dp292
g60
(dp293
g68
I3
ssg69
g287
sg62
(lp294
S''
asbasbasbag55
(g71
g57
NtRp295
(dp296
g60
(dp297
sg69
g270
sg62
(lp298
g55
(g76
g57
NtRp299
(dp300
g60
(dp301
g80
g81
ssg69
g295
sg62
(lp302
S'domain'
p303
asbag55
(g76
g57
NtRp304
(dp305
g60
(dp306
g87
g88
ssg69
g295
sg62
(lp307
S':'
asbag55
(g76
g57
NtRp308
(dp309
g60
(dp310
sg69
g295
sg62
(lp311
g55
(g56
g57
NtRp312
(dp313
g60
(dp314
g68
I3
ssg69
g308
sg62
(lp315
S''
asbasbasbag55
(g71
g57
NtRp316
(dp317
g60
(dp318
sg69
g270
sg62
(lp319
g55
(g76
g57
NtRp320
(dp321
g60
(dp322
g80
g81
ssg69
g316
sg62
(lp323
S'expires'
p324
asbag55
(g76
g57
NtRp325
(dp326
g60
(dp327
g87
g88
ssg69
g316
sg62
(lp328
S':'
asbag55
(g76
g57
NtRp329
(dp330
g60
(dp331
sg69
g316
sg62
(lp332
g55
(g56
g57
NtRp333
(dp334
g60
(dp335
g68
I3
ssg69
g329
sg62
(lp336
S''
asbasbasbag55
(g71
g57
NtRp337
(dp338
g60
(dp339
sg69
g270
sg62
(lp340
g55
(g76
g57
NtRp341
(dp342
g60
(dp343
g80
g81
ssg69
g337
sg62
(lp344
S'httponly'
p345
asbag55
(g76
g57
NtRp346
(dp347
g60
(dp348
g87
g88
ssg69
g337
sg62
(lp349
S':'
asbag55
(g76
g57
NtRp350
(dp351
g60
(dp352
sg69
g337
sg62
(lp353
g55
(g56
g57
NtRp354
(dp355
g60
(dp356
g68
I3
ssg69
g350
sg62
(lp357
S''
asbasbasbag55
(g71
g57
NtRp358
(dp359
g60
(dp360
sg69
g270
sg62
(lp361
g55
(g76
g57
NtRp362
(dp363
g60
(dp364
g80
g81
ssg69
g358
sg62
(lp365
S'max-age'
p366
asbag55
(g76
g57
NtRp367
(dp368
g60
(dp369
g87
g88
ssg69
g358
sg62
(lp370
S':'
asbag55
(g76
g57
NtRp371
(dp372
g60
(dp373
sg69
g358
sg62
(lp374
g55
(g56
g57
NtRp375
(dp376
g60
(dp377
g68
I3
ssg69
g371
sg62
(lp378
S''
asbasbasbag55
(g71
g57
NtRp379
(dp380
g60
(dp381
sg69
g270
sg62
(lp382
g55
(g76
g57
NtRp383
(dp384
g60
(dp385
g80
g81
ssg69
g379
sg62
(lp386
S'path'
p387
asbag55
(g76
g57
NtRp388
(dp389
g60
(dp390
g87
g88
ssg69
g379
sg62
(lp391
S':'
asbag55
(g76
g57
NtRp392
(dp393
g60
(dp394
sg69
g379
sg62
(lp395
g55
(g56
g57
NtRp396
(dp397
g60
(dp398
g68
I3
ssg69
g392
sg62
(lp399
S''
asbasbasbag55
(g71
g57
NtRp400
(dp401
g60
(dp402
sg69
g270
sg62
(lp403
g55
(g76
g57
NtRp404
(dp405
g60
(dp406
g80
g81
ssg69
g400
sg62
(lp407
S'secure'
p408
asbag55
(g76
g57
NtRp409
(dp410
g60
(dp411
g87
g88
ssg69
g400
sg62
(lp412
S':'
asbag55
(g76
g57
NtRp413
(dp414
g60
(dp415
sg69
g400
sg62
(lp416
g55
(g56
g57
NtRp417
(dp418
g60
(dp419
g68
I3
ssg69
g413
sg62
(lp420
S''
asbasbasbag55
(g71
g57
NtRp421
(dp422
g60
(dp423
sg69
g270
sg62
(lp424
g55
(g76
g57
NtRp425
(dp426
g60
(dp427
g80
g81
ssg69
g421
sg62
(lp428
S'version'
p429
asbag55
(g76
g57
NtRp430
(dp431
g60
(dp432
g87
g88
ssg69
g421
sg62
(lp433
S':'
asbag55
(g76
g57
NtRp434
(dp435
g60
(dp436
sg69
g421
sg62
(lp437
g55
(g56
g57
NtRp438
(dp439
g60
(dp440
g68
I3
ssg69
g434
sg62
(lp441
S''
asbasbasbasbasbasbasbag55
(g71
g57
NtRp442
(dp443
g60
(dp444
sg69
g245
sg62
(lp445
g55
(g76
g57
NtRp446
(dp447
g60
(dp448
g80
g81
ssg69
g442
sg62
(lp449
S'session_id_bloglet'
p450
asbag55
(g76
g57
NtRp451
(dp452
g60
(dp453
g87
g88
ssg69
g442
sg62
(lp454
S':'
asbag55
(g76
g57
NtRp455
(dp456
g60
(dp457
sg69
g442
sg62
(lp458
g55
(g56
g57
NtRp459
(dp460
g60
(dp461
g68
I4
ssg69
g455
sg62
(lp462
g55
(g64
g57
NtRp463
(dp464
g60
(dp465
g68
I3
ssg69
Nsg62
(lp466
g55
(g71
g57
NtRp467
(dp468
g60
(dp469
sg69
g463
sg62
(lp470
g55
(g76
g57
NtRp471
(dp472
g60
(dp473
g80
g81
ssg69
g467
sg62
(lp474
g282
asbag55
(g76
g57
NtRp475
(dp476
g60
(dp477
g87
g88
ssg69
g467
sg62
(lp478
S':'
asbag55
(g76
g57
NtRp479
(dp480
g60
(dp481
sg69
g467
sg62
(lp482
g55
(g56
g57
NtRp483
(dp484
g60
(dp485
g68
I3
ssg69
g479
sg62
(lp486
S''
asbasbasbag55
(g71
g57
NtRp487
(dp488
g60
(dp489
sg69
g463
sg62
(lp490
g55
(g76
g57
NtRp491
(dp492
g60
(dp493
g80
g81
ssg69
g487
sg62
(lp494
g303
asbag55
(g76
g57
NtRp495
(dp496
g60
(dp497
g87
g88
ssg69
g487
sg62
(lp498
S':'
asbag55
(g76
g57
NtRp499
(dp500
g60
(dp501
sg69
g487
sg62
(lp502
g55
(g56
g57
NtRp503
(dp504
g60
(dp505
g68
I3
ssg69
g499
sg62
(lp506
S''
asbasbasbag55
(g71
g57
NtRp507
(dp508
g60
(dp509
sg69
g463
sg62
(lp510
g55
(g76
g57
NtRp511
(dp512
g60
(dp513
g80
g81
ssg69
g507
sg62
(lp514
g324
asbag55
(g76
g57
NtRp515
(dp516
g60
(dp517
g87
g88
ssg69
g507
sg62
(lp518
S':'
asbag55
(g76
g57
NtRp519
(dp520
g60
(dp521
sg69
g507
sg62
(lp522
g55
(g56
g57
NtRp523
(dp524
g60
(dp525
g68
I3
ssg69
g519
sg62
(lp526
S''
asbasbasbag55
(g71
g57
NtRp527
(dp528
g60
(dp529
sg69
g463
sg62
(lp530
g55
(g76
g57
NtRp531
(dp532
g60
(dp533
g80
g81
ssg69
g527
sg62
(lp534
g345
asbag55
(g76
g57
NtRp535
(dp536
g60
(dp537
g87
g88
ssg69
g527
sg62
(lp538
S':'
asbag55
(g76
g57
NtRp539
(dp540
g60
(dp541
sg69
g527
sg62
(lp542
g55
(g56
g57
NtRp543
(dp544
g60
(dp545
g68
I3
ssg69
g539
sg62
(lp546
S''
asbasbasbag55
(g71
g57
NtRp547
(dp548
g60
(dp549
sg69
g463
sg62
(lp550
g55
(g76
g57
NtRp551
(dp552
g60
(dp553
g80
g81
ssg69
g547
sg62
(lp554
g366
asbag55
(g76
g57
NtRp555
(dp556
g60
(dp557
g87
g88
ssg69
g547
sg62
(lp558
S':'
asbag55
(g76
g57
NtRp559
(dp560
g60
(dp561
sg69
g547
sg62
(lp562
g55
(g56
g57
NtRp563
(dp564
g60
(dp565
g68
I3
ssg69
g559
sg62
(lp566
S''
asbasbasbag55
(g71
g57
NtRp567
(dp568
g60
(dp569
sg69
g463
sg62
(lp570
g55
(g76
g57
NtRp571
(dp572
g60
(dp573
g80
g81
ssg69
g567
sg62
(lp574
g387
asbag55
(g76
g57
NtRp575
(dp576
g60
(dp577
g87
g88
ssg69
g567
sg62
(lp578
S':'
asbag55
(g76
g57
NtRp579
(dp580
g60
(dp581
sg69
g567
sg62
(lp582
g55
(g56
g57
NtRp583
(dp584
g60
(dp585
g68
I3
ssg69
g579
sg62
(lp586
S''
asbasbasbag55
(g71
g57
NtRp587
(dp588
g60
(dp589
sg69
g463
sg62
(lp590
g55
(g76
g57
NtRp591
(dp592
g60
(dp593
g80
g81
ssg69
g587
sg62
(lp594
g408
asbag55
(g76
g57
NtRp595
(dp596
g60
(dp597
g87
g88
ssg69
g587
sg62
(lp598
S':'
asbag55
(g76
g57
NtRp599
(dp600
g60
(dp601
sg69
g587
sg62
(lp602
g55
(g56
g57
NtRp603
(dp604
g60
(dp605
g68
I3
ssg69
g599
sg62
(lp606
S''
asbasbasbag55
(g71
g57
NtRp607
(dp608
g60
(dp609
sg69
g463
sg62
(lp610
g55
(g76
g57
NtRp611
(dp612
g60
(dp613
g80
g81
ssg69
g607
sg62
(lp614
g429
asbag55
(g76
g57
NtRp615
(dp616
g60
(dp617
g87
g88
ssg69
g607
sg62
(lp618
S':'
asbag55
(g76
g57
NtRp619
(dp620
g60
(dp621
sg69
g607
sg62
(lp622
g55
(g56
g57
NtRp623
(dp624
g60
(dp625
g68
I3
ssg69
g619
sg62
(lp626
S''
asbasbasbasbasbasbasbag55
(g71
g57
NtRp627
(dp628
g60
(dp629
sg69
g245
sg62
(lp630
g55
(g76
g57
NtRp631
(dp632
g60
(dp633
g80
g81
ssg69
g627
sg62
(lp634
S'session_id_grammateus3'
p635
asbag55
(g76
g57
NtRp636
(dp637
g60
(dp638
g87
g88
ssg69
g627
sg62
(lp639
S':'
asbag55
(g76
g57
NtRp640
(dp641
g60
(dp642
sg69
g627
sg62
(lp643
g55
(g56
g57
NtRp644
(dp645
g60
(dp646
g68
I4
ssg69
g640
sg62
(lp647
g55
(g64
g57
NtRp648
(dp649
g60
(dp650
g68
I3
ssg69
Nsg62
(lp651
g55
(g71
g57
NtRp652
(dp653
g60
(dp654
sg69
g648
sg62
(lp655
g55
(g76
g57
NtRp656
(dp657
g60
(dp658
g80
g81
ssg69
g652
sg62
(lp659
g282
asbag55
(g76
g57
NtRp660
(dp661
g60
(dp662
g87
g88
ssg69
g652
sg62
(lp663
S':'
asbag55
(g76
g57
NtRp664
(dp665
g60
(dp666
sg69
g652
sg62
(lp667
g55
(g56
g57
NtRp668
(dp669
g60
(dp670
g68
I3
ssg69
g664
sg62
(lp671
S''
asbasbasbag55
(g71
g57
NtRp672
(dp673
g60
(dp674
sg69
g648
sg62
(lp675
g55
(g76
g57
NtRp676
(dp677
g60
(dp678
g80
g81
ssg69
g672
sg62
(lp679
g303
asbag55
(g76
g57
NtRp680
(dp681
g60
(dp682
g87
g88
ssg69
g672
sg62
(lp683
S':'
asbag55
(g76
g57
NtRp684
(dp685
g60
(dp686
sg69
g672
sg62
(lp687
g55
(g56
g57
NtRp688
(dp689
g60
(dp690
g68
I3
ssg69
g684
sg62
(lp691
S''
asbasbasbag55
(g71
g57
NtRp692
(dp693
g60
(dp694
sg69
g648
sg62
(lp695
g55
(g76
g57
NtRp696
(dp697
g60
(dp698
g80
g81
ssg69
g692
sg62
(lp699
g324
asbag55
(g76
g57
NtRp700
(dp701
g60
(dp702
g87
g88
ssg69
g692
sg62
(lp703
S':'
asbag55
(g76
g57
NtRp704
(dp705
g60
(dp706
sg69
g692
sg62
(lp707
g55
(g56
g57
NtRp708
(dp709
g60
(dp710
g68
I3
ssg69
g704
sg62
(lp711
S''
asbasbasbag55
(g71
g57
NtRp712
(dp713
g60
(dp714
sg69
g648
sg62
(lp715
g55
(g76
g57
NtRp716
(dp717
g60
(dp718
g80
g81
ssg69
g712
sg62
(lp719
g345
asbag55
(g76
g57
NtRp720
(dp721
g60
(dp722
g87
g88
ssg69
g712
sg62
(lp723
S':'
asbag55
(g76
g57
NtRp724
(dp725
g60
(dp726
sg69
g712
sg62
(lp727
g55
(g56
g57
NtRp728
(dp729
g60
(dp730
g68
I3
ssg69
g724
sg62
(lp731
S''
asbasbasbag55
(g71
g57
NtRp732
(dp733
g60
(dp734
sg69
g648
sg62
(lp735
g55
(g76
g57
NtRp736
(dp737
g60
(dp738
g80
g81
ssg69
g732
sg62
(lp739
g366
asbag55
(g76
g57
NtRp740
(dp741
g60
(dp742
g87
g88
ssg69
g732
sg62
(lp743
S':'
asbag55
(g76
g57
NtRp744
(dp745
g60
(dp746
sg69
g732
sg62
(lp747
g55
(g56
g57
NtRp748
(dp749
g60
(dp750
g68
I3
ssg69
g744
sg62
(lp751
S''
asbasbasbag55
(g71
g57
NtRp752
(dp753
g60
(dp754
sg69
g648
sg62
(lp755
g55
(g76
g57
NtRp756
(dp757
g60
(dp758
g80
g81
ssg69
g752
sg62
(lp759
g387
asbag55
(g76
g57
NtRp760
(dp761
g60
(dp762
g87
g88
ssg69
g752
sg62
(lp763
S':'
asbag55
(g76
g57
NtRp764
(dp765
g60
(dp766
sg69
g752
sg62
(lp767
g55
(g56
g57
NtRp768
(dp769
g60
(dp770
g68
I3
ssg69
g764
sg62
(lp771
S''
asbasbasbag55
(g71
g57
NtRp772
(dp773
g60
(dp774
sg69
g648
sg62
(lp775
g55
(g76
g57
NtRp776
(dp777
g60
(dp778
g80
g81
ssg69
g772
sg62
(lp779
g408
asbag55
(g76
g57
NtRp780
(dp781
g60
(dp782
g87
g88
ssg69
g772
sg62
(lp783
S':'
asbag55
(g76
g57
NtRp784
(dp785
g60
(dp786
sg69
g772
sg62
(lp787
g55
(g56
g57
NtRp788
(dp789
g60
(dp790
g68
I3
ssg69
g784
sg62
(lp791
S''
asbasbasbag55
(g71
g57
NtRp792
(dp793
g60
(dp794
sg69
g648
sg62
(lp795
g55
(g76
g57
NtRp796
(dp797
g60
(dp798
g80
g81
ssg69
g792
sg62
(lp799
g429
asbag55
(g76
g57
NtRp800
(dp801
g60
(dp802
g87
g88
ssg69
g792
sg62
(lp803
S':'
asbag55
(g76
g57
NtRp804
(dp805
g60
(dp806
sg69
g792
sg62
(lp807
g55
(g56
g57
NtRp808
(dp809
g60
(dp810
g68
I3
ssg69
g804
sg62
(lp811
S''
asbasbasbasbasbasbasbag55
(g71
g57
NtRp812
(dp813
g60
(dp814
sg69
g245
sg62
(lp815
g55
(g76
g57
NtRp816
(dp817
g60
(dp818
g80
g81
ssg69
g812
sg62
(lp819
S'session_id_paideia'
p820
asbag55
(g76
g57
NtRp821
(dp822
g60
(dp823
g87
g88
ssg69
g812
sg62
(lp824
S':'
asbag55
(g76
g57
NtRp825
(dp826
g60
(dp827
sg69
g812
sg62
(lp828
g55
(g56
g57
NtRp829
(dp830
g60
(dp831
g68
I4
ssg69
g825
sg62
(lp832
g55
(g64
g57
NtRp833
(dp834
g60
(dp835
g68
I3
ssg69
Nsg62
(lp836
g55
(g71
g57
NtRp837
(dp838
g60
(dp839
sg69
g833
sg62
(lp840
g55
(g76
g57
NtRp841
(dp842
g60
(dp843
g80
g81
ssg69
g837
sg62
(lp844
g282
asbag55
(g76
g57
NtRp845
(dp846
g60
(dp847
g87
g88
ssg69
g837
sg62
(lp848
S':'
asbag55
(g76
g57
NtRp849
(dp850
g60
(dp851
sg69
g837
sg62
(lp852
g55
(g56
g57
NtRp853
(dp854
g60
(dp855
g68
I3
ssg69
g849
sg62
(lp856
S''
asbasbasbag55
(g71
g57
NtRp857
(dp858
g60
(dp859
sg69
g833
sg62
(lp860
g55
(g76
g57
NtRp861
(dp862
g60
(dp863
g80
g81
ssg69
g857
sg62
(lp864
g303
asbag55
(g76
g57
NtRp865
(dp866
g60
(dp867
g87
g88
ssg69
g857
sg62
(lp868
S':'
asbag55
(g76
g57
NtRp869
(dp870
g60
(dp871
sg69
g857
sg62
(lp872
g55
(g56
g57
NtRp873
(dp874
g60
(dp875
g68
I3
ssg69
g869
sg62
(lp876
S''
asbasbasbag55
(g71
g57
NtRp877
(dp878
g60
(dp879
sg69
g833
sg62
(lp880
g55
(g76
g57
NtRp881
(dp882
g60
(dp883
g80
g81
ssg69
g877
sg62
(lp884
g324
asbag55
(g76
g57
NtRp885
(dp886
g60
(dp887
g87
g88
ssg69
g877
sg62
(lp888
S':'
asbag55
(g76
g57
NtRp889
(dp890
g60
(dp891
sg69
g877
sg62
(lp892
g55
(g56
g57
NtRp893
(dp894
g60
(dp895
g68
I3
ssg69
g889
sg62
(lp896
S''
asbasbasbag55
(g71
g57
NtRp897
(dp898
g60
(dp899
sg69
g833
sg62
(lp900
g55
(g76
g57
NtRp901
(dp902
g60
(dp903
g80
g81
ssg69
g897
sg62
(lp904
g345
asbag55
(g76
g57
NtRp905
(dp906
g60
(dp907
g87
g88
ssg69
g897
sg62
(lp908
S':'
asbag55
(g76
g57
NtRp909
(dp910
g60
(dp911
sg69
g897
sg62
(lp912
g55
(g56
g57
NtRp913
(dp914
g60
(dp915
g68
I3
ssg69
g909
sg62
(lp916
S''
asbasbasbag55
(g71
g57
NtRp917
(dp918
g60
(dp919
sg69
g833
sg62
(lp920
g55
(g76
g57
NtRp921
(dp922
g60
(dp923
g80
g81
ssg69
g917
sg62
(lp924
g366
asbag55
(g76
g57
NtRp925
(dp926
g60
(dp927
g87
g88
ssg69
g917
sg62
(lp928
S':'
asbag55
(g76
g57
NtRp929
(dp930
g60
(dp931
sg69
g917
sg62
(lp932
g55
(g56
g57
NtRp933
(dp934
g60
(dp935
g68
I3
ssg69
g929
sg62
(lp936
S''
asbasbasbag55
(g71
g57
NtRp937
(dp938
g60
(dp939
sg69
g833
sg62
(lp940
g55
(g76
g57
NtRp941
(dp942
g60
(dp943
g80
g81
ssg69
g937
sg62
(lp944
g387
asbag55
(g76
g57
NtRp945
(dp946
g60
(dp947
g87
g88
ssg69
g937
sg62
(lp948
S':'
asbag55
(g76
g57
NtRp949
(dp950
g60
(dp951
sg69
g937
sg62
(lp952
g55
(g56
g57
NtRp953
(dp954
g60
(dp955
g68
I3
ssg69
g949
sg62
(lp956
S''
asbasbasbag55
(g71
g57
NtRp957
(dp958
g60
(dp959
sg69
g833
sg62
(lp960
g55
(g76
g57
NtRp961
(dp962
g60
(dp963
g80
g81
ssg69
g957
sg62
(lp964
g408
asbag55
(g76
g57
NtRp965
(dp966
g60
(dp967
g87
g88
ssg69
g957
sg62
(lp968
S':'
asbag55
(g76
g57
NtRp969
(dp970
g60
(dp971
sg69
g957
sg62
(lp972
g55
(g56
g57
NtRp973
(dp974
g60
(dp975
g68
I3
ssg69
g969
sg62
(lp976
S''
asbasbasbag55
(g71
g57
NtRp977
(dp978
g60
(dp979
sg69
g833
sg62
(lp980
g55
(g76
g57
NtRp981
(dp982
g60
(dp983
g80
g81
ssg69
g977
sg62
(lp984
g429
asbag55
(g76
g57
NtRp985
(dp986
g60
(dp987
g87
g88
ssg69
g977
sg62
(lp988
S':'
asbag55
(g76
g57
NtRp989
(dp990
g60
(dp991
sg69
g977
sg62
(lp992
g55
(g56
g57
NtRp993
(dp994
g60
(dp995
g68
I3
ssg69
g989
sg62
(lp996
S''
asbasbasbasbasbasbasbag55
(g71
g57
NtRp997
(dp998
g60
(dp999
sg69
g245
sg62
(lp1000
g55
(g76
g57
NtRp1001
(dp1002
g60
(dp1003
g80
g81
ssg69
g997
sg62
(lp1004
S'session_id_welcome'
p1005
asbag55
(g76
g57
NtRp1006
(dp1007
g60
(dp1008
g87
g88
ssg69
g997
sg62
(lp1009
S':'
asbag55
(g76
g57
NtRp1010
(dp1011
g60
(dp1012
sg69
g997
sg62
(lp1013
g55
(g56
g57
NtRp1014
(dp1015
g60
(dp1016
g68
I4
ssg69
g1010
sg62
(lp1017
g55
(g64
g57
NtRp1018
(dp1019
g60
(dp1020
g68
I3
ssg69
Nsg62
(lp1021
g55
(g71
g57
NtRp1022
(dp1023
g60
(dp1024
sg69
g1018
sg62
(lp1025
g55
(g76
g57
NtRp1026
(dp1027
g60
(dp1028
g80
g81
ssg69
g1022
sg62
(lp1029
g282
asbag55
(g76
g57
NtRp1030
(dp1031
g60
(dp1032
g87
g88
ssg69
g1022
sg62
(lp1033
S':'
asbag55
(g76
g57
NtRp1034
(dp1035
g60
(dp1036
sg69
g1022
sg62
(lp1037
g55
(g56
g57
NtRp1038
(dp1039
g60
(dp1040
g68
I3
ssg69
g1034
sg62
(lp1041
S''
asbasbasbag55
(g71
g57
NtRp1042
(dp1043
g60
(dp1044
sg69
g1018
sg62
(lp1045
g55
(g76
g57
NtRp1046
(dp1047
g60
(dp1048
g80
g81
ssg69
g1042
sg62
(lp1049
g303
asbag55
(g76
g57
NtRp1050
(dp1051
g60
(dp1052
g87
g88
ssg69
g1042
sg62
(lp1053
S':'
asbag55
(g76
g57
NtRp1054
(dp1055
g60
(dp1056
sg69
g1042
sg62
(lp1057
g55
(g56
g57
NtRp1058
(dp1059
g60
(dp1060
g68
I3
ssg69
g1054
sg62
(lp1061
S''
asbasbasbag55
(g71
g57
NtRp1062
(dp1063
g60
(dp1064
sg69
g1018
sg62
(lp1065
g55
(g76
g57
NtRp1066
(dp1067
g60
(dp1068
g80
g81
ssg69
g1062
sg62
(lp1069
g324
asbag55
(g76
g57
NtRp1070
(dp1071
g60
(dp1072
g87
g88
ssg69
g1062
sg62
(lp1073
S':'
asbag55
(g76
g57
NtRp1074
(dp1075
g60
(dp1076
sg69
g1062
sg62
(lp1077
g55
(g56
g57
NtRp1078
(dp1079
g60
(dp1080
g68
I3
ssg69
g1074
sg62
(lp1081
S''
asbasbasbag55
(g71
g57
NtRp1082
(dp1083
g60
(dp1084
sg69
g1018
sg62
(lp1085
g55
(g76
g57
NtRp1086
(dp1087
g60
(dp1088
g80
g81
ssg69
g1082
sg62
(lp1089
g345
asbag55
(g76
g57
NtRp1090
(dp1091
g60
(dp1092
g87
g88
ssg69
g1082
sg62
(lp1093
S':'
asbag55
(g76
g57
NtRp1094
(dp1095
g60
(dp1096
sg69
g1082
sg62
(lp1097
g55
(g56
g57
NtRp1098
(dp1099
g60
(dp1100
g68
I3
ssg69
g1094
sg62
(lp1101
S''
asbasbasbag55
(g71
g57
NtRp1102
(dp1103
g60
(dp1104
sg69
g1018
sg62
(lp1105
g55
(g76
g57
NtRp1106
(dp1107
g60
(dp1108
g80
g81
ssg69
g1102
sg62
(lp1109
g366
asbag55
(g76
g57
NtRp1110
(dp1111
g60
(dp1112
g87
g88
ssg69
g1102
sg62
(lp1113
S':'
asbag55
(g76
g57
NtRp1114
(dp1115
g60
(dp1116
sg69
g1102
sg62
(lp1117
g55
(g56
g57
NtRp1118
(dp1119
g60
(dp1120
g68
I3
ssg69
g1114
sg62
(lp1121
S''
asbasbasbag55
(g71
g57
NtRp1122
(dp1123
g60
(dp1124
sg69
g1018
sg62
(lp1125
g55
(g76
g57
NtRp1126
(dp1127
g60
(dp1128
g80
g81
ssg69
g1122
sg62
(lp1129
g387
asbag55
(g76
g57
NtRp1130
(dp1131
g60
(dp1132
g87
g88
ssg69
g1122
sg62
(lp1133
S':'
asbag55
(g76
g57
NtRp1134
(dp1135
g60
(dp1136
sg69
g1122
sg62
(lp1137
g55
(g56
g57
NtRp1138
(dp1139
g60
(dp1140
g68
I3
ssg69
g1134
sg62
(lp1141
S''
asbasbasbag55
(g71
g57
NtRp1142
(dp1143
g60
(dp1144
sg69
g1018
sg62
(lp1145
g55
(g76
g57
NtRp1146
(dp1147
g60
(dp1148
g80
g81
ssg69
g1142
sg62
(lp1149
g408
asbag55
(g76
g57
NtRp1150
(dp1151
g60
(dp1152
g87
g88
ssg69
g1142
sg62
(lp1153
S':'
asbag55
(g76
g57
NtRp1154
(dp1155
g60
(dp1156
sg69
g1142
sg62
(lp1157
g55
(g56
g57
NtRp1158
(dp1159
g60
(dp1160
g68
I3
ssg69
g1154
sg62
(lp1161
S''
asbasbasbag55
(g71
g57
NtRp1162
(dp1163
g60
(dp1164
sg69
g1018
sg62
(lp1165
g55
(g76
g57
NtRp1166
(dp1167
g60
(dp1168
g80
g81
ssg69
g1162
sg62
(lp1169
g429
asbag55
(g76
g57
NtRp1170
(dp1171
g60
(dp1172
g87
g88
ssg69
g1162
sg62
(lp1173
S':'
asbag55
(g76
g57
NtRp1174
(dp1175
g60
(dp1176
sg69
g1162
sg62
(lp1177
g55
(g56
g57
NtRp1178
(dp1179
g60
(dp1180
g68
I3
ssg69
g1174
sg62
(lp1181
S''
asbasbasbasbasbasbasbasbasbasbasbag55
(g71
g57
NtRp1182
(dp1183
g60
(dp1184
sg69
g65
sg62
(lp1185
g55
(g76
g57
NtRp1186
(dp1187
g60
(dp1188
g80
g81
ssg69
g1182
sg62
(lp1189
S'env'
p1190
asbag55
(g76
g57
NtRp1191
(dp1192
g60
(dp1193
g87
g88
ssg69
g1182
sg62
(lp1194
S':'
asbag55
(g76
g57
NtRp1195
(dp1196
g60
(dp1197
sg69
g1182
sg62
(lp1198
g55
(g56
g57
NtRp1199
(dp1200
g60
(dp1201
g68
I5
ssg69
g1195
sg62
(lp1202
g55
(g64
g57
NtRp1203
(dp1204
g60
(dp1205
g68
I4
ssg69
Nsg62
(lp1206
g55
(g71
g57
NtRp1207
(dp1208
g60
(dp1209
sg69
g1203
sg62
(lp1210
g55
(g76
g57
NtRp1211
(dp1212
g60
(dp1213
g80
g81
ssg69
g1207
sg62
(lp1214
S'app_folders'
p1215
asbag55
(g76
g57
NtRp1216
(dp1217
g60
(dp1218
g87
g88
ssg69
g1207
sg62
(lp1219
S':'
asbag55
(g76
g57
NtRp1220
(dp1221
g60
(dp1222
sg69
g1207
sg62
(lp1223
g55
(g56
g57
NtRp1224
(dp1225
g60
(dp1226
g68
I4
ssg69
g1220
sg62
(lp1227
S"set(['/home/iscott/web/web2py/applications/grammateus3/', '/home/iscott/web/web2py/applications/admin/', '/home/iscott/web/web2py/applications/welcome/'])"
p1228
asbasbasbag55
(g71
g57
NtRp1229
(dp1230
g60
(dp1231
sg69
g1203
sg62
(lp1232
g55
(g76
g57
NtRp1233
(dp1234
g60
(dp1235
g80
g81
ssg69
g1229
sg62
(lp1236
S'applications_parent'
p1237
asbag55
(g76
g57
NtRp1238
(dp1239
g60
(dp1240
g87
g88
ssg69
g1229
sg62
(lp1241
S':'
asbag55
(g76
g57
NtRp1242
(dp1243
g60
(dp1244
sg69
g1229
sg62
(lp1245
g55
(g56
g57
NtRp1246
(dp1247
g60
(dp1248
g68
I4
ssg69
g1242
sg62
(lp1249
S'/home/iscott/web/web2py'
p1250
asbasbasbag55
(g71
g57
NtRp1251
(dp1252
g60
(dp1253
sg69
g1203
sg62
(lp1254
g55
(g76
g57
NtRp1255
(dp1256
g60
(dp1257
g80
g81
ssg69
g1251
sg62
(lp1258
S'cmd_args'
p1259
asbag55
(g76
g57
NtRp1260
(dp1261
g60
(dp1262
g87
g88
ssg69
g1251
sg62
(lp1263
S':'
asbag55
(g76
g57
NtRp1264
(dp1265
g60
(dp1266
sg69
g1251
sg62
(lp1267
g55
(g56
g57
NtRp1268
(dp1269
g60
(dp1270
g68
I4
ssg69
g1264
sg62
(lp1271
g55
(g64
g57
NtRp1272
(dp1273
g60
(dp1274
g68
I3
ssg69
Nsg62
(lp1275
sbasbasbasbag55
(g71
g57
NtRp1276
(dp1277
g60
(dp1278
sg69
g1203
sg62
(lp1279
g55
(g76
g57
NtRp1280
(dp1281
g60
(dp1282
g80
g81
ssg69
g1276
sg62
(lp1283
S'cmd_options'
p1284
asbag55
(g76
g57
NtRp1285
(dp1286
g60
(dp1287
g87
g88
ssg69
g1276
sg62
(lp1288
S':'
asbag55
(g76
g57
NtRp1289
(dp1290
g60
(dp1291
sg69
g1276
sg62
(lp1292
g55
(g56
g57
NtRp1293
(dp1294
g60
(dp1295
g68
I4
ssg69
g1289
sg62
(lp1296
S"<Values at 0xa5e5b8c: {'verbose': False, 'ip': '127.0.0.1', 'shutdown_timeout': 5, 'taskbar': False, 'nocron': False, 'pid_filename': 'httpserver.pid', 'maxthreads': None, 'softcron': False, 'server_name': 'ubuntu', 'bpython': False, 'nogui': False, 'port': 8000, 'extcron': False, 'debuglevel': 30, 'test': None, 'folder': '/home/iscott/web/web2py', 'config': '', 'import_models': False, 'winservice': '', 'shell': None, 'run': '', 'log_filename': 'httpserver.log', 'args': [''], 'socket_timeout': 1, 'ssl_ca_certificate': None, 'scheduler': None, 'profiler_filename': None, 'ssl_private_key': '', 'password': '<ask>', 'request_queue_size': 5, 'ssl_certificate': '', 'cronjob': False, 'numthreads': None, 'quiet': False, 'interfaces': None, 'minthreads': None, 'timeout': 10, 'plain': False, 'nobanner': False}>"
p1297
asbasbasbag55
(g71
g57
NtRp1298
(dp1299
g60
(dp1300
sg69
g1203
sg62
(lp1301
g55
(g76
g57
NtRp1302
(dp1303
g60
(dp1304
g80
g81
ssg69
g1298
sg62
(lp1305
S'db_sessions'
p1306
asbag55
(g76
g57
NtRp1307
(dp1308
g60
(dp1309
g87
g88
ssg69
g1298
sg62
(lp1310
S':'
asbag55
(g76
g57
NtRp1311
(dp1312
g60
(dp1313
sg69
g1298
sg62
(lp1314
g55
(g56
g57
NtRp1315
(dp1316
g60
(dp1317
g68
I4
ssg69
g1311
sg62
(lp1318
S'set([])'
p1319
asbasbasbag55
(g71
g57
NtRp1320
(dp1321
g60
(dp1322
sg69
g1203
sg62
(lp1323
g55
(g76
g57
NtRp1324
(dp1325
g60
(dp1326
g80
g81
ssg69
g1320
sg62
(lp1327
S'debugging'
p1328
asbag55
(g76
g57
NtRp1329
(dp1330
g60
(dp1331
g87
g88
ssg69
g1320
sg62
(lp1332
S':'
asbag55
(g76
g57
NtRp1333
(dp1334
g60
(dp1335
sg69
g1320
sg62
(lp1336
g55
(g56
g57
NtRp1337
(dp1338
g60
(dp1339
g68
I4
ssg69
g1333
sg62
(lp1340
g98
asbasbasbag55
(g71
g57
NtRp1341
(dp1342
g60
(dp1343
sg69
g1203
sg62
(lp1344
g55
(g76
g57
NtRp1345
(dp1346
g60
(dp1347
g80
g81
ssg69
g1341
sg62
(lp1348
S'gluon_parent'
p1349
asbag55
(g76
g57
NtRp1350
(dp1351
g60
(dp1352
g87
g88
ssg69
g1341
sg62
(lp1353
S':'
asbag55
(g76
g57
NtRp1354
(dp1355
g60
(dp1356
sg69
g1341
sg62
(lp1357
g55
(g56
g57
NtRp1358
(dp1359
g60
(dp1360
g68
I4
ssg69
g1354
sg62
(lp1361
S'/home/iscott/web/web2py'
p1362
asbasbasbag55
(g71
g57
NtRp1363
(dp1364
g60
(dp1365
sg69
g1203
sg62
(lp1366
g55
(g76
g57
NtRp1367
(dp1368
g60
(dp1369
g80
g81
ssg69
g1363
sg62
(lp1370
S'http_accept'
p1371
asbag55
(g76
g57
NtRp1372
(dp1373
g60
(dp1374
g87
g88
ssg69
g1363
sg62
(lp1375
S':'
asbag55
(g76
g57
NtRp1376
(dp1377
g60
(dp1378
sg69
g1363
sg62
(lp1379
g55
(g56
g57
NtRp1380
(dp1381
g60
(dp1382
g68
I4
ssg69
g1376
sg62
(lp1383
S'text/html,application/xhtml+xml,application/xml;q=0.9,*/*;q=0.8'
p1384
asbasbasbag55
(g71
g57
NtRp1385
(dp1386
g60
(dp1387
sg69
g1203
sg62
(lp1388
g55
(g76
g57
NtRp1389
(dp1390
g60
(dp1391
g80
g81
ssg69
g1385
sg62
(lp1392
S'http_accept_encoding'
p1393
asbag55
(g76
g57
NtRp1394
(dp1395
g60
(dp1396
g87
g88
ssg69
g1385
sg62
(lp1397
S':'
asbag55
(g76
g57
NtRp1398
(dp1399
g60
(dp1400
sg69
g1385
sg62
(lp1401
g55
(g56
g57
NtRp1402
(dp1403
g60
(dp1404
g68
I4
ssg69
g1398
sg62
(lp1405
S'gzip, deflate'
p1406
asbasbasbag55
(g71
g57
NtRp1407
(dp1408
g60
(dp1409
sg69
g1203
sg62
(lp1410
g55
(g76
g57
NtRp1411
(dp1412
g60
(dp1413
g80
g81
ssg69
g1407
sg62
(lp1414
S'http_accept_language'
p1415
asbag55
(g76
g57
NtRp1416
(dp1417
g60
(dp1418
g87
g88
ssg69
g1407
sg62
(lp1419
S':'
asbag55
(g76
g57
NtRp1420
(dp1421
g60
(dp1422
sg69
g1407
sg62
(lp1423
g55
(g56
g57
NtRp1424
(dp1425
g60
(dp1426
g68
I4
ssg69
g1420
sg62
(lp1427
S'en-us,en;q=0.5'
p1428
asbasbasbag55
(g71
g57
NtRp1429
(dp1430
g60
(dp1431
sg69
g1203
sg62
(lp1432
g55
(g76
g57
NtRp1433
(dp1434
g60
(dp1435
g80
g81
ssg69
g1429
sg62
(lp1436
S'http_cache_control'
p1437
asbag55
(g76
g57
NtRp1438
(dp1439
g60
(dp1440
g87
g88
ssg69
g1429
sg62
(lp1441
S':'
asbag55
(g76
g57
NtRp1442
(dp1443
g60
(dp1444
sg69
g1429
sg62
(lp1445
g55
(g56
g57
NtRp1446
(dp1447
g60
(dp1448
g68
I4
ssg69
g1442
sg62
(lp1449
S'max-age=0'
p1450
asbasbasbag55
(g71
g57
NtRp1451
(dp1452
g60
(dp1453
sg69
g1203
sg62
(lp1454
g55
(g76
g57
NtRp1455
(dp1456
g60
(dp1457
g80
g81
ssg69
g1451
sg62
(lp1458
S'http_connection'
p1459
asbag55
(g76
g57
NtRp1460
(dp1461
g60
(dp1462
g87
g88
ssg69
g1451
sg62
(lp1463
S':'
asbag55
(g76
g57
NtRp1464
(dp1465
g60
(dp1466
sg69
g1451
sg62
(lp1467
g55
(g56
g57
NtRp1468
(dp1469
g60
(dp1470
g68
I4
ssg69
g1464
sg62
(lp1471
S'keep-alive'
p1472
asbasbasbag55
(g71
g57
NtRp1473
(dp1474
g60
(dp1475
sg69
g1203
sg62
(lp1476
g55
(g76
g57
NtRp1477
(dp1478
g60
(dp1479
g80
g81
ssg69
g1473
sg62
(lp1480
S'http_cookie'
p1481
asbag55
(g76
g57
NtRp1482
(dp1483
g60
(dp1484
g87
g88
ssg69
g1473
sg62
(lp1485
S':'
asbag55
(g76
g57
NtRp1486
(dp1487
g60
(dp1488
sg69
g1473
sg62
(lp1489
g55
(g56
g57
NtRp1490
(dp1491
g60
(dp1492
g68
I4
ssg69
g1486
sg62
(lp1493
S'session_id_paideia=127.0.0.1-2edda130-d654-4b0f-a819-06652e443aa6; session_id_bloglet=127.0.0.1-e84b0934-9abc-4375-99c8-24980b610007; session_id_welcome=127.0.0.1-875183c3-33d3-41d0-8035-815b0ac6dec9; session_id_admin=127.0.0.1-ba0d1e5a-4433-48b1-9d72-e06601a8648a; session_id_grammateus3=127.0.0.1-4f98ec66-c173-46dc-a836-3a6d8de0d450'
p1494
asbasbasbag55
(g71
g57
NtRp1495
(dp1496
g60
(dp1497
sg69
g1203
sg62
(lp1498
g55
(g76
g57
NtRp1499
(dp1500
g60
(dp1501
g80
g81
ssg69
g1495
sg62
(lp1502
S'http_host'
p1503
asbag55
(g76
g57
NtRp1504
(dp1505
g60
(dp1506
g87
g88
ssg69
g1495
sg62
(lp1507
S':'
asbag55
(g76
g57
NtRp1508
(dp1509
g60
(dp1510
sg69
g1495
sg62
(lp1511
g55
(g56
g57
NtRp1512
(dp1513
g60
(dp1514
g68
I4
ssg69
g1508
sg62
(lp1515
S'127.0.0.1:8000'
p1516
asbasbasbag55
(g71
g57
NtRp1517
(dp1518
g60
(dp1519
sg69
g1203
sg62
(lp1520
g55
(g76
g57
NtRp1521
(dp1522
g60
(dp1523
g80
g81
ssg69
g1517
sg62
(lp1524
S'http_user_agent'
p1525
asbag55
(g76
g57
NtRp1526
(dp1527
g60
(dp1528
g87
g88
ssg69
g1517
sg62
(lp1529
S':'
asbag55
(g76
g57
NtRp1530
(dp1531
g60
(dp1532
sg69
g1517
sg62
(lp1533
g55
(g56
g57
NtRp1534
(dp1535
g60
(dp1536
g68
I4
ssg69
g1530
sg62
(lp1537
S'Mozilla/5.0 (X11; Ubuntu; Linux i686; rv:10.0.2) Gecko/20100101 Firefox/10.0.2'
p1538
asbasbasbag55
(g71
g57
NtRp1539
(dp1540
g60
(dp1541
sg69
g1203
sg62
(lp1542
g55
(g76
g57
NtRp1543
(dp1544
g60
(dp1545
g80
g81
ssg69
g1539
sg62
(lp1546
S'is_jython'
p1547
asbag55
(g76
g57
NtRp1548
(dp1549
g60
(dp1550
g87
g88
ssg69
g1539
sg62
(lp1551
S':'
asbag55
(g76
g57
NtRp1552
(dp1553
g60
(dp1554
sg69
g1539
sg62
(lp1555
g55
(g56
g57
NtRp1556
(dp1557
g60
(dp1558
g68
I4
ssg69
g1552
sg62
(lp1559
g98
asbasbasbag55
(g71
g57
NtRp1560
(dp1561
g60
(dp1562
sg69
g1203
sg62
(lp1563
g55
(g76
g57
NtRp1564
(dp1565
g60
(dp1566
g80
g81
ssg69
g1560
sg62
(lp1567
S'is_pypy'
p1568
asbag55
(g76
g57
NtRp1569
(dp1570
g60
(dp1571
g87
g88
ssg69
g1560
sg62
(lp1572
S':'
asbag55
(g76
g57
NtRp1573
(dp1574
g60
(dp1575
sg69
g1560
sg62
(lp1576
g55
(g56
g57
NtRp1577
(dp1578
g60
(dp1579
g68
I4
ssg69
g1573
sg62
(lp1580
g98
asbasbasbag55
(g71
g57
NtRp1581
(dp1582
g60
(dp1583
sg69
g1203
sg62
(lp1584
g55
(g76
g57
NtRp1585
(dp1586
g60
(dp1587
g80
g81
ssg69
g1581
sg62
(lp1588
S'path_info'
p1589
asbag55
(g76
g57
NtRp1590
(dp1591
g60
(dp1592
g87
g88
ssg69
g1581
sg62
(lp1593
S':'
asbag55
(g76
g57
NtRp1594
(dp1595
g60
(dp1596
sg69
g1581
sg62
(lp1597
g55
(g56
g57
NtRp1598
(dp1599
g60
(dp1600
g68
I4
ssg69
g1594
sg62
(lp1601
S'/grammateus3/docs/text/1En'
p1602
asbasbasbag55
(g71
g57
NtRp1603
(dp1604
g60
(dp1605
sg69
g1203
sg62
(lp1606
g55
(g76
g57
NtRp1607
(dp1608
g60
(dp1609
g80
g81
ssg69
g1603
sg62
(lp1610
S'query_string'
p1611
asbag55
(g76
g57
NtRp1612
(dp1613
g60
(dp1614
g87
g88
ssg69
g1603
sg62
(lp1615
S':'
asbag55
(g76
g57
NtRp1616
(dp1617
g60
(dp1618
sg69
g1603
sg62
(lp1619
g55
(g56
g57
NtRp1620
(dp1621
g60
(dp1622
g68
I4
ssg69
g1616
sg62
(lp1623
S''
asbasbasbag55
(g71
g57
NtRp1624
(dp1625
g60
(dp1626
sg69
g1203
sg62
(lp1627
g55
(g76
g57
NtRp1628
(dp1629
g60
(dp1630
g80
g81
ssg69
g1624
sg62
(lp1631
S'remote_addr'
p1632
asbag55
(g76
g57
NtRp1633
(dp1634
g60
(dp1635
g87
g88
ssg69
g1624
sg62
(lp1636
S':'
asbag55
(g76
g57
NtRp1637
(dp1638
g60
(dp1639
sg69
g1624
sg62
(lp1640
g55
(g56
g57
NtRp1641
(dp1642
g60
(dp1643
g68
I4
ssg69
g1637
sg62
(lp1644
g201
asbasbasbag55
(g71
g57
NtRp1645
(dp1646
g60
(dp1647
sg69
g1203
sg62
(lp1648
g55
(g76
g57
NtRp1649
(dp1650
g60
(dp1651
g80
g81
ssg69
g1645
sg62
(lp1652
S'remote_port'
p1653
asbag55
(g76
g57
NtRp1654
(dp1655
g60
(dp1656
g87
g88
ssg69
g1645
sg62
(lp1657
S':'
asbag55
(g76
g57
NtRp1658
(dp1659
g60
(dp1660
sg69
g1645
sg62
(lp1661
g55
(g56
g57
NtRp1662
(dp1663
g60
(dp1664
g68
I4
ssg69
g1658
sg62
(lp1665
S'40537'
p1666
asbasbasbag55
(g71
g57
NtRp1667
(dp1668
g60
(dp1669
sg69
g1203
sg62
(lp1670
g55
(g76
g57
NtRp1671
(dp1672
g60
(dp1673
g80
g81
ssg69
g1667
sg62
(lp1674
S'request_method'
p1675
asbag55
(g76
g57
NtRp1676
(dp1677
g60
(dp1678
g87
g88
ssg69
g1667
sg62
(lp1679
S':'
asbag55
(g76
g57
NtRp1680
(dp1681
g60
(dp1682
sg69
g1667
sg62
(lp1683
g55
(g56
g57
NtRp1684
(dp1685
g60
(dp1686
g68
I4
ssg69
g1680
sg62
(lp1687
S'GET'
p1688
asbasbasbag55
(g71
g57
NtRp1689
(dp1690
g60
(dp1691
sg69
g1203
sg62
(lp1692
g55
(g76
g57
NtRp1693
(dp1694
g60
(dp1695
g80
g81
ssg69
g1689
sg62
(lp1696
S'script_name'
p1697
asbag55
(g76
g57
NtRp1698
(dp1699
g60
(dp1700
g87
g88
ssg69
g1689
sg62
(lp1701
S':'
asbag55
(g76
g57
NtRp1702
(dp1703
g60
(dp1704
sg69
g1689
sg62
(lp1705
g55
(g56
g57
NtRp1706
(dp1707
g60
(dp1708
g68
I4
ssg69
g1702
sg62
(lp1709
S''
asbasbasbag55
(g71
g57
NtRp1710
(dp1711
g60
(dp1712
sg69
g1203
sg62
(lp1713
g55
(g76
g57
NtRp1714
(dp1715
g60
(dp1716
g80
g81
ssg69
g1710
sg62
(lp1717
S'server_name'
p1718
asbag55
(g76
g57
NtRp1719
(dp1720
g60
(dp1721
g87
g88
ssg69
g1710
sg62
(lp1722
S':'
asbag55
(g76
g57
NtRp1723
(dp1724
g60
(dp1725
sg69
g1710
sg62
(lp1726
g55
(g56
g57
NtRp1727
(dp1728
g60
(dp1729
g68
I4
ssg69
g1723
sg62
(lp1730
S'ubuntu'
p1731
asbasbasbag55
(g71
g57
NtRp1732
(dp1733
g60
(dp1734
sg69
g1203
sg62
(lp1735
g55
(g76
g57
NtRp1736
(dp1737
g60
(dp1738
g80
g81
ssg69
g1732
sg62
(lp1739
S'server_port'
p1740
asbag55
(g76
g57
NtRp1741
(dp1742
g60
(dp1743
g87
g88
ssg69
g1732
sg62
(lp1744
S':'
asbag55
(g76
g57
NtRp1745
(dp1746
g60
(dp1747
sg69
g1732
sg62
(lp1748
g55
(g56
g57
NtRp1749
(dp1750
g60
(dp1751
g68
I4
ssg69
g1745
sg62
(lp1752
S'8000'
p1753
asbasbasbag55
(g71
g57
NtRp1754
(dp1755
g60
(dp1756
sg69
g1203
sg62
(lp1757
g55
(g76
g57
NtRp1758
(dp1759
g60
(dp1760
g80
g81
ssg69
g1754
sg62
(lp1761
S'server_protocol'
p1762
asbag55
(g76
g57
NtRp1763
(dp1764
g60
(dp1765
g87
g88
ssg69
g1754
sg62
(lp1766
S':'
asbag55
(g76
g57
NtRp1767
(dp1768
g60
(dp1769
sg69
g1754
sg62
(lp1770
g55
(g56
g57
NtRp1771
(dp1772
g60
(dp1773
g68
I4
ssg69
g1767
sg62
(lp1774
S'HTTP/1.1'
p1775
asbasbasbag55
(g71
g57
NtRp1776
(dp1777
g60
(dp1778
sg69
g1203
sg62
(lp1779
g55
(g76
g57
NtRp1780
(dp1781
g60
(dp1782
g80
g81
ssg69
g1776
sg62
(lp1783
S'server_software'
p1784
asbag55
(g76
g57
NtRp1785
(dp1786
g60
(dp1787
g87
g88
ssg69
g1776
sg62
(lp1788
S':'
asbag55
(g76
g57
NtRp1789
(dp1790
g60
(dp1791
sg69
g1776
sg62
(lp1792
g55
(g56
g57
NtRp1793
(dp1794
g60
(dp1795
g68
I4
ssg69
g1789
sg62
(lp1796
S'Rocket 1.2.4'
p1797
asbasbasbag55
(g71
g57
NtRp1798
(dp1799
g60
(dp1800
sg69
g1203
sg62
(lp1801
g55
(g76
g57
NtRp1802
(dp1803
g60
(dp1804
g80
g81
ssg69
g1798
sg62
(lp1805
S'web2py_crontype'
p1806
asbag55
(g76
g57
NtRp1807
(dp1808
g60
(dp1809
g87
g88
ssg69
g1798
sg62
(lp1810
S':'
asbag55
(g76
g57
NtRp1811
(dp1812
g60
(dp1813
sg69
g1798
sg62
(lp1814
g55
(g56
g57
NtRp1815
(dp1816
g60
(dp1817
g68
I4
ssg69
g1811
sg62
(lp1818
S'hard'
p1819
asbasbasbag55
(g71
g57
NtRp1820
(dp1821
g60
(dp1822
sg69
g1203
sg62
(lp1823
g55
(g76
g57
NtRp1824
(dp1825
g60
(dp1826
g80
g81
ssg69
g1820
sg62
(lp1827
S'web2py_path'
p1828
asbag55
(g76
g57
NtRp1829
(dp1830
g60
(dp1831
g87
g88
ssg69
g1820
sg62
(lp1832
S':'
asbag55
(g76
g57
NtRp1833
(dp1834
g60
(dp1835
sg69
g1820
sg62
(lp1836
g55
(g56
g57
NtRp1837
(dp1838
g60
(dp1839
g68
I4
ssg69
g1833
sg62
(lp1840
g1250
asbasbasbag55
(g71
g57
NtRp1841
(dp1842
g60
(dp1843
sg69
g1203
sg62
(lp1844
g55
(g76
g57
NtRp1845
(dp1846
g60
(dp1847
g80
g81
ssg69
g1841
sg62
(lp1848
S'web2py_version'
p1849
asbag55
(g76
g57
NtRp1850
(dp1851
g60
(dp1852
g87
g88
ssg69
g1841
sg62
(lp1853
S':'
asbag55
(g76
g57
NtRp1854
(dp1855
g60
(dp1856
sg69
g1841
sg62
(lp1857
g55
(g56
g57
NtRp1858
(dp1859
g60
(dp1860
g68
I4
ssg69
g1854
sg62
(lp1861
g55
(g64
g57
NtRp1862
(dp1863
g60
(dp1864
g68
I3
ssg69
Nsg62
(lp1865
g55
(g71
g57
NtRp1866
(dp1867
g60
(dp1868
sg69
g1862
sg62
(lp1869
g55
(g76
g57
NtRp1870
(dp1871
g60
(dp1872
sg69
g1866
sg62
(lp1873
g55
(g56
g57
NtRp1874
(dp1875
g60
(dp1876
g68
I3
ssg69
g1870
sg62
(lp1877
S'1'
asbasbasbag55
(g71
g57
NtRp1878
(dp1879
g60
(dp1880
sg69
g1862
sg62
(lp1881
g55
(g76
g57
NtRp1882
(dp1883
g60
(dp1884
sg69
g1878
sg62
(lp1885
g55
(g56
g57
NtRp1886
(dp1887
g60
(dp1888
g68
I3
ssg69
g1882
sg62
(lp1889
S'99'
p1890
asbasbasbag55
(g71
g57
NtRp1891
(dp1892
g60
(dp1893
sg69
g1862
sg62
(lp1894
g55
(g76
g57
NtRp1895
(dp1896
g60
(dp1897
sg69
g1891
sg62
(lp1898
g55
(g56
g57
NtRp1899
(dp1900
g60
(dp1901
g68
I3
ssg69
g1895
sg62
(lp1902
S'4'
asbasbasbag55
(g71
g57
NtRp1903
(dp1904
g60
(dp1905
sg69
g1862
sg62
(lp1906
g55
(g76
g57
NtRp1907
(dp1908
g60
(dp1909
sg69
g1903
sg62
(lp1910
g55
(g56
g57
NtRp1911
(dp1912
g60
(dp1913
g68
I3
ssg69
g1907
sg62
(lp1914
S'datetime.datetime(2011, 12, 14, 14, 46, 14)'
p1915
asbasbasbag55
(g71
g57
NtRp1916
(dp1917
g60
(dp1918
sg69
g1862
sg62
(lp1919
g55
(g76
g57
NtRp1920
(dp1921
g60
(dp1922
sg69
g1916
sg62
(lp1923
g55
(g56
g57
NtRp1924
(dp1925
g60
(dp1926
g68
I3
ssg69
g1920
sg62
(lp1927
S'stable'
p1928
asbasbasbasbasbasbasbag55
(g71
g57
NtRp1929
(dp1930
g60
(dp1931
sg69
g1203
sg62
(lp1932
g55
(g76
g57
NtRp1933
(dp1934
g60
(dp1935
g80
g81
ssg69
g1929
sg62
(lp1936
S'wsgi_errors'
p1937
asbag55
(g76
g57
NtRp1938
(dp1939
g60
(dp1940
g87
g88
ssg69
g1929
sg62
(lp1941
S':'
asbag55
(g76
g57
NtRp1942
(dp1943
g60
(dp1944
sg69
g1929
sg62
(lp1945
g55
(g56
g57
NtRp1946
(dp1947
g60
(dp1948
g68
I4
ssg69
g1942
sg62
(lp1949
S"<open file '<stderr>', mode 'w' at 0xb777d0d0>"
p1950
asbasbasbag55
(g71
g57
NtRp1951
(dp1952
g60
(dp1953
sg69
g1203
sg62
(lp1954
g55
(g76
g57
NtRp1955
(dp1956
g60
(dp1957
g80
g81
ssg69
g1951
sg62
(lp1958
S'wsgi_file_wrapper'
p1959
asbag55
(g76
g57
NtRp1960
(dp1961
g60
(dp1962
g87
g88
ssg69
g1951
sg62
(lp1963
S':'
asbag55
(g76
g57
NtRp1964
(dp1965
g60
(dp1966
sg69
g1951
sg62
(lp1967
g55
(g56
g57
NtRp1968
(dp1969
g60
(dp1970
g68
I4
ssg69
g1964
sg62
(lp1971
S'<class wsgiref.util.FileWrapper at 0xa52e20c>'
p1972
asbasbasbag55
(g71
g57
NtRp1973
(dp1974
g60
(dp1975
sg69
g1203
sg62
(lp1976
g55
(g76
g57
NtRp1977
(dp1978
g60
(dp1979
g80
g81
ssg69
g1973
sg62
(lp1980
S'wsgi_input'
p1981
asbag55
(g76
g57
NtRp1982
(dp1983
g60
(dp1984
g87
g88
ssg69
g1973
sg62
(lp1985
S':'
asbag55
(g76
g57
NtRp1986
(dp1987
g60
(dp1988
sg69
g1973
sg62
(lp1989
g55
(g56
g57
NtRp1990
(dp1991
g60
(dp1992
g68
I4
ssg69
g1986
sg62
(lp1993
S'<socket._fileobject object at 0xaa34f6c>'
p1994
asbasbasbag55
(g71
g57
NtRp1995
(dp1996
g60
(dp1997
sg69
g1203
sg62
(lp1998
g55
(g76
g57
NtRp1999
(dp2000
g60
(dp2001
g80
g81
ssg69
g1995
sg62
(lp2002
S'wsgi_multiprocess'
p2003
asbag55
(g76
g57
NtRp2004
(dp2005
g60
(dp2006
g87
g88
ssg69
g1995
sg62
(lp2007
S':'
asbag55
(g76
g57
NtRp2008
(dp2009
g60
(dp2010
sg69
g1995
sg62
(lp2011
g55
(g56
g57
NtRp2012
(dp2013
g60
(dp2014
g68
I4
ssg69
g2008
sg62
(lp2015
g98
asbasbasbag55
(g71
g57
NtRp2016
(dp2017
g60
(dp2018
sg69
g1203
sg62
(lp2019
g55
(g76
g57
NtRp2020
(dp2021
g60
(dp2022
g80
g81
ssg69
g2016
sg62
(lp2023
S'wsgi_multithread'
p2024
asbag55
(g76
g57
NtRp2025
(dp2026
g60
(dp2027
g87
g88
ssg69
g2016
sg62
(lp2028
S':'
asbag55
(g76
g57
NtRp2029
(dp2030
g60
(dp2031
sg69
g2016
sg62
(lp2032
g55
(g56
g57
NtRp2033
(dp2034
g60
(dp2035
g68
I4
ssg69
g2029
sg62
(lp2036
S'True'
p2037
asbasbasbag55
(g71
g57
NtRp2038
(dp2039
g60
(dp2040
sg69
g1203
sg62
(lp2041
g55
(g76
g57
NtRp2042
(dp2043
g60
(dp2044
g80
g81
ssg69
g2038
sg62
(lp2045
S'wsgi_run_once'
p2046
asbag55
(g76
g57
NtRp2047
(dp2048
g60
(dp2049
g87
g88
ssg69
g2038
sg62
(lp2050
S':'
asbag55
(g76
g57
NtRp2051
(dp2052
g60
(dp2053
sg69
g2038
sg62
(lp2054
g55
(g56
g57
NtRp2055
(dp2056
g60
(dp2057
g68
I4
ssg69
g2051
sg62
(lp2058
g98
asbasbasbag55
(g71
g57
NtRp2059
(dp2060
g60
(dp2061
sg69
g1203
sg62
(lp2062
g55
(g76
g57
NtRp2063
(dp2064
g60
(dp2065
g80
g81
ssg69
g2059
sg62
(lp2066
S'wsgi_url_scheme'
p2067
asbag55
(g76
g57
NtRp2068
(dp2069
g60
(dp2070
g87
g88
ssg69
g2059
sg62
(lp2071
S':'
asbag55
(g76
g57
NtRp2072
(dp2073
g60
(dp2074
sg69
g2059
sg62
(lp2075
g55
(g56
g57
NtRp2076
(dp2077
g60
(dp2078
g68
I4
ssg69
g2072
sg62
(lp2079
S'http'
p2080
asbasbasbag55
(g71
g57
NtRp2081
(dp2082
g60
(dp2083
sg69
g1203
sg62
(lp2084
g55
(g76
g57
NtRp2085
(dp2086
g60
(dp2087
g80
g81
ssg69
g2081
sg62
(lp2088
S'wsgi_version'
p2089
asbag55
(g76
g57
NtRp2090
(dp2091
g60
(dp2092
g87
g88
ssg69
g2081
sg62
(lp2093
S':'
asbag55
(g76
g57
NtRp2094
(dp2095
g60
(dp2096
sg69
g2081
sg62
(lp2097
g55
(g56
g57
NtRp2098
(dp2099
g60
(dp2100
g68
I4
ssg69
g2094
sg62
(lp2101
g55
(g64
g57
NtRp2102
(dp2103
g60
(dp2104
g68
I3
ssg69
Nsg62
(lp2105
g55
(g71
g57
NtRp2106
(dp2107
g60
(dp2108
sg69
g2102
sg62
(lp2109
g55
(g76
g57
NtRp2110
(dp2111
g60
(dp2112
sg69
g2106
sg62
(lp2113
g55
(g56
g57
NtRp2114
(dp2115
g60
(dp2116
g68
I3
ssg69
g2110
sg62
(lp2117
S'1'
asbasbasbag55
(g71
g57
NtRp2118
(dp2119
g60
(dp2120
sg69
g2102
sg62
(lp2121
g55
(g76
g57
NtRp2122
(dp2123
g60
(dp2124
sg69
g2118
sg62
(lp2125
g55
(g56
g57
NtRp2126
(dp2127
g60
(dp2128
g68
I3
ssg69
g2122
sg62
(lp2129
S'0'
asbasbasbasbasbasbasbasbasbasbasbag55
(g71
g57
NtRp2130
(dp2131
g60
(dp2132
sg69
g65
sg62
(lp2133
g55
(g76
g57
NtRp2134
(dp2135
g60
(dp2136
g80
g81
ssg69
g2130
sg62
(lp2137
S'extension'
p2138
asbag55
(g76
g57
NtRp2139
(dp2140
g60
(dp2141
g87
g88
ssg69
g2130
sg62
(lp2142
S':'
asbag55
(g76
g57
NtRp2143
(dp2144
g60
(dp2145
sg69
g2130
sg62
(lp2146
g55
(g56
g57
NtRp2147
(dp2148
g60
(dp2149
g68
I5
ssg69
g2143
sg62
(lp2150
S'html'
p2151
asbasbasbag55
(g71
g57
NtRp2152
(dp2153
g60
(dp2154
sg69
g65
sg62
(lp2155
g55
(g76
g57
NtRp2156
(dp2157
g60
(dp2158
g80
g81
ssg69
g2152
sg62
(lp2159
S'folder'
p2160
asbag55
(g76
g57
NtRp2161
(dp2162
g60
(dp2163
g87
g88
ssg69
g2152
sg62
(lp2164
S':'
asbag55
(g76
g57
NtRp2165
(dp2166
g60
(dp2167
sg69
g2152
sg62
(lp2168
g55
(g56
g57
NtRp2169
(dp2170
g60
(dp2171
g68
I5
ssg69
g2165
sg62
(lp2172
S'/home/iscott/web/web2py/applications/grammateus3/'
p2173
asbasbasbag55
(g71
g57
NtRp2174
(dp2175
g60
(dp2176
sg69
g65
sg62
(lp2177
g55
(g76
g57
NtRp2178
(dp2179
g60
(dp2180
g80
g81
ssg69
g2174
sg62
(lp2181
S'function'
p2182
asbag55
(g76
g57
NtRp2183
(dp2184
g60
(dp2185
g87
g88
ssg69
g2174
sg62
(lp2186
S':'
asbag55
(g76
g57
NtRp2187
(dp2188
g60
(dp2189
sg69
g2174
sg62
(lp2190
g55
(g56
g57
NtRp2191
(dp2192
g60
(dp2193
g68
I5
ssg69
g2187
sg62
(lp2194
S'text'
p2195
asbasbasbag55
(g71
g57
NtRp2196
(dp2197
g60
(dp2198
sg69
g65
sg62
(lp2199
g55
(g76
g57
NtRp2200
(dp2201
g60
(dp2202
g80
g81
ssg69
g2196
sg62
(lp2203
S'get_vars'
p2204
asbag55
(g76
g57
NtRp2205
(dp2206
g60
(dp2207
g87
g88
ssg69
g2196
sg62
(lp2208
S':'
asbag55
(g76
g57
NtRp2209
(dp2210
g60
(dp2211
sg69
g2196
sg62
(lp2212
g55
(g56
g57
NtRp2213
(dp2214
g60
(dp2215
g68
I5
ssg69
g2209
sg62
(lp2216
g55
(g64
g57
NtRp2217
(dp2218
g60
(dp2219
g68
I4
ssg69
Nsg62
(lp2220
sbasbasbasbag55
(g71
g57
NtRp2221
(dp2222
g60
(dp2223
sg69
g65
sg62
(lp2224
g55
(g76
g57
NtRp2225
(dp2226
g60
(dp2227
g80
g81
ssg69
g2221
sg62
(lp2228
S'global_settings'
p2229
asbag55
(g76
g57
NtRp2230
(dp2231
g60
(dp2232
g87
g88
ssg69
g2221
sg62
(lp2233
S':'
asbag55
(g76
g57
NtRp2234
(dp2235
g60
(dp2236
sg69
g2221
sg62
(lp2237
g55
(g56
g57
NtRp2238
(dp2239
g60
(dp2240
g68
I5
ssg69
g2234
sg62
(lp2241
g55
(g64
g57
NtRp2242
(dp2243
g60
(dp2244
g68
I4
ssg69
Nsg62
(lp2245
g55
(g71
g57
NtRp2246
(dp2247
g60
(dp2248
sg69
g2242
sg62
(lp2249
g55
(g76
g57
NtRp2250
(dp2251
g60
(dp2252
g80
g81
ssg69
g2246
sg62
(lp2253
g1215
asbag55
(g76
g57
NtRp2254
(dp2255
g60
(dp2256
g87
g88
ssg69
g2246
sg62
(lp2257
S':'
asbag55
(g76
g57
NtRp2258
(dp2259
g60
(dp2260
sg69
g2246
sg62
(lp2261
g55
(g56
g57
NtRp2262
(dp2263
g60
(dp2264
g68
I4
ssg69
g2258
sg62
(lp2265
S"set(['/home/iscott/web/web2py/applications/grammateus3/', '/home/iscott/web/web2py/applications/admin/', '/home/iscott/web/web2py/applications/welcome/'])"
p2266
asbasbasbag55
(g71
g57
NtRp2267
(dp2268
g60
(dp2269
sg69
g2242
sg62
(lp2270
g55
(g76
g57
NtRp2271
(dp2272
g60
(dp2273
g80
g81
ssg69
g2267
sg62
(lp2274
g1237
asbag55
(g76
g57
NtRp2275
(dp2276
g60
(dp2277
g87
g88
ssg69
g2267
sg62
(lp2278
S':'
asbag55
(g76
g57
NtRp2279
(dp2280
g60
(dp2281
sg69
g2267
sg62
(lp2282
g55
(g56
g57
NtRp2283
(dp2284
g60
(dp2285
g68
I4
ssg69
g2279
sg62
(lp2286
g1250
asbasbasbag55
(g71
g57
NtRp2287
(dp2288
g60
(dp2289
sg69
g2242
sg62
(lp2290
g55
(g76
g57
NtRp2291
(dp2292
g60
(dp2293
g80
g81
ssg69
g2287
sg62
(lp2294
g1259
asbag55
(g76
g57
NtRp2295
(dp2296
g60
(dp2297
g87
g88
ssg69
g2287
sg62
(lp2298
S':'
asbag55
(g76
g57
NtRp2299
(dp2300
g60
(dp2301
sg69
g2287
sg62
(lp2302
g55
(g56
g57
NtRp2303
(dp2304
g60
(dp2305
g68
I4
ssg69
g2299
sg62
(lp2306
g55
(g64
g57
NtRp2307
(dp2308
g60
(dp2309
g68
I3
ssg69
Nsg62
(lp2310
sbasbasbasbag55
(g71
g57
NtRp2311
(dp2312
g60
(dp2313
sg69
g2242
sg62
(lp2314
g55
(g76
g57
NtRp2315
(dp2316
g60
(dp2317
g80
g81
ssg69
g2311
sg62
(lp2318
g1284
asbag55
(g76
g57
NtRp2319
(dp2320
g60
(dp2321
g87
g88
ssg69
g2311
sg62
(lp2322
S':'
asbag55
(g76
g57
NtRp2323
(dp2324
g60
(dp2325
sg69
g2311
sg62
(lp2326
g55
(g56
g57
NtRp2327
(dp2328
g60
(dp2329
g68
I4
ssg69
g2323
sg62
(lp2330
S"<Values at 0xa5e5b8c: {'verbose': False, 'ip': '127.0.0.1', 'shutdown_timeout': 5, 'taskbar': False, 'nocron': False, 'pid_filename': 'httpserver.pid', 'maxthreads': None, 'softcron': False, 'server_name': 'ubuntu', 'bpython': False, 'nogui': False, 'port': 8000, 'extcron': False, 'debuglevel': 30, 'test': None, 'folder': '/home/iscott/web/web2py', 'config': '', 'import_models': False, 'winservice': '', 'shell': None, 'run': '', 'log_filename': 'httpserver.log', 'args': [''], 'socket_timeout': 1, 'ssl_ca_certificate': None, 'scheduler': None, 'profiler_filename': None, 'ssl_private_key': '', 'password': '<ask>', 'request_queue_size': 5, 'ssl_certificate': '', 'cronjob': False, 'numthreads': None, 'quiet': False, 'interfaces': None, 'minthreads': None, 'timeout': 10, 'plain': False, 'nobanner': False}>"
p2331
asbasbasbag55
(g71
g57
NtRp2332
(dp2333
g60
(dp2334
sg69
g2242
sg62
(lp2335
g55
(g76
g57
NtRp2336
(dp2337
g60
(dp2338
g80
g81
ssg69
g2332
sg62
(lp2339
g1306
asbag55
(g76
g57
NtRp2340
(dp2341
g60
(dp2342
g87
g88
ssg69
g2332
sg62
(lp2343
S':'
asbag55
(g76
g57
NtRp2344
(dp2345
g60
(dp2346
sg69
g2332
sg62
(lp2347
g55
(g56
g57
NtRp2348
(dp2349
g60
(dp2350
g68
I4
ssg69
g2344
sg62
(lp2351
S'set([])'
p2352
asbasbasbag55
(g71
g57
NtRp2353
(dp2354
g60
(dp2355
sg69
g2242
sg62
(lp2356
g55
(g76
g57
NtRp2357
(dp2358
g60
(dp2359
g80
g81
ssg69
g2353
sg62
(lp2360
g1328
asbag55
(g76
g57
NtRp2361
(dp2362
g60
(dp2363
g87
g88
ssg69
g2353
sg62
(lp2364
S':'
asbag55
(g76
g57
NtRp2365
(dp2366
g60
(dp2367
sg69
g2353
sg62
(lp2368
g55
(g56
g57
NtRp2369
(dp2370
g60
(dp2371
g68
I4
ssg69
g2365
sg62
(lp2372
g98
asbasbasbag55
(g71
g57
NtRp2373
(dp2374
g60
(dp2375
sg69
g2242
sg62
(lp2376
g55
(g76
g57
NtRp2377
(dp2378
g60
(dp2379
g80
g81
ssg69
g2373
sg62
(lp2380
g1349
asbag55
(g76
g57
NtRp2381
(dp2382
g60
(dp2383
g87
g88
ssg69
g2373
sg62
(lp2384
S':'
asbag55
(g76
g57
NtRp2385
(dp2386
g60
(dp2387
sg69
g2373
sg62
(lp2388
g55
(g56
g57
NtRp2389
(dp2390
g60
(dp2391
g68
I4
ssg69
g2385
sg62
(lp2392
g1362
asbasbasbag55
(g71
g57
NtRp2393
(dp2394
g60
(dp2395
sg69
g2242
sg62
(lp2396
g55
(g76
g57
NtRp2397
(dp2398
g60
(dp2399
g80
g81
ssg69
g2393
sg62
(lp2400
g1547
asbag55
(g76
g57
NtRp2401
(dp2402
g60
(dp2403
g87
g88
ssg69
g2393
sg62
(lp2404
S':'
asbag55
(g76
g57
NtRp2405
(dp2406
g60
(dp2407
sg69
g2393
sg62
(lp2408
g55
(g56
g57
NtRp2409
(dp2410
g60
(dp2411
g68
I4
ssg69
g2405
sg62
(lp2412
g98
asbasbasbag55
(g71
g57
NtRp2413
(dp2414
g60
(dp2415
sg69
g2242
sg62
(lp2416
g55
(g76
g57
NtRp2417
(dp2418
g60
(dp2419
g80
g81
ssg69
g2413
sg62
(lp2420
g1568
asbag55
(g76
g57
NtRp2421
(dp2422
g60
(dp2423
g87
g88
ssg69
g2413
sg62
(lp2424
S':'
asbag55
(g76
g57
NtRp2425
(dp2426
g60
(dp2427
sg69
g2413
sg62
(lp2428
g55
(g56
g57
NtRp2429
(dp2430
g60
(dp2431
g68
I4
ssg69
g2425
sg62
(lp2432
g98
asbasbasbag55
(g71
g57
NtRp2433
(dp2434
g60
(dp2435
sg69
g2242
sg62
(lp2436
g55
(g76
g57
NtRp2437
(dp2438
g60
(dp2439
g80
g81
ssg69
g2433
sg62
(lp2440
g1806
asbag55
(g76
g57
NtRp2441
(dp2442
g60
(dp2443
g87
g88
ssg69
g2433
sg62
(lp2444
S':'
asbag55
(g76
g57
NtRp2445
(dp2446
g60
(dp2447
sg69
g2433
sg62
(lp2448
g55
(g56
g57
NtRp2449
(dp2450
g60
(dp2451
g68
I4
ssg69
g2445
sg62
(lp2452
g1819
asbasbasbag55
(g71
g57
NtRp2453
(dp2454
g60
(dp2455
sg69
g2242
sg62
(lp2456
g55
(g76
g57
NtRp2457
(dp2458
g60
(dp2459
g80
g81
ssg69
g2453
sg62
(lp2460
g1849
asbag55
(g76
g57
NtRp2461
(dp2462
g60
(dp2463
g87
g88
ssg69
g2453
sg62
(lp2464
S':'
asbag55
(g76
g57
NtRp2465
(dp2466
g60
(dp2467
sg69
g2453
sg62
(lp2468
g55
(g56
g57
NtRp2469
(dp2470
g60
(dp2471
g68
I4
ssg69
g2465
sg62
(lp2472
g55
(g64
g57
NtRp2473
(dp2474
g60
(dp2475
g68
I3
ssg69
Nsg62
(lp2476
g55
(g71
g57
NtRp2477
(dp2478
g60
(dp2479
sg69
g2473
sg62
(lp2480
g55
(g76
g57
NtRp2481
(dp2482
g60
(dp2483
sg69
g2477
sg62
(lp2484
g55
(g56
g57
NtRp2485
(dp2486
g60
(dp2487
g68
I3
ssg69
g2481
sg62
(lp2488
S'1'
asbasbasbag55
(g71
g57
NtRp2489
(dp2490
g60
(dp2491
sg69
g2473
sg62
(lp2492
g55
(g76
g57
NtRp2493
(dp2494
g60
(dp2495
sg69
g2489
sg62
(lp2496
g55
(g56
g57
NtRp2497
(dp2498
g60
(dp2499
g68
I3
ssg69
g2493
sg62
(lp2500
S'99'
p2501
asbasbasbag55
(g71
g57
NtRp2502
(dp2503
g60
(dp2504
sg69
g2473
sg62
(lp2505
g55
(g76
g57
NtRp2506
(dp2507
g60
(dp2508
sg69
g2502
sg62
(lp2509
g55
(g56
g57
NtRp2510
(dp2511
g60
(dp2512
g68
I3
ssg69
g2506
sg62
(lp2513
S'4'
asbasbasbag55
(g71
g57
NtRp2514
(dp2515
g60
(dp2516
sg69
g2473
sg62
(lp2517
g55
(g76
g57
NtRp2518
(dp2519
g60
(dp2520
sg69
g2514
sg62
(lp2521
g55
(g56
g57
NtRp2522
(dp2523
g60
(dp2524
g68
I3
ssg69
g2518
sg62
(lp2525
S'datetime.datetime(2011, 12, 14, 14, 46, 14)'
p2526
asbasbasbag55
(g71
g57
NtRp2527
(dp2528
g60
(dp2529
sg69
g2473
sg62
(lp2530
g55
(g76
g57
NtRp2531
(dp2532
g60
(dp2533
sg69
g2527
sg62
(lp2534
g55
(g56
g57
NtRp2535
(dp2536
g60
(dp2537
g68
I3
ssg69
g2531
sg62
(lp2538
g1928
asbasbasbasbasbasbasbasbasbasbasbag55
(g71
g57
NtRp2539
(dp2540
g60
(dp2541
sg69
g65
sg62
(lp2542
g55
(g76
g57
NtRp2543
(dp2544
g60
(dp2545
g80
g81
ssg69
g2539
sg62
(lp2546
S'is_https'
p2547
asbag55
(g76
g57
NtRp2548
(dp2549
g60
(dp2550
g87
g88
ssg69
g2539
sg62
(lp2551
S':'
asbag55
(g76
g57
NtRp2552
(dp2553
g60
(dp2554
sg69
g2539
sg62
(lp2555
g55
(g56
g57
NtRp2556
(dp2557
g60
(dp2558
g68
I5
ssg69
g2552
sg62
(lp2559
g98
asbasbasbag55
(g71
g57
NtRp2560
(dp2561
g60
(dp2562
sg69
g65
sg62
(lp2563
g55
(g76
g57
NtRp2564
(dp2565
g60
(dp2566
g80
g81
ssg69
g2560
sg62
(lp2567
S'is_local'
p2568
asbag55
(g76
g57
NtRp2569
(dp2570
g60
(dp2571
g87
g88
ssg69
g2560
sg62
(lp2572
S':'
asbag55
(g76
g57
NtRp2573
(dp2574
g60
(dp2575
sg69
g2560
sg62
(lp2576
g55
(g56
g57
NtRp2577
(dp2578
g60
(dp2579
g68
I5
ssg69
g2573
sg62
(lp2580
g2037
asbasbasbag55
(g71
g57
NtRp2581
(dp2582
g60
(dp2583
sg69
g65
sg62
(lp2584
g55
(g76
g57
NtRp2585
(dp2586
g60
(dp2587
g80
g81
ssg69
g2581
sg62
(lp2588
S'is_restful'
p2589
asbag55
(g76
g57
NtRp2590
(dp2591
g60
(dp2592
g87
g88
ssg69
g2581
sg62
(lp2593
S':'
asbag55
(g76
g57
NtRp2594
(dp2595
g60
(dp2596
sg69
g2581
sg62
(lp2597
g55
(g56
g57
NtRp2598
(dp2599
g60
(dp2600
g68
I5
ssg69
g2594
sg62
(lp2601
g98
asbasbasbag55
(g71
g57
NtRp2602
(dp2603
g60
(dp2604
sg69
g65
sg62
(lp2605
g55
(g76
g57
NtRp2606
(dp2607
g60
(dp2608
g80
g81
ssg69
g2602
sg62
(lp2609
S'now'
p2610
asbag55
(g76
g57
NtRp2611
(dp2612
g60
(dp2613
g87
g88
ssg69
g2602
sg62
(lp2614
S':'
asbag55
(g76
g57
NtRp2615
(dp2616
g60
(dp2617
sg69
g2602
sg62
(lp2618
g55
(g56
g57
NtRp2619
(dp2620
g60
(dp2621
g68
I5
ssg69
g2615
sg62
(lp2622
S'datetime.datetime(2012, 3, 6, 12, 44, 11, 72832)'
p2623
asbasbasbag55
(g71
g57
NtRp2624
(dp2625
g60
(dp2626
sg69
g65
sg62
(lp2627
g55
(g76
g57
NtRp2628
(dp2629
g60
(dp2630
g80
g81
ssg69
g2624
sg62
(lp2631
S'post_vars'
p2632
asbag55
(g76
g57
NtRp2633
(dp2634
g60
(dp2635
g87
g88
ssg69
g2624
sg62
(lp2636
S':'
asbag55
(g76
g57
NtRp2637
(dp2638
g60
(dp2639
sg69
g2624
sg62
(lp2640
g55
(g56
g57
NtRp2641
(dp2642
g60
(dp2643
g68
I5
ssg69
g2637
sg62
(lp2644
g55
(g64
g57
NtRp2645
(dp2646
g60
(dp2647
g68
I4
ssg69
Nsg62
(lp2648
sbasbasbasbag55
(g71
g57
NtRp2649
(dp2650
g60
(dp2651
sg69
g65
sg62
(lp2652
g55
(g76
g57
NtRp2653
(dp2654
g60
(dp2655
g80
g81
ssg69
g2649
sg62
(lp2656
S'raw_args'
p2657
asbag55
(g76
g57
NtRp2658
(dp2659
g60
(dp2660
g87
g88
ssg69
g2649
sg62
(lp2661
S':'
asbag55
(g76
g57
NtRp2662
(dp2663
g60
(dp2664
sg69
g2649
sg62
(lp2665
g55
(g56
g57
NtRp2666
(dp2667
g60
(dp2668
g68
I5
ssg69
g2662
sg62
(lp2669
g157
asbasbasbag55
(g71
g57
NtRp2670
(dp2671
g60
(dp2672
sg69
g65
sg62
(lp2673
g55
(g76
g57
NtRp2674
(dp2675
g60
(dp2676
g80
g81
ssg69
g2670
sg62
(lp2677
S'url'
p2678
asbag55
(g76
g57
NtRp2679
(dp2680
g60
(dp2681
g87
g88
ssg69
g2670
sg62
(lp2682
S':'
asbag55
(g76
g57
NtRp2683
(dp2684
g60
(dp2685
sg69
g2670
sg62
(lp2686
g55
(g56
g57
NtRp2687
(dp2688
g60
(dp2689
g68
I5
ssg69
g2683
sg62
(lp2690
S'/grammateus3/docs/text/1En'
p2691
asbasbasbag55
(g71
g57
NtRp2692
(dp2693
g60
(dp2694
sg69
g65
sg62
(lp2695
g55
(g76
g57
NtRp2696
(dp2697
g60
(dp2698
g80
g81
ssg69
g2692
sg62
(lp2699
S'utcnow'
p2700
asbag55
(g76
g57
NtRp2701
(dp2702
g60
(dp2703
g87
g88
ssg69
g2692
sg62
(lp2704
S':'
asbag55
(g76
g57
NtRp2705
(dp2706
g60
(dp2707
sg69
g2692
sg62
(lp2708
g55
(g56
g57
NtRp2709
(dp2710
g60
(dp2711
g68
I5
ssg69
g2705
sg62
(lp2712
S'datetime.datetime(2012, 3, 6, 17, 44, 11, 72932)'
p2713
asbasbasbag55
(g71
g57
NtRp2714
(dp2715
g60
(dp2716
sg69
g65
sg62
(lp2717
g55
(g76
g57
NtRp2718
(dp2719
g60
(dp2720
g80
g81
ssg69
g2714
sg62
(lp2721
S'uuid'
p2722
asbag55
(g76
g57
NtRp2723
(dp2724
g60
(dp2725
g87
g88
ssg69
g2714
sg62
(lp2726
S':'
asbag55
(g76
g57
NtRp2727
(dp2728
g60
(dp2729
sg69
g2714
sg62
(lp2730
g55
(g56
g57
NtRp2731
(dp2732
g60
(dp2733
g68
I5
ssg69
g2727
sg62
(lp2734
S'grammateus3/127.0.0.1.2012-03-06.12-44-11.d0470d6e-d120-4259-81a9-9978eb92b6ff'
p2735
asbasbasbag55
(g71
g57
NtRp2736
(dp2737
g60
(dp2738
sg69
g65
sg62
(lp2739
g55
(g76
g57
NtRp2740
(dp2741
g60
(dp2742
g80
g81
ssg69
g2736
sg62
(lp2743
S'vars'
p2744
asbag55
(g76
g57
NtRp2745
(dp2746
g60
(dp2747
g87
g88
ssg69
g2736
sg62
(lp2748
S':'
asbag55
(g76
g57
NtRp2749
(dp2750
g60
(dp2751
sg69
g2736
sg62
(lp2752
g55
(g56
g57
NtRp2753
(dp2754
g60
(dp2755
g68
I5
ssg69
g2749
sg62
(lp2756
g55
(g64
g57
NtRp2757
(dp2758
g60
(dp2759
g68
I4
ssg69
Nsg62
(lp2760
sbasbasbasbag55
(g71
g57
NtRp2761
(dp2762
g60
(dp2763
sg69
g65
sg62
(lp2764
g55
(g76
g57
NtRp2765
(dp2766
g60
(dp2767
g80
g81
ssg69
g2761
sg62
(lp2768
S'wsgi'
p2769
asbag55
(g76
g57
NtRp2770
(dp2771
g60
(dp2772
g87
g88
ssg69
g2761
sg62
(lp2773
S':'
asbag55
(g76
g57
NtRp2774
(dp2775
g60
(dp2776
sg69
g2761
sg62
(lp2777
g55
(g56
g57
NtRp2778
(dp2779
g60
(dp2780
g68
I5
ssg69
g2774
sg62
(lp2781
g55
(g64
g57
NtRp2782
(dp2783
g60
(dp2784
g68
I4
ssg69
Nsg62
(lp2785
g55
(g71
g57
NtRp2786
(dp2787
g60
(dp2788
sg69
g2782
sg62
(lp2789
g55
(g76
g57
NtRp2790
(dp2791
g60
(dp2792
g80
g81
ssg69
g2786
sg62
(lp2793
S'environ'
p2794
asbag55
(g76
g57
NtRp2795
(dp2796
g60
(dp2797
g87
g88
ssg69
g2786
sg62
(lp2798
S':'
asbag55
(g76
g57
NtRp2799
(dp2800
g60
(dp2801
sg69
g2786
sg62
(lp2802
g55
(g56
g57
NtRp2803
(dp2804
g60
(dp2805
g68
I4
ssg69
g2799
sg62
(lp2806
g55
(g64
g57
NtRp2807
(dp2808
g60
(dp2809
g68
I3
ssg69
Nsg62
(lp2810
g55
(g71
g57
NtRp2811
(dp2812
g60
(dp2813
sg69
g2807
sg62
(lp2814
g55
(g76
g57
NtRp2815
(dp2816
g60
(dp2817
g80
g81
ssg69
g2811
sg62
(lp2818
S'HTTP_ACCEPT'
p2819
asbag55
(g76
g57
NtRp2820
(dp2821
g60
(dp2822
g87
g88
ssg69
g2811
sg62
(lp2823
S':'
asbag55
(g76
g57
NtRp2824
(dp2825
g60
(dp2826
sg69
g2811
sg62
(lp2827
g55
(g56
g57
NtRp2828
(dp2829
g60
(dp2830
g68
I3
ssg69
g2824
sg62
(lp2831
g1384
asbasbasbag55
(g71
g57
NtRp2832
(dp2833
g60
(dp2834
sg69
g2807
sg62
(lp2835
g55
(g76
g57
NtRp2836
(dp2837
g60
(dp2838
g80
g81
ssg69
g2832
sg62
(lp2839
S'HTTP_ACCEPT_ENCODING'
p2840
asbag55
(g76
g57
NtRp2841
(dp2842
g60
(dp2843
g87
g88
ssg69
g2832
sg62
(lp2844
S':'
asbag55
(g76
g57
NtRp2845
(dp2846
g60
(dp2847
sg69
g2832
sg62
(lp2848
g55
(g56
g57
NtRp2849
(dp2850
g60
(dp2851
g68
I3
ssg69
g2845
sg62
(lp2852
g1406
asbasbasbag55
(g71
g57
NtRp2853
(dp2854
g60
(dp2855
sg69
g2807
sg62
(lp2856
g55
(g76
g57
NtRp2857
(dp2858
g60
(dp2859
g80
g81
ssg69
g2853
sg62
(lp2860
S'HTTP_ACCEPT_LANGUAGE'
p2861
asbag55
(g76
g57
NtRp2862
(dp2863
g60
(dp2864
g87
g88
ssg69
g2853
sg62
(lp2865
S':'
asbag55
(g76
g57
NtRp2866
(dp2867
g60
(dp2868
sg69
g2853
sg62
(lp2869
g55
(g56
g57
NtRp2870
(dp2871
g60
(dp2872
g68
I3
ssg69
g2866
sg62
(lp2873
g1428
asbasbasbag55
(g71
g57
NtRp2874
(dp2875
g60
(dp2876
sg69
g2807
sg62
(lp2877
g55
(g76
g57
NtRp2878
(dp2879
g60
(dp2880
g80
g81
ssg69
g2874
sg62
(lp2881
S'HTTP_CACHE_CONTROL'
p2882
asbag55
(g76
g57
NtRp2883
(dp2884
g60
(dp2885
g87
g88
ssg69
g2874
sg62
(lp2886
S':'
asbag55
(g76
g57
NtRp2887
(dp2888
g60
(dp2889
sg69
g2874
sg62
(lp2890
g55
(g56
g57
NtRp2891
(dp2892
g60
(dp2893
g68
I3
ssg69
g2887
sg62
(lp2894
g1450
asbasbasbag55
(g71
g57
NtRp2895
(dp2896
g60
(dp2897
sg69
g2807
sg62
(lp2898
g55
(g76
g57
NtRp2899
(dp2900
g60
(dp2901
g80
g81
ssg69
g2895
sg62
(lp2902
S'HTTP_CONNECTION'
p2903
asbag55
(g76
g57
NtRp2904
(dp2905
g60
(dp2906
g87
g88
ssg69
g2895
sg62
(lp2907
S':'
asbag55
(g76
g57
NtRp2908
(dp2909
g60
(dp2910
sg69
g2895
sg62
(lp2911
g55
(g56
g57
NtRp2912
(dp2913
g60
(dp2914
g68
I3
ssg69
g2908
sg62
(lp2915
g1472
asbasbasbag55
(g71
g57
NtRp2916
(dp2917
g60
(dp2918
sg69
g2807
sg62
(lp2919
g55
(g76
g57
NtRp2920
(dp2921
g60
(dp2922
g80
g81
ssg69
g2916
sg62
(lp2923
S'HTTP_COOKIE'
p2924
asbag55
(g76
g57
NtRp2925
(dp2926
g60
(dp2927
g87
g88
ssg69
g2916
sg62
(lp2928
S':'
asbag55
(g76
g57
NtRp2929
(dp2930
g60
(dp2931
sg69
g2916
sg62
(lp2932
g55
(g56
g57
NtRp2933
(dp2934
g60
(dp2935
g68
I3
ssg69
g2929
sg62
(lp2936
g1494
asbasbasbag55
(g71
g57
NtRp2937
(dp2938
g60
(dp2939
sg69
g2807
sg62
(lp2940
g55
(g76
g57
NtRp2941
(dp2942
g60
(dp2943
g80
g81
ssg69
g2937
sg62
(lp2944
S'HTTP_HOST'
p2945
asbag55
(g76
g57
NtRp2946
(dp2947
g60
(dp2948
g87
g88
ssg69
g2937
sg62
(lp2949
S':'
asbag55
(g76
g57
NtRp2950
(dp2951
g60
(dp2952
sg69
g2937
sg62
(lp2953
g55
(g56
g57
NtRp2954
(dp2955
g60
(dp2956
g68
I3
ssg69
g2950
sg62
(lp2957
g1516
asbasbasbag55
(g71
g57
NtRp2958
(dp2959
g60
(dp2960
sg69
g2807
sg62
(lp2961
g55
(g76
g57
NtRp2962
(dp2963
g60
(dp2964
g80
g81
ssg69
g2958
sg62
(lp2965
S'HTTP_USER_AGENT'
p2966
asbag55
(g76
g57
NtRp2967
(dp2968
g60
(dp2969
g87
g88
ssg69
g2958
sg62
(lp2970
S':'
asbag55
(g76
g57
NtRp2971
(dp2972
g60
(dp2973
sg69
g2958
sg62
(lp2974
g55
(g56
g57
NtRp2975
(dp2976
g60
(dp2977
g68
I3
ssg69
g2971
sg62
(lp2978
g1538
asbasbasbag55
(g71
g57
NtRp2979
(dp2980
g60
(dp2981
sg69
g2807
sg62
(lp2982
g55
(g76
g57
NtRp2983
(dp2984
g60
(dp2985
g80
g81
ssg69
g2979
sg62
(lp2986
S'PATH_INFO'
p2987
asbag55
(g76
g57
NtRp2988
(dp2989
g60
(dp2990
g87
g88
ssg69
g2979
sg62
(lp2991
S':'
asbag55
(g76
g57
NtRp2992
(dp2993
g60
(dp2994
sg69
g2979
sg62
(lp2995
g55
(g56
g57
NtRp2996
(dp2997
g60
(dp2998
g68
I3
ssg69
g2992
sg62
(lp2999
g1602
asbasbasbag55
(g71
g57
NtRp3000
(dp3001
g60
(dp3002
sg69
g2807
sg62
(lp3003
g55
(g76
g57
NtRp3004
(dp3005
g60
(dp3006
g80
g81
ssg69
g3000
sg62
(lp3007
S'QUERY_STRING'
p3008
asbag55
(g76
g57
NtRp3009
(dp3010
g60
(dp3011
g87
g88
ssg69
g3000
sg62
(lp3012
S':'
asbag55
(g76
g57
NtRp3013
(dp3014
g60
(dp3015
sg69
g3000
sg62
(lp3016
g55
(g56
g57
NtRp3017
(dp3018
g60
(dp3019
g68
I3
ssg69
g3013
sg62
(lp3020
S''
asbasbasbag55
(g71
g57
NtRp3021
(dp3022
g60
(dp3023
sg69
g2807
sg62
(lp3024
g55
(g76
g57
NtRp3025
(dp3026
g60
(dp3027
g80
g81
ssg69
g3021
sg62
(lp3028
S'REMOTE_ADDR'
p3029
asbag55
(g76
g57
NtRp3030
(dp3031
g60
(dp3032
g87
g88
ssg69
g3021
sg62
(lp3033
S':'
asbag55
(g76
g57
NtRp3034
(dp3035
g60
(dp3036
sg69
g3021
sg62
(lp3037
g55
(g56
g57
NtRp3038
(dp3039
g60
(dp3040
g68
I3
ssg69
g3034
sg62
(lp3041
g201
asbasbasbag55
(g71
g57
NtRp3042
(dp3043
g60
(dp3044
sg69
g2807
sg62
(lp3045
g55
(g76
g57
NtRp3046
(dp3047
g60
(dp3048
g80
g81
ssg69
g3042
sg62
(lp3049
S'REMOTE_PORT'
p3050
asbag55
(g76
g57
NtRp3051
(dp3052
g60
(dp3053
g87
g88
ssg69
g3042
sg62
(lp3054
S':'
asbag55
(g76
g57
NtRp3055
(dp3056
g60
(dp3057
sg69
g3042
sg62
(lp3058
g55
(g56
g57
NtRp3059
(dp3060
g60
(dp3061
g68
I3
ssg69
g3055
sg62
(lp3062
g1666
asbasbasbag55
(g71
g57
NtRp3063
(dp3064
g60
(dp3065
sg69
g2807
sg62
(lp3066
g55
(g76
g57
NtRp3067
(dp3068
g60
(dp3069
g80
g81
ssg69
g3063
sg62
(lp3070
S'REQUEST_METHOD'
p3071
asbag55
(g76
g57
NtRp3072
(dp3073
g60
(dp3074
g87
g88
ssg69
g3063
sg62
(lp3075
S':'
asbag55
(g76
g57
NtRp3076
(dp3077
g60
(dp3078
sg69
g3063
sg62
(lp3079
g55
(g56
g57
NtRp3080
(dp3081
g60
(dp3082
g68
I3
ssg69
g3076
sg62
(lp3083
g1688
asbasbasbag55
(g71
g57
NtRp3084
(dp3085
g60
(dp3086
sg69
g2807
sg62
(lp3087
g55
(g76
g57
NtRp3088
(dp3089
g60
(dp3090
g80
g81
ssg69
g3084
sg62
(lp3091
S'SCRIPT_NAME'
p3092
asbag55
(g76
g57
NtRp3093
(dp3094
g60
(dp3095
g87
g88
ssg69
g3084
sg62
(lp3096
S':'
asbag55
(g76
g57
NtRp3097
(dp3098
g60
(dp3099
sg69
g3084
sg62
(lp3100
g55
(g56
g57
NtRp3101
(dp3102
g60
(dp3103
g68
I3
ssg69
g3097
sg62
(lp3104
S''
asbasbasbag55
(g71
g57
NtRp3105
(dp3106
g60
(dp3107
sg69
g2807
sg62
(lp3108
g55
(g76
g57
NtRp3109
(dp3110
g60
(dp3111
g80
g81
ssg69
g3105
sg62
(lp3112
S'SERVER_NAME'
p3113
asbag55
(g76
g57
NtRp3114
(dp3115
g60
(dp3116
g87
g88
ssg69
g3105
sg62
(lp3117
S':'
asbag55
(g76
g57
NtRp3118
(dp3119
g60
(dp3120
sg69
g3105
sg62
(lp3121
g55
(g56
g57
NtRp3122
(dp3123
g60
(dp3124
g68
I3
ssg69
g3118
sg62
(lp3125
g1731
asbasbasbag55
(g71
g57
NtRp3126
(dp3127
g60
(dp3128
sg69
g2807
sg62
(lp3129
g55
(g76
g57
NtRp3130
(dp3131
g60
(dp3132
g80
g81
ssg69
g3126
sg62
(lp3133
S'SERVER_PORT'
p3134
asbag55
(g76
g57
NtRp3135
(dp3136
g60
(dp3137
g87
g88
ssg69
g3126
sg62
(lp3138
S':'
asbag55
(g76
g57
NtRp3139
(dp3140
g60
(dp3141
sg69
g3126
sg62
(lp3142
g55
(g56
g57
NtRp3143
(dp3144
g60
(dp3145
g68
I3
ssg69
g3139
sg62
(lp3146
g1753
asbasbasbag55
(g71
g57
NtRp3147
(dp3148
g60
(dp3149
sg69
g2807
sg62
(lp3150
g55
(g76
g57
NtRp3151
(dp3152
g60
(dp3153
g80
g81
ssg69
g3147
sg62
(lp3154
S'SERVER_PROTOCOL'
p3155
asbag55
(g76
g57
NtRp3156
(dp3157
g60
(dp3158
g87
g88
ssg69
g3147
sg62
(lp3159
S':'
asbag55
(g76
g57
NtRp3160
(dp3161
g60
(dp3162
sg69
g3147
sg62
(lp3163
g55
(g56
g57
NtRp3164
(dp3165
g60
(dp3166
g68
I3
ssg69
g3160
sg62
(lp3167
g1775
asbasbasbag55
(g71
g57
NtRp3168
(dp3169
g60
(dp3170
sg69
g2807
sg62
(lp3171
g55
(g76
g57
NtRp3172
(dp3173
g60
(dp3174
g80
g81
ssg69
g3168
sg62
(lp3175
S'SERVER_SOFTWARE'
p3176
asbag55
(g76
g57
NtRp3177
(dp3178
g60
(dp3179
g87
g88
ssg69
g3168
sg62
(lp3180
S':'
asbag55
(g76
g57
NtRp3181
(dp3182
g60
(dp3183
sg69
g3168
sg62
(lp3184
g55
(g56
g57
NtRp3185
(dp3186
g60
(dp3187
g68
I3
ssg69
g3181
sg62
(lp3188
g1797
asbasbasbag55
(g71
g57
NtRp3189
(dp3190
g60
(dp3191
sg69
g2807
sg62
(lp3192
g55
(g76
g57
NtRp3193
(dp3194
g60
(dp3195
g80
g81
ssg69
g3189
sg62
(lp3196
S'wsgi.errors'
p3197
asbag55
(g76
g57
NtRp3198
(dp3199
g60
(dp3200
g87
g88
ssg69
g3189
sg62
(lp3201
S':'
asbag55
(g76
g57
NtRp3202
(dp3203
g60
(dp3204
sg69
g3189
sg62
(lp3205
g55
(g56
g57
NtRp3206
(dp3207
g60
(dp3208
g68
I3
ssg69
g3202
sg62
(lp3209
S"<open file '<stderr>', mode 'w' at 0xb777d0d0>"
p3210
asbasbasbag55
(g71
g57
NtRp3211
(dp3212
g60
(dp3213
sg69
g2807
sg62
(lp3214
g55
(g76
g57
NtRp3215
(dp3216
g60
(dp3217
g80
g81
ssg69
g3211
sg62
(lp3218
S'wsgi.file_wrapper'
p3219
asbag55
(g76
g57
NtRp3220
(dp3221
g60
(dp3222
g87
g88
ssg69
g3211
sg62
(lp3223
S':'
asbag55
(g76
g57
NtRp3224
(dp3225
g60
(dp3226
sg69
g3211
sg62
(lp3227
g55
(g56
g57
NtRp3228
(dp3229
g60
(dp3230
g68
I3
ssg69
g3224
sg62
(lp3231
S'<class wsgiref.util.FileWrapper at 0xa52e20c>'
p3232
asbasbasbag55
(g71
g57
NtRp3233
(dp3234
g60
(dp3235
sg69
g2807
sg62
(lp3236
g55
(g76
g57
NtRp3237
(dp3238
g60
(dp3239
g80
g81
ssg69
g3233
sg62
(lp3240
S'wsgi.input'
p3241
asbag55
(g76
g57
NtRp3242
(dp3243
g60
(dp3244
g87
g88
ssg69
g3233
sg62
(lp3245
S':'
asbag55
(g76
g57
NtRp3246
(dp3247
g60
(dp3248
sg69
g3233
sg62
(lp3249
g55
(g56
g57
NtRp3250
(dp3251
g60
(dp3252
g68
I3
ssg69
g3246
sg62
(lp3253
S'<cStringIO.StringO object at 0xb6e4840>'
p3254
asbasbasbag55
(g71
g57
NtRp3255
(dp3256
g60
(dp3257
sg69
g2807
sg62
(lp3258
g55
(g76
g57
NtRp3259
(dp3260
g60
(dp3261
g80
g81
ssg69
g3255
sg62
(lp3262
S'wsgi.multiprocess'
p3263
asbag55
(g76
g57
NtRp3264
(dp3265
g60
(dp3266
g87
g88
ssg69
g3255
sg62
(lp3267
S':'
asbag55
(g76
g57
NtRp3268
(dp3269
g60
(dp3270
sg69
g3255
sg62
(lp3271
g55
(g56
g57
NtRp3272
(dp3273
g60
(dp3274
g68
I3
ssg69
g3268
sg62
(lp3275
g98
asbasbasbag55
(g71
g57
NtRp3276
(dp3277
g60
(dp3278
sg69
g2807
sg62
(lp3279
g55
(g76
g57
NtRp3280
(dp3281
g60
(dp3282
g80
g81
ssg69
g3276
sg62
(lp3283
S'wsgi.multithread'
p3284
asbag55
(g76
g57
NtRp3285
(dp3286
g60
(dp3287
g87
g88
ssg69
g3276
sg62
(lp3288
S':'
asbag55
(g76
g57
NtRp3289
(dp3290
g60
(dp3291
sg69
g3276
sg62
(lp3292
g55
(g56
g57
NtRp3293
(dp3294
g60
(dp3295
g68
I3
ssg69
g3289
sg62
(lp3296
g2037
asbasbasbag55
(g71
g57
NtRp3297
(dp3298
g60
(dp3299
sg69
g2807
sg62
(lp3300
g55
(g76
g57
NtRp3301
(dp3302
g60
(dp3303
g80
g81
ssg69
g3297
sg62
(lp3304
S'wsgi.run_once'
p3305
asbag55
(g76
g57
NtRp3306
(dp3307
g60
(dp3308
g87
g88
ssg69
g3297
sg62
(lp3309
S':'
asbag55
(g76
g57
NtRp3310
(dp3311
g60
(dp3312
sg69
g3297
sg62
(lp3313
g55
(g56
g57
NtRp3314
(dp3315
g60
(dp3316
g68
I3
ssg69
g3310
sg62
(lp3317
g98
asbasbasbag55
(g71
g57
NtRp3318
(dp3319
g60
(dp3320
sg69
g2807
sg62
(lp3321
g55
(g76
g57
NtRp3322
(dp3323
g60
(dp3324
g80
g81
ssg69
g3318
sg62
(lp3325
S'wsgi.url_scheme'
p3326
asbag55
(g76
g57
NtRp3327
(dp3328
g60
(dp3329
g87
g88
ssg69
g3318
sg62
(lp3330
S':'
asbag55
(g76
g57
NtRp3331
(dp3332
g60
(dp3333
sg69
g3318
sg62
(lp3334
g55
(g56
g57
NtRp3335
(dp3336
g60
(dp3337
g68
I3
ssg69
g3331
sg62
(lp3338
g2080
asbasbasbag55
(g71
g57
NtRp3339
(dp3340
g60
(dp3341
sg69
g2807
sg62
(lp3342
g55
(g76
g57
NtRp3343
(dp3344
g60
(dp3345
g80
g81
ssg69
g3339
sg62
(lp3346
S'wsgi.version'
p3347
asbag55
(g76
g57
NtRp3348
(dp3349
g60
(dp3350
g87
g88
ssg69
g3339
sg62
(lp3351
S':'
asbag55
(g76
g57
NtRp3352
(dp3353
g60
(dp3354
sg69
g3339
sg62
(lp3355
g55
(g56
g57
NtRp3356
(dp3357
g60
(dp3358
g68
I3
ssg69
g3352
sg62
(lp3359
S'1'
asbasbasbasbasbasbasbasbasbasbasbasbasbsS'frames'
p3360
(lp3361
(dp3362
S'file'
p3363
S'/home/iscott/web/web2py/gluon/main.py'
p3364
sS'dump'
p3365
(dp3366
S'session._try_store_on_disk'
p3367
S"<bound method Session._try_store_on_disk of <Sto...efox'}}, 'title': '1 Enoch', 'filename': '1En'}>>"
p3368
sS'session'
p3369
S"<Storage {'versions': ['Ethiopic', 'Qumran Arama...refox'}}, 'title': '1 Enoch', 'filename': '1En'}>"
p3370
sS'request'
p3371
S"<Storage {'body': <cStringIO.StringO object at 0..._vars': <Storage {}>, 'post_vars': <Storage {}>}>"
p3372
sS'response'
p3373
S"<Storage {'body': <cStringIO.StringO object at 0...lambda> at 0xbacea3c>, 'view': 'docs/text.html'}>"
p3374
ssS'lnum'
p3375
I523
sS'lines'
p3376
(dp3377
I518
S'                # ##################################################'
p3378
sI519
S'                # if session not in db try store session on filesystem'
p3379
sI520
S'                # this must be done after trying to commit database!'
p3380
sI521
S'                # ##################################################'
p3381
sI522
S''
sI523
S'                session._try_store_on_disk(request, response)'
p3382
sI524
S''
sI525
S'                # ##################################################'
p3383
sI526
S'                # store cookies in headers'
p3384
sI527
S'                # ##################################################'
p3385
ssS'call'
p3386
S"(environ={'HTTP_ACCEPT': 'text/html,application/xhtml+xml,application/xml;q=0.9,*/*;q=0.8', 'HTTP_ACCEPT_ENCODING': 'gzip, deflate', 'HTTP_ACCEPT_LANGUAGE': 'en-us,en;q=0.5', 'HTTP_CACHE_CONTROL': 'max-age=0', 'HTTP_CONNECTION': 'keep-alive', 'HTTP_COOKIE': 'session_id_paideia=127.0.0.1-2edda130-d654-4b0f-...s3=127.0.0.1-4f98ec66-c173-46dc-a836-3a6d8de0d450', 'HTTP_HOST': '127.0.0.1:8000', 'HTTP_USER_AGENT': 'Mozilla/5.0 (X11; Ubuntu; Linux i686; rv:10.0.2) Gecko/20100101 Firefox/10.0.2', 'PATH_INFO': '/grammateus3/docs/text/1En', 'QUERY_STRING': '', ...}, responder=<function responder2>)"
p3387
sS'func'
p3388
S'wsgibase'
p3389
sa(dp3390
g3363
S'/home/iscott/web/web2py/gluon/globals.py'
p3391
sg3365
(dp3392
S'self'
p3393
S"<Storage {'versions': ['Ethiopic', 'Qumran Arama...refox'}}, 'title': '1 Enoch', 'filename': '1En'}>"
p3394
sS'response.session_file'
p3395
S"<open file '/home/iscott/web/web2py/applications...ba3dd675-b545-4d2e-b935-f5151b1e5183', mode 'wb'>"
p3396
sS'global cPickle'
p3397
S"<module 'cPickle' (built-in)>"
p3398
sS'cPickle.dump'
p3399
S'<built-in function dump>'
p3400
sS'response'
p3401
S"<Storage {'body': <cStringIO.StringO object at 0...lambda> at 0xbacea3c>, 'view': 'docs/text.html'}>"
p3402
sS'builtindict'
p3403
S"<type 'dict'>"
p3404
ssg3375
I591
sg3376
(dp3405
I586
S"            response.session_file = open(response.session_filename, 'wb')"
p3406
sI587
S'            portalocker.lock(response.session_file, portalocker.LOCK_EX)'
p3407
sI588
S'            response.session_locked = True'
p3408
sI589
S''
sI590
S'        if response.session_file:'
p3409
sI591
S'            cPickle.dump(dict(self), response.session_file)'
p3410
sI592
S'            response.session_file.truncate()'
p3411
sI593
S'            self._close(response)'
p3412
sI594
S''
sI595
S'    def _unlock(self, response):'
p3413
ssg3386
S"(self=<Storage {'versions': ['Ethiopic', 'Qumran Arama...refox'}}, 'title': '1 Enoch', 'filename': '1En'}>, request=<Storage {'body': <cStringIO.StringO object at 0..._vars': <Storage {}>, 'post_vars': <Storage {}>}>, response=<Storage {'body': <cStringIO.StringO object at 0...lambda> at 0xbacea3c>, 'view': 'docs/text.html'}>)"
p3414
sg3388
S'_try_store_on_disk'
p3415
sa(dp3416
g3363
S'/usr/lib/python2.7/copy_reg.py'
p3417
sg3365
(dp3418
S'base.__name__'
p3419
S"'_Element'"
p3420
sS'base'
p3421
S"<type 'lxml.etree._Element'>"
p3422
sS'builtinTypeError'
p3423
S"<type 'exceptions.TypeError'>"
p3424
ssg3375
I70
sg3376
(dp3425
I65
S'        base = object # not really reachable'
p3426
sI66
S'    if base is object:'
p3427
sI67
S'        state = None'
p3428
sI68
S'    else:'
p3429
sI69
S'        if base is self.__class__:'
p3430
sI70
S'            raise TypeError, "can\'t pickle %s objects" % base.__name__'
p3431
sI71
S'        state = base(self)'
p3432
sI72
S'    args = (self.__class__, base, state)'
p3433
sI73
S'    try:'
p3434
sI74
S'        getstate = self.__getstate__'
p3435
ssg3386
S'(self=<Element book>, proto=0)'
p3436
sg3388
S'_reduce_ex'
p3437
sasS'pyver'
p3438
S'Python 2.7.2+: /usr/bin/python2.7'
p3439
sS'session'
p3440
g55
(g56
g57
NtRp3441
(dp3442
g60
(dp3443
sg62
(lp3444
g55
(g64
g57
NtRp3445
(dp3446
g60
(dp3447
g68
I5
ssg69
Nsg62
(lp3448
g55
(g71
g57
NtRp3449
(dp3450
g60
(dp3451
sg69
g3445
sg62
(lp3452
g55
(g76
g57
NtRp3453
(dp3454
g60
(dp3455
g80
g81
ssg69
g3449
sg62
(lp3456
S'filename'
p3457
asbag55
(g76
g57
NtRp3458
(dp3459
g60
(dp3460
g87
g88
ssg69
g3449
sg62
(lp3461
S':'
asbag55
(g76
g57
NtRp3462
(dp3463
g60
(dp3464
sg69
g3449
sg62
(lp3465
g55
(g56
g57
NtRp3466
(dp3467
g60
(dp3468
g68
I5
ssg69
g3462
sg62
(lp3469
g157
asbasbasbag55
(g71
g57
NtRp3470
(dp3471
g60
(dp3472
sg69
g3445
sg62
(lp3473
g55
(g76
g57
NtRp3474
(dp3475
g60
(dp3476
g80
g81
ssg69
g3470
sg62
(lp3477
S'title'
p3478
asbag55
(g76
g57
NtRp3479
(dp3480
g60
(dp3481
g87
g88
ssg69
g3470
sg62
(lp3482
S':'
asbag55
(g76
g57
NtRp3483
(dp3484
g60
(dp3485
sg69
g3470
sg62
(lp3486
g55
(g56
g57
NtRp3487
(dp3488
g60
(dp3489
g68
I5
ssg69
g3483
sg62
(lp3490
S'1 Enoch'
p3491
asbasbasbag55
(g71
g57
NtRp3492
(dp3493
g60
(dp3494
sg69
g3445
sg62
(lp3495
g55
(g76
g57
NtRp3496
(dp3497
g60
(dp3498
g80
g81
ssg69
g3492
sg62
(lp3499
S'versions'
p3500
asbag55
(g76
g57
NtRp3501
(dp3502
g60
(dp3503
g87
g88
ssg69
g3492
sg62
(lp3504
S':'
asbag55
(g76
g57
NtRp3505
(dp3506
g60
(dp3507
sg69
g3492
sg62
(lp3508
g55
(g56
g57
NtRp3509
(dp3510
g60
(dp3511
g68
I5
ssg69
g3505
sg62
(lp3512
g55
(g64
g57
NtRp3513
(dp3514
g60
(dp3515
g68
I4
ssg69
Nsg62
(lp3516
g55
(g71
g57
NtRp3517
(dp3518
g60
(dp3519
sg69
g3513
sg62
(lp3520
g55
(g76
g57
NtRp3521
(dp3522
g60
(dp3523
sg69
g3517
sg62
(lp3524
g55
(g56
g57
NtRp3525
(dp3526
g60
(dp3527
g68
I4
ssg69
g3521
sg62
(lp3528
S'Ethiopic'
p3529
asbasbasbag55
(g71
g57
NtRp3530
(dp3531
g60
(dp3532
sg69
g3513
sg62
(lp3533
g55
(g76
g57
NtRp3534
(dp3535
g60
(dp3536
sg69
g3530
sg62
(lp3537
g55
(g56
g57
NtRp3538
(dp3539
g60
(dp3540
g68
I4
ssg69
g3534
sg62
(lp3541
S'Qumran Aramaic'
p3542
asbasbasbag55
(g71
g57
NtRp3543
(dp3544
g60
(dp3545
sg69
g3513
sg62
(lp3546
g55
(g76
g57
NtRp3547
(dp3548
g60
(dp3549
sg69
g3543
sg62
(lp3550
g55
(g56
g57
NtRp3551
(dp3552
g60
(dp3553
g68
I4
ssg69
g3547
sg62
(lp3554
S'Latin Fragments'
p3555
asbasbasbag55
(g71
g57
NtRp3556
(dp3557
g60
(dp3558
sg69
g3513
sg62
(lp3559
g55
(g76
g57
NtRp3560
(dp3561
g60
(dp3562
sg69
g3556
sg62
(lp3563
g55
(g56
g57
NtRp3564
(dp3565
g60
(dp3566
g68
I4
ssg69
g3560
sg62
(lp3567
S'Greek'
p3568
asbasbasbasbasbasbasbasbasbsS'etype'
p3569
S"<type 'exceptions.TypeError'>"
p3570
sS'date'
p3571
S'Tue Mar  6 12:44:11 2012'
p3572
sS'response'
p3573
g55
(g56
g57
NtRp3574
(dp3575
g60
(dp3576
sg62
(lp3577
g55
(g64
g57
NtRp3578
(dp3579
g60
(dp3580
g68
I5
ssg69
Nsg62
(lp3581
g55
(g71
g57
NtRp3582
(dp3583
g60
(dp3584
sg69
g3578
sg62
(lp3585
g55
(g76
g57
NtRp3586
(dp3587
g60
(dp3588
g80
g81
ssg69
g3582
sg62
(lp3589
g166
asbag55
(g76
g57
NtRp3590
(dp3591
g60
(dp3592
g87
g88
ssg69
g3582
sg62
(lp3593
S':'
asbag55
(g76
g57
NtRp3594
(dp3595
g60
(dp3596
sg69
g3582
sg62
(lp3597
g55
(g56
g57
NtRp3598
(dp3599
g60
(dp3600
g68
I5
ssg69
g3594
sg62
(lp3601
S'<cStringIO.StringO object at 0xa8ac180>'
p3602
asbasbasbag55
(g71
g57
NtRp3603
(dp3604
g60
(dp3605
sg69
g3578
sg62
(lp3606
g55
(g76
g57
NtRp3607
(dp3608
g60
(dp3609
g80
g81
ssg69
g3603
sg62
(lp3610
g232
asbag55
(g76
g57
NtRp3611
(dp3612
g60
(dp3613
g87
g88
ssg69
g3603
sg62
(lp3614
S':'
asbag55
(g76
g57
NtRp3615
(dp3616
g60
(dp3617
sg69
g3603
sg62
(lp3618
g55
(g56
g57
NtRp3619
(dp3620
g60
(dp3621
g68
I5
ssg69
g3615
sg62
(lp3622
g55
(g64
g57
NtRp3623
(dp3624
g60
(dp3625
g68
I4
ssg69
Nsg62
(lp3626
g55
(g71
g57
NtRp3627
(dp3628
g60
(dp3629
sg69
g3623
sg62
(lp3630
g55
(g76
g57
NtRp3631
(dp3632
g60
(dp3633
g80
g81
ssg69
g3627
sg62
(lp3634
S'session_id_grammateus3'
p3635
asbag55
(g76
g57
NtRp3636
(dp3637
g60
(dp3638
g87
g88
ssg69
g3627
sg62
(lp3639
S':'
asbag55
(g76
g57
NtRp3640
(dp3641
g60
(dp3642
sg69
g3627
sg62
(lp3643
g55
(g56
g57
NtRp3644
(dp3645
g60
(dp3646
g68
I4
ssg69
g3640
sg62
(lp3647
g55
(g64
g57
NtRp3648
(dp3649
g60
(dp3650
g68
I3
ssg69
Nsg62
(lp3651
g55
(g71
g57
NtRp3652
(dp3653
g60
(dp3654
sg69
g3648
sg62
(lp3655
g55
(g76
g57
NtRp3656
(dp3657
g60
(dp3658
g80
g81
ssg69
g3652
sg62
(lp3659
g282
asbag55
(g76
g57
NtRp3660
(dp3661
g60
(dp3662
g87
g88
ssg69
g3652
sg62
(lp3663
S':'
asbag55
(g76
g57
NtRp3664
(dp3665
g60
(dp3666
sg69
g3652
sg62
(lp3667
g55
(g56
g57
NtRp3668
(dp3669
g60
(dp3670
g68
I3
ssg69
g3664
sg62
(lp3671
S''
asbasbasbag55
(g71
g57
NtRp3672
(dp3673
g60
(dp3674
sg69
g3648
sg62
(lp3675
g55
(g76
g57
NtRp3676
(dp3677
g60
(dp3678
g80
g81
ssg69
g3672
sg62
(lp3679
g303
asbag55
(g76
g57
NtRp3680
(dp3681
g60
(dp3682
g87
g88
ssg69
g3672
sg62
(lp3683
S':'
asbag55
(g76
g57
NtRp3684
(dp3685
g60
(dp3686
sg69
g3672
sg62
(lp3687
g55
(g56
g57
NtRp3688
(dp3689
g60
(dp3690
g68
I3
ssg69
g3684
sg62
(lp3691
S''
asbasbasbag55
(g71
g57
NtRp3692
(dp3693
g60
(dp3694
sg69
g3648
sg62
(lp3695
g55
(g76
g57
NtRp3696
(dp3697
g60
(dp3698
g80
g81
ssg69
g3692
sg62
(lp3699
g324
asbag55
(g76
g57
NtRp3700
(dp3701
g60
(dp3702
g87
g88
ssg69
g3692
sg62
(lp3703
S':'
asbag55
(g76
g57
NtRp3704
(dp3705
g60
(dp3706
sg69
g3692
sg62
(lp3707
g55
(g56
g57
NtRp3708
(dp3709
g60
(dp3710
g68
I3
ssg69
g3704
sg62
(lp3711
S''
asbasbasbag55
(g71
g57
NtRp3712
(dp3713
g60
(dp3714
sg69
g3648
sg62
(lp3715
g55
(g76
g57
NtRp3716
(dp3717
g60
(dp3718
g80
g81
ssg69
g3712
sg62
(lp3719
g345
asbag55
(g76
g57
NtRp3720
(dp3721
g60
(dp3722
g87
g88
ssg69
g3712
sg62
(lp3723
S':'
asbag55
(g76
g57
NtRp3724
(dp3725
g60
(dp3726
sg69
g3712
sg62
(lp3727
g55
(g56
g57
NtRp3728
(dp3729
g60
(dp3730
g68
I3
ssg69
g3724
sg62
(lp3731
S''
asbasbasbag55
(g71
g57
NtRp3732
(dp3733
g60
(dp3734
sg69
g3648
sg62
(lp3735
g55
(g76
g57
NtRp3736
(dp3737
g60
(dp3738
g80
g81
ssg69
g3732
sg62
(lp3739
g366
asbag55
(g76
g57
NtRp3740
(dp3741
g60
(dp3742
g87
g88
ssg69
g3732
sg62
(lp3743
S':'
asbag55
(g76
g57
NtRp3744
(dp3745
g60
(dp3746
sg69
g3732
sg62
(lp3747
g55
(g56
g57
NtRp3748
(dp3749
g60
(dp3750
g68
I3
ssg69
g3744
sg62
(lp3751
S''
asbasbasbag55
(g71
g57
NtRp3752
(dp3753
g60
(dp3754
sg69
g3648
sg62
(lp3755
g55
(g76
g57
NtRp3756
(dp3757
g60
(dp3758
g80
g81
ssg69
g3752
sg62
(lp3759
g387
asbag55
(g76
g57
NtRp3760
(dp3761
g60
(dp3762
g87
g88
ssg69
g3752
sg62
(lp3763
S':'
asbag55
(g76
g57
NtRp3764
(dp3765
g60
(dp3766
sg69
g3752
sg62
(lp3767
g55
(g56
g57
NtRp3768
(dp3769
g60
(dp3770
g68
I3
ssg69
g3764
sg62
(lp3771
S'/'
asbasbasbag55
(g71
g57
NtRp3772
(dp3773
g60
(dp3774
sg69
g3648
sg62
(lp3775
g55
(g76
g57
NtRp3776
(dp3777
g60
(dp3778
g80
g81
ssg69
g3772
sg62
(lp3779
g408
asbag55
(g76
g57
NtRp3780
(dp3781
g60
(dp3782
g87
g88
ssg69
g3772
sg62
(lp3783
S':'
asbag55
(g76
g57
NtRp3784
(dp3785
g60
(dp3786
sg69
g3772
sg62
(lp3787
g55
(g56
g57
NtRp3788
(dp3789
g60
(dp3790
g68
I3
ssg69
g3784
sg62
(lp3791
S''
asbasbasbag55
(g71
g57
NtRp3792
(dp3793
g60
(dp3794
sg69
g3648
sg62
(lp3795
g55
(g76
g57
NtRp3796
(dp3797
g60
(dp3798
g80
g81
ssg69
g3792
sg62
(lp3799
g429
asbag55
(g76
g57
NtRp3800
(dp3801
g60
(dp3802
g87
g88
ssg69
g3792
sg62
(lp3803
S':'
asbag55
(g76
g57
NtRp3804
(dp3805
g60
(dp3806
sg69
g3792
sg62
(lp3807
g55
(g56
g57
NtRp3808
(dp3809
g60
(dp3810
g68
I3
ssg69
g3804
sg62
(lp3811
S''
asbasbasbasbasbasbasbasbasbasbasbag55
(g71
g57
NtRp3812
(dp3813
g60
(dp3814
sg69
g3578
sg62
(lp3815
g55
(g76
g57
NtRp3816
(dp3817
g60
(dp3818
g80
g81
ssg69
g3812
sg62
(lp3819
S'files'
p3820
asbag55
(g76
g57
NtRp3821
(dp3822
g60
(dp3823
g87
g88
ssg69
g3812
sg62
(lp3824
S':'
asbag55
(g76
g57
NtRp3825
(dp3826
g60
(dp3827
sg69
g3812
sg62
(lp3828
g55
(g56
g57
NtRp3829
(dp3830
g60
(dp3831
g68
I5
ssg69
g3825
sg62
(lp3832
g55
(g64
g57
NtRp3833
(dp3834
g60
(dp3835
g68
I4
ssg69
Nsg62
(lp3836
g55
(g71
g57
NtRp3837
(dp3838
g60
(dp3839
sg69
g3833
sg62
(lp3840
g55
(g76
g57
NtRp3841
(dp3842
g60
(dp3843
sg69
g3837
sg62
(lp3844
g55
(g56
g57
NtRp3845
(dp3846
g60
(dp3847
g68
I4
ssg69
g3841
sg62
(lp3848
S'/grammateus3/static/js/jquery.js'
p3849
asbasbasbag55
(g71
g57
NtRp3850
(dp3851
g60
(dp3852
sg69
g3833
sg62
(lp3853
g55
(g76
g57
NtRp3854
(dp3855
g60
(dp3856
sg69
g3850
sg62
(lp3857
g55
(g56
g57
NtRp3858
(dp3859
g60
(dp3860
g68
I4
ssg69
g3854
sg62
(lp3861
S'/grammateus3/static/css/calendar.css'
p3862
asbasbasbag55
(g71
g57
NtRp3863
(dp3864
g60
(dp3865
sg69
g3833
sg62
(lp3866
g55
(g76
g57
NtRp3867
(dp3868
g60
(dp3869
sg69
g3863
sg62
(lp3870
g55
(g56
g57
NtRp3871
(dp3872
g60
(dp3873
g68
I4
ssg69
g3867
sg62
(lp3874
S'/grammateus3/static/js/calendar.js'
p3875
asbasbasbag55
(g71
g57
NtRp3876
(dp3877
g60
(dp3878
sg69
g3833
sg62
(lp3879
g55
(g76
g57
NtRp3880
(dp3881
g60
(dp3882
sg69
g3876
sg62
(lp3883
g55
(g56
g57
NtRp3884
(dp3885
g60
(dp3886
g68
I4
ssg69
g3880
sg62
(lp3887
S'/grammateus3/static/js/web2py.js'
p3888
asbasbasbag55
(g71
g57
NtRp3889
(dp3890
g60
(dp3891
sg69
g3833
sg62
(lp3892
g55
(g76
g57
NtRp3893
(dp3894
g60
(dp3895
sg69
g3889
sg62
(lp3896
g55
(g56
g57
NtRp3897
(dp3898
g60
(dp3899
g68
I4
ssg69
g3893
sg62
(lp3900
S'/grammateus3/static/css/skeleton.css'
p3901
asbasbasbag55
(g71
g57
NtRp3902
(dp3903
g60
(dp3904
sg69
g3833
sg62
(lp3905
g55
(g76
g57
NtRp3906
(dp3907
g60
(dp3908
sg69
g3902
sg62
(lp3909
g55
(g56
g57
NtRp3910
(dp3911
g60
(dp3912
g68
I4
ssg69
g3906
sg62
(lp3913
S'/grammateus3/static/css/web2py.css'
p3914
asbasbasbag55
(g71
g57
NtRp3915
(dp3916
g60
(dp3917
sg69
g3833
sg62
(lp3918
g55
(g76
g57
NtRp3919
(dp3920
g60
(dp3921
sg69
g3915
sg62
(lp3922
g55
(g56
g57
NtRp3923
(dp3924
g60
(dp3925
g68
I4
ssg69
g3919
sg62
(lp3926
S'/grammateus3/static/css/superfish.css'
p3927
asbasbasbag55
(g71
g57
NtRp3928
(dp3929
g60
(dp3930
sg69
g3833
sg62
(lp3931
g55
(g76
g57
NtRp3932
(dp3933
g60
(dp3934
sg69
g3928
sg62
(lp3935
g55
(g56
g57
NtRp3936
(dp3937
g60
(dp3938
g68
I4
ssg69
g3932
sg62
(lp3939
S'/grammateus3/static/js/superfish.js'
p3940
asbasbasbasbasbasbasbag55
(g71
g57
NtRp3941
(dp3942
g60
(dp3943
sg69
g3578
sg62
(lp3944
g55
(g76
g57
NtRp3945
(dp3946
g60
(dp3947
g80
g81
ssg69
g3941
sg62
(lp3948
S'flash'
p3949
asbag55
(g76
g57
NtRp3950
(dp3951
g60
(dp3952
g87
g88
ssg69
g3941
sg62
(lp3953
S':'
asbag55
(g76
g57
NtRp3954
(dp3955
g60
(dp3956
sg69
g3941
sg62
(lp3957
g55
(g56
g57
NtRp3958
(dp3959
g60
(dp3960
g68
I5
ssg69
g3954
sg62
(lp3961
S''
asbasbasbag55
(g71
g57
NtRp3962
(dp3963
g60
(dp3964
sg69
g3578
sg62
(lp3965
g55
(g76
g57
NtRp3966
(dp3967
g60
(dp3968
g80
g81
ssg69
g3962
sg62
(lp3969
S'generic_patterns'
p3970
asbag55
(g76
g57
NtRp3971
(dp3972
g60
(dp3973
g87
g88
ssg69
g3962
sg62
(lp3974
S':'
asbag55
(g76
g57
NtRp3975
(dp3976
g60
(dp3977
sg69
g3962
sg62
(lp3978
g55
(g56
g57
NtRp3979
(dp3980
g60
(dp3981
g68
I5
ssg69
g3975
sg62
(lp3982
g55
(g64
g57
NtRp3983
(dp3984
g60
(dp3985
g68
I4
ssg69
Nsg62
(lp3986
g55
(g71
g57
NtRp3987
(dp3988
g60
(dp3989
sg69
g3983
sg62
(lp3990
g55
(g76
g57
NtRp3991
(dp3992
g60
(dp3993
sg69
g3987
sg62
(lp3994
g55
(g56
g57
NtRp3995
(dp3996
g60
(dp3997
g68
I4
ssg69
g3991
sg62
(lp3998
S'*'
asbasbasbasbasbasbasbag55
(g71
g57
NtRp3999
(dp4000
g60
(dp4001
sg69
g3578
sg62
(lp4002
g55
(g76
g57
NtRp4003
(dp4004
g60
(dp4005
g80
g81
ssg69
g3999
sg62
(lp4006
S'headers'
p4007
asbag55
(g76
g57
NtRp4008
(dp4009
g60
(dp4010
g87
g88
ssg69
g3999
sg62
(lp4011
S':'
asbag55
(g76
g57
NtRp4012
(dp4013
g60
(dp4014
sg69
g3999
sg62
(lp4015
g55
(g56
g57
NtRp4016
(dp4017
g60
(dp4018
g68
I5
ssg69
g4012
sg62
(lp4019
g55
(g64
g57
NtRp4020
(dp4021
g60
(dp4022
g68
I4
ssg69
Nsg62
(lp4023
g55
(g71
g57
NtRp4024
(dp4025
g60
(dp4026
sg69
g4020
sg62
(lp4027
g55
(g76
g57
NtRp4028
(dp4029
g60
(dp4030
g80
g81
ssg69
g4024
sg62
(lp4031
S'Cache-Control'
p4032
asbag55
(g76
g57
NtRp4033
(dp4034
g60
(dp4035
g87
g88
ssg69
g4024
sg62
(lp4036
S':'
asbag55
(g76
g57
NtRp4037
(dp4038
g60
(dp4039
sg69
g4024
sg62
(lp4040
g55
(g56
g57
NtRp4041
(dp4042
g60
(dp4043
g68
I4
ssg69
g4037
sg62
(lp4044
S'no-store, no-cache, must-revalidate, post-check=0, pre-check=0'
p4045
asbasbasbag55
(g71
g57
NtRp4046
(dp4047
g60
(dp4048
sg69
g4020
sg62
(lp4049
g55
(g76
g57
NtRp4050
(dp4051
g60
(dp4052
g80
g81
ssg69
g4046
sg62
(lp4053
S'Content-Type'
p4054
asbag55
(g76
g57
NtRp4055
(dp4056
g60
(dp4057
g87
g88
ssg69
g4046
sg62
(lp4058
S':'
asbag55
(g76
g57
NtRp4059
(dp4060
g60
(dp4061
sg69
g4046
sg62
(lp4062
g55
(g56
g57
NtRp4063
(dp4064
g60
(dp4065
g68
I4
ssg69
g4059
sg62
(lp4066
S'text/html; charset=utf-8'
p4067
asbasbasbag55
(g71
g57
NtRp4068
(dp4069
g60
(dp4070
sg69
g4020
sg62
(lp4071
g55
(g76
g57
NtRp4072
(dp4073
g60
(dp4074
g80
g81
ssg69
g4068
sg62
(lp4075
S'Expires'
p4076
asbag55
(g76
g57
NtRp4077
(dp4078
g60
(dp4079
g87
g88
ssg69
g4068
sg62
(lp4080
S':'
asbag55
(g76
g57
NtRp4081
(dp4082
g60
(dp4083
sg69
g4068
sg62
(lp4084
g55
(g56
g57
NtRp4085
(dp4086
g60
(dp4087
g68
I4
ssg69
g4081
sg62
(lp4088
S'Tue, 06 Mar 2012 17:44:11 GMT'
p4089
asbasbasbag55
(g71
g57
NtRp4090
(dp4091
g60
(dp4092
sg69
g4020
sg62
(lp4093
g55
(g76
g57
NtRp4094
(dp4095
g60
(dp4096
g80
g81
ssg69
g4090
sg62
(lp4097
S'Pragma'
p4098
asbag55
(g76
g57
NtRp4099
(dp4100
g60
(dp4101
g87
g88
ssg69
g4090
sg62
(lp4102
S':'
asbag55
(g76
g57
NtRp4103
(dp4104
g60
(dp4105
sg69
g4090
sg62
(lp4106
g55
(g56
g57
NtRp4107
(dp4108
g60
(dp4109
g68
I4
ssg69
g4103
sg62
(lp4110
S'no-cache'
p4111
asbasbasbag55
(g71
g57
NtRp4112
(dp4113
g60
(dp4114
sg69
g4020
sg62
(lp4115
g55
(g76
g57
NtRp4116
(dp4117
g60
(dp4118
g80
g81
ssg69
g4112
sg62
(lp4119
S'X-Powered-By'
p4120
asbag55
(g76
g57
NtRp4121
(dp4122
g60
(dp4123
g87
g88
ssg69
g4112
sg62
(lp4124
S':'
asbag55
(g76
g57
NtRp4125
(dp4126
g60
(dp4127
sg69
g4112
sg62
(lp4128
g55
(g56
g57
NtRp4129
(dp4130
g60
(dp4131
g68
I4
ssg69
g4125
sg62
(lp4132
S'web2py'
p4133
asbasbasbasbasbasbasbag55
(g71
g57
NtRp4134
(dp4135
g60
(dp4136
sg69
g3578
sg62
(lp4137
g55
(g76
g57
NtRp4138
(dp4139
g60
(dp4140
g80
g81
ssg69
g4134
sg62
(lp4141
S'menu'
p4142
asbag55
(g76
g57
NtRp4143
(dp4144
g60
(dp4145
g87
g88
ssg69
g4134
sg62
(lp4146
S':'
asbag55
(g76
g57
NtRp4147
(dp4148
g60
(dp4149
sg69
g4134
sg62
(lp4150
g55
(g56
g57
NtRp4151
(dp4152
g60
(dp4153
g68
I5
ssg69
g4147
sg62
(lp4154
g55
(g64
g57
NtRp4155
(dp4156
g60
(dp4157
g68
I4
ssg69
Nsg62
(lp4158
g55
(g71
g57
NtRp4159
(dp4160
g60
(dp4161
sg69
g4155
sg62
(lp4162
g55
(g76
g57
NtRp4163
(dp4164
g60
(dp4165
sg69
g4159
sg62
(lp4166
g55
(g56
g57
NtRp4167
(dp4168
g60
(dp4169
g68
I4
ssg69
g4163
sg62
(lp4170
g55
(g64
g57
NtRp4171
(dp4172
g60
(dp4173
g68
I3
ssg69
Nsg62
(lp4174
g55
(g71
g57
NtRp4175
(dp4176
g60
(dp4177
sg69
g4171
sg62
(lp4178
g55
(g76
g57
NtRp4179
(dp4180
g60
(dp4181
sg69
g4175
sg62
(lp4182
g55
(g56
g57
NtRp4183
(dp4184
g60
(dp4185
g68
I3
ssg69
g4179
sg62
(lp4186
cgluon.languages
lazyT_unpickle
p4187
(S't\x04\x00\x00\x00Home'
tRp4188
asbasbasbag55
(g71
g57
NtRp4189
(dp4190
g60
(dp4191
sg69
g4171
sg62
(lp4192
g55
(g76
g57
NtRp4193
(dp4194
g60
(dp4195
sg69
g4189
sg62
(lp4196
g55
(g56
g57
NtRp4197
(dp4198
g60
(dp4199
g68
I3
ssg69
g4193
sg62
(lp4200
g98
asbasbasbag55
(g71
g57
NtRp4201
(dp4202
g60
(dp4203
sg69
g4171
sg62
(lp4204
g55
(g76
g57
NtRp4205
(dp4206
g60
(dp4207
sg69
g4201
sg62
(lp4208
g55
(g56
g57
NtRp4209
(dp4210
g60
(dp4211
g68
I3
ssg69
g4205
sg62
(lp4212
S'/grammateus3/default/index'
p4213
asbasbasbag55
(g71
g57
NtRp4214
(dp4215
g60
(dp4216
sg69
g4171
sg62
(lp4217
g55
(g76
g57
NtRp4218
(dp4219
g60
(dp4220
sg69
g4214
sg62
(lp4221
g55
(g56
g57
NtRp4222
(dp4223
g60
(dp4224
g68
I3
ssg69
g4218
sg62
(lp4225
g55
(g64
g57
NtRp4226
(dp4227
g60
(dp4228
g68
I2
ssg69
Nsg62
(lp4229
sbasbasbasbasbasbasbasbag55
(g71
g57
NtRp4230
(dp4231
g60
(dp4232
sg69
g4155
sg62
(lp4233
g55
(g76
g57
NtRp4234
(dp4235
g60
(dp4236
sg69
g4230
sg62
(lp4237
g55
(g56
g57
NtRp4238
(dp4239
g60
(dp4240
g68
I4
ssg69
g4234
sg62
(lp4241
g55
(g64
g57
NtRp4242
(dp4243
g60
(dp4244
g68
I3
ssg69
Nsg62
(lp4245
g55
(g71
g57
NtRp4246
(dp4247
g60
(dp4248
sg69
g4242
sg62
(lp4249
g55
(g76
g57
NtRp4250
(dp4251
g60
(dp4252
sg69
g4246
sg62
(lp4253
g55
(g56
g57
NtRp4254
(dp4255
g60
(dp4256
g68
I3
ssg69
g4250
sg62
(lp4257
g55
(cgluon.html
SPAN
p4258
g57
NtRp4259
(dp4260
g60
(dp4261
g80
S'color:yellow'
p4262
ssg69
g55
(cgluon.html
A
p4263
g57
NtRp4264
(dp4265
g60
(dp4266
S'_onclick'
p4267
S'javascript:void(0);return false;'
p4268
sS'_href'
p4269
S'#'
ssg69
g55
(cgluon.html
LI
p4270
g57
NtRp4271
(dp4272
g60
(dp4273
S'_class'
p4274
S'web2py-menu-expand'
p4275
ssg69
g55
(cgluon.html
UL
p4276
g57
NtRp4277
(dp4278
g60
(dp4279
S'mobile'
p4280
I00
sS'li_class'
p4281
g4275
sg4274
S'sf-menu'
p4282
sS'ul_class'
p4283
S'web2py-menu-vertical'
p4284
sS'li_active'
p4285
S'web2py-menu-active'
p4286
ssg69
Nsg62
(lp4287
g55
(g4270
g57
NtRp4288
(dp4289
g60
(dp4290
sg69
g4277
sg62
(lp4291
g55
(g4263
g57
NtRp4292
(dp4293
g60
(dp4294
g4269
g4213
ssg69
g4288
sg62
(lp4295
g4188
asbasbag4271
asbsg62
(lp4296
g4264
ag55
(g4276
g57
NtRp4297
(dp4298
g60
(dp4299
g4274
g4284
ssg69
g4271
sg62
(lp4300
g55
(g4270
g57
NtRp4301
(dp4302
g60
(dp4303
sg69
g4297
sg62
(lp4304
g55
(g4263
g57
NtRp4305
(dp4306
g60
(dp4307
g4269
S'/admin/default/site'
p4308
ssg69
g4301
sg62
(lp4309
g4187
(S's\x08\x00\x00\x00My Sites'
tRp4310
asbasbag55
(g4270
g57
NtRp4311
(dp4312
g60
(dp4313
g4274
g4275
ssg69
g4297
sg62
(lp4314
g55
(g4263
g57
NtRp4315
(dp4316
g60
(dp4317
g4269
S'/admin/default/design/grammateus3'
p4318
ssg69
g4311
sg62
(lp4319
g4187
(S's\x08\x00\x00\x00This App'
tRp4320
asbag55
(g4276
g57
NtRp4321
(dp4322
g60
(dp4323
g4274
g4284
ssg69
g4311
sg62
(lp4324
g55
(g4270
g57
NtRp4325
(dp4326
g60
(dp4327
sg69
g4321
sg62
(lp4328
g55
(g4263
g57
NtRp4329
(dp4330
g60
(dp4331
g4269
S'/admin/default/edit/grammateus3/controllers/docs.py'
p4332
ssg69
g4325
sg62
(lp4333
g4187
(S't\n\x00\x00\x00Controller'
tRp4334
asbasbag55
(g4270
g57
NtRp4335
(dp4336
g60
(dp4337
sg69
g4321
sg62
(lp4338
g55
(g4263
g57
NtRp4339
(dp4340
g60
(dp4341
g4269
S'/admin/default/edit/grammateus3/views/docs/text.html'
p4342
ssg69
g4335
sg62
(lp4343
g4187
(S't\x04\x00\x00\x00View'
tRp4344
asbasbag55
(g4270
g57
NtRp4345
(dp4346
g60
(dp4347
sg69
g4321
sg62
(lp4348
g55
(g4263
g57
NtRp4349
(dp4350
g60
(dp4351
g4269
S'/admin/default/edit/grammateus3/views/layout.html'
p4352
ssg69
g4345
sg62
(lp4353
g4187
(S't\x06\x00\x00\x00Layout'
tRp4354
asbasbag55
(g4270
g57
NtRp4355
(dp4356
g60
(dp4357
sg69
g4321
sg62
(lp4358
g55
(g4263
g57
NtRp4359
(dp4360
g60
(dp4361
g4269
S'/admin/default/edit/grammateus3/static/css/web2py.css'
p4362
ssg69
g4355
sg62
(lp4363
g4187
(S't\n\x00\x00\x00Stylesheet'
tRp4364
asbasbag55
(g4270
g57
NtRp4365
(dp4366
g60
(dp4367
sg69
g4321
sg62
(lp4368
g55
(g4263
g57
NtRp4369
(dp4370
g60
(dp4371
g4269
S'/admin/default/edit/grammateus3/models/db.py'
p4372
ssg69
g4365
sg62
(lp4373
g4187
(S's\x08\x00\x00\x00DB Model'
tRp4374
asbasbag55
(g4270
g57
NtRp4375
(dp4376
g60
(dp4377
sg69
g4321
sg62
(lp4378
g55
(g4263
g57
NtRp4379
(dp4380
g60
(dp4381
g4269
S'/admin/default/edit/grammateus3/models/menu.py'
p4382
ssg69
g4375
sg62
(lp4383
g4187
(S's\n\x00\x00\x00Menu Model'
tRp4384
asbasbag55
(g4270
g57
NtRp4385
(dp4386
g60
(dp4387
sg69
g4321
sg62
(lp4388
g55
(g4263
g57
NtRp4389
(dp4390
g60
(dp4391
g4269
S'/grammateus3/appadmin/index'
p4392
ssg69
g4385
sg62
(lp4393
g4187
(S't\x08\x00\x00\x00Database'
tRp4394
asbasbag55
(g4270
g57
NtRp4395
(dp4396
g60
(dp4397
sg69
g4321
sg62
(lp4398
g55
(g4263
g57
NtRp4399
(dp4400
g60
(dp4401
g4269
S'/admin/default/errors/grammateus3'
p4402
ssg69
g4395
sg62
(lp4403
g4187
(S't\x06\x00\x00\x00Errors'
tRp4404
asbasbag55
(g4270
g57
NtRp4405
(dp4406
g60
(dp4407
sg69
g4321
sg62
(lp4408
g55
(g4263
g57
NtRp4409
(dp4410
g60
(dp4411
g4269
S'/admin/default/about/grammateus3'
p4412
ssg69
g4405
sg62
(lp4413
g4187
(S't\x05\x00\x00\x00About'
tRp4414
asbasbasbasbag55
(g4270
g57
NtRp4415
(dp4416
g60
(dp4417
g4274
g4275
ssg69
g4297
sg62
(lp4418
g55
(g4263
g57
NtRp4419
(dp4420
g60
(dp4421
g4269
S'http://www.web2py.com'
p4422
ssg69
g4415
sg62
(lp4423
S'web2py.com'
p4424
asbag55
(g4276
g57
NtRp4425
(dp4426
g60
(dp4427
g4274
g4284
ssg69
g4415
sg62
(lp4428
g55
(g4270
g57
NtRp4429
(dp4430
g60
(dp4431
sg69
g4425
sg62
(lp4432
g55
(g4263
g57
NtRp4433
(dp4434
g60
(dp4435
g4269
S'http://www.web2py.com/examples/default/download'
p4436
ssg69
g4429
sg62
(lp4437
g4187
(S't\x08\x00\x00\x00Download'
tRp4438
asbasbag55
(g4270
g57
NtRp4439
(dp4440
g60
(dp4441
sg69
g4425
sg62
(lp4442
g55
(g4263
g57
NtRp4443
(dp4444
g60
(dp4445
g4269
S'http://www.web2py.com/examples/default/support'
p4446
ssg69
g4439
sg62
(lp4447
g4187
(S't\x07\x00\x00\x00Support'
tRp4448
asbasbag55
(g4270
g57
NtRp4449
(dp4450
g60
(dp4451
sg69
g4425
sg62
(lp4452
g55
(g4263
g57
NtRp4453
(dp4454
g60
(dp4455
g4269
S'http://web2py.com/demo_admin'
p4456
ssg69
g4449
sg62
(lp4457
g4187
(S't\x04\x00\x00\x00Demo'
tRp4458
asbasbag55
(g4270
g57
NtRp4459
(dp4460
g60
(dp4461
sg69
g4425
sg62
(lp4462
g55
(g4263
g57
NtRp4463
(dp4464
g60
(dp4465
g4269
S'http://web2py.com/examples/default/examples'
p4466
ssg69
g4459
sg62
(lp4467
g4187
(S's\x0e\x00\x00\x00Quick Examples'
tRp4468
asbasbag55
(g4270
g57
NtRp4469
(dp4470
g60
(dp4471
sg69
g4425
sg62
(lp4472
g55
(g4263
g57
NtRp4473
(dp4474
g60
(dp4475
g4269
S'http://web2py.com/AlterEgo'
p4476
ssg69
g4469
sg62
(lp4477
g4187
(S't\x03\x00\x00\x00FAQ'
tRp4478
asbasbag55
(g4270
g57
NtRp4479
(dp4480
g60
(dp4481
sg69
g4425
sg62
(lp4482
g55
(g4263
g57
NtRp4483
(dp4484
g60
(dp4485
g4269
S'http://www.web2py.com/examples/default/videos/'
p4486
ssg69
g4479
sg62
(lp4487
g4187
(S't\x06\x00\x00\x00Videos'
tRp4488
asbasbag55
(g4270
g57
NtRp4489
(dp4490
g60
(dp4491
sg69
g4425
sg62
(lp4492
g55
(g4263
g57
NtRp4493
(dp4494
g60
(dp4495
g4269
S'http://web2py.com/appliances'
p4496
ssg69
g4489
sg62
(lp4497
g4187
(S's\x11\x00\x00\x00Free Applications'
tRp4498
asbasbag55
(g4270
g57
NtRp4499
(dp4500
g60
(dp4501
sg69
g4425
sg62
(lp4502
g55
(g4263
g57
NtRp4503
(dp4504
g60
(dp4505
g4269
S'http://web2py.com/plugins'
p4506
ssg69
g4499
sg62
(lp4507
g4187
(S't\x07\x00\x00\x00Plugins'
tRp4508
asbasbag55
(g4270
g57
NtRp4509
(dp4510
g60
(dp4511
sg69
g4425
sg62
(lp4512
g55
(g4263
g57
NtRp4513
(dp4514
g60
(dp4515
g4269
S'http://web2py.com/layouts'
p4516
ssg69
g4509
sg62
(lp4517
g4187
(S't\x07\x00\x00\x00Layouts'
tRp4518
asbasbag55
(g4270
g57
NtRp4519
(dp4520
g60
(dp4521
sg69
g4425
sg62
(lp4522
g55
(g4263
g57
NtRp4523
(dp4524
g60
(dp4525
g4269
S'http://web2pyslices.com/'
p4526
ssg69
g4519
sg62
(lp4527
g4187
(S't\x07\x00\x00\x00Recipes'
tRp4528
asbasbag55
(g4270
g57
NtRp4529
(dp4530
g60
(dp4531
sg69
g4425
sg62
(lp4532
g55
(g4263
g57
NtRp4533
(dp4534
g60
(dp4535
g4269
S'http://web2py.com/semantic'
p4536
ssg69
g4529
sg62
(lp4537
g4187
(S't\x08\x00\x00\x00Semantic'
tRp4538
asbasbasbasbag55
(g4270
g57
NtRp4539
(dp4540
g60
(dp4541
g4274
g4275
ssg69
g4297
sg62
(lp4542
g55
(g4263
g57
NtRp4543
(dp4544
g60
(dp4545
g4269
S'http://www.web2py.com/book'
p4546
ssg69
g4539
sg62
(lp4547
g4187
(S't\r\x00\x00\x00Documentation'
tRp4548
asbag55
(g4276
g57
NtRp4549
(dp4550
g60
(dp4551
g4274
g4284
ssg69
g4539
sg62
(lp4552
g55
(g4270
g57
NtRp4553
(dp4554
g60
(dp4555
sg69
g4549
sg62
(lp4556
g55
(g4263
g57
NtRp4557
(dp4558
g60
(dp4559
g4269
S'http://www.web2py.com/book/default/chapter/00'
p4560
ssg69
g4553
sg62
(lp4561
g4187
(S't\x07\x00\x00\x00Preface'
tRp4562
asbasbag55
(g4270
g57
NtRp4563
(dp4564
g60
(dp4565
sg69
g4549
sg62
(lp4566
g55
(g4263
g57
NtRp4567
(dp4568
g60
(dp4569
g4269
S'http://www.web2py.com/book/default/chapter/01'
p4570
ssg69
g4563
sg62
(lp4571
g4187
(S't\x0c\x00\x00\x00Introduction'
tRp4572
asbasbag55
(g4270
g57
NtRp4573
(dp4574
g60
(dp4575
sg69
g4549
sg62
(lp4576
g55
(g4263
g57
NtRp4577
(dp4578
g60
(dp4579
g4269
S'http://www.web2py.com/book/default/chapter/02'
p4580
ssg69
g4573
sg62
(lp4581
g4187
(S't\x06\x00\x00\x00Python'
tRp4582
asbasbag55
(g4270
g57
NtRp4583
(dp4584
g60
(dp4585
sg69
g4549
sg62
(lp4586
g55
(g4263
g57
NtRp4587
(dp4588
g60
(dp4589
g4269
S'http://www.web2py.com/book/default/chapter/03'
p4590
ssg69
g4583
sg62
(lp4591
g4187
(S't\x08\x00\x00\x00Overview'
tRp4592
asbasbag55
(g4270
g57
NtRp4593
(dp4594
g60
(dp4595
sg69
g4549
sg62
(lp4596
g55
(g4263
g57
NtRp4597
(dp4598
g60
(dp4599
g4269
S'http://www.web2py.com/book/default/chapter/04'
p4600
ssg69
g4593
sg62
(lp4601
g4187
(S's\x08\x00\x00\x00The Core'
tRp4602
asbasbag55
(g4270
g57
NtRp4603
(dp4604
g60
(dp4605
sg69
g4549
sg62
(lp4606
g55
(g4263
g57
NtRp4607
(dp4608
g60
(dp4609
g4269
S'http://www.web2py.com/book/default/chapter/05'
p4610
ssg69
g4603
sg62
(lp4611
g4187
(S's\t\x00\x00\x00The Views'
tRp4612
asbasbag55
(g4270
g57
NtRp4613
(dp4614
g60
(dp4615
sg69
g4549
sg62
(lp4616
g55
(g4263
g57
NtRp4617
(dp4618
g60
(dp4619
g4269
S'http://www.web2py.com/book/default/chapter/06'
p4620
ssg69
g4613
sg62
(lp4621
g4187
(S't\x08\x00\x00\x00Database'
tRp4622
asbasbag55
(g4270
g57
NtRp4623
(dp4624
g60
(dp4625
sg69
g4549
sg62
(lp4626
g55
(g4263
g57
NtRp4627
(dp4628
g60
(dp4629
g4269
S'http://www.web2py.com/book/default/chapter/07'
p4630
ssg69
g4623
sg62
(lp4631
g4187
(S's\x14\x00\x00\x00Forms and Validators'
tRp4632
asbasbag55
(g4270
g57
NtRp4633
(dp4634
g60
(dp4635
sg69
g4549
sg62
(lp4636
g55
(g4263
g57
NtRp4637
(dp4638
g60
(dp4639
g4269
S'http://www.web2py.com/book/default/chapter/08'
p4640
ssg69
g4633
sg62
(lp4641
g4187
(S's\r\x00\x00\x00Email and SMS'
tRp4642
asbasbag55
(g4270
g57
NtRp4643
(dp4644
g60
(dp4645
sg69
g4549
sg62
(lp4646
g55
(g4263
g57
NtRp4647
(dp4648
g60
(dp4649
g4269
S'http://www.web2py.com/book/default/chapter/09'
p4650
ssg69
g4643
sg62
(lp4651
g4187
(S's\x0e\x00\x00\x00Access Control'
tRp4652
asbasbag55
(g4270
g57
NtRp4653
(dp4654
g60
(dp4655
sg69
g4549
sg62
(lp4656
g55
(g4263
g57
NtRp4657
(dp4658
g60
(dp4659
g4269
S'http://www.web2py.com/book/default/chapter/10'
p4660
ssg69
g4653
sg62
(lp4661
g4187
(S't\x08\x00\x00\x00Services'
tRp4662
asbasbag55
(g4270
g57
NtRp4663
(dp4664
g60
(dp4665
sg69
g4549
sg62
(lp4666
g55
(g4263
g57
NtRp4667
(dp4668
g60
(dp4669
g4269
S'http://www.web2py.com/book/default/chapter/11'
p4670
ssg69
g4663
sg62
(lp4671
g4187
(S's\x0c\x00\x00\x00Ajax Recipes'
tRp4672
asbasbag55
(g4270
g57
NtRp4673
(dp4674
g60
(dp4675
sg69
g4549
sg62
(lp4676
g55
(g4263
g57
NtRp4677
(dp4678
g60
(dp4679
g4269
S'http://www.web2py.com/book/default/chapter/12'
p4680
ssg69
g4673
sg62
(lp4681
g4187
(S's\x16\x00\x00\x00Components and Plugins'
tRp4682
asbasbag55
(g4270
g57
NtRp4683
(dp4684
g60
(dp4685
sg69
g4549
sg62
(lp4686
g55
(g4263
g57
NtRp4687
(dp4688
g60
(dp4689
g4269
S'http://www.web2py.com/book/default/chapter/13'
p4690
ssg69
g4683
sg62
(lp4691
g4187
(S's\x12\x00\x00\x00Deployment Recipes'
tRp4692
asbasbag55
(g4270
g57
NtRp4693
(dp4694
g60
(dp4695
sg69
g4549
sg62
(lp4696
g55
(g4263
g57
NtRp4697
(dp4698
g60
(dp4699
g4269
S'http://www.web2py.com/book/default/chapter/14'
p4700
ssg69
g4693
sg62
(lp4701
g4187
(S's\r\x00\x00\x00Other Recipes'
tRp4702
asbasbag55
(g4270
g57
NtRp4703
(dp4704
g60
(dp4705
sg69
g4549
sg62
(lp4706
g55
(g4263
g57
NtRp4707
(dp4708
g60
(dp4709
g4269
S'http://stores.lulu.com/web2py'
p4710
ssg69
g4703
sg62
(lp4711
g4187
(S's\r\x00\x00\x00Buy this book'
tRp4712
asbasbasbasbag55
(g4270
g57
NtRp4713
(dp4714
g60
(dp4715
g4274
g4275
ssg69
g4297
sg62
(lp4716
g55
(g4263
g57
NtRp4717
(dp4718
g60
(dp4719
g4267
g4268
sg4269
S'#'
ssg69
g4713
sg62
(lp4720
g4187
(S't\t\x00\x00\x00Community'
tRp4721
asbag55
(g4276
g57
NtRp4722
(dp4723
g60
(dp4724
g4274
g4284
ssg69
g4713
sg62
(lp4725
g55
(g4270
g57
NtRp4726
(dp4727
g60
(dp4728
sg69
g4722
sg62
(lp4729
g55
(g4263
g57
NtRp4730
(dp4731
g60
(dp4732
g4269
S'http://www.web2py.com/examples/default/usergroups'
p4733
ssg69
g4726
sg62
(lp4734
g4187
(S't\x06\x00\x00\x00Groups'
tRp4735
asbasbag55
(g4270
g57
NtRp4736
(dp4737
g60
(dp4738
sg69
g4722
sg62
(lp4739
g55
(g4263
g57
NtRp4740
(dp4741
g60
(dp4742
g4269
S'http://twitter.com/web2py'
p4743
ssg69
g4736
sg62
(lp4744
g4187
(S't\x07\x00\x00\x00Twitter'
tRp4745
asbasbag55
(g4270
g57
NtRp4746
(dp4747
g60
(dp4748
sg69
g4722
sg62
(lp4749
g55
(g4263
g57
NtRp4750
(dp4751
g60
(dp4752
g4269
S'http://webchat.freenode.net/?channels=web2py'
p4753
ssg69
g4746
sg62
(lp4754
g4187
(S's\t\x00\x00\x00Live Chat'
tRp4755
asbasbasbasbag55
(g4270
g57
NtRp4756
(dp4757
g60
(dp4758
g4274
g4275
ssg69
g4297
sg62
(lp4759
g55
(g4263
g57
NtRp4760
(dp4761
g60
(dp4762
g4267
g4268
sg4269
S'#'
ssg69
g4756
sg62
(lp4763
g4187
(S't\x07\x00\x00\x00Plugins'
tRp4764
asbag55
(g4276
g57
NtRp4765
(dp4766
g60
(dp4767
g4274
g4284
ssg69
g4756
sg62
(lp4768
g55
(g4270
g57
NtRp4769
(dp4770
g60
(dp4771
sg69
g4765
sg62
(lp4772
g55
(g4263
g57
NtRp4773
(dp4774
g60
(dp4775
g4269
S'http://web2py.com/examples/default/download'
p4776
ssg69
g4769
sg62
(lp4777
S'plugin_wiki'
p4778
asbasbag55
(g4270
g57
NtRp4779
(dp4780
g60
(dp4781
sg69
g4765
sg62
(lp4782
g55
(g4263
g57
NtRp4783
(dp4784
g60
(dp4785
g4269
g4506
ssg69
g4779
sg62
(lp4786
g4187
(S's\r\x00\x00\x00Other Plugins'
tRp4787
asbasbag55
(g4270
g57
NtRp4788
(dp4789
g60
(dp4790
sg69
g4765
sg62
(lp4791
g55
(g4263
g57
NtRp4792
(dp4793
g60
(dp4794
g4269
g4516
ssg69
g4788
sg62
(lp4795
g4187
(S's\x0e\x00\x00\x00Layout Plugins'
tRp4796
asbasbasbasbasbasbsg62
(lp4797
g4259
asbsg62
(lp4798
g4133
asbasbasbasbag55
(g71
g57
NtRp4799
(dp4800
g60
(dp4801
sg69
g4242
sg62
(lp4802
g55
(g76
g57
NtRp4803
(dp4804
g60
(dp4805
sg69
g4799
sg62
(lp4806
g55
(g56
g57
NtRp4807
(dp4808
g60
(dp4809
g68
I3
ssg69
g4803
sg62
(lp4810
g98
asbasbasbag55
(g71
g57
NtRp4811
(dp4812
g60
(dp4813
sg69
g4242
sg62
(lp4814
g55
(g76
g57
NtRp4815
(dp4816
g60
(dp4817
sg69
g4811
sg62
(lp4818
g55
(g56
g57
NtRp4819
(dp4820
g60
(dp4821
g68
I3
ssg69
g4815
sg62
(lp4822
S'None'
p4823
asbasbasbag55
(g71
g57
NtRp4824
(dp4825
g60
(dp4826
sg69
g4242
sg62
(lp4827
g55
(g76
g57
NtRp4828
(dp4829
g60
(dp4830
sg69
g4824
sg62
(lp4831
g55
(g56
g57
NtRp4832
(dp4833
g60
(dp4834
g68
I3
ssg69
g4828
sg62
(lp4835
g55
(g64
g57
NtRp4836
(dp4837
g60
(dp4838
g68
I2
ssg69
Nsg62
(lp4839
g55
(g71
g57
NtRp4840
(dp4841
g60
(dp4842
sg69
g4836
sg62
(lp4843
g55
(g76
g57
NtRp4844
(dp4845
g60
(dp4846
sg69
g4840
sg62
(lp4847
g55
(g56
g57
NtRp4848
(dp4849
g60
(dp4850
g68
I2
ssg69
g4844
sg62
(lp4851
g55
(g64
g57
NtRp4852
(dp4853
g60
(dp4854
g68
I1
ssg69
Nsg62
(lp4855
g55
(g71
g57
NtRp4856
(dp4857
g60
(dp4858
sg69
g4852
sg62
(lp4859
g55
(g76
g57
NtRp4860
(dp4861
g60
(dp4862
sg69
g4856
sg62
(lp4863
g55
(g56
g57
NtRp4864
(dp4865
g60
(dp4866
g68
I1
ssg69
g4860
sg62
(lp4867
g4310
asbasbasbag55
(g71
g57
NtRp4868
(dp4869
g60
(dp4870
sg69
g4852
sg62
(lp4871
g55
(g76
g57
NtRp4872
(dp4873
g60
(dp4874
sg69
g4868
sg62
(lp4875
g55
(g56
g57
NtRp4876
(dp4877
g60
(dp4878
g68
I1
ssg69
g4872
sg62
(lp4879
I00
asbasbasbag55
(g71
g57
NtRp4880
(dp4881
g60
(dp4882
sg69
g4852
sg62
(lp4883
g55
(g76
g57
NtRp4884
(dp4885
g60
(dp4886
sg69
g4880
sg62
(lp4887
g55
(g56
g57
NtRp4888
(dp4889
g60
(dp4890
g68
I1
ssg69
g4884
sg62
(lp4891
g4308
asbasbasbasbasbasbasbag55
(g71
g57
NtRp4892
(dp4893
g60
(dp4894
sg69
g4836
sg62
(lp4895
g55
(g76
g57
NtRp4896
(dp4897
g60
(dp4898
sg69
g4892
sg62
(lp4899
g55
(g56
g57
NtRp4900
(dp4901
g60
(dp4902
g68
I2
ssg69
g4896
sg62
(lp4903
g55
(g64
g57
NtRp4904
(dp4905
g60
(dp4906
g68
I1
ssg69
Nsg62
(lp4907
g55
(g71
g57
NtRp4908
(dp4909
g60
(dp4910
sg69
g4904
sg62
(lp4911
g55
(g76
g57
NtRp4912
(dp4913
g60
(dp4914
sg69
g4908
sg62
(lp4915
g55
(g56
g57
NtRp4916
(dp4917
g60
(dp4918
g68
I1
ssg69
g4912
sg62
(lp4919
g4320
asbasbasbag55
(g71
g57
NtRp4920
(dp4921
g60
(dp4922
sg69
g4904
sg62
(lp4923
g55
(g76
g57
NtRp4924
(dp4925
g60
(dp4926
sg69
g4920
sg62
(lp4927
g55
(g56
g57
NtRp4928
(dp4929
g60
(dp4930
g68
I1
ssg69
g4924
sg62
(lp4931
I00
asbasbasbag55
(g71
g57
NtRp4932
(dp4933
g60
(dp4934
sg69
g4904
sg62
(lp4935
g55
(g76
g57
NtRp4936
(dp4937
g60
(dp4938
sg69
g4932
sg62
(lp4939
g55
(g56
g57
NtRp4940
(dp4941
g60
(dp4942
g68
I1
ssg69
g4936
sg62
(lp4943
g4318
asbasbasbag55
(g71
g57
NtRp4944
(dp4945
g60
(dp4946
sg69
g4904
sg62
(lp4947
g55
(g76
g57
NtRp4948
(dp4949
g60
(dp4950
sg69
g4944
sg62
(lp4951
g55
(g56
g57
NtRp4952
(dp4953
g60
(dp4954
g68
I1
ssg69
g4948
sg62
(lp4955
(lp4956
(g4334
I00
g4332
tp4957
a(g4344
I00
g4342
tp4958
a(g4354
I00
g4352
tp4959
a(g4364
I00
g4362
tp4960
a(g4374
I00
g4372
tp4961
a(g4384
I00
g4382
tp4962
a(g4394
I00
g4392
tp4963
a(g4404
I00
g4402
tp4964
a(g4414
I00
g4412
tp4965
aasbasbasbasbasbasbasbag55
(g71
g57
NtRp4966
(dp4967
g60
(dp4968
sg69
g4836
sg62
(lp4969
g55
(g76
g57
NtRp4970
(dp4971
g60
(dp4972
sg69
g4966
sg62
(lp4973
g55
(g56
g57
NtRp4974
(dp4975
g60
(dp4976
g68
I2
ssg69
g4970
sg62
(lp4977
g55
(g64
g57
NtRp4978
(dp4979
g60
(dp4980
g68
I1
ssg69
Nsg62
(lp4981
g55
(g71
g57
NtRp4982
(dp4983
g60
(dp4984
sg69
g4978
sg62
(lp4985
g55
(g76
g57
NtRp4986
(dp4987
g60
(dp4988
sg69
g4982
sg62
(lp4989
g55
(g56
g57
NtRp4990
(dp4991
g60
(dp4992
g68
I1
ssg69
g4986
sg62
(lp4993
g4424
asbasbasbag55
(g71
g57
NtRp4994
(dp4995
g60
(dp4996
sg69
g4978
sg62
(lp4997
g55
(g76
g57
NtRp4998
(dp4999
g60
(dp5000
sg69
g4994
sg62
(lp5001
g55
(g56
g57
NtRp5002
(dp5003
g60
(dp5004
g68
I1
ssg69
g4998
sg62
(lp5005
I00
asbasbasbag55
(g71
g57
NtRp5006
(dp5007
g60
(dp5008
sg69
g4978
sg62
(lp5009
g55
(g76
g57
NtRp5010
(dp5011
g60
(dp5012
sg69
g5006
sg62
(lp5013
g55
(g56
g57
NtRp5014
(dp5015
g60
(dp5016
g68
I1
ssg69
g5010
sg62
(lp5017
g4422
asbasbasbag55
(g71
g57
NtRp5018
(dp5019
g60
(dp5020
sg69
g4978
sg62
(lp5021
g55
(g76
g57
NtRp5022
(dp5023
g60
(dp5024
sg69
g5018
sg62
(lp5025
g55
(g56
g57
NtRp5026
(dp5027
g60
(dp5028
g68
I1
ssg69
g5022
sg62
(lp5029
(lp5030
(g4438
I00
g4436
tp5031
a(g4448
I00
g4446
tp5032
a(g4458
I00
g4456
tp5033
a(g4468
I00
g4466
tp5034
a(g4478
I00
g4476
tp5035
a(g4488
I00
g4486
tp5036
a(g4498
I00
g4496
tp5037
a(g4508
I00
g4506
tp5038
a(g4518
I00
g4516
tp5039
a(g4528
I00
g4526
tp5040
a(g4538
I00
g4536
tp5041
aasbasbasbasbasbasbasbag55
(g71
g57
NtRp5042
(dp5043
g60
(dp5044
sg69
g4836
sg62
(lp5045
g55
(g76
g57
NtRp5046
(dp5047
g60
(dp5048
sg69
g5042
sg62
(lp5049
g55
(g56
g57
NtRp5050
(dp5051
g60
(dp5052
g68
I2
ssg69
g5046
sg62
(lp5053
g55
(g64
g57
NtRp5054
(dp5055
g60
(dp5056
g68
I1
ssg69
Nsg62
(lp5057
g55
(g71
g57
NtRp5058
(dp5059
g60
(dp5060
sg69
g5054
sg62
(lp5061
g55
(g76
g57
NtRp5062
(dp5063
g60
(dp5064
sg69
g5058
sg62
(lp5065
g55
(g56
g57
NtRp5066
(dp5067
g60
(dp5068
g68
I1
ssg69
g5062
sg62
(lp5069
g4548
asbasbasbag55
(g71
g57
NtRp5070
(dp5071
g60
(dp5072
sg69
g5054
sg62
(lp5073
g55
(g76
g57
NtRp5074
(dp5075
g60
(dp5076
sg69
g5070
sg62
(lp5077
g55
(g56
g57
NtRp5078
(dp5079
g60
(dp5080
g68
I1
ssg69
g5074
sg62
(lp5081
I00
asbasbasbag55
(g71
g57
NtRp5082
(dp5083
g60
(dp5084
sg69
g5054
sg62
(lp5085
g55
(g76
g57
NtRp5086
(dp5087
g60
(dp5088
sg69
g5082
sg62
(lp5089
g55
(g56
g57
NtRp5090
(dp5091
g60
(dp5092
g68
I1
ssg69
g5086
sg62
(lp5093
g4546
asbasbasbag55
(g71
g57
NtRp5094
(dp5095
g60
(dp5096
sg69
g5054
sg62
(lp5097
g55
(g76
g57
NtRp5098
(dp5099
g60
(dp5100
sg69
g5094
sg62
(lp5101
g55
(g56
g57
NtRp5102
(dp5103
g60
(dp5104
g68
I1
ssg69
g5098
sg62
(lp5105
(lp5106
(g4562
I00
g4560
tp5107
a(g4572
I00
g4570
tp5108
a(g4582
I00
g4580
tp5109
a(g4592
I00
g4590
tp5110
a(g4602
I00
g4600
tp5111
a(g4612
I00
g4610
tp5112
a(g4622
I00
g4620
tp5113
a(g4632
I00
g4630
tp5114
a(g4642
I00
g4640
tp5115
a(g4652
I00
g4650
tp5116
a(g4662
I00
g4660
tp5117
a(g4672
I00
g4670
tp5118
a(g4682
I00
g4680
tp5119
a(g4692
I00
g4690
tp5120
a(g4702
I00
g4700
tp5121
a(g4712
I00
g4710
tp5122
aasbasbasbasbasbasbasbag55
(g71
g57
NtRp5123
(dp5124
g60
(dp5125
sg69
g4836
sg62
(lp5126
g55
(g76
g57
NtRp5127
(dp5128
g60
(dp5129
sg69
g5123
sg62
(lp5130
g55
(g56
g57
NtRp5131
(dp5132
g60
(dp5133
g68
I2
ssg69
g5127
sg62
(lp5134
g55
(g64
g57
NtRp5135
(dp5136
g60
(dp5137
g68
I1
ssg69
Nsg62
(lp5138
g55
(g71
g57
NtRp5139
(dp5140
g60
(dp5141
sg69
g5135
sg62
(lp5142
g55
(g76
g57
NtRp5143
(dp5144
g60
(dp5145
sg69
g5139
sg62
(lp5146
g55
(g56
g57
NtRp5147
(dp5148
g60
(dp5149
g68
I1
ssg69
g5143
sg62
(lp5150
g4721
asbasbasbag55
(g71
g57
NtRp5151
(dp5152
g60
(dp5153
sg69
g5135
sg62
(lp5154
g55
(g76
g57
NtRp5155
(dp5156
g60
(dp5157
sg69
g5151
sg62
(lp5158
g55
(g56
g57
NtRp5159
(dp5160
g60
(dp5161
g68
I1
ssg69
g5155
sg62
(lp5162
I00
asbasbasbag55
(g71
g57
NtRp5163
(dp5164
g60
(dp5165
sg69
g5135
sg62
(lp5166
g55
(g76
g57
NtRp5167
(dp5168
g60
(dp5169
sg69
g5163
sg62
(lp5170
g55
(g56
g57
NtRp5171
(dp5172
g60
(dp5173
g68
I1
ssg69
g5167
sg62
(lp5174
Nasbasbasbag55
(g71
g57
NtRp5175
(dp5176
g60
(dp5177
sg69
g5135
sg62
(lp5178
g55
(g76
g57
NtRp5179
(dp5180
g60
(dp5181
sg69
g5175
sg62
(lp5182
g55
(g56
g57
NtRp5183
(dp5184
g60
(dp5185
g68
I1
ssg69
g5179
sg62
(lp5186
(lp5187
(g4735
I00
g4733
tp5188
a(g4745
I00
g4743
tp5189
a(g4755
I00
g4753
tp5190
aasbasbasbasbasbasbasbag55
(g71
g57
NtRp5191
(dp5192
g60
(dp5193
sg69
g4836
sg62
(lp5194
g55
(g76
g57
NtRp5195
(dp5196
g60
(dp5197
sg69
g5191
sg62
(lp5198
g55
(g56
g57
NtRp5199
(dp5200
g60
(dp5201
g68
I2
ssg69
g5195
sg62
(lp5202
g55
(g64
g57
NtRp5203
(dp5204
g60
(dp5205
g68
I1
ssg69
Nsg62
(lp5206
g55
(g71
g57
NtRp5207
(dp5208
g60
(dp5209
sg69
g5203
sg62
(lp5210
g55
(g76
g57
NtRp5211
(dp5212
g60
(dp5213
sg69
g5207
sg62
(lp5214
g55
(g56
g57
NtRp5215
(dp5216
g60
(dp5217
g68
I1
ssg69
g5211
sg62
(lp5218
g4764
asbasbasbag55
(g71
g57
NtRp5219
(dp5220
g60
(dp5221
sg69
g5203
sg62
(lp5222
g55
(g76
g57
NtRp5223
(dp5224
g60
(dp5225
sg69
g5219
sg62
(lp5226
g55
(g56
g57
NtRp5227
(dp5228
g60
(dp5229
g68
I1
ssg69
g5223
sg62
(lp5230
I00
asbasbasbag55
(g71
g57
NtRp5231
(dp5232
g60
(dp5233
sg69
g5203
sg62
(lp5234
g55
(g76
g57
NtRp5235
(dp5236
g60
(dp5237
sg69
g5231
sg62
(lp5238
g55
(g56
g57
NtRp5239
(dp5240
g60
(dp5241
g68
I1
ssg69
g5235
sg62
(lp5242
Nasbasbasbag55
(g71
g57
NtRp5243
(dp5244
g60
(dp5245
sg69
g5203
sg62
(lp5246
g55
(g76
g57
NtRp5247
(dp5248
g60
(dp5249
sg69
g5243
sg62
(lp5250
g55
(g56
g57
NtRp5251
(dp5252
g60
(dp5253
g68
I1
ssg69
g5247
sg62
(lp5254
(lp5255
(g4778
I00
g4776
tp5256
a(g4787
I00
g4506
tp5257
a(g4796
I00
g4516
tp5258
aasbasbasbasbasbasbasbasbasbasbasbasbasbasbasbasbasbasbasbag55
(g71
g57
NtRp5259
(dp5260
g60
(dp5261
sg69
g3578
sg62
(lp5262
g55
(g76
g57
NtRp5263
(dp5264
g60
(dp5265
g80
g81
ssg69
g5259
sg62
(lp5266
S'meta'
p5267
asbag55
(g76
g57
NtRp5268
(dp5269
g60
(dp5270
g87
g88
ssg69
g5259
sg62
(lp5271
S':'
asbag55
(g76
g57
NtRp5272
(dp5273
g60
(dp5274
sg69
g5259
sg62
(lp5275
g55
(g56
g57
NtRp5276
(dp5277
g60
(dp5278
g68
I5
ssg69
g5272
sg62
(lp5279
g55
(g64
g57
NtRp5280
(dp5281
g60
(dp5282
g68
I4
ssg69
Nsg62
(lp5283
g55
(g71
g57
NtRp5284
(dp5285
g60
(dp5286
sg69
g5280
sg62
(lp5287
g55
(g76
g57
NtRp5288
(dp5289
g60
(dp5290
g80
g81
ssg69
g5284
sg62
(lp5291
S'author'
p5292
asbag55
(g76
g57
NtRp5293
(dp5294
g60
(dp5295
g87
g88
ssg69
g5284
sg62
(lp5296
S':'
asbag55
(g76
g57
NtRp5297
(dp5298
g60
(dp5299
sg69
g5284
sg62
(lp5300
g55
(g56
g57
NtRp5301
(dp5302
g60
(dp5303
g68
I4
ssg69
g5297
sg62
(lp5304
S'Your Name <you@example.com>'
p5305
asbasbasbag55
(g71
g57
NtRp5306
(dp5307
g60
(dp5308
sg69
g5280
sg62
(lp5309
g55
(g76
g57
NtRp5310
(dp5311
g60
(dp5312
g80
g81
ssg69
g5306
sg62
(lp5313
S'copyright'
p5314
asbag55
(g76
g57
NtRp5315
(dp5316
g60
(dp5317
g87
g88
ssg69
g5306
sg62
(lp5318
S':'
asbag55
(g76
g57
NtRp5319
(dp5320
g60
(dp5321
sg69
g5306
sg62
(lp5322
g55
(g56
g57
NtRp5323
(dp5324
g60
(dp5325
g68
I4
ssg69
g5319
sg62
(lp5326
S'Copyright 2011'
p5327
asbasbasbag55
(g71
g57
NtRp5328
(dp5329
g60
(dp5330
sg69
g5280
sg62
(lp5331
g55
(g76
g57
NtRp5332
(dp5333
g60
(dp5334
g80
g81
ssg69
g5328
sg62
(lp5335
S'description'
p5336
asbag55
(g76
g57
NtRp5337
(dp5338
g60
(dp5339
g87
g88
ssg69
g5328
sg62
(lp5340
S':'
asbag55
(g76
g57
NtRp5341
(dp5342
g60
(dp5343
sg69
g5328
sg62
(lp5344
g55
(g56
g57
NtRp5345
(dp5346
g60
(dp5347
g68
I4
ssg69
g5341
sg62
(lp5348
S'a cool new app'
p5349
asbasbasbag55
(g71
g57
NtRp5350
(dp5351
g60
(dp5352
sg69
g5280
sg62
(lp5353
g55
(g76
g57
NtRp5354
(dp5355
g60
(dp5356
g80
g81
ssg69
g5350
sg62
(lp5357
S'generator'
p5358
asbag55
(g76
g57
NtRp5359
(dp5360
g60
(dp5361
g87
g88
ssg69
g5350
sg62
(lp5362
S':'
asbag55
(g76
g57
NtRp5363
(dp5364
g60
(dp5365
sg69
g5350
sg62
(lp5366
g55
(g56
g57
NtRp5367
(dp5368
g60
(dp5369
g68
I4
ssg69
g5363
sg62
(lp5370
S'Web2py Web Framework'
p5371
asbasbasbag55
(g71
g57
NtRp5372
(dp5373
g60
(dp5374
sg69
g5280
sg62
(lp5375
g55
(g76
g57
NtRp5376
(dp5377
g60
(dp5378
g80
g81
ssg69
g5372
sg62
(lp5379
S'keywords'
p5380
asbag55
(g76
g57
NtRp5381
(dp5382
g60
(dp5383
g87
g88
ssg69
g5372
sg62
(lp5384
S':'
asbag55
(g76
g57
NtRp5385
(dp5386
g60
(dp5387
sg69
g5372
sg62
(lp5388
g55
(g56
g57
NtRp5389
(dp5390
g60
(dp5391
g68
I4
ssg69
g5385
sg62
(lp5392
S'web2py, python, framework'
p5393
asbasbasbasbasbasbasbag55
(g71
g57
NtRp5394
(dp5395
g60
(dp5396
sg69
g3578
sg62
(lp5397
g55
(g76
g57
NtRp5398
(dp5399
g60
(dp5400
g80
g81
ssg69
g5394
sg62
(lp5401
S'postprocessing'
p5402
asbag55
(g76
g57
NtRp5403
(dp5404
g60
(dp5405
g87
g88
ssg69
g5394
sg62
(lp5406
S':'
asbag55
(g76
g57
NtRp5407
(dp5408
g60
(dp5409
sg69
g5394
sg62
(lp5410
g55
(g56
g57
NtRp5411
(dp5412
g60
(dp5413
g68
I5
ssg69
g5407
sg62
(lp5414
g55
(g64
g57
NtRp5415
(dp5416
g60
(dp5417
g68
I4
ssg69
Nsg62
(lp5418
sbasbasbasbag55
(g71
g57
NtRp5419
(dp5420
g60
(dp5421
sg69
g3578
sg62
(lp5422
g55
(g76
g57
NtRp5423
(dp5424
g60
(dp5425
g80
g81
ssg69
g5419
sg62
(lp5426
S'session_file'
p5427
asbag55
(g76
g57
NtRp5428
(dp5429
g60
(dp5430
g87
g88
ssg69
g5419
sg62
(lp5431
S':'
asbag55
(g76
g57
NtRp5432
(dp5433
g60
(dp5434
sg69
g5419
sg62
(lp5435
g55
(g56
g57
NtRp5436
(dp5437
g60
(dp5438
g68
I5
ssg69
g5432
sg62
(lp5439
S"<open file '/home/iscott/web/web2py/applications/grammateus3/sessions/127.0.0.1-ba3dd675-b545-4d2e-b935-f5151b1e5183', mode 'wb' at 0xafa8650>"
p5440
asbasbasbag55
(g71
g57
NtRp5441
(dp5442
g60
(dp5443
sg69
g3578
sg62
(lp5444
g55
(g76
g57
NtRp5445
(dp5446
g60
(dp5447
g80
g81
ssg69
g5441
sg62
(lp5448
S'session_filename'
p5449
asbag55
(g76
g57
NtRp5450
(dp5451
g60
(dp5452
g87
g88
ssg69
g5441
sg62
(lp5453
S':'
asbag55
(g76
g57
NtRp5454
(dp5455
g60
(dp5456
sg69
g5441
sg62
(lp5457
g55
(g56
g57
NtRp5458
(dp5459
g60
(dp5460
g68
I5
ssg69
g5454
sg62
(lp5461
S'/home/iscott/web/web2py/applications/grammateus3/sessions/127.0.0.1-ba3dd675-b545-4d2e-b935-f5151b1e5183'
p5462
asbasbasbag55
(g71
g57
NtRp5463
(dp5464
g60
(dp5465
sg69
g3578
sg62
(lp5466
g55
(g76
g57
NtRp5467
(dp5468
g60
(dp5469
g80
g81
ssg69
g5463
sg62
(lp5470
S'session_id'
p5471
asbag55
(g76
g57
NtRp5472
(dp5473
g60
(dp5474
g87
g88
ssg69
g5463
sg62
(lp5475
S':'
asbag55
(g76
g57
NtRp5476
(dp5477
g60
(dp5478
sg69
g5463
sg62
(lp5479
g55
(g56
g57
NtRp5480
(dp5481
g60
(dp5482
g68
I5
ssg69
g5476
sg62
(lp5483
S'127.0.0.1-ba3dd675-b545-4d2e-b935-f5151b1e5183'
p5484
asbasbasbag55
(g71
g57
NtRp5485
(dp5486
g60
(dp5487
sg69
g3578
sg62
(lp5488
g55
(g76
g57
NtRp5489
(dp5490
g60
(dp5491
g80
g81
ssg69
g5485
sg62
(lp5492
S'session_id_name'
p5493
asbag55
(g76
g57
NtRp5494
(dp5495
g60
(dp5496
g87
g88
ssg69
g5485
sg62
(lp5497
S':'
asbag55
(g76
g57
NtRp5498
(dp5499
g60
(dp5500
sg69
g5485
sg62
(lp5501
g55
(g56
g57
NtRp5502
(dp5503
g60
(dp5504
g68
I5
ssg69
g5498
sg62
(lp5505
g3635
asbasbasbag55
(g71
g57
NtRp5506
(dp5507
g60
(dp5508
sg69
g3578
sg62
(lp5509
g55
(g76
g57
NtRp5510
(dp5511
g60
(dp5512
g80
g81
ssg69
g5506
sg62
(lp5513
S'session_locked'
p5514
asbag55
(g76
g57
NtRp5515
(dp5516
g60
(dp5517
g87
g88
ssg69
g5506
sg62
(lp5518
S':'
asbag55
(g76
g57
NtRp5519
(dp5520
g60
(dp5521
sg69
g5506
sg62
(lp5522
g55
(g56
g57
NtRp5523
(dp5524
g60
(dp5525
g68
I5
ssg69
g5519
sg62
(lp5526
g2037
asbasbasbag55
(g71
g57
NtRp5527
(dp5528
g60
(dp5529
sg69
g3578
sg62
(lp5530
g55
(g76
g57
NtRp5531
(dp5532
g60
(dp5533
g80
g81
ssg69
g5527
sg62
(lp5534
S'session_new'
p5535
asbag55
(g76
g57
NtRp5536
(dp5537
g60
(dp5538
g87
g88
ssg69
g5527
sg62
(lp5539
S':'
asbag55
(g76
g57
NtRp5540
(dp5541
g60
(dp5542
sg69
g5527
sg62
(lp5543
g55
(g56
g57
NtRp5544
(dp5545
g60
(dp5546
g68
I5
ssg69
g5540
sg62
(lp5547
g2037
asbasbasbag55
(g71
g57
NtRp5548
(dp5549
g60
(dp5550
sg69
g3578
sg62
(lp5551
g55
(g76
g57
NtRp5552
(dp5553
g60
(dp5554
g80
g81
ssg69
g5548
sg62
(lp5555
S'status'
p5556
asbag55
(g76
g57
NtRp5557
(dp5558
g60
(dp5559
g87
g88
ssg69
g5548
sg62
(lp5560
S':'
asbag55
(g76
g57
NtRp5561
(dp5562
g60
(dp5563
sg69
g5548
sg62
(lp5564
g55
(g56
g57
NtRp5565
(dp5566
g60
(dp5567
g68
I5
ssg69
g5561
sg62
(lp5568
S'200'
p5569
asbasbasbag55
(g71
g57
NtRp5570
(dp5571
g60
(dp5572
sg69
g3578
sg62
(lp5573
g55
(g76
g57
NtRp5574
(dp5575
g60
(dp5576
g80
g81
ssg69
g5570
sg62
(lp5577
S'subtitle'
p5578
asbag55
(g76
g57
NtRp5579
(dp5580
g60
(dp5581
g87
g88
ssg69
g5570
sg62
(lp5582
S':'
asbag55
(g76
g57
NtRp5583
(dp5584
g60
(dp5585
sg69
g5570
sg62
(lp5586
g55
(g56
g57
NtRp5587
(dp5588
g60
(dp5589
g68
I5
ssg69
g5583
sg62
(lp5590
g4187
(S's\r\x00\x00\x00customize me!'
tRp5591
asbasbasbag55
(g71
g57
NtRp5592
(dp5593
g60
(dp5594
sg69
g3578
sg62
(lp5595
g55
(g76
g57
NtRp5596
(dp5597
g60
(dp5598
g80
g81
ssg69
g5592
sg62
(lp5599
g3478
asbag55
(g76
g57
NtRp5600
(dp5601
g60
(dp5602
g87
g88
ssg69
g5592
sg62
(lp5603
S':'
asbag55
(g76
g57
NtRp5604
(dp5605
g60
(dp5606
sg69
g5592
sg62
(lp5607
g55
(g56
g57
NtRp5608
(dp5609
g60
(dp5610
g68
I5
ssg69
g5604
sg62
(lp5611
S'Grammateus3'
p5612
asbasbasbag55
(g71
g57
NtRp5613
(dp5614
g60
(dp5615
sg69
g3578
sg62
(lp5616
g55
(g76
g57
NtRp5617
(dp5618
g60
(dp5619
g80
g81
ssg69
g5613
sg62
(lp5620
g2722
asbag55
(g76
g57
NtRp5621
(dp5622
g60
(dp5623
g87
g88
ssg69
g5613
sg62
(lp5624
S':'
asbag55
(g76
g57
NtRp5625
(dp5626
g60
(dp5627
sg69
g5613
sg62
(lp5628
g55
(g56
g57
NtRp5629
(dp5630
g60
(dp5631
g68
I5
ssg69
g5625
sg62
(lp5632
g2735
asbasbasbag55
(g71
g57
NtRp5633
(dp5634
g60
(dp5635
sg69
g3578
sg62
(lp5636
g55
(g76
g57
NtRp5637
(dp5638
g60
(dp5639
g80
g81
ssg69
g5633
sg62
(lp5640
S'view'
p5641
asbag55
(g76
g57
NtRp5642
(dp5643
g60
(dp5644
g87
g88
ssg69
g5633
sg62
(lp5645
S':'
asbag55
(g76
g57
NtRp5646
(dp5647
g60
(dp5648
sg69
g5633
sg62
(lp5649
g55
(g56
g57
NtRp5650
(dp5651
g60
(dp5652
g68
I5
ssg69
g5646
sg62
(lp5653
S'docs/text.html'
p5654
asbasbasbasbasbsS'locals'
p5655
(dp5656
S'self'
p5657
S'<Element book>'
p5658
sS'base'
p5659
S"<type 'lxml.etree._Element'>"
p5660
sS'proto'
p5661
S'0'
sssS'traceback'
p5662
S'Traceback (most recent call last):\n  File "/home/iscott/web/web2py/gluon/main.py", line 523, in wsgibase\n    session._try_store_on_disk(request, response)\n  File "/home/iscott/web/web2py/gluon/globals.py", line 591, in _try_store_on_disk\n    cPickle.dump(dict(self), response.session_file)\n  File "/usr/lib/python2.7/copy_reg.py", line 70, in _reduce_ex\n    raise TypeError, "can\'t pickle %s objects" % base.__name__\nTypeError: can\'t pickle _Element objects\n'
p5663
s.